
========================================================================

** ELF Header Information

    File Name: /design01/rcarv3ufed_master/common_rvc/rcarv3u/VNET1/MASTER_TM/I2C_V3U_RTL/ct/i2c0/full_check_common/debug/image.elf

    Machine class: ELFCLASS32 (32-bit)
    Data encoding: ELFDATA2LSB (Little endian)
    Header version: EV_CURRENT (Current version)
    Operating System ABI: none
    ABI Version: 0
    File Type: ET_EXEC (Executable) (2)
    Machine: EM_ARM (ARM)

    Image Entry point: 0x00000000
    Flags: EF_ARM_HASENTRY (0x05000002)

    ARM ELF revision: 5 (ABI version 2)

    Conforms to Base float procedure-call standard

    Built with
    Component: ARM Compiler 6.9 Tool: armasm [5ced1b00]
    Component: ARM Compiler 6.9 Tool: armlink [5ced1b00]

    Header size: 52 bytes (0x34)
    Program header entry size: 32 bytes (0x20)
    Section header entry size: 40 bytes (0x28)

    Program header entries: 2
    Section header entries: 12

    Program header offset: 30644 (0x000077b4)
    Section header offset: 30708 (0x000077f4)

    Section header string table index: 11

========================================================================

** Program header #0

    Type          : PT_LOAD (1)
    File Offset   : 52 (0x34)
    Virtual Addr  : 0x00000000
    Physical Addr : 0x00000000
    Size in file  : 5116 bytes (0x13fc)
    Size in memory: 5116 bytes (0x13fc)
    Flags         : PF_X + PF_R + PF_ARM_ENTRY (0x80000005)
    Alignment     : 4


====================================

** Program header #1

    Type          : PT_LOAD (1)
    File Offset   : 5168 (0x1430)
    Virtual Addr  : 0x40000000
    Physical Addr : 0x40000000
    Size in file  : 12984 bytes (0x32b8)
    Size in memory: 15200 bytes (0x3b60)
    Flags         : PF_X + PF_W + PF_R (0x7)
    Alignment     : 4


========================================================================

** Section #1

    Name        : ER00
    Type        : SHT_PROGBITS (0x00000001)
    Flags       : SHF_ALLOC + SHF_EXECINSTR (0x00000006)
    Addr        : 0x00000000
    File Offset : 52 (0x34)
    Size        : 5116 bytes (0x13fc)
    Link        : SHN_UNDEF
    Info        : 0
    Alignment   : 4
    Entry Size  : 0

    $a
    STARTUP
    $v0
        0x00000000:    ea00001a    ....    B        Reset_Handler ; 0x70
        0x00000004:    ea000005    ....    B        0x20 ; 0x20
        0x00000008:    ea000008    ....    B        0x30 ; 0x30
        0x0000000c:    ea00000b    ....    B        0x40 ; 0x40
        0x00000010:    ea00000e    ....    B        0x50 ; 0x50
        0x00000014:    e320f000    .. .    NOP      
        0x00000018:    ea000010    ....    B        0x60 ; 0x60
        0x0000001c:    eafffffe    ....    B        0x1c ; 0x1c
        0x00000020:    e92d5c0f    .\-.    PUSH     {r0-r3,r10-r12,lr}
        0x00000024:    eb0004e4    ....    BL       $Ven$AA$L$$UndefinedInstruction_Handler ; 0x13bc
        0x00000028:    e8bd5c0f    .\..    POP      {r0-r3,r10-r12,lr}
        0x0000002c:    e160006e    n.`.    ERET     
        0x00000030:    e92d5c0f    .\-.    PUSH     {r0-r3,r10-r12,lr}
        0x00000034:    eb0004e2    ....    BL       $Ven$AA$L$$SupervisorCall_Handler ; 0x13c4
        0x00000038:    e8bd5c0f    .\..    POP      {r0-r3,r10-r12,lr}
        0x0000003c:    e160006e    n.`.    ERET     
        0x00000040:    e92d5c0f    .\-.    PUSH     {r0-r3,r10-r12,lr}
        0x00000044:    eb0004e0    ....    BL       $Ven$AA$L$$PrefetchAbort_Handler ; 0x13cc
        0x00000048:    e8bd5c0f    .\..    POP      {r0-r3,r10-r12,lr}
        0x0000004c:    e160006e    n.`.    ERET     
        0x00000050:    e92d5c0f    .\-.    PUSH     {r0-r3,r10-r12,lr}
        0x00000054:    eb0004de    ....    BL       $Ven$AA$L$$DataAbort_Handler ; 0x13d4
        0x00000058:    e8bd5c0f    .\..    POP      {r0-r3,r10-r12,lr}
        0x0000005c:    e160006e    n.`.    ERET     
        0x00000060:    e92d5c0f    .\-.    PUSH     {r0-r3,r10-r12,lr}
        0x00000064:    eb0004dc    ....    BL       $Ven$AA$L$$IRQ_Handler ; 0x13dc
        0x00000068:    e8bd5c0f    .\..    POP      {r0-r3,r10-r12,lr}
        0x0000006c:    e160006e    n.`.    ERET     
    Reset_Handler
        0x00000070:    eb00045c    \...    BL       __mpu_init ; 0x11e8
        0x00000074:    e3a0060f    ....    MOV      r0,#0xf00000
        0x00000078:    ee010f50    P...    MCR      p15,#0x0,r0,c1,c0,#2
        0x0000007c:    e3a03000    .0..    MOV      r3,#0
        0x00000080:    e3443000    .0D.    MOVT     r3,#0x4000
        0x00000084:    eee83a10    .:..    VMSR     FPEXC,r3
        0x00000088:    e59f0cc0    ....    LDR      r0,[pc,#3264] ; [0xd50] = 0x40000000
        0x0000008c:    ee8c0f10    ....    MCR      p15,#0x4,r0,c12,c0,#0
        0x00000090:    ee0c0f10    ....    MCR      p15,#0x0,r0,c12,c0,#0
        0x00000094:    e3a00000    ....    MOV      r0,#0
        0x00000098:    e34e0730    0.N.    MOVT     r0,#0xe730
        0x0000009c:    e59f1cb0    ....    LDR      r1,[pc,#3248] ; [0xd54] = 0x134
        0x000000a0:    e5801000    ....    STR      r1,[r0,#0]
        0x000000a4:    e3a01000    ....    MOV      r1,#0
        0x000000a8:    e34e1630    0.N.    MOVT     r1,#0xe630
        0x000000ac:    e59f2ca0    .,..    LDR      r2,[pc,#3232] ; [0xd54] = 0x134
        0x000000b0:    e0811002    ....    ADD      r1,r1,r2
        0x000000b4:    e5801004    ....    STR      r1,[r0,#4]
        0x000000b8:    e59f1c98    ....    LDR      r1,[pc,#3224] ; [0xd58] = 0x1174
        0x000000bc:    e59f2c90    .,..    LDR      r2,[pc,#3216] ; [0xd54] = 0x134
        0x000000c0:    e0411002    ..A.    SUB      r1,r1,r2
        0x000000c4:    e1a01321    !...    LSR      r1,r1,#6
        0x000000c8:    e2811001    ....    ADD      r1,r1,#1
        0x000000cc:    e5801008    ....    STR      r1,[r0,#8]
        0x000000d0:    e3051409    ....    MOV      r1,#0x5409
        0x000000d4:    e3401010    ..@.    MOVT     r1,#0x10
        0x000000d8:    e580100c    ....    STR      r1,[r0,#0xc]
        0x000000dc:    e3a00000    ....    MOV      r0,#0
        0x000000e0:    e34e0735    5.N.    MOVT     r0,#0xe735
        0x000000e4:    e3a01001    ....    MOV      r1,#1
        0x000000e8:    e5801060    `...    STR      r1,[r0,#0x60]
        0x000000ec:    e3a00000    ....    MOV      r0,#0
        0x000000f0:    e34e0730    0.N.    MOVT     r0,#0xe730
        0x000000f4:    e5903008    .0..    LDR      r3,[r0,#8]
        0x000000f8:    e590100c    ....    LDR      r1,[r0,#0xc]
        0x000000fc:    e3a02002    . ..    MOV      r2,#2
        0x00000100:    e0011002    ....    AND      r1,r1,r2
        0x00000104:    e1510002    ..Q.    CMP      r1,r2
        0x00000108:    1afffff9    ....    BNE      0xf4 ; Reset_Handler + 132
        0x0000010c:    e3a02003    . ..    MOV      r2,#3
        0x00000110:    e1e02002    . ..    MVN      r2,r2
        0x00000114:    e0011002    ....    AND      r1,r1,r2
        0x00000118:    e580100c    ....    STR      r1,[r0,#0xc]
        0x0000011c:    e3a00000    ....    MOV      r0,#0
        0x00000120:    e34e0735    5.N.    MOVT     r0,#0xe735
        0x00000124:    e3a01000    ....    MOV      r1,#0
        0x00000128:    e5801060    `...    STR      r1,[r0,#0x60]
        0x0000012c:    e59f0c28    (...    LDR      r0,[pc,#3112] ; [0xd5c] = 0xe6300134
        0x00000130:    e1a0f000    ....    MOV      pc,r0
    __ddr_init_start
        0x00000134:    e59f0c2c    ,...    LDR      r0,[pc,#3116] ; [0xd68] = 0xe6152e10
        0x00000138:    e5901000    ....    LDR      r1,[r0,#0]
        0x0000013c:    e3c11018    ....    BIC      r1,r1,#0x18
        0x00000140:    e1e02001    . ..    MVN      r2,r1
        0x00000144:    e59f0c20     ...    LDR      r0,[pc,#3104] ; [0xd6c] = 0xe6150000
        0x00000148:    e5802000    . ..    STR      r2,[r0,#0]
        0x0000014c:    e59f0c1c    ....    LDR      r0,[pc,#3100] ; [0xd70] = 0xe6152d10
        0x00000150:    e5801000    ....    STR      r1,[r0,#0]
        0x00000154:    e59f0c0c    ....    LDR      r0,[pc,#3084] ; [0xd68] = 0xe6152e10
        0x00000158:    e5901000    ....    LDR      r1,[r0,#0]
        0x0000015c:    e3a00010    ....    MOV      r0,#0x10
        0x00000160:    e2400001    ..@.    SUB      r0,r0,#1
        0x00000164:    e3500000    ..P.    CMP      r0,#0
        0x00000168:    1afffffc    ....    BNE      0x160 ; __ddr_init_start + 44
        0x0000016c:    ea00000c    ....    B        0x1a4 ; __ddr_init_start + 112
        0x00000170:    e320f000    .. .    NOP      
        0x00000174:    e3034fff    .O..    MOV      r4,#0x3fff
        0x00000178:    e0011004    ....    AND      r1,r1,r4
        0x0000017c:    e5821000    ....    STR      r1,[r2,#0]
        0x00000180:    e5830000    ....    STR      r0,[r3,#0]
        0x00000184:    e5920000    ....    LDR      r0,[r2,#0]
        0x00000188:    e3a04902    .I..    MOV      r4,#0x8000
        0x0000018c:    e0000004    ....    AND      r0,r0,r4
        0x00000190:    e1500004    ..P.    CMP      r0,r4
        0x00000194:    1afffffa    ....    BNE      0x184 ; __ddr_init_start + 80
        0x00000198:    e1811004    ....    ORR      r1,r1,r4
        0x0000019c:    e5821000    ....    STR      r1,[r2,#0]
        0x000001a0:    e12fff1e    ../.    BX       lr
        0x000001a4:    e3010234    4...    MOV      r0,#0x1234
        0x000001a8:    e59f1bc4    ....    LDR      r1,[pc,#3012] ; [0xd74] = 0xe6790100
        0x000001ac:    e5810000    ....    STR      r0,[r1,#0]
        0x000001b0:    e3010234    4...    MOV      r0,#0x1234
        0x000001b4:    e59f1bbc    ....    LDR      r1,[pc,#3004] ; [0xd78] = 0xe6790108
        0x000001b8:    e5810000    ....    STR      r0,[r1,#0]
        0x000001bc:    e3a0000a    ....    MOV      r0,#0xa
        0x000001c0:    e59f1bb4    ....    LDR      r1,[pc,#2996] ; [0xd7c] = 0xe6790020
        0x000001c4:    e5810000    ....    STR      r0,[r1,#0]
        0x000001c8:    e3a0000a    ....    MOV      r0,#0xa
        0x000001cc:    e59f1bac    ....    LDR      r1,[pc,#2988] ; [0xd80] = 0xe6790024
        0x000001d0:    e5810000    ....    STR      r0,[r1,#0]
        0x000001d4:    e59f0ba8    ....    LDR      r0,[pc,#2984] ; [0xd84] = 0xe030a01
        0x000001d8:    e59f1ba8    ....    LDR      r1,[pc,#2984] ; [0xd88] = 0xe6790030
        0x000001dc:    e5810000    ....    STR      r0,[r1,#0]
        0x000001e0:    e59f0b9c    ....    LDR      r0,[pc,#2972] ; [0xd84] = 0xe030a01
        0x000001e4:    e59f1ba0    ....    LDR      r1,[pc,#2976] ; [0xd8c] = 0xe6790070
        0x000001e8:    e5810000    ....    STR      r0,[r1,#0]
        0x000001ec:    e59f0b90    ....    LDR      r0,[pc,#2960] ; [0xd84] = 0xe030a01
        0x000001f0:    e59f1b98    ....    LDR      r1,[pc,#2968] ; [0xd90] = 0xe6790034
        0x000001f4:    e5810000    ....    STR      r0,[r1,#0]
        0x000001f8:    e59f0b84    ....    LDR      r0,[pc,#2948] ; [0xd84] = 0xe030a01
        0x000001fc:    e59f1b90    ....    LDR      r1,[pc,#2960] ; [0xd94] = 0xe6790074
        0x00000200:    e5810000    ....    STR      r0,[r1,#0]
        0x00000204:    e59f0b78    x...    LDR      r0,[pc,#2936] ; [0xd84] = 0xe030a01
        0x00000208:    e59f1b88    ....    LDR      r1,[pc,#2952] ; [0xd98] = 0xe6790040
        0x0000020c:    e5810000    ....    STR      r0,[r1,#0]
        0x00000210:    e59f0b6c    l...    LDR      r0,[pc,#2924] ; [0xd84] = 0xe030a01
        0x00000214:    e59f1b80    ....    LDR      r1,[pc,#2944] ; [0xd9c] = 0xe6790080
        0x00000218:    e5810000    ....    STR      r0,[r1,#0]
        0x0000021c:    e59f0b60    `...    LDR      r0,[pc,#2912] ; [0xd84] = 0xe030a01
        0x00000220:    e59f1b78    x...    LDR      r1,[pc,#2936] ; [0xda0] = 0xe6790044
        0x00000224:    e5810000    ....    STR      r0,[r1,#0]
        0x00000228:    e59f0b54    T...    LDR      r0,[pc,#2900] ; [0xd84] = 0xe030a01
        0x0000022c:    e59f1b70    p...    LDR      r1,[pc,#2928] ; [0xda4] = 0xe6790084
        0x00000230:    e5810000    ....    STR      r0,[r1,#0]
        0x00000234:    e59f0b48    H...    LDR      r0,[pc,#2888] ; [0xd84] = 0xe030a01
        0x00000238:    e59f1b68    h...    LDR      r1,[pc,#2920] ; [0xda8] = 0xe6790050
        0x0000023c:    e5810000    ....    STR      r0,[r1,#0]
        0x00000240:    e59f0b3c    <...    LDR      r0,[pc,#2876] ; [0xd84] = 0xe030a01
        0x00000244:    e59f1b60    `...    LDR      r1,[pc,#2912] ; [0xdac] = 0xe6790090
        0x00000248:    e5810000    ....    STR      r0,[r1,#0]
        0x0000024c:    e59f0b30    0...    LDR      r0,[pc,#2864] ; [0xd84] = 0xe030a01
        0x00000250:    e59f1b58    X...    LDR      r1,[pc,#2904] ; [0xdb0] = 0xe6790054
        0x00000254:    e5810000    ....    STR      r0,[r1,#0]
        0x00000258:    e59f0b24    $...    LDR      r0,[pc,#2852] ; [0xd84] = 0xe030a01
        0x0000025c:    e59f1b50    P...    LDR      r1,[pc,#2896] ; [0xdb4] = 0xe6790094
        0x00000260:    e5810000    ....    STR      r0,[r1,#0]
        0x00000264:    e59f0b18    ....    LDR      r0,[pc,#2840] ; [0xd84] = 0xe030a01
        0x00000268:    e59f1b48    H...    LDR      r1,[pc,#2888] ; [0xdb8] = 0xe6790060
        0x0000026c:    e5810000    ....    STR      r0,[r1,#0]
        0x00000270:    e59f0b0c    ....    LDR      r0,[pc,#2828] ; [0xd84] = 0xe030a01
        0x00000274:    e59f1b40    @...    LDR      r1,[pc,#2880] ; [0xdbc] = 0xe67900a0
        0x00000278:    e5810000    ....    STR      r0,[r1,#0]
        0x0000027c:    e59f0b00    ....    LDR      r0,[pc,#2816] ; [0xd84] = 0xe030a01
        0x00000280:    e59f1b38    8...    LDR      r1,[pc,#2872] ; [0xdc0] = 0xe6790064
        0x00000284:    e5810000    ....    STR      r0,[r1,#0]
        0x00000288:    e59f0af4    ....    LDR      r0,[pc,#2804] ; [0xd84] = 0xe030a01
        0x0000028c:    e59f1b30    0...    LDR      r1,[pc,#2864] ; [0xdc4] = 0xe67900a4
        0x00000290:    e5810000    ....    STR      r0,[r1,#0]
        0x00000294:    e3a00000    ....    MOV      r0,#0
        0x00000298:    e59f1b28    (...    LDR      r1,[pc,#2856] ; [0xdc8] = 0xe6790104
        0x0000029c:    e5810000    ....    STR      r0,[r1,#0]
        0x000002a0:    e3a00001    ....    MOV      r0,#1
        0x000002a4:    e59f1b20     ...    LDR      r1,[pc,#2848] ; [0xdcc] = 0xe6790010
        0x000002a8:    e5810000    ....    STR      r0,[r1,#0]
        0x000002ac:    e3a00028    (...    MOV      r0,#0x28
        0x000002b0:    e59f1b18    ....    LDR      r1,[pc,#2840] ; [0xdd0] = 0xe6790300
        0x000002b4:    e5810000    ....    STR      r0,[r1,#0]
        0x000002b8:    e3a00012    ....    MOV      r0,#0x12
        0x000002bc:    e59f1b10    ....    LDR      r1,[pc,#2832] ; [0xdd4] = 0xe6790304
        0x000002c0:    e5810000    ....    STR      r0,[r1,#0]
        0x000002c4:    e3a00027    '...    MOV      r0,#0x27
        0x000002c8:    e59f1b08    ....    LDR      r1,[pc,#2824] ; [0xdd8] = 0xe679030c
        0x000002cc:    e5810000    ....    STR      r0,[r1,#0]
        0x000002d0:    e59f0b04    ....    LDR      r0,[pc,#2820] ; [0xddc] = 0x2d0027
        0x000002d4:    e59f1b04    ....    LDR      r1,[pc,#2820] ; [0xde0] = 0xe6790310
        0x000002d8:    e5810000    ....    STR      r0,[r1,#0]
        0x000002dc:    e3a00087    ....    MOV      r0,#0x87
        0x000002e0:    e59f1afc    ....    LDR      r1,[pc,#2812] ; [0xde4] = 0xe6790314
        0x000002e4:    e5810000    ....    STR      r0,[r1,#0]
        0x000002e8:    e3a0005a    Z...    MOV      r0,#0x5a
        0x000002ec:    e59f1af4    ....    LDR      r1,[pc,#2804] ; [0xde8] = 0xe6790318
        0x000002f0:    e5810000    ....    STR      r0,[r1,#0]
        0x000002f4:    e59f0af0    ....    LDR      r0,[pc,#2800] ; [0xdec] = 0x100010
        0x000002f8:    e59f1af0    ....    LDR      r1,[pc,#2800] ; [0xdf0] = 0xe679031c
        0x000002fc:    e5810000    ....    STR      r0,[r1,#0]
        0x00000300:    e3a00040    @...    MOV      r0,#0x40
        0x00000304:    e59f1ae8    ....    LDR      r1,[pc,#2792] ; [0xdf4] = 0xe6790320
        0x00000308:    e5810000    ....    STR      r0,[r1,#0]
        0x0000030c:    e3a00010    ....    MOV      r0,#0x10
        0x00000310:    e59f1ae0    ....    LDR      r1,[pc,#2784] ; [0xdf8] = 0xe6790324
        0x00000314:    e5810000    ....    STR      r0,[r1,#0]
        0x00000318:    e3a00029    )...    MOV      r0,#0x29
        0x0000031c:    e59f1ad8    ....    LDR      r1,[pc,#2776] ; [0xdfc] = 0xe6790328
        0x00000320:    e5810000    ....    STR      r0,[r1,#0]
        0x00000324:    e3a00029    )...    MOV      r0,#0x29
        0x00000328:    e59f1ad0    ....    LDR      r1,[pc,#2768] ; [0xe00] = 0xe679032c
        0x0000032c:    e5810000    ....    STR      r0,[r1,#0]
        0x00000330:    e59f0acc    ....    LDR      r0,[pc,#2764] ; [0xe04] = 0x310031
        0x00000334:    e59f1acc    ....    LDR      r1,[pc,#2764] ; [0xe08] = 0xe6790330
        0x00000338:    e5810000    ....    STR      r0,[r1,#0]
        0x0000033c:    e3000116    ....    MOVW     r0,#0x116
        0x00000340:    e59f1ac4    ....    LDR      r1,[pc,#2756] ; [0xe0c] = 0xe6790334
        0x00000344:    e5810000    ....    STR      r0,[r1,#0]
        0x00000348:    e59f0ac0    ....    LDR      r0,[pc,#2752] ; [0xe10] = 0x130013
        0x0000034c:    e59f1ac0    ....    LDR      r1,[pc,#2752] ; [0xe14] = 0xe6790338
        0x00000350:    e5810000    ....    STR      r0,[r1,#0]
        0x00000354:    e59f0abc    ....    LDR      r0,[pc,#2748] ; [0xe18] = 0x200010
        0x00000358:    e59f1abc    ....    LDR      r1,[pc,#2748] ; [0xe1c] = 0xe679033c
        0x0000035c:    e5810000    ....    STR      r0,[r1,#0]
        0x00000360:    e59f0ab8    ....    LDR      r0,[pc,#2744] ; [0xe20] = 0xd400a0e
        0x00000364:    e59f1ab8    ....    LDR      r1,[pc,#2744] ; [0xe24] = 0xe6790340
        0x00000368:    e5810000    ....    STR      r0,[r1,#0]
        0x0000036c:    e59f0ab4    ....    LDR      r0,[pc,#2740] ; [0xe28] = 0x81e0000
        0x00000370:    e59f1ab4    ....    LDR      r1,[pc,#2740] ; [0xe2c] = 0xe6790344
        0x00000374:    e5810000    ....    STR      r0,[r1,#0]
        0x00000378:    e59f0ab0    ....    LDR      r0,[pc,#2736] ; [0xe30] = 0x1290129
        0x0000037c:    e59f1ab0    ....    LDR      r1,[pc,#2736] ; [0xe34] = 0xe6790350
        0x00000380:    e5810000    ....    STR      r0,[r1,#0]
        0x00000384:    e59f0aac    ....    LDR      r0,[pc,#2732] ; [0xe38] = 0x80008
        0x00000388:    e59f1aac    ....    LDR      r1,[pc,#2732] ; [0xe3c] = 0xe6790354
        0x0000038c:    e5810000    ....    STR      r0,[r1,#0]
        0x00000390:    e59f0aa8    ....    LDR      r0,[pc,#2728] ; [0xe40] = 0x8550040
        0x00000394:    e59f1aa8    ....    LDR      r1,[pc,#2728] ; [0xe44] = 0xe6790358
        0x00000398:    e5810000    ....    STR      r0,[r1,#0]
        0x0000039c:    e3a00003    ....    MOV      r0,#3
        0x000003a0:    e59f1aa0    ....    LDR      r1,[pc,#2720] ; [0xe48] = 0xe679035c
        0x000003a4:    e5810000    ....    STR      r0,[r1,#0]
        0x000003a8:    e3a00002    ....    MOV      r0,#2
        0x000003ac:    e59f1a98    ....    LDR      r1,[pc,#2712] ; [0xe4c] = 0xe6790400
        0x000003b0:    e5810000    ....    STR      r0,[r1,#0]
        0x000003b4:    e3a00002    ....    MOV      r0,#2
        0x000003b8:    e59f1a90    ....    LDR      r1,[pc,#2704] ; [0xe50] = 0xe6790404
        0x000003bc:    e5810000    ....    STR      r0,[r1,#0]
        0x000003c0:    e3040444    D...    MOV      r0,#0x4444
        0x000003c4:    e59f1a88    ....    LDR      r1,[pc,#2696] ; [0xe54] = 0xe6790438
        0x000003c8:    e5810000    ....    STR      r0,[r1,#0]
        0x000003cc:    e3040444    D...    MOV      r0,#0x4444
        0x000003d0:    e59f1a80    ....    LDR      r1,[pc,#2688] ; [0xe58] = 0xe679043c
        0x000003d4:    e5810000    ....    STR      r0,[r1,#0]
        0x000003d8:    e3040444    D...    MOV      r0,#0x4444
        0x000003dc:    e59f1a78    x...    LDR      r1,[pc,#2680] ; [0xe5c] = 0xe6790440
        0x000003e0:    e5810000    ....    STR      r0,[r1,#0]
        0x000003e4:    e3040444    D...    MOV      r0,#0x4444
        0x000003e8:    e59f1a70    p...    LDR      r1,[pc,#2672] ; [0xe60] = 0xe6790444
        0x000003ec:    e5810000    ....    STR      r0,[r1,#0]
        0x000003f0:    e59f0a6c    l...    LDR      r0,[pc,#2668] ; [0xe64] = 0x104214
        0x000003f4:    e59f1a6c    l...    LDR      r1,[pc,#2668] ; [0xe68] = 0xe6790904
        0x000003f8:    e5810000    ....    STR      r0,[r1,#0]
        0x000003fc:    e3a00f71    q...    MOV      r0,#0x1c4
        0x00000400:    e59f1a64    d...    LDR      r1,[pc,#2660] ; [0xe6c] = 0xe6790908
        0x00000404:    e5810000    ....    STR      r0,[r1,#0]
        0x00000408:    e3a00003    ....    MOV      r0,#3
        0x0000040c:    e59f1a5c    \...    LDR      r1,[pc,#2652] ; [0xe70] = 0xe679090c
        0x00000410:    e5810000    ....    STR      r0,[r1,#0]
        0x00000414:    e59f0a58    X...    LDR      r0,[pc,#2648] ; [0xe74] = 0xf0037
        0x00000418:    e59f1a58    X...    LDR      r1,[pc,#2648] ; [0xe78] = 0xe6791000
        0x0000041c:    e5810000    ....    STR      r0,[r1,#0]
        0x00000420:    e3010010    ....    MOV      r0,#0x1010
        0x00000424:    e59f1a50    P...    LDR      r1,[pc,#2640] ; [0xe7c] = 0xe6791004
        0x00000428:    e5810000    ....    STR      r0,[r1,#0]
        0x0000042c:    e3a00001    ....    MOV      r0,#1
        0x00000430:    e59f1a48    H...    LDR      r1,[pc,#2632] ; [0xe80] = 0xe6791010
        0x00000434:    e5810000    ....    STR      r0,[r1,#0]
        0x00000438:    e59f0a44    D...    LDR      r0,[pc,#2628] ; [0xe84] = 0xf7311111
        0x0000043c:    e59f1a44    D...    LDR      r1,[pc,#2628] ; [0xe88] = 0xe6791020
        0x00000440:    e5810000    ....    STR      r0,[r1,#0]
        0x00000444:    e3010834    4...    MOV      r0,#0x1834
        0x00000448:    e59f1a3c    <...    LDR      r1,[pc,#2620] ; [0xe8c] = 0xe6791024
        0x0000044c:    e5810000    ....    STR      r0,[r1,#0]
        0x00000450:    e3e00000    ....    MVN      r0,#0
        0x00000454:    e59f1a34    4...    LDR      r1,[pc,#2612] ; [0xe90] = 0xe6791030
        0x00000458:    e5810000    ....    STR      r0,[r1,#0]
        0x0000045c:    e3a00d12    ....    MOV      r0,#0x480
        0x00000460:    e59f1a2c    ,...    LDR      r1,[pc,#2604] ; [0xe94] = 0xe6791034
        0x00000464:    e5810000    ....    STR      r0,[r1,#0]
        0x00000468:    e3a00c03    ....    MOV      r0,#0x300
        0x0000046c:    e59f1a24    $...    LDR      r1,[pc,#2596] ; [0xe98] = 0xe6791038
        0x00000470:    e5810000    ....    STR      r0,[r1,#0]
        0x00000474:    e3a00d06    ....    MOV      r0,#0x180
        0x00000478:    e59f1a1c    ....    LDR      r1,[pc,#2588] ; [0xe9c] = 0xe679103c
        0x0000047c:    e5810000    ....    STR      r0,[r1,#0]
        0x00000480:    e3a00c06    ....    MOV      r0,#0x600
        0x00000484:    e59f1a14    ....    LDR      r1,[pc,#2580] ; [0xea0] = 0xe6791070
        0x00000488:    e5810000    ....    STR      r0,[r1,#0]
        0x0000048c:    e3a00d12    ....    MOV      r0,#0x480
        0x00000490:    e59f1a0c    ....    LDR      r1,[pc,#2572] ; [0xea4] = 0xe6791074
        0x00000494:    e5810000    ....    STR      r0,[r1,#0]
        0x00000498:    e3a00c03    ....    MOV      r0,#0x300
        0x0000049c:    e59f1a04    ....    LDR      r1,[pc,#2564] ; [0xea8] = 0xe6791078
        0x000004a0:    e5810000    ....    STR      r0,[r1,#0]
        0x000004a4:    e3a00d06    ....    MOV      r0,#0x180
        0x000004a8:    e59f19fc    ....    LDR      r1,[pc,#2556] ; [0xeac] = 0xe679107c
        0x000004ac:    e5810000    ....    STR      r0,[r1,#0]
        0x000004b0:    e3a00b01    ....    MOV      r0,#0x400
        0x000004b4:    e59f19f4    ....    LDR      r1,[pc,#2548] ; [0xeb0] = 0xe67910c0
        0x000004b8:    e5810000    ....    STR      r0,[r1,#0]
        0x000004bc:    e3a00c03    ....    MOV      r0,#0x300
        0x000004c0:    e59f19ec    ....    LDR      r1,[pc,#2540] ; [0xeb4] = 0xe67910c4
        0x000004c4:    e5810000    ....    STR      r0,[r1,#0]
        0x000004c8:    e3a00c02    ....    MOV      r0,#0x200
        0x000004cc:    e59f19e4    ....    LDR      r1,[pc,#2532] ; [0xeb8] = 0xe67910c8
        0x000004d0:    e5810000    ....    STR      r0,[r1,#0]
        0x000004d4:    e3a00c01    ....    MOV      r0,#0x100
        0x000004d8:    e59f19dc    ....    LDR      r1,[pc,#2524] ; [0xebc] = 0xe67910cc
        0x000004dc:    e5810000    ....    STR      r0,[r1,#0]
        0x000004e0:    e3a00c03    ....    MOV      r0,#0x300
        0x000004e4:    e59f19d4    ....    LDR      r1,[pc,#2516] ; [0xec0] = 0xe6791100
        0x000004e8:    e5810000    ....    STR      r0,[r1,#0]
        0x000004ec:    e3a00d09    ....    MOV      r0,#0x240
        0x000004f0:    e59f19cc    ....    LDR      r1,[pc,#2508] ; [0xec4] = 0xe6791104
        0x000004f4:    e5810000    ....    STR      r0,[r1,#0]
        0x000004f8:    e3a00d06    ....    MOV      r0,#0x180
        0x000004fc:    e59f19c4    ....    LDR      r1,[pc,#2500] ; [0xec8] = 0xe6791108
        0x00000500:    e5810000    ....    STR      r0,[r1,#0]
        0x00000504:    e3a000c0    ....    MOV      r0,#0xc0
        0x00000508:    e59f19bc    ....    LDR      r1,[pc,#2492] ; [0xecc] = 0xe679110c
        0x0000050c:    e5810000    ....    STR      r0,[r1,#0]
        0x00000510:    e3a00c02    ....    MOV      r0,#0x200
        0x00000514:    e59f19b4    ....    LDR      r1,[pc,#2484] ; [0xed0] = 0xe6791110
        0x00000518:    e5810000    ....    STR      r0,[r1,#0]
        0x0000051c:    e3a00d06    ....    MOV      r0,#0x180
        0x00000520:    e59f19ac    ....    LDR      r1,[pc,#2476] ; [0xed4] = 0xe6791114
        0x00000524:    e5810000    ....    STR      r0,[r1,#0]
        0x00000528:    e3a00c01    ....    MOV      r0,#0x100
        0x0000052c:    e59f19a4    ....    LDR      r1,[pc,#2468] ; [0xed8] = 0xe6791118
        0x00000530:    e5810000    ....    STR      r0,[r1,#0]
        0x00000534:    e3a00080    ....    MOV      r0,#0x80
        0x00000538:    e59f199c    ....    LDR      r1,[pc,#2460] ; [0xedc] = 0xe679111c
        0x0000053c:    e5810000    ....    STR      r0,[r1,#0]
        0x00000540:    e3a00c01    ....    MOV      r0,#0x100
        0x00000544:    e59f1994    ....    LDR      r1,[pc,#2452] ; [0xee0] = 0xe6791120
        0x00000548:    e5810000    ....    STR      r0,[r1,#0]
        0x0000054c:    e3a000c0    ....    MOV      r0,#0xc0
        0x00000550:    e59f198c    ....    LDR      r1,[pc,#2444] ; [0xee4] = 0xe6791124
        0x00000554:    e5810000    ....    STR      r0,[r1,#0]
        0x00000558:    e3a00080    ....    MOV      r0,#0x80
        0x0000055c:    e59f1984    ....    LDR      r1,[pc,#2436] ; [0xee8] = 0xe6791128
        0x00000560:    e5810000    ....    STR      r0,[r1,#0]
        0x00000564:    e3a00040    @...    MOV      r0,#0x40
        0x00000568:    e59f197c    |...    LDR      r1,[pc,#2428] ; [0xeec] = 0xe679112c
        0x0000056c:    e5810000    ....    STR      r0,[r1,#0]
        0x00000570:    e59f0978    x...    LDR      r0,[pc,#2424] ; [0xef0] = 0x220e110a
        0x00000574:    e59f1978    x...    LDR      r1,[pc,#2424] ; [0xef4] = 0xe6791700
        0x00000578:    e5810000    ....    STR      r0,[r1,#0]
        0x0000057c:    e59f0974    t...    LDR      r0,[pc,#2420] ; [0xef8] = 0xb0d0a0c
        0x00000580:    e59f1974    t...    LDR      r1,[pc,#2420] ; [0xefc] = 0xe6791708
        0x00000584:    e5810000    ....    STR      r0,[r1,#0]
        0x00000588:    e59f0970    p...    LDR      r0,[pc,#2416] ; [0xf00] = 0x111f1fff
        0x0000058c:    e59f1970    p...    LDR      r1,[pc,#2416] ; [0xf04] = 0xe679170c
        0x00000590:    e5810000    ....    STR      r0,[r1,#0]
        0x00000594:    e3a00001    ....    MOV      r0,#1
        0x00000598:    e59f1968    h...    LDR      r1,[pc,#2408] ; [0xf08] = 0xe6790000
        0x0000059c:    e5810000    ....    STR      r0,[r1,#0]
        0x000005a0:    e3a00002    ....    MOV      r0,#2
        0x000005a4:    e59f1960    `...    LDR      r1,[pc,#2400] ; [0xf0c] = 0xe6790004
        0x000005a8:    e5810000    ....    STR      r0,[r1,#0]
        0x000005ac:    e3a00002    ....    MOV      r0,#2
        0x000005b0:    e59f1958    X...    LDR      r1,[pc,#2392] ; [0xf10] = 0xe6790008
        0x000005b4:    e5810000    ....    STR      r0,[r1,#0]
        0x000005b8:    e3a00001    ....    MOV      r0,#1
        0x000005bc:    e59f1950    P...    LDR      r1,[pc,#2384] ; [0xf14] = 0xe679000c
        0x000005c0:    e5810000    ....    STR      r0,[r1,#0]
        0x000005c4:    e3a00041    A...    MOV      r0,#0x41
        0x000005c8:    e59f1948    H...    LDR      r1,[pc,#2376] ; [0xf18] = 0xe6790014
        0x000005cc:    e5810000    ....    STR      r0,[r1,#0]
        0x000005d0:    e3a00011    ....    MOV      r0,#0x11
        0x000005d4:    e59f1940    @...    LDR      r1,[pc,#2368] ; [0xf1c] = 0xe6790604
        0x000005d8:    e5810000    ....    STR      r0,[r1,#0]
        0x000005dc:    e3a00011    ....    MOV      r0,#0x11
        0x000005e0:    e59f1938    8...    LDR      r1,[pc,#2360] ; [0xf20] = 0xe6790644
        0x000005e4:    e5810000    ....    STR      r0,[r1,#0]
        0x000005e8:    e3a00011    ....    MOV      r0,#0x11
        0x000005ec:    e59f1930    0...    LDR      r1,[pc,#2352] ; [0xf24] = 0xe6790684
        0x000005f0:    e5810000    ....    STR      r0,[r1,#0]
        0x000005f4:    e3a00011    ....    MOV      r0,#0x11
        0x000005f8:    e59f1928    (...    LDR      r1,[pc,#2344] ; [0xf28] = 0xe67906c4
        0x000005fc:    e5810000    ....    STR      r0,[r1,#0]
        0x00000600:    e30c0f01    ....    MOV      r0,#0xcf01
        0x00000604:    e59f1920     ...    LDR      r1,[pc,#2336] ; [0xf2c] = 0xe679061c
        0x00000608:    e5810000    ....    STR      r0,[r1,#0]
        0x0000060c:    e30c0f01    ....    MOV      r0,#0xcf01
        0x00000610:    e59f1918    ....    LDR      r1,[pc,#2328] ; [0xf30] = 0xe679065c
        0x00000614:    e5810000    ....    STR      r0,[r1,#0]
        0x00000618:    e30c0f01    ....    MOV      r0,#0xcf01
        0x0000061c:    e59f1910    ....    LDR      r1,[pc,#2320] ; [0xf34] = 0xe679069c
        0x00000620:    e5810000    ....    STR      r0,[r1,#0]
        0x00000624:    e30c0f01    ....    MOV      r0,#0xcf01
        0x00000628:    e59f1908    ....    LDR      r1,[pc,#2312] ; [0xf38] = 0xe67906dc
        0x0000062c:    e5810000    ....    STR      r0,[r1,#0]
        0x00000630:    e3a06001    .`..    MOV      r6,#1
        0x00000634:    e59f0900    ....    LDR      r0,[pc,#2304] ; [0xf3c] = 0xe6790600
        0x00000638:    e5907000    .p..    LDR      r7,[r0,#0]
        0x0000063c:    e0067007    .p..    AND      r7,r6,r7
        0x00000640:    e1560007    ..V.    CMP      r6,r7
        0x00000644:    1afffffa    ....    BNE      0x634 ; __ddr_init_start + 1280
        0x00000648:    e59f08f0    ....    LDR      r0,[pc,#2288] ; [0xf40] = 0xe6790640
        0x0000064c:    e5907000    .p..    LDR      r7,[r0,#0]
        0x00000650:    e0067007    .p..    AND      r7,r6,r7
        0x00000654:    e1560007    ..V.    CMP      r6,r7
        0x00000658:    1afffff5    ....    BNE      0x634 ; __ddr_init_start + 1280
        0x0000065c:    e59f08e0    ....    LDR      r0,[pc,#2272] ; [0xf44] = 0xe6790680
        0x00000660:    e5907000    .p..    LDR      r7,[r0,#0]
        0x00000664:    e0067007    .p..    AND      r7,r6,r7
        0x00000668:    e1560007    ..V.    CMP      r6,r7
        0x0000066c:    1afffff0    ....    BNE      0x634 ; __ddr_init_start + 1280
        0x00000670:    e59f08d0    ....    LDR      r0,[pc,#2256] ; [0xf48] = 0xe67906c0
        0x00000674:    e5907000    .p..    LDR      r7,[r0,#0]
        0x00000678:    e0067007    .p..    AND      r7,r6,r7
        0x0000067c:    e1560007    ..V.    CMP      r6,r7
        0x00000680:    1affffeb    ....    BNE      0x634 ; __ddr_init_start + 1280
        0x00000684:    e59f087c    |...    LDR      r0,[pc,#2172] ; [0xf08] = 0xe6790000
        0x00000688:    e59f08bc    ....    LDR      r0,[pc,#2236] ; [0xf4c] = 0x8840000
        0x0000068c:    e59f18bc    ....    LDR      r1,[pc,#2236] ; [0xf50] = 0xe6790208
        0x00000690:    e5810000    ....    STR      r0,[r1,#0]
        0x00000694:    e59f08b8    ....    LDR      r0,[pc,#2232] ; [0xf54] = 0x8840001
        0x00000698:    e59f18b0    ....    LDR      r1,[pc,#2224] ; [0xf50] = 0xe6790208
        0x0000069c:    e5810000    ....    STR      r0,[r1,#0]
        0x000006a0:    e59f08b0    ....    LDR      r0,[pc,#2224] ; [0xf58] = 0x1840001
        0x000006a4:    e59f18a4    ....    LDR      r1,[pc,#2212] ; [0xf50] = 0xe6790208
        0x000006a8:    e5810000    ....    STR      r0,[r1,#0]
        0x000006ac:    e59f08a8    ....    LDR      r0,[pc,#2216] ; [0xf5c] = 0xe840aff
        0x000006b0:    e59f1898    ....    LDR      r1,[pc,#2200] ; [0xf50] = 0xe6790208
        0x000006b4:    e5810000    ....    STR      r0,[r1,#0]
        0x000006b8:    e59f08a0    ....    LDR      r0,[pc,#2208] ; [0xf60] = 0xe840154
        0x000006bc:    e59f188c    ....    LDR      r1,[pc,#2188] ; [0xf50] = 0xe6790208
        0x000006c0:    e5810000    ....    STR      r0,[r1,#0]
        0x000006c4:    e59f0898    ....    LDR      r0,[pc,#2200] ; [0xf64] = 0xe84022e
        0x000006c8:    e59f1880    ....    LDR      r1,[pc,#2176] ; [0xf50] = 0xe6790208
        0x000006cc:    e5810000    ....    STR      r0,[r1,#0]
        0x000006d0:    e59f0890    ....    LDR      r0,[pc,#2192] ; [0xf68] = 0xd84004f
        0x000006d4:    e59f1874    t...    LDR      r1,[pc,#2164] ; [0xf50] = 0xe6790208
        0x000006d8:    e5810000    ....    STR      r0,[r1,#0]
        0x000006dc:    e59f0888    ....    LDR      r0,[pc,#2184] ; [0xf6c] = 0xd840051
        0x000006e0:    e59f1868    h...    LDR      r1,[pc,#2152] ; [0xf50] = 0xe6790208
        0x000006e4:    e5810000    ....    STR      r0,[r1,#0]
        0x000006e8:    e59f0880    ....    LDR      r0,[pc,#2176] ; [0xf70] = 0x70000100
        0x000006ec:    e59f1880    ....    LDR      r1,[pc,#2176] ; [0xf74] = 0xe6790804
        0x000006f0:    e5810000    ....    STR      r0,[r1,#0]
        0x000006f4:    e59f087c    |...    LDR      r0,[pc,#2172] ; [0xf78] = 0x18010001
        0x000006f8:    e59f187c    |...    LDR      r1,[pc,#2172] ; [0xf7c] = 0xe6790800
        0x000006fc:    e5810000    ....    STR      r0,[r1,#0]
        0x00000700:    e59f0878    x...    LDR      r0,[pc,#2168] ; [0xf80] = 0x81860
        0x00000704:    e59f1878    x...    LDR      r1,[pc,#2168] ; [0xf84] = 0xe6790414
        0x00000708:    e5810000    ....    STR      r0,[r1,#0]
        0x0000070c:    e3a00801    ....    MOV      r0,#0x10000
        0x00000710:    e59f1870    p...    LDR      r1,[pc,#2160] ; [0xf88] = 0xe6790418
        0x00000714:    e5810000    ....    STR      r0,[r1,#0]
        0x00000718:    e3a00001    ....    MOV      r0,#1
        0x0000071c:    e59f1868    h...    LDR      r1,[pc,#2152] ; [0xf8c] = 0xe6790204
        0x00000720:    e5810000    ....    STR      r0,[r1,#0]
        0x00000724:    e30a055a    Z...    MOV      r0,#0xa55a
        0x00000728:    e59f1860    `...    LDR      r1,[pc,#2144] ; [0xf90] = 0xe6790620
        0x0000072c:    e5810000    ....    STR      r0,[r1,#0]
        0x00000730:    e30a055a    Z...    MOV      r0,#0xa55a
        0x00000734:    e59f1858    X...    LDR      r1,[pc,#2136] ; [0xf94] = 0xe6790660
        0x00000738:    e5810000    ....    STR      r0,[r1,#0]
        0x0000073c:    e30a055a    Z...    MOV      r0,#0xa55a
        0x00000740:    e59f1850    P...    LDR      r1,[pc,#2128] ; [0xf98] = 0xe67906a0
        0x00000744:    e5810000    ....    STR      r0,[r1,#0]
        0x00000748:    e30a055a    Z...    MOV      r0,#0xa55a
        0x0000074c:    e59f1848    H...    LDR      r1,[pc,#2120] ; [0xf9c] = 0xe67906e0
        0x00000750:    e5810000    ....    STR      r0,[r1,#0]
        0x00000754:    e3a00001    ....    MOV      r0,#1
        0x00000758:    e59f1840    @...    LDR      r1,[pc,#2112] ; [0xfa0] = 0xe6790200
        0x0000075c:    e5810000    ....    STR      r0,[r1,#0]
        0x00000760:    e3a00001    ....    MOV      r0,#1
        0x00000764:    e59f1838    8...    LDR      r1,[pc,#2104] ; [0xfa4] = 0xe67f0024
        0x00000768:    e5810000    ....    STR      r0,[r1,#0]
        0x0000076c:    e3a00000    ....    MOV      r0,#0
        0x00000770:    e59f1830    0...    LDR      r1,[pc,#2096] ; [0xfa8] = 0xe67f0018
        0x00000774:    e5810000    ....    STR      r0,[r1,#0]
        0x00000778:    e3010234    4...    MOV      r0,#0x1234
        0x0000077c:    e59f1828    (...    LDR      r1,[pc,#2088] ; [0xfac] = 0xe6798100
        0x00000780:    e5810000    ....    STR      r0,[r1,#0]
        0x00000784:    e3010234    4...    MOV      r0,#0x1234
        0x00000788:    e59f1820     ...    LDR      r1,[pc,#2080] ; [0xfb0] = 0xe6798108
        0x0000078c:    e5810000    ....    STR      r0,[r1,#0]
        0x00000790:    e3a0000a    ....    MOV      r0,#0xa
        0x00000794:    e59f1818    ....    LDR      r1,[pc,#2072] ; [0xfb4] = 0xe6798020
        0x00000798:    e5810000    ....    STR      r0,[r1,#0]
        0x0000079c:    e3a0000a    ....    MOV      r0,#0xa
        0x000007a0:    e59f1810    ....    LDR      r1,[pc,#2064] ; [0xfb8] = 0xe6798024
        0x000007a4:    e5810000    ....    STR      r0,[r1,#0]
        0x000007a8:    e59f05d4    ....    LDR      r0,[pc,#1492] ; [0xd84] = 0xe030a01
        0x000007ac:    e59f1808    ....    LDR      r1,[pc,#2056] ; [0xfbc] = 0xe6798030
        0x000007b0:    e5810000    ....    STR      r0,[r1,#0]
        0x000007b4:    e59f05c8    ....    LDR      r0,[pc,#1480] ; [0xd84] = 0xe030a01
        0x000007b8:    e59f1800    ....    LDR      r1,[pc,#2048] ; [0xfc0] = 0xe6798070
        0x000007bc:    e5810000    ....    STR      r0,[r1,#0]
        0x000007c0:    e59f05bc    ....    LDR      r0,[pc,#1468] ; [0xd84] = 0xe030a01
        0x000007c4:    e59f17f8    ....    LDR      r1,[pc,#2040] ; [0xfc4] = 0xe6798034
        0x000007c8:    e5810000    ....    STR      r0,[r1,#0]
        0x000007cc:    e59f05b0    ....    LDR      r0,[pc,#1456] ; [0xd84] = 0xe030a01
        0x000007d0:    e59f17f0    ....    LDR      r1,[pc,#2032] ; [0xfc8] = 0xe6798074
        0x000007d4:    e5810000    ....    STR      r0,[r1,#0]
        0x000007d8:    e59f05a4    ....    LDR      r0,[pc,#1444] ; [0xd84] = 0xe030a01
        0x000007dc:    e59f17e8    ....    LDR      r1,[pc,#2024] ; [0xfcc] = 0xe6798040
        0x000007e0:    e5810000    ....    STR      r0,[r1,#0]
        0x000007e4:    e59f0598    ....    LDR      r0,[pc,#1432] ; [0xd84] = 0xe030a01
        0x000007e8:    e59f17e0    ....    LDR      r1,[pc,#2016] ; [0xfd0] = 0xe6798080
        0x000007ec:    e5810000    ....    STR      r0,[r1,#0]
        0x000007f0:    e59f058c    ....    LDR      r0,[pc,#1420] ; [0xd84] = 0xe030a01
        0x000007f4:    e59f17d8    ....    LDR      r1,[pc,#2008] ; [0xfd4] = 0xe6798044
        0x000007f8:    e5810000    ....    STR      r0,[r1,#0]
        0x000007fc:    e59f0580    ....    LDR      r0,[pc,#1408] ; [0xd84] = 0xe030a01
        0x00000800:    e59f17d0    ....    LDR      r1,[pc,#2000] ; [0xfd8] = 0xe6798084
        0x00000804:    e5810000    ....    STR      r0,[r1,#0]
        0x00000808:    e59f0574    t...    LDR      r0,[pc,#1396] ; [0xd84] = 0xe030a01
        0x0000080c:    e59f17c8    ....    LDR      r1,[pc,#1992] ; [0xfdc] = 0xe6798050
        0x00000810:    e5810000    ....    STR      r0,[r1,#0]
        0x00000814:    e59f0568    h...    LDR      r0,[pc,#1384] ; [0xd84] = 0xe030a01
        0x00000818:    e59f17c0    ....    LDR      r1,[pc,#1984] ; [0xfe0] = 0xe6798090
        0x0000081c:    e5810000    ....    STR      r0,[r1,#0]
        0x00000820:    e59f055c    \...    LDR      r0,[pc,#1372] ; [0xd84] = 0xe030a01
        0x00000824:    e59f17b8    ....    LDR      r1,[pc,#1976] ; [0xfe4] = 0xe6798054
        0x00000828:    e5810000    ....    STR      r0,[r1,#0]
        0x0000082c:    e59f0550    P...    LDR      r0,[pc,#1360] ; [0xd84] = 0xe030a01
        0x00000830:    e59f17b0    ....    LDR      r1,[pc,#1968] ; [0xfe8] = 0xe6798094
        0x00000834:    e5810000    ....    STR      r0,[r1,#0]
        0x00000838:    e59f0544    D...    LDR      r0,[pc,#1348] ; [0xd84] = 0xe030a01
        0x0000083c:    e59f17a8    ....    LDR      r1,[pc,#1960] ; [0xfec] = 0xe6798060
        0x00000840:    e5810000    ....    STR      r0,[r1,#0]
        0x00000844:    e59f0538    8...    LDR      r0,[pc,#1336] ; [0xd84] = 0xe030a01
        0x00000848:    e59f17a0    ....    LDR      r1,[pc,#1952] ; [0xff0] = 0xe67980a0
        0x0000084c:    e5810000    ....    STR      r0,[r1,#0]
        0x00000850:    e59f052c    ,...    LDR      r0,[pc,#1324] ; [0xd84] = 0xe030a01
        0x00000854:    e59f1798    ....    LDR      r1,[pc,#1944] ; [0xff4] = 0xe6798064
        0x00000858:    e5810000    ....    STR      r0,[r1,#0]
        0x0000085c:    e59f0520     ...    LDR      r0,[pc,#1312] ; [0xd84] = 0xe030a01
        0x00000860:    e59f1790    ....    LDR      r1,[pc,#1936] ; [0xff8] = 0xe67980a4
        0x00000864:    e5810000    ....    STR      r0,[r1,#0]
        0x00000868:    e3a00000    ....    MOV      r0,#0
        0x0000086c:    e59f1788    ....    LDR      r1,[pc,#1928] ; [0xffc] = 0xe6798104
        0x00000870:    e5810000    ....    STR      r0,[r1,#0]
        0x00000874:    e3a00001    ....    MOV      r0,#1
        0x00000878:    e59f1780    ....    LDR      r1,[pc,#1920] ; [0x1000] = 0xe6798010
        0x0000087c:    e5810000    ....    STR      r0,[r1,#0]
        0x00000880:    e3a00028    (...    MOV      r0,#0x28
        0x00000884:    e59f1778    x...    LDR      r1,[pc,#1912] ; [0x1004] = 0xe6798300
        0x00000888:    e5810000    ....    STR      r0,[r1,#0]
        0x0000088c:    e3a00012    ....    MOV      r0,#0x12
        0x00000890:    e59f1770    p...    LDR      r1,[pc,#1904] ; [0x1008] = 0xe6798304
        0x00000894:    e5810000    ....    STR      r0,[r1,#0]
        0x00000898:    e3a00027    '...    MOV      r0,#0x27
        0x0000089c:    e59f1768    h...    LDR      r1,[pc,#1896] ; [0x100c] = 0xe679830c
        0x000008a0:    e5810000    ....    STR      r0,[r1,#0]
        0x000008a4:    e59f0530    0...    LDR      r0,[pc,#1328] ; [0xddc] = 0x2d0027
        0x000008a8:    e59f1760    `...    LDR      r1,[pc,#1888] ; [0x1010] = 0xe6798310
        0x000008ac:    e5810000    ....    STR      r0,[r1,#0]
        0x000008b0:    e3a00087    ....    MOV      r0,#0x87
        0x000008b4:    e59f1758    X...    LDR      r1,[pc,#1880] ; [0x1014] = 0xe6798314
        0x000008b8:    e5810000    ....    STR      r0,[r1,#0]
        0x000008bc:    e3a0005a    Z...    MOV      r0,#0x5a
        0x000008c0:    e59f1750    P...    LDR      r1,[pc,#1872] ; [0x1018] = 0xe6798318
        0x000008c4:    e5810000    ....    STR      r0,[r1,#0]
        0x000008c8:    e59f051c    ....    LDR      r0,[pc,#1308] ; [0xdec] = 0x100010
        0x000008cc:    e59f1748    H...    LDR      r1,[pc,#1864] ; [0x101c] = 0xe679831c
        0x000008d0:    e5810000    ....    STR      r0,[r1,#0]
        0x000008d4:    e3a00040    @...    MOV      r0,#0x40
        0x000008d8:    e59f1740    @...    LDR      r1,[pc,#1856] ; [0x1020] = 0xe6798320
        0x000008dc:    e5810000    ....    STR      r0,[r1,#0]
        0x000008e0:    e3a00010    ....    MOV      r0,#0x10
        0x000008e4:    e59f1738    8...    LDR      r1,[pc,#1848] ; [0x1024] = 0xe6798324
        0x000008e8:    e5810000    ....    STR      r0,[r1,#0]
        0x000008ec:    e3a00029    )...    MOV      r0,#0x29
        0x000008f0:    e59f1730    0...    LDR      r1,[pc,#1840] ; [0x1028] = 0xe6798328
        0x000008f4:    e5810000    ....    STR      r0,[r1,#0]
        0x000008f8:    e3a00029    )...    MOV      r0,#0x29
        0x000008fc:    e59f1728    (...    LDR      r1,[pc,#1832] ; [0x102c] = 0xe679832c
        0x00000900:    e5810000    ....    STR      r0,[r1,#0]
        0x00000904:    e59f04f8    ....    LDR      r0,[pc,#1272] ; [0xe04] = 0x310031
        0x00000908:    e59f1720     ...    LDR      r1,[pc,#1824] ; [0x1030] = 0xe6798330
        0x0000090c:    e5810000    ....    STR      r0,[r1,#0]
        0x00000910:    e3000116    ....    MOVW     r0,#0x116
        0x00000914:    e59f1718    ....    LDR      r1,[pc,#1816] ; [0x1034] = 0xe6798334
        0x00000918:    e5810000    ....    STR      r0,[r1,#0]
        0x0000091c:    e59f04ec    ....    LDR      r0,[pc,#1260] ; [0xe10] = 0x130013
        0x00000920:    e59f1710    ....    LDR      r1,[pc,#1808] ; [0x1038] = 0xe6798338
        0x00000924:    e5810000    ....    STR      r0,[r1,#0]
        0x00000928:    e59f04e8    ....    LDR      r0,[pc,#1256] ; [0xe18] = 0x200010
        0x0000092c:    e59f1708    ....    LDR      r1,[pc,#1800] ; [0x103c] = 0xe679833c
        0x00000930:    e5810000    ....    STR      r0,[r1,#0]
        0x00000934:    e59f04e4    ....    LDR      r0,[pc,#1252] ; [0xe20] = 0xd400a0e
        0x00000938:    e59f1700    ....    LDR      r1,[pc,#1792] ; [0x1040] = 0xe6798340
        0x0000093c:    e5810000    ....    STR      r0,[r1,#0]
        0x00000940:    e59f04e0    ....    LDR      r0,[pc,#1248] ; [0xe28] = 0x81e0000
        0x00000944:    e59f16f8    ....    LDR      r1,[pc,#1784] ; [0x1044] = 0xe6798344
        0x00000948:    e5810000    ....    STR      r0,[r1,#0]
        0x0000094c:    e59f04dc    ....    LDR      r0,[pc,#1244] ; [0xe30] = 0x1290129
        0x00000950:    e59f16f0    ....    LDR      r1,[pc,#1776] ; [0x1048] = 0xe6798350
        0x00000954:    e5810000    ....    STR      r0,[r1,#0]
        0x00000958:    e59f04d8    ....    LDR      r0,[pc,#1240] ; [0xe38] = 0x80008
        0x0000095c:    e59f16e8    ....    LDR      r1,[pc,#1768] ; [0x104c] = 0xe6798354
        0x00000960:    e5810000    ....    STR      r0,[r1,#0]
        0x00000964:    e59f04d4    ....    LDR      r0,[pc,#1236] ; [0xe40] = 0x8550040
        0x00000968:    e59f16e0    ....    LDR      r1,[pc,#1760] ; [0x1050] = 0xe6798358
        0x0000096c:    e5810000    ....    STR      r0,[r1,#0]
        0x00000970:    e3a00003    ....    MOV      r0,#3
        0x00000974:    e59f16d8    ....    LDR      r1,[pc,#1752] ; [0x1054] = 0xe679835c
        0x00000978:    e5810000    ....    STR      r0,[r1,#0]
        0x0000097c:    e3a00002    ....    MOV      r0,#2
        0x00000980:    e59f16d0    ....    LDR      r1,[pc,#1744] ; [0x1058] = 0xe6798400
        0x00000984:    e5810000    ....    STR      r0,[r1,#0]
        0x00000988:    e3a00002    ....    MOV      r0,#2
        0x0000098c:    e59f16c8    ....    LDR      r1,[pc,#1736] ; [0x105c] = 0xe6798404
        0x00000990:    e5810000    ....    STR      r0,[r1,#0]
        0x00000994:    e3040444    D...    MOV      r0,#0x4444
        0x00000998:    e59f16c0    ....    LDR      r1,[pc,#1728] ; [0x1060] = 0xe6798438
        0x0000099c:    e5810000    ....    STR      r0,[r1,#0]
        0x000009a0:    e3040444    D...    MOV      r0,#0x4444
        0x000009a4:    e59f16b8    ....    LDR      r1,[pc,#1720] ; [0x1064] = 0xe679843c
        0x000009a8:    e5810000    ....    STR      r0,[r1,#0]
        0x000009ac:    e3040444    D...    MOV      r0,#0x4444
        0x000009b0:    e59f16b0    ....    LDR      r1,[pc,#1712] ; [0x1068] = 0xe6798440
        0x000009b4:    e5810000    ....    STR      r0,[r1,#0]
        0x000009b8:    e3040444    D...    MOV      r0,#0x4444
        0x000009bc:    e59f16a8    ....    LDR      r1,[pc,#1704] ; [0x106c] = 0xe6798444
        0x000009c0:    e5810000    ....    STR      r0,[r1,#0]
        0x000009c4:    e59f0498    ....    LDR      r0,[pc,#1176] ; [0xe64] = 0x104214
        0x000009c8:    e59f16a0    ....    LDR      r1,[pc,#1696] ; [0x1070] = 0xe6798904
        0x000009cc:    e5810000    ....    STR      r0,[r1,#0]
        0x000009d0:    e3a00f71    q...    MOV      r0,#0x1c4
        0x000009d4:    e59f1698    ....    LDR      r1,[pc,#1688] ; [0x1074] = 0xe6798908
        0x000009d8:    e5810000    ....    STR      r0,[r1,#0]
        0x000009dc:    e3a00003    ....    MOV      r0,#3
        0x000009e0:    e59f1690    ....    LDR      r1,[pc,#1680] ; [0x1078] = 0xe679890c
        0x000009e4:    e5810000    ....    STR      r0,[r1,#0]
        0x000009e8:    e59f0484    ....    LDR      r0,[pc,#1156] ; [0xe74] = 0xf0037
        0x000009ec:    e59f1688    ....    LDR      r1,[pc,#1672] ; [0x107c] = 0xe6799000
        0x000009f0:    e5810000    ....    STR      r0,[r1,#0]
        0x000009f4:    e3010010    ....    MOV      r0,#0x1010
        0x000009f8:    e59f1680    ....    LDR      r1,[pc,#1664] ; [0x1080] = 0xe6799004
        0x000009fc:    e5810000    ....    STR      r0,[r1,#0]
        0x00000a00:    e3a00001    ....    MOV      r0,#1
        0x00000a04:    e59f1678    x...    LDR      r1,[pc,#1656] ; [0x1084] = 0xe6799010
        0x00000a08:    e5810000    ....    STR      r0,[r1,#0]
        0x00000a0c:    e59f0470    p...    LDR      r0,[pc,#1136] ; [0xe84] = 0xf7311111
        0x00000a10:    e59f1670    p...    LDR      r1,[pc,#1648] ; [0x1088] = 0xe6799020
        0x00000a14:    e5810000    ....    STR      r0,[r1,#0]
        0x00000a18:    e3010834    4...    MOV      r0,#0x1834
        0x00000a1c:    e59f1668    h...    LDR      r1,[pc,#1640] ; [0x108c] = 0xe6799024
        0x00000a20:    e5810000    ....    STR      r0,[r1,#0]
        0x00000a24:    e3e00000    ....    MVN      r0,#0
        0x00000a28:    e59f1660    `...    LDR      r1,[pc,#1632] ; [0x1090] = 0xe6799030
        0x00000a2c:    e5810000    ....    STR      r0,[r1,#0]
        0x00000a30:    e3a00d12    ....    MOV      r0,#0x480
        0x00000a34:    e59f1658    X...    LDR      r1,[pc,#1624] ; [0x1094] = 0xe6799034
        0x00000a38:    e5810000    ....    STR      r0,[r1,#0]
        0x00000a3c:    e3a00c03    ....    MOV      r0,#0x300
        0x00000a40:    e59f1650    P...    LDR      r1,[pc,#1616] ; [0x1098] = 0xe6799038
        0x00000a44:    e5810000    ....    STR      r0,[r1,#0]
        0x00000a48:    e3a00d06    ....    MOV      r0,#0x180
        0x00000a4c:    e59f1648    H...    LDR      r1,[pc,#1608] ; [0x109c] = 0xe679903c
        0x00000a50:    e5810000    ....    STR      r0,[r1,#0]
        0x00000a54:    e3a00c06    ....    MOV      r0,#0x600
        0x00000a58:    e59f1640    @...    LDR      r1,[pc,#1600] ; [0x10a0] = 0xe6799070
        0x00000a5c:    e5810000    ....    STR      r0,[r1,#0]
        0x00000a60:    e3a00d12    ....    MOV      r0,#0x480
        0x00000a64:    e59f1638    8...    LDR      r1,[pc,#1592] ; [0x10a4] = 0xe6799074
        0x00000a68:    e5810000    ....    STR      r0,[r1,#0]
        0x00000a6c:    e3a00c03    ....    MOV      r0,#0x300
        0x00000a70:    e59f1630    0...    LDR      r1,[pc,#1584] ; [0x10a8] = 0xe6799078
        0x00000a74:    e5810000    ....    STR      r0,[r1,#0]
        0x00000a78:    e3a00d06    ....    MOV      r0,#0x180
        0x00000a7c:    e59f1628    (...    LDR      r1,[pc,#1576] ; [0x10ac] = 0xe679907c
        0x00000a80:    e5810000    ....    STR      r0,[r1,#0]
        0x00000a84:    e3a00b01    ....    MOV      r0,#0x400
        0x00000a88:    e59f1620     ...    LDR      r1,[pc,#1568] ; [0x10b0] = 0xe67990c0
        0x00000a8c:    e5810000    ....    STR      r0,[r1,#0]
        0x00000a90:    e3a00c03    ....    MOV      r0,#0x300
        0x00000a94:    e59f1618    ....    LDR      r1,[pc,#1560] ; [0x10b4] = 0xe67990c4
        0x00000a98:    e5810000    ....    STR      r0,[r1,#0]
        0x00000a9c:    e3a00c02    ....    MOV      r0,#0x200
        0x00000aa0:    e59f1610    ....    LDR      r1,[pc,#1552] ; [0x10b8] = 0xe67990c8
        0x00000aa4:    e5810000    ....    STR      r0,[r1,#0]
        0x00000aa8:    e3a00c01    ....    MOV      r0,#0x100
        0x00000aac:    e59f1608    ....    LDR      r1,[pc,#1544] ; [0x10bc] = 0xe67990cc
        0x00000ab0:    e5810000    ....    STR      r0,[r1,#0]
        0x00000ab4:    e3a00c03    ....    MOV      r0,#0x300
        0x00000ab8:    e59f1600    ....    LDR      r1,[pc,#1536] ; [0x10c0] = 0xe6799100
        0x00000abc:    e5810000    ....    STR      r0,[r1,#0]
        0x00000ac0:    e3a00d09    ....    MOV      r0,#0x240
        0x00000ac4:    e59f15f8    ....    LDR      r1,[pc,#1528] ; [0x10c4] = 0xe6799104
        0x00000ac8:    e5810000    ....    STR      r0,[r1,#0]
        0x00000acc:    e3a00d06    ....    MOV      r0,#0x180
        0x00000ad0:    e59f15f0    ....    LDR      r1,[pc,#1520] ; [0x10c8] = 0xe6799108
        0x00000ad4:    e5810000    ....    STR      r0,[r1,#0]
        0x00000ad8:    e3a000c0    ....    MOV      r0,#0xc0
        0x00000adc:    e59f15e8    ....    LDR      r1,[pc,#1512] ; [0x10cc] = 0xe679910c
        0x00000ae0:    e5810000    ....    STR      r0,[r1,#0]
        0x00000ae4:    e3a00c02    ....    MOV      r0,#0x200
        0x00000ae8:    e59f15e0    ....    LDR      r1,[pc,#1504] ; [0x10d0] = 0xe6799110
        0x00000aec:    e5810000    ....    STR      r0,[r1,#0]
        0x00000af0:    e3a00d06    ....    MOV      r0,#0x180
        0x00000af4:    e59f15d8    ....    LDR      r1,[pc,#1496] ; [0x10d4] = 0xe6799114
        0x00000af8:    e5810000    ....    STR      r0,[r1,#0]
        0x00000afc:    e3a00c01    ....    MOV      r0,#0x100
        0x00000b00:    e59f15d0    ....    LDR      r1,[pc,#1488] ; [0x10d8] = 0xe6799118
        0x00000b04:    e5810000    ....    STR      r0,[r1,#0]
        0x00000b08:    e3a00080    ....    MOV      r0,#0x80
        0x00000b0c:    e59f15c8    ....    LDR      r1,[pc,#1480] ; [0x10dc] = 0xe679911c
        0x00000b10:    e5810000    ....    STR      r0,[r1,#0]
        0x00000b14:    e3a00c01    ....    MOV      r0,#0x100
        0x00000b18:    e59f15c0    ....    LDR      r1,[pc,#1472] ; [0x10e0] = 0xe6799120
        0x00000b1c:    e5810000    ....    STR      r0,[r1,#0]
        0x00000b20:    e3a000c0    ....    MOV      r0,#0xc0
        0x00000b24:    e59f15b8    ....    LDR      r1,[pc,#1464] ; [0x10e4] = 0xe6799124
        0x00000b28:    e5810000    ....    STR      r0,[r1,#0]
        0x00000b2c:    e3a00080    ....    MOV      r0,#0x80
        0x00000b30:    e59f15b0    ....    LDR      r1,[pc,#1456] ; [0x10e8] = 0xe6799128
        0x00000b34:    e5810000    ....    STR      r0,[r1,#0]
        0x00000b38:    e3a00040    @...    MOV      r0,#0x40
        0x00000b3c:    e59f15a8    ....    LDR      r1,[pc,#1448] ; [0x10ec] = 0xe679912c
        0x00000b40:    e5810000    ....    STR      r0,[r1,#0]
        0x00000b44:    e59f03a4    ....    LDR      r0,[pc,#932] ; [0xef0] = 0x220e110a
        0x00000b48:    e59f15a0    ....    LDR      r1,[pc,#1440] ; [0x10f0] = 0xe6799700
        0x00000b4c:    e5810000    ....    STR      r0,[r1,#0]
        0x00000b50:    e59f03a0    ....    LDR      r0,[pc,#928] ; [0xef8] = 0xb0d0a0c
        0x00000b54:    e59f1598    ....    LDR      r1,[pc,#1432] ; [0x10f4] = 0xe6799708
        0x00000b58:    e5810000    ....    STR      r0,[r1,#0]
        0x00000b5c:    e59f039c    ....    LDR      r0,[pc,#924] ; [0xf00] = 0x111f1fff
        0x00000b60:    e59f1590    ....    LDR      r1,[pc,#1424] ; [0x10f8] = 0xe679970c
        0x00000b64:    e5810000    ....    STR      r0,[r1,#0]
        0x00000b68:    e3a00001    ....    MOV      r0,#1
        0x00000b6c:    e59f1588    ....    LDR      r1,[pc,#1416] ; [0x10fc] = 0xe6798000
        0x00000b70:    e5810000    ....    STR      r0,[r1,#0]
        0x00000b74:    e3a00002    ....    MOV      r0,#2
        0x00000b78:    e59f1580    ....    LDR      r1,[pc,#1408] ; [0x1100] = 0xe6798004
        0x00000b7c:    e5810000    ....    STR      r0,[r1,#0]
        0x00000b80:    e3a00002    ....    MOV      r0,#2
        0x00000b84:    e59f1578    x...    LDR      r1,[pc,#1400] ; [0x1104] = 0xe6798008
        0x00000b88:    e5810000    ....    STR      r0,[r1,#0]
        0x00000b8c:    e3a00001    ....    MOV      r0,#1
        0x00000b90:    e59f1570    p...    LDR      r1,[pc,#1392] ; [0x1108] = 0xe679800c
        0x00000b94:    e5810000    ....    STR      r0,[r1,#0]
        0x00000b98:    e3a00041    A...    MOV      r0,#0x41
        0x00000b9c:    e59f1568    h...    LDR      r1,[pc,#1384] ; [0x110c] = 0xe6798014
        0x00000ba0:    e5810000    ....    STR      r0,[r1,#0]
        0x00000ba4:    e3a00011    ....    MOV      r0,#0x11
        0x00000ba8:    e59f1560    `...    LDR      r1,[pc,#1376] ; [0x1110] = 0xe6798604
        0x00000bac:    e5810000    ....    STR      r0,[r1,#0]
        0x00000bb0:    e3a00011    ....    MOV      r0,#0x11
        0x00000bb4:    e59f1558    X...    LDR      r1,[pc,#1368] ; [0x1114] = 0xe6798644
        0x00000bb8:    e5810000    ....    STR      r0,[r1,#0]
        0x00000bbc:    e3a00011    ....    MOV      r0,#0x11
        0x00000bc0:    e59f1550    P...    LDR      r1,[pc,#1360] ; [0x1118] = 0xe6798684
        0x00000bc4:    e5810000    ....    STR      r0,[r1,#0]
        0x00000bc8:    e3a00011    ....    MOV      r0,#0x11
        0x00000bcc:    e59f1548    H...    LDR      r1,[pc,#1352] ; [0x111c] = 0xe67986c4
        0x00000bd0:    e5810000    ....    STR      r0,[r1,#0]
        0x00000bd4:    e30c0f01    ....    MOV      r0,#0xcf01
        0x00000bd8:    e59f1540    @...    LDR      r1,[pc,#1344] ; [0x1120] = 0xe679861c
        0x00000bdc:    e5810000    ....    STR      r0,[r1,#0]
        0x00000be0:    e30c0f01    ....    MOV      r0,#0xcf01
        0x00000be4:    e59f1538    8...    LDR      r1,[pc,#1336] ; [0x1124] = 0xe679865c
        0x00000be8:    e5810000    ....    STR      r0,[r1,#0]
        0x00000bec:    e30c0f01    ....    MOV      r0,#0xcf01
        0x00000bf0:    e59f1530    0...    LDR      r1,[pc,#1328] ; [0x1128] = 0xe679869c
        0x00000bf4:    e5810000    ....    STR      r0,[r1,#0]
        0x00000bf8:    e30c0f01    ....    MOV      r0,#0xcf01
        0x00000bfc:    e59f1528    (...    LDR      r1,[pc,#1320] ; [0x112c] = 0xe67986dc
        0x00000c00:    e5810000    ....    STR      r0,[r1,#0]
        0x00000c04:    e3a06001    .`..    MOV      r6,#1
        0x00000c08:    e59f0520     ...    LDR      r0,[pc,#1312] ; [0x1130] = 0xe6798600
        0x00000c0c:    e5907000    .p..    LDR      r7,[r0,#0]
        0x00000c10:    e0067007    .p..    AND      r7,r6,r7
        0x00000c14:    e1560007    ..V.    CMP      r6,r7
        0x00000c18:    1afffffa    ....    BNE      0xc08 ; __ddr_init_start + 2772
        0x00000c1c:    e59f0510    ....    LDR      r0,[pc,#1296] ; [0x1134] = 0xe6798640
        0x00000c20:    e5907000    .p..    LDR      r7,[r0,#0]
        0x00000c24:    e0067007    .p..    AND      r7,r6,r7
        0x00000c28:    e1560007    ..V.    CMP      r6,r7
        0x00000c2c:    1afffff5    ....    BNE      0xc08 ; __ddr_init_start + 2772
        0x00000c30:    e59f0500    ....    LDR      r0,[pc,#1280] ; [0x1138] = 0xe6798680
        0x00000c34:    e5907000    .p..    LDR      r7,[r0,#0]
        0x00000c38:    e0067007    .p..    AND      r7,r6,r7
        0x00000c3c:    e1560007    ..V.    CMP      r6,r7
        0x00000c40:    1afffff0    ....    BNE      0xc08 ; __ddr_init_start + 2772
        0x00000c44:    e59f04f0    ....    LDR      r0,[pc,#1264] ; [0x113c] = 0xe67986c0
        0x00000c48:    e5907000    .p..    LDR      r7,[r0,#0]
        0x00000c4c:    e0067007    .p..    AND      r7,r6,r7
        0x00000c50:    e1560007    ..V.    CMP      r6,r7
        0x00000c54:    1affffeb    ....    BNE      0xc08 ; __ddr_init_start + 2772
        0x00000c58:    e59f049c    ....    LDR      r0,[pc,#1180] ; [0x10fc] = 0xe6798000
        0x00000c5c:    e59f02e8    ....    LDR      r0,[pc,#744] ; [0xf4c] = 0x8840000
        0x00000c60:    e59f14d8    ....    LDR      r1,[pc,#1240] ; [0x1140] = 0xe6798208
        0x00000c64:    e5810000    ....    STR      r0,[r1,#0]
        0x00000c68:    e59f02e4    ....    LDR      r0,[pc,#740] ; [0xf54] = 0x8840001
        0x00000c6c:    e59f14cc    ....    LDR      r1,[pc,#1228] ; [0x1140] = 0xe6798208
        0x00000c70:    e5810000    ....    STR      r0,[r1,#0]
        0x00000c74:    e59f02dc    ....    LDR      r0,[pc,#732] ; [0xf58] = 0x1840001
        0x00000c78:    e59f14c0    ....    LDR      r1,[pc,#1216] ; [0x1140] = 0xe6798208
        0x00000c7c:    e5810000    ....    STR      r0,[r1,#0]
        0x00000c80:    e59f02d4    ....    LDR      r0,[pc,#724] ; [0xf5c] = 0xe840aff
        0x00000c84:    e59f14b4    ....    LDR      r1,[pc,#1204] ; [0x1140] = 0xe6798208
        0x00000c88:    e5810000    ....    STR      r0,[r1,#0]
        0x00000c8c:    e59f02cc    ....    LDR      r0,[pc,#716] ; [0xf60] = 0xe840154
        0x00000c90:    e59f14a8    ....    LDR      r1,[pc,#1192] ; [0x1140] = 0xe6798208
        0x00000c94:    e5810000    ....    STR      r0,[r1,#0]
        0x00000c98:    e59f02c4    ....    LDR      r0,[pc,#708] ; [0xf64] = 0xe84022e
        0x00000c9c:    e59f149c    ....    LDR      r1,[pc,#1180] ; [0x1140] = 0xe6798208
        0x00000ca0:    e5810000    ....    STR      r0,[r1,#0]
        0x00000ca4:    e59f02bc    ....    LDR      r0,[pc,#700] ; [0xf68] = 0xd84004f
        0x00000ca8:    e59f1490    ....    LDR      r1,[pc,#1168] ; [0x1140] = 0xe6798208
        0x00000cac:    e5810000    ....    STR      r0,[r1,#0]
        0x00000cb0:    e59f02b4    ....    LDR      r0,[pc,#692] ; [0xf6c] = 0xd840051
        0x00000cb4:    e59f1484    ....    LDR      r1,[pc,#1156] ; [0x1140] = 0xe6798208
        0x00000cb8:    e5810000    ....    STR      r0,[r1,#0]
        0x00000cbc:    e59f02ac    ....    LDR      r0,[pc,#684] ; [0xf70] = 0x70000100
        0x00000cc0:    e59f147c    |...    LDR      r1,[pc,#1148] ; [0x1144] = 0xe6798804
        0x00000cc4:    e5810000    ....    STR      r0,[r1,#0]
        0x00000cc8:    e59f02a8    ....    LDR      r0,[pc,#680] ; [0xf78] = 0x18010001
        0x00000ccc:    e59f1474    t...    LDR      r1,[pc,#1140] ; [0x1148] = 0xe6798800
        0x00000cd0:    e5810000    ....    STR      r0,[r1,#0]
        0x00000cd4:    e59f02a4    ....    LDR      r0,[pc,#676] ; [0xf80] = 0x81860
        0x00000cd8:    e59f146c    l...    LDR      r1,[pc,#1132] ; [0x114c] = 0xe6798414
        0x00000cdc:    e5810000    ....    STR      r0,[r1,#0]
        0x00000ce0:    e3a00801    ....    MOV      r0,#0x10000
        0x00000ce4:    e59f1464    d...    LDR      r1,[pc,#1124] ; [0x1150] = 0xe6798418
        0x00000ce8:    e5810000    ....    STR      r0,[r1,#0]
        0x00000cec:    e3a00001    ....    MOV      r0,#1
        0x00000cf0:    e59f145c    \...    LDR      r1,[pc,#1116] ; [0x1154] = 0xe6798204
        0x00000cf4:    e5810000    ....    STR      r0,[r1,#0]
        0x00000cf8:    e30a055a    Z...    MOV      r0,#0xa55a
        0x00000cfc:    e59f1454    T...    LDR      r1,[pc,#1108] ; [0x1158] = 0xe6798620
        0x00000d00:    e5810000    ....    STR      r0,[r1,#0]
        0x00000d04:    e30a055a    Z...    MOV      r0,#0xa55a
        0x00000d08:    e59f144c    L...    LDR      r1,[pc,#1100] ; [0x115c] = 0xe6798660
        0x00000d0c:    e5810000    ....    STR      r0,[r1,#0]
        0x00000d10:    e30a055a    Z...    MOV      r0,#0xa55a
        0x00000d14:    e59f1444    D...    LDR      r1,[pc,#1092] ; [0x1160] = 0xe67986a0
        0x00000d18:    e5810000    ....    STR      r0,[r1,#0]
        0x00000d1c:    e30a055a    Z...    MOV      r0,#0xa55a
        0x00000d20:    e59f143c    <...    LDR      r1,[pc,#1084] ; [0x1164] = 0xe67986e0
        0x00000d24:    e5810000    ....    STR      r0,[r1,#0]
        0x00000d28:    e3a00001    ....    MOV      r0,#1
        0x00000d2c:    e59f1434    4...    LDR      r1,[pc,#1076] ; [0x1168] = 0xe6798200
        0x00000d30:    e5810000    ....    STR      r0,[r1,#0]
        0x00000d34:    e3a00001    ....    MOV      r0,#1
        0x00000d38:    e59f1264    d...    LDR      r1,[pc,#612] ; [0xfa4] = 0xe67f0024
        0x00000d3c:    e5810000    ....    STR      r0,[r1,#0]
        0x00000d40:    e3a00000    ....    MOV      r0,#0
        0x00000d44:    e59f125c    \...    LDR      r1,[pc,#604] ; [0xfa8] = 0xe67f0018
        0x00000d48:    e5810000    ....    STR      r0,[r1,#0]
        0x00000d4c:    ea000106    ....    B        0x116c ; __ddr_init_start + 4152
    $d
        0x00000d50:    40000000    ...@    DCD    1073741824
        0x00000d54:    00000134    4...    DCD    308
        0x00000d58:    00001174    t...    DCD    4468
        0x00000d5c:    e6300134    4.0.    DCD    3861905716
        0x00000d60:    00000000    ....    DCD    0
        0x00000d64:    00000000    ....    DCD    0
        0x00000d68:    e6152e10    ....    DCD    3860147728
        0x00000d6c:    e6150000    ....    DCD    3860135936
        0x00000d70:    e6152d10    .-..    DCD    3860147472
        0x00000d74:    e6790100    ..y.    DCD    3866689792
        0x00000d78:    e6790108    ..y.    DCD    3866689800
        0x00000d7c:    e6790020     .y.    DCD    3866689568
        0x00000d80:    e6790024    $.y.    DCD    3866689572
        0x00000d84:    0e030a01    ....    DCD    235080193
        0x00000d88:    e6790030    0.y.    DCD    3866689584
        0x00000d8c:    e6790070    p.y.    DCD    3866689648
        0x00000d90:    e6790034    4.y.    DCD    3866689588
        0x00000d94:    e6790074    t.y.    DCD    3866689652
        0x00000d98:    e6790040    @.y.    DCD    3866689600
        0x00000d9c:    e6790080    ..y.    DCD    3866689664
        0x00000da0:    e6790044    D.y.    DCD    3866689604
        0x00000da4:    e6790084    ..y.    DCD    3866689668
        0x00000da8:    e6790050    P.y.    DCD    3866689616
        0x00000dac:    e6790090    ..y.    DCD    3866689680
        0x00000db0:    e6790054    T.y.    DCD    3866689620
        0x00000db4:    e6790094    ..y.    DCD    3866689684
        0x00000db8:    e6790060    `.y.    DCD    3866689632
        0x00000dbc:    e67900a0    ..y.    DCD    3866689696
        0x00000dc0:    e6790064    d.y.    DCD    3866689636
        0x00000dc4:    e67900a4    ..y.    DCD    3866689700
        0x00000dc8:    e6790104    ..y.    DCD    3866689796
        0x00000dcc:    e6790010    ..y.    DCD    3866689552
        0x00000dd0:    e6790300    ..y.    DCD    3866690304
        0x00000dd4:    e6790304    ..y.    DCD    3866690308
        0x00000dd8:    e679030c    ..y.    DCD    3866690316
        0x00000ddc:    002d0027    '.-.    DCD    2949159
        0x00000de0:    e6790310    ..y.    DCD    3866690320
        0x00000de4:    e6790314    ..y.    DCD    3866690324
        0x00000de8:    e6790318    ..y.    DCD    3866690328
        0x00000dec:    00100010    ....    DCD    1048592
        0x00000df0:    e679031c    ..y.    DCD    3866690332
        0x00000df4:    e6790320     .y.    DCD    3866690336
        0x00000df8:    e6790324    $.y.    DCD    3866690340
        0x00000dfc:    e6790328    (.y.    DCD    3866690344
        0x00000e00:    e679032c    ,.y.    DCD    3866690348
        0x00000e04:    00310031    1.1.    DCD    3211313
        0x00000e08:    e6790330    0.y.    DCD    3866690352
        0x00000e0c:    e6790334    4.y.    DCD    3866690356
        0x00000e10:    00130013    ....    DCD    1245203
        0x00000e14:    e6790338    8.y.    DCD    3866690360
        0x00000e18:    00200010    .. .    DCD    2097168
        0x00000e1c:    e679033c    <.y.    DCD    3866690364
        0x00000e20:    0d400a0e    ..@.    DCD    222300686
        0x00000e24:    e6790340    @.y.    DCD    3866690368
        0x00000e28:    081e0000    ....    DCD    136183808
        0x00000e2c:    e6790344    D.y.    DCD    3866690372
        0x00000e30:    01290129    ).).    DCD    19464489
        0x00000e34:    e6790350    P.y.    DCD    3866690384
        0x00000e38:    00080008    ....    DCD    524296
        0x00000e3c:    e6790354    T.y.    DCD    3866690388
        0x00000e40:    08550040    @.U.    DCD    139788352
        0x00000e44:    e6790358    X.y.    DCD    3866690392
        0x00000e48:    e679035c    \.y.    DCD    3866690396
        0x00000e4c:    e6790400    ..y.    DCD    3866690560
        0x00000e50:    e6790404    ..y.    DCD    3866690564
        0x00000e54:    e6790438    8.y.    DCD    3866690616
        0x00000e58:    e679043c    <.y.    DCD    3866690620
        0x00000e5c:    e6790440    @.y.    DCD    3866690624
        0x00000e60:    e6790444    D.y.    DCD    3866690628
        0x00000e64:    00104214    .B..    DCD    1065492
        0x00000e68:    e6790904    ..y.    DCD    3866691844
        0x00000e6c:    e6790908    ..y.    DCD    3866691848
        0x00000e70:    e679090c    ..y.    DCD    3866691852
        0x00000e74:    000f0037    7...    DCD    983095
        0x00000e78:    e6791000    ..y.    DCD    3866693632
        0x00000e7c:    e6791004    ..y.    DCD    3866693636
        0x00000e80:    e6791010    ..y.    DCD    3866693648
        0x00000e84:    f7311111    ..1.    DCD    4147187985
        0x00000e88:    e6791020     .y.    DCD    3866693664
        0x00000e8c:    e6791024    $.y.    DCD    3866693668
        0x00000e90:    e6791030    0.y.    DCD    3866693680
        0x00000e94:    e6791034    4.y.    DCD    3866693684
        0x00000e98:    e6791038    8.y.    DCD    3866693688
        0x00000e9c:    e679103c    <.y.    DCD    3866693692
        0x00000ea0:    e6791070    p.y.    DCD    3866693744
        0x00000ea4:    e6791074    t.y.    DCD    3866693748
        0x00000ea8:    e6791078    x.y.    DCD    3866693752
        0x00000eac:    e679107c    |.y.    DCD    3866693756
        0x00000eb0:    e67910c0    ..y.    DCD    3866693824
        0x00000eb4:    e67910c4    ..y.    DCD    3866693828
        0x00000eb8:    e67910c8    ..y.    DCD    3866693832
        0x00000ebc:    e67910cc    ..y.    DCD    3866693836
        0x00000ec0:    e6791100    ..y.    DCD    3866693888
        0x00000ec4:    e6791104    ..y.    DCD    3866693892
        0x00000ec8:    e6791108    ..y.    DCD    3866693896
        0x00000ecc:    e679110c    ..y.    DCD    3866693900
        0x00000ed0:    e6791110    ..y.    DCD    3866693904
        0x00000ed4:    e6791114    ..y.    DCD    3866693908
        0x00000ed8:    e6791118    ..y.    DCD    3866693912
        0x00000edc:    e679111c    ..y.    DCD    3866693916
        0x00000ee0:    e6791120     .y.    DCD    3866693920
        0x00000ee4:    e6791124    $.y.    DCD    3866693924
        0x00000ee8:    e6791128    (.y.    DCD    3866693928
        0x00000eec:    e679112c    ,.y.    DCD    3866693932
        0x00000ef0:    220e110a    ..."    DCD    571347210
        0x00000ef4:    e6791700    ..y.    DCD    3866695424
        0x00000ef8:    0b0d0a0c    ....    DCD    185403916
        0x00000efc:    e6791708    ..y.    DCD    3866695432
        0x00000f00:    111f1fff    ....    DCD    287252479
        0x00000f04:    e679170c    ..y.    DCD    3866695436
        0x00000f08:    e6790000    ..y.    DCD    3866689536
        0x00000f0c:    e6790004    ..y.    DCD    3866689540
        0x00000f10:    e6790008    ..y.    DCD    3866689544
        0x00000f14:    e679000c    ..y.    DCD    3866689548
        0x00000f18:    e6790014    ..y.    DCD    3866689556
        0x00000f1c:    e6790604    ..y.    DCD    3866691076
        0x00000f20:    e6790644    D.y.    DCD    3866691140
        0x00000f24:    e6790684    ..y.    DCD    3866691204
        0x00000f28:    e67906c4    ..y.    DCD    3866691268
        0x00000f2c:    e679061c    ..y.    DCD    3866691100
        0x00000f30:    e679065c    \.y.    DCD    3866691164
        0x00000f34:    e679069c    ..y.    DCD    3866691228
        0x00000f38:    e67906dc    ..y.    DCD    3866691292
        0x00000f3c:    e6790600    ..y.    DCD    3866691072
        0x00000f40:    e6790640    @.y.    DCD    3866691136
        0x00000f44:    e6790680    ..y.    DCD    3866691200
        0x00000f48:    e67906c0    ..y.    DCD    3866691264
        0x00000f4c:    08840000    ....    DCD    142868480
        0x00000f50:    e6790208    ..y.    DCD    3866690056
        0x00000f54:    08840001    ....    DCD    142868481
        0x00000f58:    01840001    ....    DCD    25427969
        0x00000f5c:    0e840aff    ....    DCD    243534591
        0x00000f60:    0e840154    T...    DCD    243532116
        0x00000f64:    0e84022e    ....    DCD    243532334
        0x00000f68:    0d84004f    O...    DCD    226754639
        0x00000f6c:    0d840051    Q...    DCD    226754641
        0x00000f70:    70000100    ...p    DCD    1879048448
        0x00000f74:    e6790804    ..y.    DCD    3866691588
        0x00000f78:    18010001    ....    DCD    402718721
        0x00000f7c:    e6790800    ..y.    DCD    3866691584
        0x00000f80:    00081860    `...    DCD    530528
        0x00000f84:    e6790414    ..y.    DCD    3866690580
        0x00000f88:    e6790418    ..y.    DCD    3866690584
        0x00000f8c:    e6790204    ..y.    DCD    3866690052
        0x00000f90:    e6790620     .y.    DCD    3866691104
        0x00000f94:    e6790660    `.y.    DCD    3866691168
        0x00000f98:    e67906a0    ..y.    DCD    3866691232
        0x00000f9c:    e67906e0    ..y.    DCD    3866691296
        0x00000fa0:    e6790200    ..y.    DCD    3866690048
        0x00000fa4:    e67f0024    $...    DCD    3867082788
        0x00000fa8:    e67f0018    ....    DCD    3867082776
        0x00000fac:    e6798100    ..y.    DCD    3866722560
        0x00000fb0:    e6798108    ..y.    DCD    3866722568
        0x00000fb4:    e6798020     .y.    DCD    3866722336
        0x00000fb8:    e6798024    $.y.    DCD    3866722340
        0x00000fbc:    e6798030    0.y.    DCD    3866722352
        0x00000fc0:    e6798070    p.y.    DCD    3866722416
        0x00000fc4:    e6798034    4.y.    DCD    3866722356
        0x00000fc8:    e6798074    t.y.    DCD    3866722420
        0x00000fcc:    e6798040    @.y.    DCD    3866722368
        0x00000fd0:    e6798080    ..y.    DCD    3866722432
        0x00000fd4:    e6798044    D.y.    DCD    3866722372
        0x00000fd8:    e6798084    ..y.    DCD    3866722436
        0x00000fdc:    e6798050    P.y.    DCD    3866722384
        0x00000fe0:    e6798090    ..y.    DCD    3866722448
        0x00000fe4:    e6798054    T.y.    DCD    3866722388
        0x00000fe8:    e6798094    ..y.    DCD    3866722452
        0x00000fec:    e6798060    `.y.    DCD    3866722400
        0x00000ff0:    e67980a0    ..y.    DCD    3866722464
        0x00000ff4:    e6798064    d.y.    DCD    3866722404
        0x00000ff8:    e67980a4    ..y.    DCD    3866722468
        0x00000ffc:    e6798104    ..y.    DCD    3866722564
        0x00001000:    e6798010    ..y.    DCD    3866722320
        0x00001004:    e6798300    ..y.    DCD    3866723072
        0x00001008:    e6798304    ..y.    DCD    3866723076
        0x0000100c:    e679830c    ..y.    DCD    3866723084
        0x00001010:    e6798310    ..y.    DCD    3866723088
        0x00001014:    e6798314    ..y.    DCD    3866723092
        0x00001018:    e6798318    ..y.    DCD    3866723096
        0x0000101c:    e679831c    ..y.    DCD    3866723100
        0x00001020:    e6798320     .y.    DCD    3866723104
        0x00001024:    e6798324    $.y.    DCD    3866723108
        0x00001028:    e6798328    (.y.    DCD    3866723112
        0x0000102c:    e679832c    ,.y.    DCD    3866723116
        0x00001030:    e6798330    0.y.    DCD    3866723120
        0x00001034:    e6798334    4.y.    DCD    3866723124
        0x00001038:    e6798338    8.y.    DCD    3866723128
        0x0000103c:    e679833c    <.y.    DCD    3866723132
        0x00001040:    e6798340    @.y.    DCD    3866723136
        0x00001044:    e6798344    D.y.    DCD    3866723140
        0x00001048:    e6798350    P.y.    DCD    3866723152
        0x0000104c:    e6798354    T.y.    DCD    3866723156
        0x00001050:    e6798358    X.y.    DCD    3866723160
        0x00001054:    e679835c    \.y.    DCD    3866723164
        0x00001058:    e6798400    ..y.    DCD    3866723328
        0x0000105c:    e6798404    ..y.    DCD    3866723332
        0x00001060:    e6798438    8.y.    DCD    3866723384
        0x00001064:    e679843c    <.y.    DCD    3866723388
        0x00001068:    e6798440    @.y.    DCD    3866723392
        0x0000106c:    e6798444    D.y.    DCD    3866723396
        0x00001070:    e6798904    ..y.    DCD    3866724612
        0x00001074:    e6798908    ..y.    DCD    3866724616
        0x00001078:    e679890c    ..y.    DCD    3866724620
        0x0000107c:    e6799000    ..y.    DCD    3866726400
        0x00001080:    e6799004    ..y.    DCD    3866726404
        0x00001084:    e6799010    ..y.    DCD    3866726416
        0x00001088:    e6799020     .y.    DCD    3866726432
        0x0000108c:    e6799024    $.y.    DCD    3866726436
        0x00001090:    e6799030    0.y.    DCD    3866726448
        0x00001094:    e6799034    4.y.    DCD    3866726452
        0x00001098:    e6799038    8.y.    DCD    3866726456
        0x0000109c:    e679903c    <.y.    DCD    3866726460
        0x000010a0:    e6799070    p.y.    DCD    3866726512
        0x000010a4:    e6799074    t.y.    DCD    3866726516
        0x000010a8:    e6799078    x.y.    DCD    3866726520
        0x000010ac:    e679907c    |.y.    DCD    3866726524
        0x000010b0:    e67990c0    ..y.    DCD    3866726592
        0x000010b4:    e67990c4    ..y.    DCD    3866726596
        0x000010b8:    e67990c8    ..y.    DCD    3866726600
        0x000010bc:    e67990cc    ..y.    DCD    3866726604
        0x000010c0:    e6799100    ..y.    DCD    3866726656
        0x000010c4:    e6799104    ..y.    DCD    3866726660
        0x000010c8:    e6799108    ..y.    DCD    3866726664
        0x000010cc:    e679910c    ..y.    DCD    3866726668
        0x000010d0:    e6799110    ..y.    DCD    3866726672
        0x000010d4:    e6799114    ..y.    DCD    3866726676
        0x000010d8:    e6799118    ..y.    DCD    3866726680
        0x000010dc:    e679911c    ..y.    DCD    3866726684
        0x000010e0:    e6799120     .y.    DCD    3866726688
        0x000010e4:    e6799124    $.y.    DCD    3866726692
        0x000010e8:    e6799128    (.y.    DCD    3866726696
        0x000010ec:    e679912c    ,.y.    DCD    3866726700
        0x000010f0:    e6799700    ..y.    DCD    3866728192
        0x000010f4:    e6799708    ..y.    DCD    3866728200
        0x000010f8:    e679970c    ..y.    DCD    3866728204
        0x000010fc:    e6798000    ..y.    DCD    3866722304
        0x00001100:    e6798004    ..y.    DCD    3866722308
        0x00001104:    e6798008    ..y.    DCD    3866722312
        0x00001108:    e679800c    ..y.    DCD    3866722316
        0x0000110c:    e6798014    ..y.    DCD    3866722324
        0x00001110:    e6798604    ..y.    DCD    3866723844
        0x00001114:    e6798644    D.y.    DCD    3866723908
        0x00001118:    e6798684    ..y.    DCD    3866723972
        0x0000111c:    e67986c4    ..y.    DCD    3866724036
        0x00001120:    e679861c    ..y.    DCD    3866723868
        0x00001124:    e679865c    \.y.    DCD    3866723932
        0x00001128:    e679869c    ..y.    DCD    3866723996
        0x0000112c:    e67986dc    ..y.    DCD    3866724060
        0x00001130:    e6798600    ..y.    DCD    3866723840
        0x00001134:    e6798640    @.y.    DCD    3866723904
        0x00001138:    e6798680    ..y.    DCD    3866723968
        0x0000113c:    e67986c0    ..y.    DCD    3866724032
        0x00001140:    e6798208    ..y.    DCD    3866722824
        0x00001144:    e6798804    ..y.    DCD    3866724356
        0x00001148:    e6798800    ..y.    DCD    3866724352
        0x0000114c:    e6798414    ..y.    DCD    3866723348
        0x00001150:    e6798418    ..y.    DCD    3866723352
        0x00001154:    e6798204    ..y.    DCD    3866722820
        0x00001158:    e6798620     .y.    DCD    3866723872
        0x0000115c:    e6798660    `.y.    DCD    3866723936
        0x00001160:    e67986a0    ..y.    DCD    3866724000
        0x00001164:    e67986e0    ..y.    DCD    3866724064
        0x00001168:    e6798200    ..y.    DCD    3866722816
    $a
        0x0000116c:    e59f0000    ....    LDR      r0,__ddr_init_end ; [0x1174] = 0x1178
        0x00001170:    e1a0f000    ....    MOV      pc,r0
    $d
    __ddr_init_end
        0x00001174:    00001178    x...    DCD    4472
    $a
    !!!main
    __main
        0x00001178:    eb000000    ....    BL       __scatterload ; 0x1180
        0x0000117c:    eb000098    ....    BL       $Ven$AT$L$$__rt_entry ; 0x13e4
    !!!scatter
    __scatterload
    __scatterload_rt2
        0x00001180:    e28f002c    ,...    ADR      r0,{pc}+0x34 ; 0x11b4
        0x00001184:    e8900c00    ....    LDM      r0,{r10,r11}
        0x00001188:    e08aa000    ....    ADD      r10,r10,r0
        0x0000118c:    e08bb000    ....    ADD      r11,r11,r0
        0x00001190:    e24a7001    .pJ.    SUB      r7,r10,#1
    __scatterload_null
        0x00001194:    e15a000b    ..Z.    CMP      r10,r11
        0x00001198:    1a000000    ....    BNE      0x11a0 ; __scatterload_null + 12
        0x0000119c:    eb000090    ....    BL       $Ven$AT$L$$__rt_entry ; 0x13e4
        0x000011a0:    e24fe014    ..O.    ADR      lr,{pc}-0xc ; 0x1194
        0x000011a4:    e8ba000f    ....    LDM      r10!,{r0-r3}
        0x000011a8:    e3130001    ....    TST      r3,#1
        0x000011ac:    1047f003    ..G.    SUBNE    pc,r7,r3
        0x000011b0:    e12fff13    ../.    BX       r3
    $d
        0x000011b4:    00000238    8...    DCD    568
        0x000011b8:    00000248    H...    DCD    584
    $a
    !!handler_zi
    __scatterload_zeroinit
        0x000011bc:    e3b03000    .0..    MOVS     r3,#0
        0x000011c0:    e3b04000    .@..    MOVS     r4,#0
        0x000011c4:    e3b05000    .P..    MOVS     r5,#0
        0x000011c8:    e3b06000    .`..    MOVS     r6,#0
        0x000011cc:    e2522010    . R.    SUBS     r2,r2,#0x10
        0x000011d0:    28a10078    x..(    STMCS    r1!,{r3-r6}
        0x000011d4:    8afffffc    ....    BHI      0x11cc ; __scatterload_zeroinit + 16
        0x000011d8:    e1b02e82    ....    LSLS     r2,r2,#29
        0x000011dc:    28a10030    0..(    STMCS    r1!,{r4,r5}
        0x000011e0:    45813000    .0.E    STRMI    r3,[r1,#0]
        0x000011e4:    e12fff1e    ../.    BX       lr
    MPU_INIT
    $v0
    __mpu_init
        0x000011e8:    e30004ff    ....    MOV      r0,#0x4ff
        0x000011ec:    e3400044    D.@.    MOVT     r0,#0x44
        0x000011f0:    ee8a0f12    ....    MCR      p15,#0x4,r0,c10,c2,#0
        0x000011f4:    e3a00cbb    ....    MOV      r0,#0xbb00
        0x000011f8:    e34d0dee    ..M.    MOVT     r0,#0xddee
        0x000011fc:    ee8a0f32    2...    MCR      p15,#0x4,r0,c10,c2,#1
        0x00001200:    e3a00000    ....    MOV      r0,#0
        0x00001204:    ee860f32    2...    MCR      p15,#0x4,r0,c6,c2,#1
        0x00001208:    e3a00002    ....    MOV      r0,#2
        0x0000120c:    e3400000    ..@.    MOVT     r0,#0
        0x00001210:    ee860f13    ....    MCR      p15,#0x4,r0,c6,c3,#0
        0x00001214:    e30f0fc1    ....    MOV      r0,#0xffc1
        0x00001218:    e34007ff    ..@.    MOVT     r0,#0x7ff
        0x0000121c:    ee860f33    3...    MCR      p15,#0x4,r0,c6,c3,#1
        0x00001220:    e3a00001    ....    MOV      r0,#1
        0x00001224:    ee860f32    2...    MCR      p15,#0x4,r0,c6,c2,#1
        0x00001228:    e3a00002    ....    MOV      r0,#2
        0x0000122c:    e3400800    ..@.    MOVT     r0,#0x800
        0x00001230:    ee860f13    ....    MCR      p15,#0x4,r0,c6,c3,#0
        0x00001234:    e30f0fc1    ....    MOV      r0,#0xffc1
        0x00001238:    e3400fff    ..@.    MOVT     r0,#0xfff
        0x0000123c:    ee860f33    3...    MCR      p15,#0x4,r0,c6,c3,#1
        0x00001240:    e3a00002    ....    MOV      r0,#2
        0x00001244:    ee860f32    2...    MCR      p15,#0x4,r0,c6,c2,#1
        0x00001248:    e3a00002    ....    MOV      r0,#2
        0x0000124c:    e3410000    ..A.    MOVT     r0,#0x1000
        0x00001250:    ee860f13    ....    MCR      p15,#0x4,r0,c6,c3,#0
        0x00001254:    e30f0fc1    ....    MOV      r0,#0xffc1
        0x00001258:    e3410fff    ..A.    MOVT     r0,#0x1fff
        0x0000125c:    ee860f33    3...    MCR      p15,#0x4,r0,c6,c3,#1
        0x00001260:    e3a00003    ....    MOV      r0,#3
        0x00001264:    ee860f32    2...    MCR      p15,#0x4,r0,c6,c2,#1
        0x00001268:    e3a00002    ....    MOV      r0,#2
        0x0000126c:    e3420000    ..B.    MOVT     r0,#0x2000
        0x00001270:    ee860f13    ....    MCR      p15,#0x4,r0,c6,c3,#0
        0x00001274:    e30f0fc1    ....    MOV      r0,#0xffc1
        0x00001278:    e3430fff    ..C.    MOVT     r0,#0x3fff
        0x0000127c:    ee860f33    3...    MCR      p15,#0x4,r0,c6,c3,#1
        0x00001280:    e3a00004    ....    MOV      r0,#4
        0x00001284:    ee860f32    2...    MCR      p15,#0x4,r0,c6,c2,#1
        0x00001288:    e3a00002    ....    MOV      r0,#2
        0x0000128c:    e3440000    ..D.    MOVT     r0,#0x4000
        0x00001290:    ee860f13    ....    MCR      p15,#0x4,r0,c6,c3,#0
        0x00001294:    e30f0fc1    ....    MOV      r0,#0xffc1
        0x00001298:    e34b0fff    ..K.    MOVT     r0,#0xbfff
        0x0000129c:    ee860f33    3...    MCR      p15,#0x4,r0,c6,c3,#1
        0x000012a0:    e3a00005    ....    MOV      r0,#5
        0x000012a4:    ee860f32    2...    MCR      p15,#0x4,r0,c6,c2,#1
        0x000012a8:    e3a00002    ....    MOV      r0,#2
        0x000012ac:    e34c0000    ..L.    MOVT     r0,#0xc000
        0x000012b0:    ee860f13    ....    MCR      p15,#0x4,r0,c6,c3,#0
        0x000012b4:    e30f0fc1    ....    MOV      r0,#0xffc1
        0x000012b8:    e34d0fff    ..M.    MOVT     r0,#0xdfff
        0x000012bc:    ee860f33    3...    MCR      p15,#0x4,r0,c6,c3,#1
        0x000012c0:    e3a00006    ....    MOV      r0,#6
        0x000012c4:    ee860f32    2...    MCR      p15,#0x4,r0,c6,c2,#1
        0x000012c8:    e3a00002    ....    MOV      r0,#2
        0x000012cc:    e34e0000    ..N.    MOVT     r0,#0xe000
        0x000012d0:    ee860f13    ....    MCR      p15,#0x4,r0,c6,c3,#0
        0x000012d4:    e30f0fc7    ....    MOV      r0,#0xffc7
        0x000012d8:    e34e062f    /.N.    MOVT     r0,#0xe62f
        0x000012dc:    ee860f33    3...    MCR      p15,#0x4,r0,c6,c3,#1
        0x000012e0:    e3a00007    ....    MOV      r0,#7
        0x000012e4:    ee860f32    2...    MCR      p15,#0x4,r0,c6,c2,#1
        0x000012e8:    e3a00002    ....    MOV      r0,#2
        0x000012ec:    e34e0630    0.N.    MOVT     r0,#0xe630
        0x000012f0:    ee860f13    ....    MCR      p15,#0x4,r0,c6,c3,#0
        0x000012f4:    e30f0fc1    ....    MOV      r0,#0xffc1
        0x000012f8:    e34e063f    ?.N.    MOVT     r0,#0xe63f
        0x000012fc:    ee860f33    3...    MCR      p15,#0x4,r0,c6,c3,#1
        0x00001300:    e3a00008    ....    MOV      r0,#8
        0x00001304:    ee860f32    2...    MCR      p15,#0x4,r0,c6,c2,#1
        0x00001308:    e3a00002    ....    MOV      r0,#2
        0x0000130c:    e34e0640    @.N.    MOVT     r0,#0xe640
        0x00001310:    ee860f13    ....    MCR      p15,#0x4,r0,c6,c3,#0
        0x00001314:    e30f0fc7    ....    MOV      r0,#0xffc7
        0x00001318:    e34e0b0f    ..N.    MOVT     r0,#0xeb0f
        0x0000131c:    ee860f33    3...    MCR      p15,#0x4,r0,c6,c3,#1
        0x00001320:    e3a00009    ....    MOV      r0,#9
        0x00001324:    ee860f32    2...    MCR      p15,#0x4,r0,c6,c2,#1
        0x00001328:    e3a00002    ....    MOV      r0,#2
        0x0000132c:    e34e0b10    ..N.    MOVT     r0,#0xeb10
        0x00001330:    ee860f13    ....    MCR      p15,#0x4,r0,c6,c3,#0
        0x00001334:    e30f0fc1    ....    MOV      r0,#0xffc1
        0x00001338:    e34e0b3f    ?.N.    MOVT     r0,#0xeb3f
        0x0000133c:    ee860f33    3...    MCR      p15,#0x4,r0,c6,c3,#1
        0x00001340:    e3a0000a    ....    MOV      r0,#0xa
        0x00001344:    ee860f32    2...    MCR      p15,#0x4,r0,c6,c2,#1
        0x00001348:    e3a00002    ....    MOV      r0,#2
        0x0000134c:    e34e0b40    @.N.    MOVT     r0,#0xeb40
        0x00001350:    ee860f13    ....    MCR      p15,#0x4,r0,c6,c3,#0
        0x00001354:    e30f0fc7    ....    MOV      r0,#0xffc7
        0x00001358:    e34e0cff    ..N.    MOVT     r0,#0xecff
        0x0000135c:    ee860f33    3...    MCR      p15,#0x4,r0,c6,c3,#1
        0x00001360:    e3a0000b    ....    MOV      r0,#0xb
        0x00001364:    ee860f32    2...    MCR      p15,#0x4,r0,c6,c2,#1
        0x00001368:    e3a00002    ....    MOV      r0,#2
        0x0000136c:    e34e0d00    ..N.    MOVT     r0,#0xed00
        0x00001370:    ee860f13    ....    MCR      p15,#0x4,r0,c6,c3,#0
        0x00001374:    e30f0fc1    ....    MOV      r0,#0xffc1
        0x00001378:    e34e0dff    ..N.    MOVT     r0,#0xedff
        0x0000137c:    ee860f33    3...    MCR      p15,#0x4,r0,c6,c3,#1
        0x00001380:    e3a0000c    ....    MOV      r0,#0xc
        0x00001384:    ee860f32    2...    MCR      p15,#0x4,r0,c6,c2,#1
        0x00001388:    e3a00002    ....    MOV      r0,#2
        0x0000138c:    e34e0e00    ..N.    MOVT     r0,#0xee00
        0x00001390:    ee860f13    ....    MCR      p15,#0x4,r0,c6,c3,#0
        0x00001394:    e30f0fc7    ....    MOV      r0,#0xffc7
        0x00001398:    e34f0fff    ..O.    MOVT     r0,#0xffff
        0x0000139c:    ee860f33    3...    MCR      p15,#0x4,r0,c6,c3,#1
        0x000013a0:    ee910f10    ....    MRC      p15,#0x4,r0,c1,c0,#0
        0x000013a4:    e3800001    ....    ORR      r0,r0,#1
        0x000013a8:    f57ff04f    O...    DSB      
        0x000013ac:    ee810f10    ....    MCR      p15,#0x4,r0,c1,c0,#0
        0x000013b0:    f57ff06f    o...    ISB      
        0x000013b4:    e12fff1e    ../.    BX       lr
    __mpu_init_el1
        0x000013b8:    e12fff1e    ../.    BX       lr
    $Ven$AA$L$$UndefinedInstruction_Handler
        0x000013bc:    e51ff004    ....    LDR      pc,[pc,#-4] ; [0x13c0] = 0x40000824
    $d
        0x000013c0:    40000824    $..@    DCD    1073743908
    $a
    $Ven$AA$L$$SupervisorCall_Handler
        0x000013c4:    e51ff004    ....    LDR      pc,[pc,#-4] ; [0x13c8] = 0x40000818
    $d
        0x000013c8:    40000818    ...@    DCD    1073743896
    $a
    $Ven$AA$L$$PrefetchAbort_Handler
        0x000013cc:    e51ff004    ....    LDR      pc,[pc,#-4] ; [0x13d0] = 0x400007c0
    $d
        0x000013d0:    400007c0    ...@    DCD    1073743808
    $a
    $Ven$AA$L$$DataAbort_Handler
        0x000013d4:    e51ff004    ....    LDR      pc,[pc,#-4] ; [0x13d8] = 0x4000011c
    $d
        0x000013d8:    4000011c    ...@    DCD    1073742108
    $a
    $Ven$AA$L$$IRQ_Handler
        0x000013dc:    e51ff004    ....    LDR      pc,[pc,#-4] ; [0x13e0] = 0x40000780
    $d
        0x000013e0:    40000780    ...@    DCD    1073743744
    $a
    $Ven$AT$L$$__rt_entry
        0x000013e4:    e51ff004    ....    LDR      pc,[pc,#-4] ; [0x13e8] = 0x4000007d
    $d
        0x000013e8:    4000007d    }..@    DCD    1073741949
    $d.realdata
    Region$$Table$$Base
        0x000013ec:    400032b8    .2.@    DCD    1073754808
        0x000013f0:    400032b8    .2.@    DCD    1073754808
        0x000013f4:    000004a8    ....    DCD    1192
        0x000013f8:    000011bc    ....    DCD    4540
    Region$$Table$$Limit

====================================

** Section #2

    Name        : ER10
    Type        : SHT_PROGBITS (0x00000001)
    Flags       : SHF_ALLOC + SHF_EXECINSTR (0x00000006)
    Addr        : 0x40000000
    File Offset : 5168 (0x1430)
    Size        : 9088 bytes (0x2380)
    Link        : SHN_UNDEF
    Info        : 0
    Alignment   : 4
    Entry Size  : 0

    $a
    VECTORS
    $v0
    __vectors_start
        0x40000000:    ea000685    ....    B        $Ven$AA$L$$Reset_Handler ; 0x40001a1c
        0x40000004:    ea000005    ....    B        0x40000020 ; __vectors_start + 32
        0x40000008:    ea000008    ....    B        0x40000030 ; __vectors_start + 48
        0x4000000c:    ea00000b    ....    B        0x40000040 ; __vectors_start + 64
        0x40000010:    ea00000e    ....    B        0x40000050 ; __vectors_start + 80
        0x40000014:    e320f000    .. .    NOP      
        0x40000018:    ea000010    ....    B        0x40000060 ; __vectors_start + 96
        0x4000001c:    eafffffe    ....    B        0x4000001c ; __vectors_start + 28
        0x40000020:    e92d5c0f    .\-.    PUSH     {r0-r3,r10-r12,lr}
        0x40000024:    eb0001fe    ....    BL       UndefinedInstruction_Handler ; 0x40000824
        0x40000028:    e8bd5c0f    .\..    POP      {r0-r3,r10-r12,lr}
        0x4000002c:    e160006e    n.`.    ERET     
        0x40000030:    e92d5c0f    .\-.    PUSH     {r0-r3,r10-r12,lr}
        0x40000034:    eb0001f7    ....    BL       SupervisorCall_Handler ; 0x40000818
        0x40000038:    e8bd5c0f    .\..    POP      {r0-r3,r10-r12,lr}
        0x4000003c:    e160006e    n.`.    ERET     
        0x40000040:    e92d5c0f    .\-.    PUSH     {r0-r3,r10-r12,lr}
        0x40000044:    eb0001dd    ....    BL       PrefetchAbort_Handler ; 0x400007c0
        0x40000048:    e8bd5c0f    .\..    POP      {r0-r3,r10-r12,lr}
        0x4000004c:    e160006e    n.`.    ERET     
        0x40000050:    e92d5c0f    .\-.    PUSH     {r0-r3,r10-r12,lr}
        0x40000054:    eb000030    0...    BL       DataAbort_Handler ; 0x4000011c
        0x40000058:    e8bd5c0f    .\..    POP      {r0-r3,r10-r12,lr}
        0x4000005c:    e160006e    n.`.    ERET     
        0x40000060:    e92d5c0f    .\-.    PUSH     {r0-r3,r10-r12,lr}
        0x40000064:    eb0001c5    ....    BL       IRQ_Handler ; 0x40000780
        0x40000068:    e8bd5c0f    .\..    POP      {r0-r3,r10-r12,lr}
        0x4000006c:    e160006e    n.`.    ERET     
    $t
    .ARM.Collect$$libinit$$00000000
    __rt_lib_init
        0x40000070:    b51f        ..      PUSH     {r0-r4,lr}
    .ARM.Collect$$libinit$$00000001
    __rt_lib_init_fp_1
        0x40000072:    f001ecd8    ....    BLX      _fp_init ; 0x40001a24
    .ARM.Collect$$libinit$$00000004
    .ARM.Collect$$libinit$$0000000A
    .ARM.Collect$$libinit$$0000000C
    .ARM.Collect$$libinit$$0000000E
    .ARM.Collect$$libinit$$00000011
    .ARM.Collect$$libinit$$00000013
    .ARM.Collect$$libinit$$00000015
    .ARM.Collect$$libinit$$00000017
    .ARM.Collect$$libinit$$00000019
    .ARM.Collect$$libinit$$0000001B
    .ARM.Collect$$libinit$$0000001D
    .ARM.Collect$$libinit$$0000001F
    .ARM.Collect$$libinit$$00000021
    .ARM.Collect$$libinit$$00000023
    .ARM.Collect$$libinit$$00000025
    .ARM.Collect$$libinit$$0000002C
    .ARM.Collect$$libinit$$0000002E
    .ARM.Collect$$libinit$$00000030
    .ARM.Collect$$libinit$$00000032
    .ARM.Collect$$libinit$$00000033
    __rt_lib_init_alloca_1
    __rt_lib_init_argv_1
    __rt_lib_init_atexit_1
    __rt_lib_init_clock_1
    __rt_lib_init_cpp_1
    __rt_lib_init_exceptions_1
    __rt_lib_init_fp_trap_1
    __rt_lib_init_getenv_1
    __rt_lib_init_heap_1
    __rt_lib_init_lc_collate_1
    __rt_lib_init_lc_ctype_1
    __rt_lib_init_lc_monetary_1
    __rt_lib_init_lc_numeric_1
    __rt_lib_init_lc_time_1
    __rt_lib_init_preinit_1
    __rt_lib_init_rand_1
    __rt_lib_init_return
    __rt_lib_init_signal_1
    __rt_lib_init_stdio_1
    __rt_lib_init_user_alloc_1
        0x40000076:    bd1f        ..      POP      {r0-r4,pc}
    .ARM.Collect$$libshutdown$$00000000
    __rt_lib_shutdown
        0x40000078:    b510        ..      PUSH     {r4,lr}
    .ARM.Collect$$libshutdown$$00000002
    .ARM.Collect$$libshutdown$$00000004
    .ARM.Collect$$libshutdown$$00000007
    .ARM.Collect$$libshutdown$$0000000A
    .ARM.Collect$$libshutdown$$0000000C
    .ARM.Collect$$libshutdown$$0000000F
    .ARM.Collect$$libshutdown$$00000010
    __rt_lib_shutdown_cpp_1
    __rt_lib_shutdown_fp_trap_1
    __rt_lib_shutdown_heap_1
    __rt_lib_shutdown_return
    __rt_lib_shutdown_signal_1
    __rt_lib_shutdown_stdio_1
    __rt_lib_shutdown_user_alloc_1
        0x4000007a:    bd10        ..      POP      {r4,pc}
    .ARM.Collect$$rtentry$$00000000
    .ARM.Collect$$rtentry$$00000002
    .ARM.Collect$$rtentry$$00000007
    __rt_entry
    __rt_entry_presh_1
    __rt_entry_sh
        0x4000007c:    f8dfd00c    ....    LDR      sp,__lit__00000000 ; [0x4000008c] = 0x70000000
    .ARM.Collect$$rtentry$$00000009
    .ARM.Collect$$rtentry$$0000000A
    __rt_entry_li
    __rt_entry_postsh_1
        0x40000080:    f7fffff6    ....    BL       __rt_lib_init ; 0x40000070
    .ARM.Collect$$rtentry$$0000000C
    .ARM.Collect$$rtentry$$0000000D
    __rt_entry_main
    __rt_entry_postli_1
        0x40000084:    f000edb6    ....    BLX      main ; 0x40000bf4
        0x40000088:    f000f80a    ....    BL       exit ; 0x400000a0
    $d
    .ARM.Collect$$rtentry$$00002718
    __lit__00000000
        0x4000008c:    70000000    ...p    DCD    1879048192
    $t
    .ARM.Collect$$rtexit$$00000000
    __rt_exit
        0x40000090:    b403        ..      PUSH     {r0,r1}
    .ARM.Collect$$rtexit$$00000002
    .ARM.Collect$$rtexit$$00000003
    __rt_exit_ls
    __rt_exit_prels_1
        0x40000092:    f7fffff1    ....    BL       __rt_lib_shutdown ; 0x40000078
    .ARM.Collect$$rtexit$$00000004
    __rt_exit_exit
        0x40000096:    bc03        ..      POP      {r0,r1}
        0x40000098:    f000ebca    ....    BLX      _sys_exit ; 0x40000830
    $a
    .text
    __I$use$semihosting
    __use_no_semihosting_swi
        0x4000009c:    e12fff1e    ../.    BX       lr
    $t
    .text
    exit
        0x400000a0:    b510        ..      PUSH     {r4,lr}
        0x400000a2:    4604        .F      MOV      r4,r0
        0x400000a4:    f3af8000    ....    NOP.W    
        0x400000a8:    4620         F      MOV      r0,r4
        0x400000aa:    e8bd4010    ...@    POP      {r4,lr}
        0x400000ae:    f7ffbfef    ....    B.W      __rt_exit ; 0x40000090
        0x400000b2:    0000        ..      MOVS     r0,r0
    $a.1
    CPG_ClearBit
        0x400000b4:    e5902000    . ..    LDR      r2,[r0,#0]
        0x400000b8:    e3a03001    .0..    MOV      r3,#1
        0x400000bc:    e1c21113    ....    BIC      r1,r2,r3,LSL r1
        0x400000c0:    e1e02001    . ..    MVN      r2,r1
        0x400000c4:    e3003000    .0..    MOVW     r3,#0
        0x400000c8:    e34e3615    .6N.    MOVT     r3,#0xe615
        0x400000cc:    e5832000    . ..    STR      r2,[r3,#0]
        0x400000d0:    e5801000    ....    STR      r1,[r0,#0]
        0x400000d4:    e12fff1e    ../.    BX       lr
    CPG_SetBit
        0x400000d8:    e5902000    . ..    LDR      r2,[r0,#0]
        0x400000dc:    e3a03001    .0..    MOV      r3,#1
        0x400000e0:    e1821113    ....    ORR      r1,r2,r3,LSL r1
        0x400000e4:    e1e02001    . ..    MVN      r2,r1
        0x400000e8:    e3003000    .0..    MOVW     r3,#0
        0x400000ec:    e34e3615    .6N.    MOVT     r3,#0xe615
        0x400000f0:    e5832000    . ..    STR      r2,[r3,#0]
        0x400000f4:    e5801000    ....    STR      r1,[r0,#0]
        0x400000f8:    e12fff1e    ../.    BX       lr
    CPG_SetMultipleBit
        0x400000fc:    e5902000    . ..    LDR      r2,[r0,#0]
        0x40000100:    e1821001    ....    ORR      r1,r2,r1
        0x40000104:    e1e02001    . ..    MVN      r2,r1
        0x40000108:    e3003000    .0..    MOVW     r3,#0
        0x4000010c:    e34e3615    .6N.    MOVT     r3,#0xe615
        0x40000110:    e5832000    . ..    STR      r2,[r3,#0]
        0x40000114:    e5801000    ....    STR      r1,[r0,#0]
        0x40000118:    e12fff1e    ../.    BX       lr
    DataAbort_Handler
        0x4000011c:    e92d4800    .H-.    PUSH     {r11,lr}
        0x40000120:    eb0001b8    ....    BL       Sim_Stop ; 0x40000808
        0x40000124:    eafffffe    ....    B        0x40000124 ; DataAbort_Handler + 8
    GIC_defaultHandler
        0x40000128:    eafffffe    ....    B        GIC_defaultHandler ; 0x40000128
    GIC_enable
        0x4000012c:    f1080080    ....    CPSIE    i
        0x40000130:    e3000014    ....    MOVW     r0,#0x14
        0x40000134:    e34f0010    ..O.    MOVT     r0,#0xf010
        0x40000138:    e3a01000    ....    MOV      r1,#0
        0x4000013c:    e5801000    ....    STR      r1,[r0,#0]
        0x40000140:    e5901000    ....    LDR      r1,[r0,#0]
        0x40000144:    e3110006    ....    TST      r1,#6
        0x40000148:    1afffffc    ....    BNE      0x40000140 ; GIC_enable + 20
        0x4000014c:    e3a010f8    ....    MOV      r1,#0xf8
        0x40000150:    ee041f16    ....    MCR      p15,#0x0,r1,c4,c6,#0
        0x40000154:    e3a0020f    ....    MOV      r0,#0xf0000000
        0x40000158:    e3a01003    ....    MOV      r1,#3
        0x4000015c:    e5801000    ....    STR      r1,[r0,#0]
        0x40000160:    ee1c1ffc    ....    MRC      p15,#0x0,r1,c12,c12,#7
        0x40000164:    e3a02003    . ..    MOV      r2,#3
        0x40000168:    e1811002    ....    ORR      r1,r1,r2
        0x4000016c:    ee0c1ffc    ....    MCR      p15,#0x0,r1,c12,c12,#7
        0x40000170:    e12fff1e    ../.    BX       lr
    GIC_enableInterrupt
        0x40000174:    e92d4830    0H-.    PUSH     {r4,r5,r11,lr}
        0x40000178:    e3061004    ....    MOV      r1,#0x6004
        0x4000017c:    e34f1000    ..O.    MOVT     r1,#0xf000
        0x40000180:    e3a02000    . ..    MOV      r2,#0
        0x40000184:    e7812180    .!..    STR      r2,[r1,r0,LSL #3]
        0x40000188:    e3061000    ....    MOVW     r1,#0x6000
        0x4000018c:    e34f1000    ..O.    MOVT     r1,#0xf000
        0x40000190:    e7812180    .!..    STR      r2,[r1,r0,LSL #3]
        0x40000194:    e3e0123e    >...    MVN      r1,#0xe0000003
        0x40000198:    e00111a0    ....    AND      r1,r1,r0,LSR #3
        0x4000019c:    e300c080    ....    MOVW     r12,#0x80
        0x400001a0:    e34fc000    ..O.    MOVT     r12,#0xf000
        0x400001a4:    e7b1300c    .0..    LDR      r3,[r1,r12]!
        0x400001a8:    e200201f    . ..    AND      r2,r0,#0x1f
        0x400001ac:    e3a0e001    ....    MOV      lr,#1
        0x400001b0:    e183321e    .2..    ORR      r3,r3,lr,LSL r2
        0x400001b4:    e5813000    .0..    STR      r3,[r1,#0]
        0x400001b8:    e5913c80    .<..    LDR      r3,[r1,#0xc80]
        0x400001bc:    e1c3321e    .2..    BIC      r3,r3,lr,LSL r2
        0x400001c0:    e5813c80    .<..    STR      r3,[r1,#0xc80]
        0x400001c4:    e3a03018    .0..    MOV      r3,#0x18
        0x400001c8:    e0033180    .1..    AND      r3,r3,r0,LSL #3
        0x400001cc:    e080400c    .@..    ADD      r4,r0,r12
        0x400001d0:    e2844d0e    .M..    ADD      r4,r4,#0x380
        0x400001d4:    e3c44003    .@..    BIC      r4,r4,#3
        0x400001d8:    e5945000    .P..    LDR      r5,[r4,#0]
        0x400001dc:    e1c5331e    .3..    BIC      r3,r5,lr,LSL r3
        0x400001e0:    e5843000    .0..    STR      r3,[r4,#0]
        0x400001e4:    e3a0301e    .0..    MOV      r3,#0x1e
        0x400001e8:    e0033080    .0..    AND      r3,r3,r0,LSL #1
        0x400001ec:    e3e0410f    .A..    MVN      r4,#0xc0000003
        0x400001f0:    e0040120     ...    AND      r0,r4,r0,LSR #2
        0x400001f4:    e080000c    ....    ADD      r0,r0,r12
        0x400001f8:    e5905b80    .[..    LDR      r5,[r0,#0xb80]
        0x400001fc:    e185331e    .3..    ORR      r3,r5,lr,LSL r3
        0x40000200:    e5803b80    .;..    STR      r3,[r0,#0xb80]
        0x40000204:    e5910080    ....    LDR      r0,[r1,#0x80]
        0x40000208:    e180021e    ....    ORR      r0,r0,lr,LSL r2
        0x4000020c:    e5810080    ....    STR      r0,[r1,#0x80]
        0x40000210:    e8bd8830    0...    POP      {r4,r5,r11,pc}
    GIC_endInterrupt
        0x40000214:    e3500ff2    ..P.    CMP      r0,#0x3c8
        0x40000218:    812fff1e    ../.    BXHI     lr
        0x4000021c:    ee0c0f3c    <...    MCR      p15,#0x0,r0,c12,c12,#1
        0x40000220:    f57ff04f    O...    DSB      
        0x40000224:    e12fff1e    ../.    BX       lr
    GIC_executeInterruptHandler
        0x40000228:    e3500ff2    ..P.    CMP      r0,#0x3c8
        0x4000022c:    812fff1e    ../.    BXHI     lr
        0x40000230:    e3021380    ....    MOVW     r1,#0x2380
        0x40000234:    e3441000    ..D.    MOVT     r1,#0x4000
        0x40000238:    e7910100    ....    LDR      r0,[r1,r0,LSL #2]
        0x4000023c:    e12fff10    ../.    BX       r0
    GIC_getACKID
        0x40000240:    e92d4010    .@-.    PUSH     {r4,lr}
        0x40000244:    ee1c4f1c    .O..    MRC      p15,#0x0,r4,c12,c12,#0
        0x40000248:    f57ff04f    O...    DSB      
        0x4000024c:    e1a00004    ....    MOV      r0,r4
        0x40000250:    ebffffef    ....    BL       GIC_endInterrupt ; 0x40000214
        0x40000254:    e1a00004    ....    MOV      r0,r4
        0x40000258:    e8bd8010    ....    POP      {r4,pc}
    GIC_setInterruptHandler
        0x4000025c:    e3500ff2    ..P.    CMP      r0,#0x3c8
        0x40000260:    812fff1e    ../.    BXHI     lr
        0x40000264:    e3022380    .#..    MOVW     r2,#0x2380
        0x40000268:    e3442000    . D.    MOVT     r2,#0x4000
        0x4000026c:    e7821100    ....    STR      r1,[r2,r0,LSL #2]
        0x40000270:    e12fff1e    ../.    BX       lr
    I2C_configPins
        0x40000274:    e3000800    ....    MOVW     r0,#0x800
        0x40000278:    e34e0605    ..N.    MOVT     r0,#0xe605
        0x4000027c:    e2801c01    ....    ADD      r1,r0,#0x100
        0x40000280:    e30f2ffc    ./..    MOV      r2,#0xfffc
        0x40000284:    ea000147    G...    B        PFC_SetMultipleBit ; 0x400007a8
    I2C_masterClearInterruptStatus
        0x40000288:    e590200c    . ..    LDR      r2,[r0,#0xc]
        0x4000028c:    e1c21001    ....    BIC      r1,r2,r1
        0x40000290:    e580100c    ....    STR      r1,[r0,#0xc]
        0x40000294:    e12fff1e    ../.    BX       lr
    I2C_masterDisableStartGeneration
        0x40000298:    e5901004    ....    LDR      r1,[r0,#4]
        0x4000029c:    e3c11001    ....    BIC      r1,r1,#1
        0x400002a0:    e5801004    ....    STR      r1,[r0,#4]
        0x400002a4:    e12fff1e    ../.    BX       lr
    I2C_masterEnable
        0x400002a8:    e5901004    ....    LDR      r1,[r0,#4]
        0x400002ac:    e3811008    ....    ORR      r1,r1,#8
        0x400002b0:    e5801004    ....    STR      r1,[r0,#4]
        0x400002b4:    e12fff1e    ../.    BX       lr
    I2C_masterEnableInterrupt
        0x400002b8:    e5902014    . ..    LDR      r2,[r0,#0x14]
        0x400002bc:    e1821001    ....    ORR      r1,r2,r1
        0x400002c0:    e5801014    ....    STR      r1,[r0,#0x14]
        0x400002c4:    e12fff1e    ../.    BX       lr
    I2C_masterGetInterruptStatus
        0x400002c8:    e590000c    ....    LDR      r0,[r0,#0xc]
        0x400002cc:    e6ef0070    p...    UXTB     r0,r0
        0x400002d0:    e12fff1e    ../.    BX       lr
    I2C_masterInit
        0x400002d4:    e92d4830    0H-.    PUSH     {r4,r5,r11,lr}
        0x400002d8:    e5d12004    . ..    LDRB     r2,[r1,#4]
        0x400002dc:    e5913000    .0..    LDR      r3,[r1,#0]
        0x400002e0:    e1832082    . ..    ORR      r2,r3,r2,LSL #1
        0x400002e4:    e5802020      ..    STR      r2,[r0,#0x20]
        0x400002e8:    e5902004    . ..    LDR      r2,[r0,#4]
        0x400002ec:    e3822080    . ..    ORR      r2,r2,#0x80
        0x400002f0:    e5802004    . ..    STR      r2,[r0,#4]
        0x400002f4:    e591c008    ....    LDR      r12,[r1,#8]
        0x400002f8:    e5903004    .0..    LDR      r3,[r0,#4]
        0x400002fc:    e3c32004    . ..    BIC      r2,r3,#4
        0x40000300:    e35c0001    ..\.    CMP      r12,#1
        0x40000304:    03832004    . ..    ORREQ    r2,r3,#4
        0x40000308:    e5802004    . ..    STR      r2,[r0,#4]
        0x4000030c:    e281400c    .@..    ADD      r4,r1,#0xc
        0x40000310:    e894001c    ....    LDM      r4,{r2-r4}
        0x40000314:    e301ca30    0...    MOV      r12,#0x1a30
        0x40000318:    e344c000    ..D.    MOVT     r12,#0x4000
        0x4000031c:    e3a0ee23    #...    MOV      lr,#0x230
        0x40000320:    e025ce92    ..%.    MLA      r5,r2,lr,r12
        0x40000324:    e3a02f46    F/..    MOV      r2,#0x118
        0x40000328:    e0235293    .R#.    MLA      r3,r3,r2,r5
        0x4000032c:    e0844104    .A..    ADD      r4,r4,r4,LSL #2
        0x40000330:    e7933184    .1..    LDR      r3,[r3,r4,LSL #3]
        0x40000334:    e5904028    (@..    LDR      r4,[r0,#0x28]
        0x40000338:    e7c24113    .A..    BFI      r4,r3,#2,#1
        0x4000033c:    e5804028    (@..    STR      r4,[r0,#0x28]
        0x40000340:    e281500c    .P..    ADD      r5,r1,#0xc
        0x40000344:    e8950038    8...    LDM      r5,{r3-r5}
        0x40000348:    e023ce93    ..#.    MLA      r3,r3,lr,r12
        0x4000034c:    e0233294    .2#.    MLA      r3,r4,r2,r3
        0x40000350:    e0854105    .A..    ADD      r4,r5,r5,LSL #2
        0x40000354:    e0833184    .1..    ADD      r3,r3,r4,LSL #3
        0x40000358:    e5933004    .0..    LDR      r3,[r3,#4]
        0x4000035c:    e5904028    (@..    LDR      r4,[r0,#0x28]
        0x40000360:    e7c14093    .@..    BFI      r4,r3,#1,#1
        0x40000364:    e5804028    (@..    STR      r4,[r0,#0x28]
        0x40000368:    e281500c    .P..    ADD      r5,r1,#0xc
        0x4000036c:    e8950038    8...    LDM      r5,{r3-r5}
        0x40000370:    e023ce93    ..#.    MLA      r3,r3,lr,r12
        0x40000374:    e0233294    .2#.    MLA      r3,r4,r2,r3
        0x40000378:    e0854105    .A..    ADD      r4,r5,r5,LSL #2
        0x4000037c:    e0833184    .1..    ADD      r3,r3,r4,LSL #3
        0x40000380:    e5933008    .0..    LDR      r3,[r3,#8]
        0x40000384:    e5904028    (@..    LDR      r4,[r0,#0x28]
        0x40000388:    e7c04013    .@..    BFI      r4,r3,#0,#1
        0x4000038c:    e5804028    (@..    STR      r4,[r0,#0x28]
        0x40000390:    e281500c    .P..    ADD      r5,r1,#0xc
        0x40000394:    e8950038    8...    LDM      r5,{r3-r5}
        0x40000398:    e023ce93    ..#.    MLA      r3,r3,lr,r12
        0x4000039c:    e0233294    .2#.    MLA      r3,r4,r2,r3
        0x400003a0:    e0854105    .A..    ADD      r4,r5,r5,LSL #2
        0x400003a4:    e0833184    .1..    ADD      r3,r3,r4,LSL #3
        0x400003a8:    e593300c    .0..    LDR      r3,[r3,#0xc]
        0x400003ac:    e5904038    8@..    LDR      r4,[r0,#0x38]
        0x400003b0:    e7c44013    .@..    BFI      r4,r3,#0,#5
        0x400003b4:    e5804038    8@..    STR      r4,[r0,#0x38]
        0x400003b8:    e281500c    .P..    ADD      r5,r1,#0xc
        0x400003bc:    e8950038    8...    LDM      r5,{r3-r5}
        0x400003c0:    e023ce93    ..#.    MLA      r3,r3,lr,r12
        0x400003c4:    e0233294    .2#.    MLA      r3,r4,r2,r3
        0x400003c8:    e0854105    .A..    ADD      r4,r5,r5,LSL #2
        0x400003cc:    e0833184    .1..    ADD      r3,r3,r4,LSL #3
        0x400003d0:    e5933010    .0..    LDR      r3,[r3,#0x10]
        0x400003d4:    e5904018    .@..    LDR      r4,[r0,#0x18]
        0x400003d8:    e7c24013    .@..    BFI      r4,r3,#0,#3
        0x400003dc:    e5804018    .@..    STR      r4,[r0,#0x18]
        0x400003e0:    e281500c    .P..    ADD      r5,r1,#0xc
        0x400003e4:    e8950038    8...    LDM      r5,{r3-r5}
        0x400003e8:    e023ce93    ..#.    MLA      r3,r3,lr,r12
        0x400003ec:    e0233294    .2#.    MLA      r3,r4,r2,r3
        0x400003f0:    e0854105    .A..    ADD      r4,r5,r5,LSL #2
        0x400003f4:    e0833184    .1..    ADD      r3,r3,r4,LSL #3
        0x400003f8:    e5933014    .0..    LDR      r3,[r3,#0x14]
        0x400003fc:    e5904018    .@..    LDR      r4,[r0,#0x18]
        0x40000400:    e7c84193    .A..    BFI      r4,r3,#3,#6
        0x40000404:    e5804018    .@..    STR      r4,[r0,#0x18]
        0x40000408:    e281500c    .P..    ADD      r5,r1,#0xc
        0x4000040c:    e8950038    8...    LDM      r5,{r3-r5}
        0x40000410:    e023ce93    ..#.    MLA      r3,r3,lr,r12
        0x40000414:    e0233294    .2#.    MLA      r3,r4,r2,r3
        0x40000418:    e0854105    .A..    ADD      r4,r5,r5,LSL #2
        0x4000041c:    e0833184    .1..    ADD      r3,r3,r4,LSL #3
        0x40000420:    e5933018    .0..    LDR      r3,[r3,#0x18]
        0x40000424:    e580302c    ,0..    STR      r3,[r0,#0x2c]
        0x40000428:    e281500c    .P..    ADD      r5,r1,#0xc
        0x4000042c:    e8950038    8...    LDM      r5,{r3-r5}
        0x40000430:    e023ce93    ..#.    MLA      r3,r3,lr,r12
        0x40000434:    e0233294    .2#.    MLA      r3,r4,r2,r3
        0x40000438:    e0854105    .A..    ADD      r4,r5,r5,LSL #2
        0x4000043c:    e0833184    .1..    ADD      r3,r3,r4,LSL #3
        0x40000440:    e593301c    .0..    LDR      r3,[r3,#0x1c]
        0x40000444:    e5803030    00..    STR      r3,[r0,#0x30]
        0x40000448:    e281500c    .P..    ADD      r5,r1,#0xc
        0x4000044c:    e8950038    8...    LDM      r5,{r3-r5}
        0x40000450:    e023ce93    ..#.    MLA      r3,r3,lr,r12
        0x40000454:    e0233294    .2#.    MLA      r3,r4,r2,r3
        0x40000458:    e0854105    .A..    ADD      r4,r5,r5,LSL #2
        0x4000045c:    e0833184    .1..    ADD      r3,r3,r4,LSL #3
        0x40000460:    e5933020     0..    LDR      r3,[r3,#0x20]
        0x40000464:    e5803034    40..    STR      r3,[r0,#0x34]
        0x40000468:    e591300c    .0..    LDR      r3,[r1,#0xc]
        0x4000046c:    e5914010    .@..    LDR      r4,[r1,#0x10]
        0x40000470:    e5911014    ....    LDR      r1,[r1,#0x14]
        0x40000474:    e023ce93    ..#.    MLA      r3,r3,lr,r12
        0x40000478:    e0223294    .2".    MLA      r2,r4,r2,r3
        0x4000047c:    e0811101    ....    ADD      r1,r1,r1,LSL #2
        0x40000480:    e0821181    ....    ADD      r1,r2,r1,LSL #3
        0x40000484:    e5911024    $...    LDR      r1,[r1,#0x24]
        0x40000488:    e5902028    ( ..    LDR      r2,[r0,#0x28]
        0x4000048c:    e7c72391    .#..    BFI      r2,r1,#7,#1
        0x40000490:    e5802028    ( ..    STR      r2,[r0,#0x28]
        0x40000494:    e8bd8830    0...    POP      {r4,r5,r11,pc}
    I2C_masterSendMultipleByteNext
        0x40000498:    e5801024    $...    STR      r1,[r0,#0x24]
        0x4000049c:    e12fff1e    ../.    BX       lr
    I2C_masterSendMultipleByteStart
        0x400004a0:    e5801024    $...    STR      r1,[r0,#0x24]
        0x400004a4:    e5901004    ....    LDR      r1,[r0,#4]
        0x400004a8:    e3811001    ....    ORR      r1,r1,#1
        0x400004ac:    e5801004    ....    STR      r1,[r0,#4]
        0x400004b0:    e12fff1e    ../.    BX       lr
    I2C_modelConnect
        0x400004b4:    e92d4800    .H-.    PUSH     {r11,lr}
        0x400004b8:    e92d0403    ..-.    PUSH     {r0,r1,r10}
        0x400004bc:    e3a0a000    ....    MOV      r10,#0
        0x400004c0:    e1a00600    ....    LSL      r0,r0,#12
        0x400004c4:    e1a01401    ....    LSL      r1,r1,#8
        0x400004c8:    e18aa000    ....    ORR      r10,r10,r0
        0x400004cc:    e18aa001    ....    ORR      r10,r10,r1
        0x400004d0:    e38aa001    ....    ORR      r10,r10,#1
        0x400004d4:    e34aa55a    Z.J.    MOVT     r10,#0xa55a
        0x400004d8:    e3a00014    ....    MOV      r0,#0x14
        0x400004dc:    eb0000ba    ....    BL       Sim_Delay ; 0x400007cc
        0x400004e0:    e8bd0403    ....    POP      {r0,r1,r10}
        0x400004e4:    e8bd8800    ....    POP      {r11,pc}
    I2C_modelDisable
        0x400004e8:    e92d4800    .H-.    PUSH     {r11,lr}
        0x400004ec:    e52da004    ..-.    PUSH     {r10}
        0x400004f0:    e3a0a000    ....    MOV      r10,#0
        0x400004f4:    e34aa55a    Z.J.    MOVT     r10,#0xa55a
        0x400004f8:    e3a00014    ....    MOV      r0,#0x14
        0x400004fc:    eb0000b2    ....    BL       Sim_Delay ; 0x400007cc
        0x40000500:    e49da004    ....    POP      {r10}
        0x40000504:    e8bd8800    ....    POP      {r11,pc}
    I2C_releasePins
        0x40000508:    e3000800    ....    MOVW     r0,#0x800
        0x4000050c:    e34e0605    ..N.    MOVT     r0,#0xe605
        0x40000510:    e2801c01    ....    ADD      r1,r0,#0x100
        0x40000514:    e30f2ffc    ./..    MOV      r2,#0xfffc
        0x40000518:    ea00009c    ....    B        PFC_ClearMultipleBit ; 0x40000790
    I2C_reset
        0x4000051c:    e92d4830    0H-.    PUSH     {r4,r5,r11,lr}
        0x40000520:    e3024c14    .L..    MOV      r4,#0x2c14
        0x40000524:    e34e4615    .FN.    MOVT     r4,#0xe615
        0x40000528:    e3005000    .P..    MOVW     r5,#0
        0x4000052c:    e34f5ffc    ._O.    MOVT     r5,#0xfffc
        0x40000530:    e1a00004    ....    MOV      r0,r4
        0x40000534:    e1a01005    ....    MOV      r1,r5
        0x40000538:    ebfffeef    ....    BL       CPG_SetMultipleBit ; 0x400000fc
        0x4000053c:    e2840080    ....    ADD      r0,r4,#0x80
        0x40000540:    e1a01005    ....    MOV      r1,r5
        0x40000544:    e8bd4830    0H..    POP      {r4,r5,r11,lr}
        0x40000548:    eafffeeb    ....    B        CPG_SetMultipleBit ; 0x400000fc
    I2C_slaveClearInterruptStatus
        0x4000054c:    e5902008    . ..    LDR      r2,[r0,#8]
        0x40000550:    e1c21001    ....    BIC      r1,r2,r1
        0x40000554:    e5801008    ....    STR      r1,[r0,#8]
        0x40000558:    e12fff1e    ../.    BX       lr
    I2C_slaveEnable
        0x4000055c:    e5901000    ....    LDR      r1,[r0,#0]
        0x40000560:    e3811004    ....    ORR      r1,r1,#4
        0x40000564:    e5801000    ....    STR      r1,[r0,#0]
        0x40000568:    e12fff1e    ../.    BX       lr
    I2C_slaveEnableInterrupt
        0x4000056c:    e5902010    . ..    LDR      r2,[r0,#0x10]
        0x40000570:    e1821001    ....    ORR      r1,r2,r1
        0x40000574:    e5801010    ....    STR      r1,[r0,#0x10]
        0x40000578:    e12fff1e    ../.    BX       lr
    I2C_slaveGetInterruptStatus
        0x4000057c:    e5900008    ....    LDR      r0,[r0,#8]
        0x40000580:    e6ef0070    p...    UXTB     r0,r0
        0x40000584:    e12fff1e    ../.    BX       lr
    I2C_slaveInit
        0x40000588:    e92d4830    0H-.    PUSH     {r4,r5,r11,lr}
        0x4000058c:    e5d12000    . ..    LDRB     r2,[r1,#0]
        0x40000590:    e580201c    . ..    STR      r2,[r0,#0x1c]
        0x40000594:    e5902000    . ..    LDR      r2,[r0,#0]
        0x40000598:    e3822008    . ..    ORR      r2,r2,#8
        0x4000059c:    e5802000    . ..    STR      r2,[r0,#0]
        0x400005a0:    e591c004    ....    LDR      r12,[r1,#4]
        0x400005a4:    e5903000    .0..    LDR      r3,[r0,#0]
        0x400005a8:    e3c32010    . ..    BIC      r2,r3,#0x10
        0x400005ac:    e35c0001    ..\.    CMP      r12,#1
        0x400005b0:    03832010    . ..    ORREQ    r2,r3,#0x10
        0x400005b4:    e5802000    . ..    STR      r2,[r0,#0]
        0x400005b8:    e591c008    ....    LDR      r12,[r1,#8]
        0x400005bc:    e5903000    .0..    LDR      r3,[r0,#0]
        0x400005c0:    e3c32002    . ..    BIC      r2,r3,#2
        0x400005c4:    e35c0001    ..\.    CMP      r12,#1
        0x400005c8:    03832002    . ..    ORREQ    r2,r3,#2
        0x400005cc:    e5802000    . ..    STR      r2,[r0,#0]
        0x400005d0:    e281400c    .@..    ADD      r4,r1,#0xc
        0x400005d4:    e894001c    ....    LDM      r4,{r2-r4}
        0x400005d8:    e301ca30    0...    MOV      r12,#0x1a30
        0x400005dc:    e344c000    ..D.    MOVT     r12,#0x4000
        0x400005e0:    e3a0ee23    #...    MOV      lr,#0x230
        0x400005e4:    e025ce92    ..%.    MLA      r5,r2,lr,r12
        0x400005e8:    e3a02f46    F/..    MOV      r2,#0x118
        0x400005ec:    e0235293    .R#.    MLA      r3,r3,r2,r5
        0x400005f0:    e0844104    .A..    ADD      r4,r4,r4,LSL #2
        0x400005f4:    e7933184    .1..    LDR      r3,[r3,r4,LSL #3]
        0x400005f8:    e5904028    (@..    LDR      r4,[r0,#0x28]
        0x400005fc:    e7c24113    .A..    BFI      r4,r3,#2,#1
        0x40000600:    e5804028    (@..    STR      r4,[r0,#0x28]
        0x40000604:    e281500c    .P..    ADD      r5,r1,#0xc
        0x40000608:    e8950038    8...    LDM      r5,{r3-r5}
        0x4000060c:    e023ce93    ..#.    MLA      r3,r3,lr,r12
        0x40000610:    e0233294    .2#.    MLA      r3,r4,r2,r3
        0x40000614:    e0854105    .A..    ADD      r4,r5,r5,LSL #2
        0x40000618:    e0833184    .1..    ADD      r3,r3,r4,LSL #3
        0x4000061c:    e5933004    .0..    LDR      r3,[r3,#4]
        0x40000620:    e5904028    (@..    LDR      r4,[r0,#0x28]
        0x40000624:    e7c14093    .@..    BFI      r4,r3,#1,#1
        0x40000628:    e5804028    (@..    STR      r4,[r0,#0x28]
        0x4000062c:    e281500c    .P..    ADD      r5,r1,#0xc
        0x40000630:    e8950038    8...    LDM      r5,{r3-r5}
        0x40000634:    e023ce93    ..#.    MLA      r3,r3,lr,r12
        0x40000638:    e0233294    .2#.    MLA      r3,r4,r2,r3
        0x4000063c:    e0854105    .A..    ADD      r4,r5,r5,LSL #2
        0x40000640:    e0833184    .1..    ADD      r3,r3,r4,LSL #3
        0x40000644:    e5933008    .0..    LDR      r3,[r3,#8]
        0x40000648:    e5904028    (@..    LDR      r4,[r0,#0x28]
        0x4000064c:    e7c04013    .@..    BFI      r4,r3,#0,#1
        0x40000650:    e5804028    (@..    STR      r4,[r0,#0x28]
        0x40000654:    e281500c    .P..    ADD      r5,r1,#0xc
        0x40000658:    e8950038    8...    LDM      r5,{r3-r5}
        0x4000065c:    e023ce93    ..#.    MLA      r3,r3,lr,r12
        0x40000660:    e0233294    .2#.    MLA      r3,r4,r2,r3
        0x40000664:    e0854105    .A..    ADD      r4,r5,r5,LSL #2
        0x40000668:    e0833184    .1..    ADD      r3,r3,r4,LSL #3
        0x4000066c:    e593300c    .0..    LDR      r3,[r3,#0xc]
        0x40000670:    e5904038    8@..    LDR      r4,[r0,#0x38]
        0x40000674:    e7c44013    .@..    BFI      r4,r3,#0,#5
        0x40000678:    e5804038    8@..    STR      r4,[r0,#0x38]
        0x4000067c:    e281500c    .P..    ADD      r5,r1,#0xc
        0x40000680:    e8950038    8...    LDM      r5,{r3-r5}
        0x40000684:    e023ce93    ..#.    MLA      r3,r3,lr,r12
        0x40000688:    e0233294    .2#.    MLA      r3,r4,r2,r3
        0x4000068c:    e0854105    .A..    ADD      r4,r5,r5,LSL #2
        0x40000690:    e0833184    .1..    ADD      r3,r3,r4,LSL #3
        0x40000694:    e5933010    .0..    LDR      r3,[r3,#0x10]
        0x40000698:    e5904018    .@..    LDR      r4,[r0,#0x18]
        0x4000069c:    e7c24013    .@..    BFI      r4,r3,#0,#3
        0x400006a0:    e5804018    .@..    STR      r4,[r0,#0x18]
        0x400006a4:    e281500c    .P..    ADD      r5,r1,#0xc
        0x400006a8:    e8950038    8...    LDM      r5,{r3-r5}
        0x400006ac:    e023ce93    ..#.    MLA      r3,r3,lr,r12
        0x400006b0:    e0233294    .2#.    MLA      r3,r4,r2,r3
        0x400006b4:    e0854105    .A..    ADD      r4,r5,r5,LSL #2
        0x400006b8:    e0833184    .1..    ADD      r3,r3,r4,LSL #3
        0x400006bc:    e5933014    .0..    LDR      r3,[r3,#0x14]
        0x400006c0:    e5904018    .@..    LDR      r4,[r0,#0x18]
        0x400006c4:    e7c84193    .A..    BFI      r4,r3,#3,#6
        0x400006c8:    e5804018    .@..    STR      r4,[r0,#0x18]
        0x400006cc:    e281500c    .P..    ADD      r5,r1,#0xc
        0x400006d0:    e8950038    8...    LDM      r5,{r3-r5}
        0x400006d4:    e023ce93    ..#.    MLA      r3,r3,lr,r12
        0x400006d8:    e0233294    .2#.    MLA      r3,r4,r2,r3
        0x400006dc:    e0854105    .A..    ADD      r4,r5,r5,LSL #2
        0x400006e0:    e0833184    .1..    ADD      r3,r3,r4,LSL #3
        0x400006e4:    e5933018    .0..    LDR      r3,[r3,#0x18]
        0x400006e8:    e580302c    ,0..    STR      r3,[r0,#0x2c]
        0x400006ec:    e281500c    .P..    ADD      r5,r1,#0xc
        0x400006f0:    e8950038    8...    LDM      r5,{r3-r5}
        0x400006f4:    e023ce93    ..#.    MLA      r3,r3,lr,r12
        0x400006f8:    e0233294    .2#.    MLA      r3,r4,r2,r3
        0x400006fc:    e0854105    .A..    ADD      r4,r5,r5,LSL #2
        0x40000700:    e0833184    .1..    ADD      r3,r3,r4,LSL #3
        0x40000704:    e593301c    .0..    LDR      r3,[r3,#0x1c]
        0x40000708:    e5803030    00..    STR      r3,[r0,#0x30]
        0x4000070c:    e281500c    .P..    ADD      r5,r1,#0xc
        0x40000710:    e8950038    8...    LDM      r5,{r3-r5}
        0x40000714:    e023ce93    ..#.    MLA      r3,r3,lr,r12
        0x40000718:    e0233294    .2#.    MLA      r3,r4,r2,r3
        0x4000071c:    e0854105    .A..    ADD      r4,r5,r5,LSL #2
        0x40000720:    e0833184    .1..    ADD      r3,r3,r4,LSL #3
        0x40000724:    e5933020     0..    LDR      r3,[r3,#0x20]
        0x40000728:    e5803034    40..    STR      r3,[r0,#0x34]
        0x4000072c:    e591300c    .0..    LDR      r3,[r1,#0xc]
        0x40000730:    e5914010    .@..    LDR      r4,[r1,#0x10]
        0x40000734:    e5911014    ....    LDR      r1,[r1,#0x14]
        0x40000738:    e023ce93    ..#.    MLA      r3,r3,lr,r12
        0x4000073c:    e0223294    .2".    MLA      r2,r4,r2,r3
        0x40000740:    e0811101    ....    ADD      r1,r1,r1,LSL #2
        0x40000744:    e0821181    ....    ADD      r1,r2,r1,LSL #3
        0x40000748:    e5911024    $...    LDR      r1,[r1,#0x24]
        0x4000074c:    e5902028    ( ..    LDR      r2,[r0,#0x28]
        0x40000750:    e7c72391    .#..    BFI      r2,r1,#7,#1
        0x40000754:    e5802028    ( ..    STR      r2,[r0,#0x28]
        0x40000758:    e8bd8830    0...    POP      {r4,r5,r11,pc}
    I2C_slaveReceiveMultipleByteFinish
        0x4000075c:    e5900024    $...    LDR      r0,[r0,#0x24]
        0x40000760:    e6ef0070    p...    UXTB     r0,r0
        0x40000764:    e12fff1e    ../.    BX       lr
    I2C_slaveReceiveMultipleByteStop
        0x40000768:    e5901000    ....    LDR      r1,[r0,#0]
        0x4000076c:    e3811001    ....    ORR      r1,r1,#1
        0x40000770:    e5801000    ....    STR      r1,[r0,#0]
        0x40000774:    e5900024    $...    LDR      r0,[r0,#0x24]
        0x40000778:    e6ef0070    p...    UXTB     r0,r0
        0x4000077c:    e12fff1e    ../.    BX       lr
    IRQ_Handler
        0x40000780:    e92d4800    .H-.    PUSH     {r11,lr}
        0x40000784:    ebfffead    ....    BL       GIC_getACKID ; 0x40000240
        0x40000788:    e8bd4800    .H..    POP      {r11,lr}
        0x4000078c:    eafffea5    ....    B        GIC_executeInterruptHandler ; 0x40000228
    PFC_ClearMultipleBit
        0x40000790:    e5913000    .0..    LDR      r3,[r1,#0]
        0x40000794:    e1c32002    . ..    BIC      r2,r3,r2
        0x40000798:    e1e03002    .0..    MVN      r3,r2
        0x4000079c:    e5803000    .0..    STR      r3,[r0,#0]
        0x400007a0:    e5812000    . ..    STR      r2,[r1,#0]
        0x400007a4:    e12fff1e    ../.    BX       lr
    PFC_SetMultipleBit
        0x400007a8:    e5913000    .0..    LDR      r3,[r1,#0]
        0x400007ac:    e1832002    . ..    ORR      r2,r3,r2
        0x400007b0:    e1e03002    .0..    MVN      r3,r2
        0x400007b4:    e5803000    .0..    STR      r3,[r0,#0]
        0x400007b8:    e5812000    . ..    STR      r2,[r1,#0]
        0x400007bc:    e12fff1e    ../.    BX       lr
    PrefetchAbort_Handler
        0x400007c0:    e92d4800    .H-.    PUSH     {r11,lr}
        0x400007c4:    eb00000f    ....    BL       Sim_Stop ; 0x40000808
        0x400007c8:    eafffffe    ....    B        0x400007c8 ; PrefetchAbort_Handler + 8
    Sim_Delay
        0x400007cc:    e3500000    ..P.    CMP      r0,#0
        0x400007d0:    012fff1e    ../.    BXEQ     lr
        0x400007d4:    e2500001    ..P.    SUBS     r0,r0,#1
        0x400007d8:    1afffffd    ....    BNE      0x400007d4 ; Sim_Delay + 8
        0x400007dc:    e12fff1e    ../.    BX       lr
    Sim_Dump
        0x400007e0:    e30312b8    ....    MOV      r1,#0x32b8
        0x400007e4:    e3441000    ..D.    MOVT     r1,#0x4000
        0x400007e8:    e5912000    . ..    LDR      r2,[r1,#0]
        0x400007ec:    e1a02102    .!..    LSL      r2,r2,#2
        0x400007f0:    e3a03301    .3..    MOV      r3,#0x4000000
        0x400007f4:    e7820003    ....    STR      r0,[r2,r3]
        0x400007f8:    e5910000    ....    LDR      r0,[r1,#0]
        0x400007fc:    e2800001    ....    ADD      r0,r0,#1
        0x40000800:    e5810000    ....    STR      r0,[r1,#0]
        0x40000804:    e12fff1e    ../.    BX       lr
    Sim_Stop
        0x40000808:    e3a0067f    ....    MOV      r0,#0x7f00000
        0x4000080c:    e3a01000    ....    MOV      r1,#0
        0x40000810:    e5801000    ....    STR      r1,[r0,#0]
        0x40000814:    e12fff1e    ../.    BX       lr
    SupervisorCall_Handler
        0x40000818:    e92d4800    .H-.    PUSH     {r11,lr}
        0x4000081c:    ebfffff9    ....    BL       Sim_Stop ; 0x40000808
        0x40000820:    eafffffe    ....    B        0x40000820 ; SupervisorCall_Handler + 8
    UndefinedInstruction_Handler
        0x40000824:    e92d4800    .H-.    PUSH     {r11,lr}
        0x40000828:    ebfffff6    ....    BL       Sim_Stop ; 0x40000808
        0x4000082c:    eafffffe    ....    B        0x4000082c ; UndefinedInstruction_Handler + 8
    _sys_exit
        0x40000830:    eafffffe    ....    B        _sys_exit ; 0x40000830
    checkReg
        0x40000834:    e3e03000    .0..    MVN      r3,#0
        0x40000838:    e5823000    .0..    STR      r3,[r2,#0]
        0x4000083c:    e30332d8    .2..    MOV      r3,#0x32d8
        0x40000840:    e3443000    .0D.    MOVT     r3,#0x4000
        0x40000844:    e0830380    ....    ADD      r0,r3,r0,LSL #7
        0x40000848:    e5923000    .0..    LDR      r3,[r2,#0]
        0x4000084c:    e7a03181    .1..    STR      r3,[r0,r1,LSL #3]!
        0x40000850:    e3a01000    ....    MOV      r1,#0
        0x40000854:    e5821000    ....    STR      r1,[r2,#0]
        0x40000858:    e5921000    ....    LDR      r1,[r2,#0]
        0x4000085c:    e5801004    ....    STR      r1,[r0,#4]
        0x40000860:    e12fff1e    ../.    BX       lr
    checkReg
        0x40000864:    e3e02000    . ..    MVN      r2,#0
        0x40000868:    e5812000    . ..    STR      r2,[r1,#0]
        0x4000086c:    e5912000    . ..    LDR      r2,[r1,#0]
        0x40000870:    e30334d8    .4..    MOV      r3,#0x34d8
        0x40000874:    e3443000    .0D.    MOVT     r3,#0x4000
        0x40000878:    e7a32180    .!..    STR      r2,[r3,r0,LSL #3]!
        0x4000087c:    e3a00000    ....    MOV      r0,#0
        0x40000880:    e5810000    ....    STR      r0,[r1,#0]
        0x40000884:    e5910000    ....    LDR      r0,[r1,#0]
        0x40000888:    e5830004    ....    STR      r0,[r3,#4]
        0x4000088c:    e12fff1e    ../.    BX       lr
    checkReg
        0x40000890:    e3e03000    .0..    MVN      r3,#0
        0x40000894:    e5823000    .0..    STR      r3,[r2,#0]
        0x40000898:    e3033558    X5..    MOV      r3,#0x3558
        0x4000089c:    e3443000    .0D.    MOVT     r3,#0x4000
        0x400008a0:    e0830380    ....    ADD      r0,r3,r0,LSL #7
        0x400008a4:    e5923000    .0..    LDR      r3,[r2,#0]
        0x400008a8:    e7a03181    .1..    STR      r3,[r0,r1,LSL #3]!
        0x400008ac:    e3a01000    ....    MOV      r1,#0
        0x400008b0:    e5821000    ....    STR      r1,[r2,#0]
        0x400008b4:    e5921000    ....    LDR      r1,[r2,#0]
        0x400008b8:    e5801004    ....    STR      r1,[r0,#4]
        0x400008bc:    e12fff1e    ../.    BX       lr
    i2c0InterruptHandler
        0x400008c0:    e92d4830    0H-.    PUSH     {r4,r5,r11,lr}
        0x400008c4:    e3004000    .@..    MOVW     r4,#0
        0x400008c8:    e34e4650    PFN.    MOVT     r4,#0xe650
        0x400008cc:    e1a00004    ....    MOV      r0,r4
        0x400008d0:    ebfffe7c    |...    BL       I2C_masterGetInterruptStatus ; 0x400002c8
        0x400008d4:    e1a05000    .P..    MOV      r5,r0
        0x400008d8:    e3150001    ....    TST      r5,#1
        0x400008dc:    1a00000e    ....    BNE      0x4000091c ; i2c0InterruptHandler + 92
        0x400008e0:    e3150008    ....    TST      r5,#8
        0x400008e4:    0a00000e    ....    BEQ      0x40000924 ; i2c0InterruptHandler + 100
        0x400008e8:    e3030758    X...    MOV      r0,#0x3758
        0x400008ec:    e3440000    ..D.    MOVT     r0,#0x4000
        0x400008f0:    e5901000    ....    LDR      r1,[r0,#0]
        0x400008f4:    e2812001    . ..    ADD      r2,r1,#1
        0x400008f8:    e5802000    . ..    STR      r2,[r0,#0]
        0x400008fc:    e3010e90    ....    MOV      r0,#0x1e90
        0x40000900:    e3440000    ..D.    MOVT     r0,#0x4000
        0x40000904:    e7901101    ....    LDR      r1,[r0,r1,LSL #2]
        0x40000908:    e1a00004    ....    MOV      r0,r4
        0x4000090c:    ebfffee1    ....    BL       I2C_masterSendMultipleByteNext ; 0x40000498
        0x40000910:    e3150010    ....    TST      r5,#0x10
        0x40000914:    1a000004    ....    BNE      0x4000092c ; i2c0InterruptHandler + 108
        0x40000918:    ea000007    ....    B        0x4000093c ; i2c0InterruptHandler + 124
        0x4000091c:    e1a00004    ....    MOV      r0,r4
        0x40000920:    ebfffe5c    \...    BL       I2C_masterDisableStartGeneration ; 0x40000298
        0x40000924:    e3150010    ....    TST      r5,#0x10
        0x40000928:    0a000003    ....    BEQ      0x4000093c ; i2c0InterruptHandler + 124
        0x4000092c:    e30302bc    ....    MOV      r0,#0x32bc
        0x40000930:    e3440000    ..D.    MOVT     r0,#0x4000
        0x40000934:    e3a01001    ....    MOV      r1,#1
        0x40000938:    e5c01000    ....    STRB     r1,[r0,#0]
        0x4000093c:    e1a00004    ....    MOV      r0,r4
        0x40000940:    e1a01005    ....    MOV      r1,r5
        0x40000944:    e8bd4830    0H..    POP      {r4,r5,r11,lr}
        0x40000948:    eafffe4e    N...    B        I2C_masterClearInterruptStatus ; 0x40000288
    i2c0InterruptHandler
        0x4000094c:    e92d4830    0H-.    PUSH     {r4,r5,r11,lr}
        0x40000950:    e3004000    .@..    MOVW     r4,#0
        0x40000954:    e34e4650    PFN.    MOVT     r4,#0xe650
        0x40000958:    e1a00004    ....    MOV      r0,r4
        0x4000095c:    ebfffe59    Y...    BL       I2C_masterGetInterruptStatus ; 0x400002c8
        0x40000960:    e1a05000    .P..    MOV      r5,r0
        0x40000964:    e3150001    ....    TST      r5,#1
        0x40000968:    1a00000e    ....    BNE      0x400009a8 ; i2c0InterruptHandler + 92
        0x4000096c:    e3150008    ....    TST      r5,#8
        0x40000970:    0a00000e    ....    BEQ      0x400009b0 ; i2c0InterruptHandler + 100
        0x40000974:    e303075c    \...    MOV      r0,#0x375c
        0x40000978:    e3440000    ..D.    MOVT     r0,#0x4000
        0x4000097c:    e5901000    ....    LDR      r1,[r0,#0]
        0x40000980:    e2812001    . ..    ADD      r2,r1,#1
        0x40000984:    e5802000    . ..    STR      r2,[r0,#0]
        0x40000988:    e3010e98    ....    MOV      r0,#0x1e98
        0x4000098c:    e3440000    ..D.    MOVT     r0,#0x4000
        0x40000990:    e7901101    ....    LDR      r1,[r0,r1,LSL #2]
        0x40000994:    e1a00004    ....    MOV      r0,r4
        0x40000998:    ebfffebe    ....    BL       I2C_masterSendMultipleByteNext ; 0x40000498
        0x4000099c:    e3150010    ....    TST      r5,#0x10
        0x400009a0:    1a000004    ....    BNE      0x400009b8 ; i2c0InterruptHandler + 108
        0x400009a4:    ea000007    ....    B        0x400009c8 ; i2c0InterruptHandler + 124
        0x400009a8:    e1a00004    ....    MOV      r0,r4
        0x400009ac:    ebfffe39    9...    BL       I2C_masterDisableStartGeneration ; 0x40000298
        0x400009b0:    e3150010    ....    TST      r5,#0x10
        0x400009b4:    0a000003    ....    BEQ      0x400009c8 ; i2c0InterruptHandler + 124
        0x400009b8:    e30302bd    ....    MOV      r0,#0x32bd
        0x400009bc:    e3440000    ..D.    MOVT     r0,#0x4000
        0x400009c0:    e3a01001    ....    MOV      r1,#1
        0x400009c4:    e5c01000    ....    STRB     r1,[r0,#0]
        0x400009c8:    e1a00004    ....    MOV      r0,r4
        0x400009cc:    e1a01005    ....    MOV      r1,r5
        0x400009d0:    e8bd4830    0H..    POP      {r4,r5,r11,lr}
        0x400009d4:    eafffe2b    +...    B        I2C_masterClearInterruptStatus ; 0x40000288
    i2c1InterruptHandler
        0x400009d8:    e92d4070    p@-.    PUSH     {r4-r6,lr}
        0x400009dc:    e3084000    .@..    MOVW     r4,#0x8000
        0x400009e0:    e34e4650    PFN.    MOVT     r4,#0xe650
        0x400009e4:    e1a00004    ....    MOV      r0,r4
        0x400009e8:    ebfffee3    ....    BL       I2C_slaveGetInterruptStatus ; 0x4000057c
        0x400009ec:    e1a05000    .P..    MOV      r5,r0
        0x400009f0:    e3150002    ....    TST      r5,#2
        0x400009f4:    0a000013    ....    BEQ      0x40000a48 ; i2c1InterruptHandler + 112
        0x400009f8:    e30362d0    .b..    MOV      r6,#0x32d0
        0x400009fc:    e3446000    .`D.    MOVT     r6,#0x4000
        0x40000a00:    e5960000    ....    LDR      r0,[r6,#0]
        0x40000a04:    e5960000    ....    LDR      r0,[r6,#0]
        0x40000a08:    e3500000    ..P.    CMP      r0,#0
        0x40000a0c:    0a000005    ....    BEQ      0x40000a28 ; i2c1InterruptHandler + 80
        0x40000a10:    e5960000    ....    LDR      r0,[r6,#0]
        0x40000a14:    e3500001    ..P.    CMP      r0,#1
        0x40000a18:    1a00000a    ....    BNE      0x40000a48 ; i2c1InterruptHandler + 112
        0x40000a1c:    e1a00004    ....    MOV      r0,r4
        0x40000a20:    ebffff4d    M...    BL       I2C_slaveReceiveMultipleByteFinish ; 0x4000075c
        0x40000a24:    ea000001    ....    B        0x40000a30 ; i2c1InterruptHandler + 88
        0x40000a28:    e1a00004    ....    MOV      r0,r4
        0x40000a2c:    ebffff4d    M...    BL       I2C_slaveReceiveMultipleByteStop ; 0x40000768
        0x40000a30:    e5961000    ....    LDR      r1,[r6,#0]
        0x40000a34:    e2812001    . ..    ADD      r2,r1,#1
        0x40000a38:    e5862000    . ..    STR      r2,[r6,#0]
        0x40000a3c:    e30322c0    ."..    MOVW     r2,#0x32c0
        0x40000a40:    e3442000    . D.    MOVT     r2,#0x4000
        0x40000a44:    e7820101    ....    STR      r0,[r2,r1,LSL #2]
        0x40000a48:    e1a00004    ....    MOV      r0,r4
        0x40000a4c:    e1a01005    ....    MOV      r1,r5
        0x40000a50:    e8bd4070    p@..    POP      {r4-r6,lr}
        0x40000a54:    eafffebc    ....    B        I2C_slaveClearInterruptStatus ; 0x4000054c
    i2c1InterruptHandler
        0x40000a58:    e92d4070    p@-.    PUSH     {r4-r6,lr}
        0x40000a5c:    e3084000    .@..    MOVW     r4,#0x8000
        0x40000a60:    e34e4650    PFN.    MOVT     r4,#0xe650
        0x40000a64:    e1a00004    ....    MOV      r0,r4
        0x40000a68:    ebfffec3    ....    BL       I2C_slaveGetInterruptStatus ; 0x4000057c
        0x40000a6c:    e1a05000    .P..    MOV      r5,r0
        0x40000a70:    e3150002    ....    TST      r5,#2
        0x40000a74:    0a000013    ....    BEQ      0x40000ac8 ; i2c1InterruptHandler + 112
        0x40000a78:    e30362d4    .b..    MOV      r6,#0x32d4
        0x40000a7c:    e3446000    .`D.    MOVT     r6,#0x4000
        0x40000a80:    e5960000    ....    LDR      r0,[r6,#0]
        0x40000a84:    e5960000    ....    LDR      r0,[r6,#0]
        0x40000a88:    e3500000    ..P.    CMP      r0,#0
        0x40000a8c:    0a000005    ....    BEQ      0x40000aa8 ; i2c1InterruptHandler + 80
        0x40000a90:    e5960000    ....    LDR      r0,[r6,#0]
        0x40000a94:    e3500001    ..P.    CMP      r0,#1
        0x40000a98:    1a00000a    ....    BNE      0x40000ac8 ; i2c1InterruptHandler + 112
        0x40000a9c:    e1a00004    ....    MOV      r0,r4
        0x40000aa0:    ebffff2d    -...    BL       I2C_slaveReceiveMultipleByteFinish ; 0x4000075c
        0x40000aa4:    ea000001    ....    B        0x40000ab0 ; i2c1InterruptHandler + 88
        0x40000aa8:    e1a00004    ....    MOV      r0,r4
        0x40000aac:    ebffff2d    -...    BL       I2C_slaveReceiveMultipleByteStop ; 0x40000768
        0x40000ab0:    e5961000    ....    LDR      r1,[r6,#0]
        0x40000ab4:    e2812001    . ..    ADD      r2,r1,#1
        0x40000ab8:    e5862000    . ..    STR      r2,[r6,#0]
        0x40000abc:    e30322c8    ."..    MOV      r2,#0x32c8
        0x40000ac0:    e3442000    . D.    MOVT     r2,#0x4000
        0x40000ac4:    e7820101    ....    STR      r0,[r2,r1,LSL #2]
        0x40000ac8:    e1a00004    ....    MOV      r0,r4
        0x40000acc:    e1a01005    ....    MOV      r1,r5
        0x40000ad0:    e8bd4070    p@..    POP      {r4-r6,lr}
        0x40000ad4:    eafffe9c    ....    B        I2C_slaveClearInterruptStatus ; 0x4000054c
    interrupt_check
        0x40000ad8:    e92d4830    0H-.    PUSH     {r4,r5,r11,lr}
        0x40000adc:    e3004000    .@..    MOVW     r4,#0
        0x40000ae0:    e34e4650    PFN.    MOVT     r4,#0xe650
        0x40000ae4:    e3021338    8...    MOV      r1,#0x2338
        0x40000ae8:    e3441000    ..D.    MOVT     r1,#0x4000
        0x40000aec:    e1a00004    ....    MOV      r0,r4
        0x40000af0:    ebfffdf7    ....    BL       I2C_masterInit ; 0x400002d4
        0x40000af4:    e1a00004    ....    MOV      r0,r4
        0x40000af8:    e3e01000    ....    MVN      r1,#0
        0x40000afc:    ebfffde1    ....    BL       I2C_masterClearInterruptStatus ; 0x40000288
        0x40000b00:    e1a00004    ....    MOV      r0,r4
        0x40000b04:    e3a01019    ....    MOV      r1,#0x19
        0x40000b08:    ebfffdea    ....    BL       I2C_masterEnableInterrupt ; 0x400002b8
        0x40000b0c:    e1a00004    ....    MOV      r0,r4
        0x40000b10:    ebfffde4    ....    BL       I2C_masterEnable ; 0x400002a8
        0x40000b14:    e2845902    .Y..    ADD      r5,r4,#0x8000
        0x40000b18:    e3021368    h...    MOV      r1,#0x2368
        0x40000b1c:    e3441000    ..D.    MOVT     r1,#0x4000
        0x40000b20:    e1a00005    ....    MOV      r0,r5
        0x40000b24:    ebfffe97    ....    BL       I2C_slaveInit ; 0x40000588
        0x40000b28:    e1a00005    ....    MOV      r0,r5
        0x40000b2c:    e3e01000    ....    MVN      r1,#0
        0x40000b30:    ebfffe85    ....    BL       I2C_slaveClearInterruptStatus ; 0x4000054c
        0x40000b34:    e1a00005    ....    MOV      r0,r5
        0x40000b38:    e3a01013    ....    MOV      r1,#0x13
        0x40000b3c:    ebfffe8a    ....    BL       I2C_slaveEnableInterrupt ; 0x4000056c
        0x40000b40:    e1a00005    ....    MOV      r0,r5
        0x40000b44:    ebfffe84    ....    BL       I2C_slaveEnable ; 0x4000055c
        0x40000b48:    ebfffd77    w...    BL       GIC_enable ; 0x4000012c
        0x40000b4c:    e300194c    L...    MOV      r1,#0x94c
        0x40000b50:    e3441000    ..D.    MOVT     r1,#0x4000
        0x40000b54:    e300010e    ....    MOVW     r0,#0x10e
        0x40000b58:    ebfffdbf    ....    BL       GIC_setInterruptHandler ; 0x4000025c
        0x40000b5c:    e3001a58    X...    MOV      r1,#0xa58
        0x40000b60:    e3441000    ..D.    MOVT     r1,#0x4000
        0x40000b64:    e300010f    ....    MOV      r0,#0x10f
        0x40000b68:    ebfffdbb    ....    BL       GIC_setInterruptHandler ; 0x4000025c
        0x40000b6c:    e300010e    ....    MOVW     r0,#0x10e
        0x40000b70:    ebfffd7f    ....    BL       GIC_enableInterrupt ; 0x40000174
        0x40000b74:    e300010f    ....    MOV      r0,#0x10f
        0x40000b78:    ebfffd7d    }...    BL       GIC_enableInterrupt ; 0x40000174
        0x40000b7c:    e303075c    \...    MOV      r0,#0x375c
        0x40000b80:    e3440000    ..D.    MOVT     r0,#0x4000
        0x40000b84:    e5901000    ....    LDR      r1,[r0,#0]
        0x40000b88:    e2812001    . ..    ADD      r2,r1,#1
        0x40000b8c:    e5802000    . ..    STR      r2,[r0,#0]
        0x40000b90:    e3015e98    .^..    MOV      r5,#0x1e98
        0x40000b94:    e3445000    .PD.    MOVT     r5,#0x4000
        0x40000b98:    e7951101    ....    LDR      r1,[r5,r1,LSL #2]
        0x40000b9c:    e1a00004    ....    MOV      r0,r4
        0x40000ba0:    ebfffe3e    >...    BL       I2C_masterSendMultipleByteStart ; 0x400004a0
        0x40000ba4:    e30302bd    ....    MOV      r0,#0x32bd
        0x40000ba8:    e3440000    ..D.    MOVT     r0,#0x4000
        0x40000bac:    e5d01000    ....    LDRB     r1,[r0,#0]
        0x40000bb0:    e3510000    ..Q.    CMP      r1,#0
        0x40000bb4:    0afffffc    ....    BEQ      0x40000bac ; interrupt_check + 212
        0x40000bb8:    e3a01000    ....    MOV      r1,#0
        0x40000bbc:    e30302c8    ....    MOV      r0,#0x32c8
        0x40000bc0:    e3440000    ..D.    MOVT     r0,#0x4000
        0x40000bc4:    e7952101    .!..    LDR      r2,[r5,r1,LSL #2]
        0x40000bc8:    e7903101    .1..    LDR      r3,[r0,r1,LSL #2]
        0x40000bcc:    e1530002    ..S.    CMP      r3,r2
        0x40000bd0:    1a000005    ....    BNE      0x40000bec ; interrupt_check + 276
        0x40000bd4:    e2812001    . ..    ADD      r2,r1,#1
        0x40000bd8:    e3a01001    ....    MOV      r1,#1
        0x40000bdc:    e3520001    ..R.    CMP      r2,#1
        0x40000be0:    9afffff7    ....    BLS      0x40000bc4 ; interrupt_check + 236
        0x40000be4:    e3a00000    ....    MOV      r0,#0
        0x40000be8:    e8bd8830    0...    POP      {r4,r5,r11,pc}
        0x40000bec:    e3a00001    ....    MOV      r0,#1
        0x40000bf0:    e8bd8830    0...    POP      {r4,r5,r11,pc}
    main
        0x40000bf4:    e92d4070    p@-.    PUSH     {r4-r6,lr}
        0x40000bf8:    e24dd018    ..M.    SUB      sp,sp,#0x18
        0x40000bfc:    ebfffd9c    ....    BL       I2C_configPins ; 0x40000274
        0x40000c00:    e3a05000    .P..    MOV      r5,#0
        0x40000c04:    e30362a4    .b..    MOV      r6,#0x32a4
        0x40000c08:    e3446000    .`D.    MOVT     r6,#0x4000
        0x40000c0c:    e28d4004    .@..    ADD      r4,sp,#4
        0x40000c10:    ebfffe41    A...    BL       I2C_reset ; 0x4000051c
        0x40000c14:    e3a00064    d...    MOV      r0,#0x64
        0x40000c18:    ebfffeeb    ....    BL       Sim_Delay ; 0x400007cc
        0x40000c1c:    e3a00000    ....    MOV      r0,#0
        0x40000c20:    e3a01001    ....    MOV      r1,#1
        0x40000c24:    ebfffe22    "...    BL       I2C_modelConnect ; 0x400004b4
        0x40000c28:    e7960105    ....    LDR      r0,[r6,r5,LSL #2]
        0x40000c2c:    e12fff30    0./.    BLX      r0
        0x40000c30:    e7840105    ....    STR      r0,[r4,r5,LSL #2]
        0x40000c34:    e3500001    ..P.    CMP      r0,#1
        0x40000c38:    0a000005    ....    BEQ      0x40000c54 ; main + 96
        0x40000c3c:    e2855001    .P..    ADD      r5,r5,#1
        0x40000c40:    e3550004    ..U.    CMP      r5,#4
        0x40000c44:    9afffff1    ....    BLS      0x40000c10 ; main + 28
        0x40000c48:    ebfffe26    &...    BL       I2C_modelDisable ; 0x400004e8
        0x40000c4c:    ebfffe2d    -...    BL       I2C_releasePins ; 0x40000508
        0x40000c50:    ea00000a    ....    B        0x40000c80 ; main + 140
        0x40000c54:    ebfffe23    #...    BL       I2C_modelDisable ; 0x400004e8
        0x40000c58:    ebfffe2a    *...    BL       I2C_releasePins ; 0x40000508
        0x40000c5c:    e3a00000    ....    MOV      r0,#0
        0x40000c60:    e7941100    ....    LDR      r1,[r4,r0,LSL #2]
        0x40000c64:    e3510001    ..Q.    CMP      r1,#1
        0x40000c68:    0a000003    ....    BEQ      0x40000c7c ; main + 136
        0x40000c6c:    e2800001    ....    ADD      r0,r0,#1
        0x40000c70:    e3500005    ..P.    CMP      r0,#5
        0x40000c74:    3afffff9    ...:    BCC      0x40000c60 ; main + 108
        0x40000c78:    ea000000    ....    B        0x40000c80 ; main + 140
        0x40000c7c:    ebfffed7    ....    BL       Sim_Dump ; 0x400007e0
        0x40000c80:    ebfffee0    ....    BL       Sim_Stop ; 0x40000808
        0x40000c84:    eafffffe    ....    B        0x40000c84 ; main + 144
    mstp_check
        0x40000c88:    e92d4ff0    .O-.    PUSH     {r4-r11,lr}
        0x40000c8c:    e24dd03c    <.M.    SUB      sp,sp,#0x3c
        0x40000c90:    e3006000    .`..    MOVW     r6,#0
        0x40000c94:    e34e6650    PfN.    MOVT     r6,#0xe650
        0x40000c98:    e3a00000    ....    MOV      r0,#0
        0x40000c9c:    e3a01000    ....    MOV      r1,#0
        0x40000ca0:    e1a02006    . ..    MOV      r2,r6
        0x40000ca4:    ebfffee2    ....    BL       checkReg ; 0x40000834
        0x40000ca8:    e2862004    . ..    ADD      r2,r6,#4
        0x40000cac:    e3a00000    ....    MOV      r0,#0
        0x40000cb0:    e3a01001    ....    MOV      r1,#1
        0x40000cb4:    e58d2038    8 ..    STR      r2,[sp,#0x38]
        0x40000cb8:    ebfffedd    ....    BL       checkReg ; 0x40000834
        0x40000cbc:    e2862008    . ..    ADD      r2,r6,#8
        0x40000cc0:    e3a00000    ....    MOV      r0,#0
        0x40000cc4:    e3a01002    ....    MOV      r1,#2
        0x40000cc8:    e58d2034    4 ..    STR      r2,[sp,#0x34]
        0x40000ccc:    ebfffed8    ....    BL       checkReg ; 0x40000834
        0x40000cd0:    e286200c    . ..    ADD      r2,r6,#0xc
        0x40000cd4:    e3a00000    ....    MOV      r0,#0
        0x40000cd8:    e3a01003    ....    MOV      r1,#3
        0x40000cdc:    e58d2030    0 ..    STR      r2,[sp,#0x30]
        0x40000ce0:    ebfffed3    ....    BL       checkReg ; 0x40000834
        0x40000ce4:    e2862010    . ..    ADD      r2,r6,#0x10
        0x40000ce8:    e3a00000    ....    MOV      r0,#0
        0x40000cec:    e3a01004    ....    MOV      r1,#4
        0x40000cf0:    e58d202c    , ..    STR      r2,[sp,#0x2c]
        0x40000cf4:    ebfffece    ....    BL       checkReg ; 0x40000834
        0x40000cf8:    e2862014    . ..    ADD      r2,r6,#0x14
        0x40000cfc:    e3a00000    ....    MOV      r0,#0
        0x40000d00:    e3a01005    ....    MOV      r1,#5
        0x40000d04:    e58d2028    ( ..    STR      r2,[sp,#0x28]
        0x40000d08:    ebfffec9    ....    BL       checkReg ; 0x40000834
        0x40000d0c:    e2862018    . ..    ADD      r2,r6,#0x18
        0x40000d10:    e3a00000    ....    MOV      r0,#0
        0x40000d14:    e3a01006    ....    MOV      r1,#6
        0x40000d18:    e58d2024    $ ..    STR      r2,[sp,#0x24]
        0x40000d1c:    ebfffec4    ....    BL       checkReg ; 0x40000834
        0x40000d20:    e286201c    . ..    ADD      r2,r6,#0x1c
        0x40000d24:    e3a00000    ....    MOV      r0,#0
        0x40000d28:    e3a01007    ....    MOV      r1,#7
        0x40000d2c:    e58d2020      ..    STR      r2,[sp,#0x20]
        0x40000d30:    ebfffebf    ....    BL       checkReg ; 0x40000834
        0x40000d34:    e2862020      ..    ADD      r2,r6,#0x20
        0x40000d38:    e3a00000    ....    MOV      r0,#0
        0x40000d3c:    e3a01008    ....    MOV      r1,#8
        0x40000d40:    e58d201c    . ..    STR      r2,[sp,#0x1c]
        0x40000d44:    ebfffeba    ....    BL       checkReg ; 0x40000834
        0x40000d48:    e2862024    $ ..    ADD      r2,r6,#0x24
        0x40000d4c:    e3a00000    ....    MOV      r0,#0
        0x40000d50:    e3a01009    ....    MOV      r1,#9
        0x40000d54:    e58d2018    . ..    STR      r2,[sp,#0x18]
        0x40000d58:    ebfffeb5    ....    BL       checkReg ; 0x40000834
        0x40000d5c:    e286a028    (...    ADD      r10,r6,#0x28
        0x40000d60:    e3a00000    ....    MOV      r0,#0
        0x40000d64:    e3a0100a    ....    MOV      r1,#0xa
        0x40000d68:    e1a0200a    . ..    MOV      r2,r10
        0x40000d6c:    ebfffeb0    ....    BL       checkReg ; 0x40000834
        0x40000d70:    e286b02c    ,...    ADD      r11,r6,#0x2c
        0x40000d74:    e3a00000    ....    MOV      r0,#0
        0x40000d78:    e3a0100b    ....    MOV      r1,#0xb
        0x40000d7c:    e1a0200b    . ..    MOV      r2,r11
        0x40000d80:    ebfffeab    ....    BL       checkReg ; 0x40000834
        0x40000d84:    e2868030    0...    ADD      r8,r6,#0x30
        0x40000d88:    e3a00000    ....    MOV      r0,#0
        0x40000d8c:    e3a0100c    ....    MOV      r1,#0xc
        0x40000d90:    e1a02008    . ..    MOV      r2,r8
        0x40000d94:    ebfffea6    ....    BL       checkReg ; 0x40000834
        0x40000d98:    e2865034    4P..    ADD      r5,r6,#0x34
        0x40000d9c:    e3a00000    ....    MOV      r0,#0
        0x40000da0:    e3a0100d    ....    MOV      r1,#0xd
        0x40000da4:    e1a02005    . ..    MOV      r2,r5
        0x40000da8:    ebfffea1    ....    BL       checkReg ; 0x40000834
        0x40000dac:    e2867038    8p..    ADD      r7,r6,#0x38
        0x40000db0:    e3a00000    ....    MOV      r0,#0
        0x40000db4:    e3a0100e    ....    MOV      r1,#0xe
        0x40000db8:    e1a02007    . ..    MOV      r2,r7
        0x40000dbc:    ebfffe9c    ....    BL       checkReg ; 0x40000834
        0x40000dc0:    e286403c    <@..    ADD      r4,r6,#0x3c
        0x40000dc4:    e3a00000    ....    MOV      r0,#0
        0x40000dc8:    e3a0100f    ....    MOV      r1,#0xf
        0x40000dcc:    e1a02004    . ..    MOV      r2,r4
        0x40000dd0:    ebfffe97    ....    BL       checkReg ; 0x40000834
        0x40000dd4:    e3e00000    ....    MVN      r0,#0
        0x40000dd8:    e5860000    ....    STR      r0,[r6,#0]
        0x40000ddc:    e5860004    ....    STR      r0,[r6,#4]
        0x40000de0:    e5860008    ....    STR      r0,[r6,#8]
        0x40000de4:    e586000c    ....    STR      r0,[r6,#0xc]
        0x40000de8:    e5860010    ....    STR      r0,[r6,#0x10]
        0x40000dec:    e5860014    ....    STR      r0,[r6,#0x14]
        0x40000df0:    e5860018    ....    STR      r0,[r6,#0x18]
        0x40000df4:    e586001c    ....    STR      r0,[r6,#0x1c]
        0x40000df8:    e5860020     ...    STR      r0,[r6,#0x20]
        0x40000dfc:    e5860024    $...    STR      r0,[r6,#0x24]
        0x40000e00:    e5860028    (...    STR      r0,[r6,#0x28]
        0x40000e04:    e586002c    ,...    STR      r0,[r6,#0x2c]
        0x40000e08:    e5860030    0...    STR      r0,[r6,#0x30]
        0x40000e0c:    e5860034    4...    STR      r0,[r6,#0x34]
        0x40000e10:    e5860038    8...    STR      r0,[r6,#0x38]
        0x40000e14:    e586003c    <...    STR      r0,[r6,#0x3c]
        0x40000e18:    e3029d14    ....    MOV      r9,#0x2d14
        0x40000e1c:    e34e9615    ..N.    MOVT     r9,#0xe615
        0x40000e20:    e1a00009    ....    MOV      r0,r9
        0x40000e24:    e3a01012    ....    MOV      r1,#0x12
        0x40000e28:    ebfffcaa    ....    BL       CPG_SetBit ; 0x400000d8
        0x40000e2c:    e5990100    ....    LDR      r0,[r9,#0x100]
        0x40000e30:    e3100701    ....    TST      r0,#0x40000
        0x40000e34:    0afffffc    ....    BEQ      0x40000e2c ; mstp_check + 420
        0x40000e38:    e3a00001    ....    MOV      r0,#1
        0x40000e3c:    e3a01000    ....    MOV      r1,#0
        0x40000e40:    e1a02006    . ..    MOV      r2,r6
        0x40000e44:    ebfffe7a    z...    BL       checkReg ; 0x40000834
        0x40000e48:    e3a00001    ....    MOV      r0,#1
        0x40000e4c:    e3a01001    ....    MOV      r1,#1
        0x40000e50:    e59d2038    8 ..    LDR      r2,[sp,#0x38]
        0x40000e54:    ebfffe76    v...    BL       checkReg ; 0x40000834
        0x40000e58:    e3a00001    ....    MOV      r0,#1
        0x40000e5c:    e3a01002    ....    MOV      r1,#2
        0x40000e60:    e59d2034    4 ..    LDR      r2,[sp,#0x34]
        0x40000e64:    ebfffe72    r...    BL       checkReg ; 0x40000834
        0x40000e68:    e3a00001    ....    MOV      r0,#1
        0x40000e6c:    e3a01003    ....    MOV      r1,#3
        0x40000e70:    e59d2030    0 ..    LDR      r2,[sp,#0x30]
        0x40000e74:    ebfffe6e    n...    BL       checkReg ; 0x40000834
        0x40000e78:    e3a00001    ....    MOV      r0,#1
        0x40000e7c:    e3a01004    ....    MOV      r1,#4
        0x40000e80:    e59d202c    , ..    LDR      r2,[sp,#0x2c]
        0x40000e84:    ebfffe6a    j...    BL       checkReg ; 0x40000834
        0x40000e88:    e3a00001    ....    MOV      r0,#1
        0x40000e8c:    e3a01005    ....    MOV      r1,#5
        0x40000e90:    e59d2028    ( ..    LDR      r2,[sp,#0x28]
        0x40000e94:    ebfffe66    f...    BL       checkReg ; 0x40000834
        0x40000e98:    e3a00001    ....    MOV      r0,#1
        0x40000e9c:    e3a01006    ....    MOV      r1,#6
        0x40000ea0:    e59d2024    $ ..    LDR      r2,[sp,#0x24]
        0x40000ea4:    ebfffe62    b...    BL       checkReg ; 0x40000834
        0x40000ea8:    e3a00001    ....    MOV      r0,#1
        0x40000eac:    e3a01007    ....    MOV      r1,#7
        0x40000eb0:    e59d2020      ..    LDR      r2,[sp,#0x20]
        0x40000eb4:    ebfffe5e    ^...    BL       checkReg ; 0x40000834
        0x40000eb8:    e3a00001    ....    MOV      r0,#1
        0x40000ebc:    e3a01008    ....    MOV      r1,#8
        0x40000ec0:    e59d201c    . ..    LDR      r2,[sp,#0x1c]
        0x40000ec4:    ebfffe5a    Z...    BL       checkReg ; 0x40000834
        0x40000ec8:    e3a00001    ....    MOV      r0,#1
        0x40000ecc:    e3a01009    ....    MOV      r1,#9
        0x40000ed0:    e59d2018    . ..    LDR      r2,[sp,#0x18]
        0x40000ed4:    ebfffe56    V...    BL       checkReg ; 0x40000834
        0x40000ed8:    e3a00001    ....    MOV      r0,#1
        0x40000edc:    e3a0100a    ....    MOV      r1,#0xa
        0x40000ee0:    e1a0200a    . ..    MOV      r2,r10
        0x40000ee4:    ebfffe52    R...    BL       checkReg ; 0x40000834
        0x40000ee8:    e3a00001    ....    MOV      r0,#1
        0x40000eec:    e3a0100b    ....    MOV      r1,#0xb
        0x40000ef0:    e1a0200b    . ..    MOV      r2,r11
        0x40000ef4:    ebfffe4e    N...    BL       checkReg ; 0x40000834
        0x40000ef8:    e3a00001    ....    MOV      r0,#1
        0x40000efc:    e3a0100c    ....    MOV      r1,#0xc
        0x40000f00:    e1a02008    . ..    MOV      r2,r8
        0x40000f04:    ebfffe4a    J...    BL       checkReg ; 0x40000834
        0x40000f08:    e3a00001    ....    MOV      r0,#1
        0x40000f0c:    e3a0100d    ....    MOV      r1,#0xd
        0x40000f10:    e1a02005    . ..    MOV      r2,r5
        0x40000f14:    ebfffe46    F...    BL       checkReg ; 0x40000834
        0x40000f18:    e3a00001    ....    MOV      r0,#1
        0x40000f1c:    e3a0100e    ....    MOV      r1,#0xe
        0x40000f20:    e1a02007    . ..    MOV      r2,r7
        0x40000f24:    ebfffe42    B...    BL       checkReg ; 0x40000834
        0x40000f28:    e3a00001    ....    MOV      r0,#1
        0x40000f2c:    e3a0100f    ....    MOV      r1,#0xf
        0x40000f30:    e1a02004    . ..    MOV      r2,r4
        0x40000f34:    ebfffe3e    >...    BL       checkReg ; 0x40000834
        0x40000f38:    e1a00009    ....    MOV      r0,r9
        0x40000f3c:    e3a01012    ....    MOV      r1,#0x12
        0x40000f40:    ebfffc5b    [...    BL       CPG_ClearBit ; 0x400000b4
        0x40000f44:    e5990100    ....    LDR      r0,[r9,#0x100]
        0x40000f48:    e3100701    ....    TST      r0,#0x40000
        0x40000f4c:    1afffffc    ....    BNE      0x40000f44 ; mstp_check + 700
        0x40000f50:    e5960000    ....    LDR      r0,[r6,#0]
        0x40000f54:    e30392d8    ....    MOV      r9,#0x32d8
        0x40000f58:    e3449000    ..D.    MOVT     r9,#0x4000
        0x40000f5c:    e5890100    ....    STR      r0,[r9,#0x100]
        0x40000f60:    e1a05006    .P..    MOV      r5,r6
        0x40000f64:    e5b50004    ....    LDR      r0,[r5,#4]!
        0x40000f68:    e5890108    ....    STR      r0,[r9,#0x108]
        0x40000f6c:    e1a07006    .p..    MOV      r7,r6
        0x40000f70:    e5b70008    ....    LDR      r0,[r7,#8]!
        0x40000f74:    e5890110    ....    STR      r0,[r9,#0x110]
        0x40000f78:    e1a01006    ....    MOV      r1,r6
        0x40000f7c:    e5b1000c    ....    LDR      r0,[r1,#0xc]!
        0x40000f80:    e58d102c    ,...    STR      r1,[sp,#0x2c]
        0x40000f84:    e5890118    ....    STR      r0,[r9,#0x118]
        0x40000f88:    e1a01006    ....    MOV      r1,r6
        0x40000f8c:    e5b10010    ....    LDR      r0,[r1,#0x10]!
        0x40000f90:    e1a0b001    ....    MOV      r11,r1
        0x40000f94:    e58db004    ....    STR      r11,[sp,#4]
        0x40000f98:    e5890120     ...    STR      r0,[r9,#0x120]
        0x40000f9c:    e1a01006    ....    MOV      r1,r6
        0x40000fa0:    e5b10014    ....    LDR      r0,[r1,#0x14]!
        0x40000fa4:    e58d100c    ....    STR      r1,[sp,#0xc]
        0x40000fa8:    e5890128    (...    STR      r0,[r9,#0x128]
        0x40000fac:    e1a01006    ....    MOV      r1,r6
        0x40000fb0:    e5b10018    ....    LDR      r0,[r1,#0x18]!
        0x40000fb4:    e1a04001    .@..    MOV      r4,r1
        0x40000fb8:    e58d4008    .@..    STR      r4,[sp,#8]
        0x40000fbc:    e5890130    0...    STR      r0,[r9,#0x130]
        0x40000fc0:    e1a01006    ....    MOV      r1,r6
        0x40000fc4:    e5b1001c    ....    LDR      r0,[r1,#0x1c]!
        0x40000fc8:    e58d1030    0...    STR      r1,[sp,#0x30]
        0x40000fcc:    e5890138    8...    STR      r0,[r9,#0x138]
        0x40000fd0:    e1a01006    ....    MOV      r1,r6
        0x40000fd4:    e5b10020     ...    LDR      r0,[r1,#0x20]!
        0x40000fd8:    e58d1028    (...    STR      r1,[sp,#0x28]
        0x40000fdc:    e5890140    @...    STR      r0,[r9,#0x140]
        0x40000fe0:    e1a0e006    ....    MOV      lr,r6
        0x40000fe4:    e5be0024    $...    LDR      r0,[lr,#0x24]!
        0x40000fe8:    e5890148    H...    STR      r0,[r9,#0x148]
        0x40000fec:    e1a01006    ....    MOV      r1,r6
        0x40000ff0:    e5b10028    (...    LDR      r0,[r1,#0x28]!
        0x40000ff4:    e58d1034    4...    STR      r1,[sp,#0x34]
        0x40000ff8:    e5890150    P...    STR      r0,[r9,#0x150]
        0x40000ffc:    e1a01006    ....    MOV      r1,r6
        0x40001000:    e5b1002c    ,...    LDR      r0,[r1,#0x2c]!
        0x40001004:    e58d1038    8...    STR      r1,[sp,#0x38]
        0x40001008:    e5890158    X...    STR      r0,[r9,#0x158]
        0x4000100c:    e1a0c006    ....    MOV      r12,r6
        0x40001010:    e5bc0030    0...    LDR      r0,[r12,#0x30]!
        0x40001014:    e5890160    `...    STR      r0,[r9,#0x160]
        0x40001018:    e1a01006    ....    MOV      r1,r6
        0x4000101c:    e5b10034    4...    LDR      r0,[r1,#0x34]!
        0x40001020:    e1a03001    .0..    MOV      r3,r1
        0x40001024:    e5890168    h...    STR      r0,[r9,#0x168]
        0x40001028:    e1a01006    ....    MOV      r1,r6
        0x4000102c:    e5b10038    8...    LDR      r0,[r1,#0x38]!
        0x40001030:    e1a02001    . ..    MOV      r2,r1
        0x40001034:    e5890170    p...    STR      r0,[r9,#0x170]
        0x40001038:    e1a01006    ....    MOV      r1,r6
        0x4000103c:    e5b1003c    <...    LDR      r0,[r1,#0x3c]!
        0x40001040:    e5890178    x...    STR      r0,[r9,#0x178]
        0x40001044:    e3a0a000    ....    MOV      r10,#0
        0x40001048:    e586a000    ....    STR      r10,[r6,#0]
        0x4000104c:    e58d5010    .P..    STR      r5,[sp,#0x10]
        0x40001050:    e585a000    ....    STR      r10,[r5,#0]
        0x40001054:    e587a000    ....    STR      r10,[r7,#0]
        0x40001058:    e58d7014    .p..    STR      r7,[sp,#0x14]
        0x4000105c:    e59d802c    ,...    LDR      r8,[sp,#0x2c]
        0x40001060:    e588a000    ....    STR      r10,[r8,#0]
        0x40001064:    e58ba000    ....    STR      r10,[r11,#0]
        0x40001068:    e59db00c    ....    LDR      r11,[sp,#0xc]
        0x4000106c:    e58ba000    ....    STR      r10,[r11,#0]
        0x40001070:    e584a000    ....    STR      r10,[r4,#0]
        0x40001074:    e59d4030    0@..    LDR      r4,[sp,#0x30]
        0x40001078:    e584a000    ....    STR      r10,[r4,#0]
        0x4000107c:    e59d0028    (...    LDR      r0,[sp,#0x28]
        0x40001080:    e580a000    ....    STR      r10,[r0,#0]
        0x40001084:    e58ea000    ....    STR      r10,[lr,#0]
        0x40001088:    e58de018    ....    STR      lr,[sp,#0x18]
        0x4000108c:    e59d0034    4...    LDR      r0,[sp,#0x34]
        0x40001090:    e580a000    ....    STR      r10,[r0,#0]
        0x40001094:    e59d0038    8...    LDR      r0,[sp,#0x38]
        0x40001098:    e580a000    ....    STR      r10,[r0,#0]
        0x4000109c:    e58ca000    ....    STR      r10,[r12,#0]
        0x400010a0:    e583a000    ....    STR      r10,[r3,#0]
        0x400010a4:    e58d301c    .0..    STR      r3,[sp,#0x1c]
        0x400010a8:    e582a000    ....    STR      r10,[r2,#0]
        0x400010ac:    e58d2020      ..    STR      r2,[sp,#0x20]
        0x400010b0:    e581a000    ....    STR      r10,[r1,#0]
        0x400010b4:    e58d1024    $...    STR      r1,[sp,#0x24]
        0x400010b8:    e5960000    ....    LDR      r0,[r6,#0]
        0x400010bc:    e5890104    ....    STR      r0,[r9,#0x104]
        0x400010c0:    e5950000    ....    LDR      r0,[r5,#0]
        0x400010c4:    e589010c    ....    STR      r0,[r9,#0x10c]
        0x400010c8:    e5970000    ....    LDR      r0,[r7,#0]
        0x400010cc:    e5890114    ....    STR      r0,[r9,#0x114]
        0x400010d0:    e5980000    ....    LDR      r0,[r8,#0]
        0x400010d4:    e589011c    ....    STR      r0,[r9,#0x11c]
        0x400010d8:    e59d5004    .P..    LDR      r5,[sp,#4]
        0x400010dc:    e5950000    ....    LDR      r0,[r5,#0]
        0x400010e0:    e5890124    $...    STR      r0,[r9,#0x124]
        0x400010e4:    e59b0000    ....    LDR      r0,[r11,#0]
        0x400010e8:    e589012c    ,...    STR      r0,[r9,#0x12c]
        0x400010ec:    e59d8008    ....    LDR      r8,[sp,#8]
        0x400010f0:    e5980000    ....    LDR      r0,[r8,#0]
        0x400010f4:    e5890134    4...    STR      r0,[r9,#0x134]
        0x400010f8:    e5940000    ....    LDR      r0,[r4,#0]
        0x400010fc:    e589013c    <...    STR      r0,[r9,#0x13c]
        0x40001100:    e59d4028    (@..    LDR      r4,[sp,#0x28]
        0x40001104:    e5940000    ....    LDR      r0,[r4,#0]
        0x40001108:    e5890144    D...    STR      r0,[r9,#0x144]
        0x4000110c:    e59e0000    ....    LDR      r0,[lr,#0]
        0x40001110:    e589014c    L...    STR      r0,[r9,#0x14c]
        0x40001114:    e59d0034    4...    LDR      r0,[sp,#0x34]
        0x40001118:    e5900000    ....    LDR      r0,[r0,#0]
        0x4000111c:    e5890154    T...    STR      r0,[r9,#0x154]
        0x40001120:    e59d0038    8...    LDR      r0,[sp,#0x38]
        0x40001124:    e5900000    ....    LDR      r0,[r0,#0]
        0x40001128:    e589015c    \...    STR      r0,[r9,#0x15c]
        0x4000112c:    e59c0000    ....    LDR      r0,[r12,#0]
        0x40001130:    e1a0700c    .p..    MOV      r7,r12
        0x40001134:    e5890164    d...    STR      r0,[r9,#0x164]
        0x40001138:    e5930000    ....    LDR      r0,[r3,#0]
        0x4000113c:    e589016c    l...    STR      r0,[r9,#0x16c]
        0x40001140:    e5920000    ....    LDR      r0,[r2,#0]
        0x40001144:    e5890174    t...    STR      r0,[r9,#0x174]
        0x40001148:    e5910000    ....    LDR      r0,[r1,#0]
        0x4000114c:    e589017c    |...    STR      r0,[r9,#0x17c]
        0x40001150:    e3a00003    ....    MOV      r0,#3
        0x40001154:    e3a01000    ....    MOV      r1,#0
        0x40001158:    e1a02006    . ..    MOV      r2,r6
        0x4000115c:    ebfffdb4    ....    BL       checkReg ; 0x40000834
        0x40001160:    e3a00003    ....    MOV      r0,#3
        0x40001164:    e3a01001    ....    MOV      r1,#1
        0x40001168:    e59d2010    . ..    LDR      r2,[sp,#0x10]
        0x4000116c:    ebfffdb0    ....    BL       checkReg ; 0x40000834
        0x40001170:    e3a00003    ....    MOV      r0,#3
        0x40001174:    e3a01002    ....    MOV      r1,#2
        0x40001178:    e59d2014    . ..    LDR      r2,[sp,#0x14]
        0x4000117c:    ebfffdac    ....    BL       checkReg ; 0x40000834
        0x40001180:    e3a00003    ....    MOV      r0,#3
        0x40001184:    e3a01003    ....    MOV      r1,#3
        0x40001188:    e59d202c    , ..    LDR      r2,[sp,#0x2c]
        0x4000118c:    ebfffda8    ....    BL       checkReg ; 0x40000834
        0x40001190:    e3a00003    ....    MOV      r0,#3
        0x40001194:    e3a01004    ....    MOV      r1,#4
        0x40001198:    e1a02005    . ..    MOV      r2,r5
        0x4000119c:    ebfffda4    ....    BL       checkReg ; 0x40000834
        0x400011a0:    e3a00003    ....    MOV      r0,#3
        0x400011a4:    e3a01005    ....    MOV      r1,#5
        0x400011a8:    e1a0200b    . ..    MOV      r2,r11
        0x400011ac:    ebfffda0    ....    BL       checkReg ; 0x40000834
        0x400011b0:    e3a00003    ....    MOV      r0,#3
        0x400011b4:    e3a01006    ....    MOV      r1,#6
        0x400011b8:    e1a02008    . ..    MOV      r2,r8
        0x400011bc:    ebfffd9c    ....    BL       checkReg ; 0x40000834
        0x400011c0:    e3a00003    ....    MOV      r0,#3
        0x400011c4:    e3a01007    ....    MOV      r1,#7
        0x400011c8:    e59d2030    0 ..    LDR      r2,[sp,#0x30]
        0x400011cc:    ebfffd98    ....    BL       checkReg ; 0x40000834
        0x400011d0:    e3a00003    ....    MOV      r0,#3
        0x400011d4:    e3a01008    ....    MOV      r1,#8
        0x400011d8:    e1a02004    . ..    MOV      r2,r4
        0x400011dc:    ebfffd94    ....    BL       checkReg ; 0x40000834
        0x400011e0:    e3a00003    ....    MOV      r0,#3
        0x400011e4:    e3a01009    ....    MOV      r1,#9
        0x400011e8:    e59d2018    . ..    LDR      r2,[sp,#0x18]
        0x400011ec:    ebfffd90    ....    BL       checkReg ; 0x40000834
        0x400011f0:    e3a00003    ....    MOV      r0,#3
        0x400011f4:    e3a0100a    ....    MOV      r1,#0xa
        0x400011f8:    e59d2034    4 ..    LDR      r2,[sp,#0x34]
        0x400011fc:    ebfffd8c    ....    BL       checkReg ; 0x40000834
        0x40001200:    e3a00003    ....    MOV      r0,#3
        0x40001204:    e3a0100b    ....    MOV      r1,#0xb
        0x40001208:    e59d2038    8 ..    LDR      r2,[sp,#0x38]
        0x4000120c:    ebfffd88    ....    BL       checkReg ; 0x40000834
        0x40001210:    e3a00003    ....    MOV      r0,#3
        0x40001214:    e3a0100c    ....    MOV      r1,#0xc
        0x40001218:    e1a02007    . ..    MOV      r2,r7
        0x4000121c:    ebfffd84    ....    BL       checkReg ; 0x40000834
        0x40001220:    e3a00003    ....    MOV      r0,#3
        0x40001224:    e3a0100d    ....    MOV      r1,#0xd
        0x40001228:    e59d201c    . ..    LDR      r2,[sp,#0x1c]
        0x4000122c:    ebfffd80    ....    BL       checkReg ; 0x40000834
        0x40001230:    e3a00003    ....    MOV      r0,#3
        0x40001234:    e3a0100e    ....    MOV      r1,#0xe
        0x40001238:    e59d2020      ..    LDR      r2,[sp,#0x20]
        0x4000123c:    ebfffd7c    |...    BL       checkReg ; 0x40000834
        0x40001240:    e3a00003    ....    MOV      r0,#3
        0x40001244:    e3a0100f    ....    MOV      r1,#0xf
        0x40001248:    e59d2024    $ ..    LDR      r2,[sp,#0x24]
        0x4000124c:    ebfffd78    x...    BL       checkReg ; 0x40000834
        0x40001250:    e3010ea0    ....    MOVW     r0,#0x1ea0
        0x40001254:    e3440000    ..D.    MOVT     r0,#0x4000
        0x40001258:    e3a01000    ....    MOV      r1,#0
        0x4000125c:    e3a02000    . ..    MOV      r2,#0
        0x40001260:    e080338a    .3..    ADD      r3,r0,r10,LSL #7
        0x40001264:    e0833181    .1..    ADD      r3,r3,r1,LSL #3
        0x40001268:    e7933102    .1..    LDR      r3,[r3,r2,LSL #2]
        0x4000126c:    e089738a    .s..    ADD      r7,r9,r10,LSL #7
        0x40001270:    e0877181    .q..    ADD      r7,r7,r1,LSL #3
        0x40001274:    e7977102    .q..    LDR      r7,[r7,r2,LSL #2]
        0x40001278:    e1570003    ..W.    CMP      r7,r3
        0x4000127c:    1a00000c    ....    BNE      0x400012b4 ; mstp_check + 1580
        0x40001280:    e2823001    .0..    ADD      r3,r2,#1
        0x40001284:    e3a02001    . ..    MOV      r2,#1
        0x40001288:    e3530001    ..S.    CMP      r3,#1
        0x4000128c:    9afffff3    ....    BLS      0x40001260 ; mstp_check + 1496
        0x40001290:    e2811001    ....    ADD      r1,r1,#1
        0x40001294:    e3510010    ..Q.    CMP      r1,#0x10
        0x40001298:    3affffef    ...:    BCC      0x4000125c ; mstp_check + 1492
        0x4000129c:    e28aa001    ....    ADD      r10,r10,#1
        0x400012a0:    e35a0004    ..Z.    CMP      r10,#4
        0x400012a4:    3affffeb    ...:    BCC      0x40001258 ; mstp_check + 1488
        0x400012a8:    e3a00000    ....    MOV      r0,#0
        0x400012ac:    e28dd03c    <...    ADD      sp,sp,#0x3c
        0x400012b0:    e8bd8ff0    ....    POP      {r4-r11,pc}
        0x400012b4:    e3a00001    ....    MOV      r0,#1
        0x400012b8:    e28dd03c    <...    ADD      sp,sp,#0x3c
        0x400012bc:    e8bd8ff0    ....    POP      {r4-r11,pc}
    pad_check
        0x400012c0:    e92d4830    0H-.    PUSH     {r4,r5,r11,lr}
        0x400012c4:    e3004000    .@..    MOVW     r4,#0
        0x400012c8:    e34e4650    PFN.    MOVT     r4,#0xe650
        0x400012cc:    e3021320     ...    MOV      r1,#0x2320
        0x400012d0:    e3441000    ..D.    MOVT     r1,#0x4000
        0x400012d4:    e1a00004    ....    MOV      r0,r4
        0x400012d8:    ebfffbfd    ....    BL       I2C_masterInit ; 0x400002d4
        0x400012dc:    e1a00004    ....    MOV      r0,r4
        0x400012e0:    e3e01000    ....    MVN      r1,#0
        0x400012e4:    ebfffbe7    ....    BL       I2C_masterClearInterruptStatus ; 0x40000288
        0x400012e8:    e1a00004    ....    MOV      r0,r4
        0x400012ec:    e3a01019    ....    MOV      r1,#0x19
        0x400012f0:    ebfffbf0    ....    BL       I2C_masterEnableInterrupt ; 0x400002b8
        0x400012f4:    e1a00004    ....    MOV      r0,r4
        0x400012f8:    ebfffbea    ....    BL       I2C_masterEnable ; 0x400002a8
        0x400012fc:    e2845902    .Y..    ADD      r5,r4,#0x8000
        0x40001300:    e3021350    P...    MOV      r1,#0x2350
        0x40001304:    e3441000    ..D.    MOVT     r1,#0x4000
        0x40001308:    e1a00005    ....    MOV      r0,r5
        0x4000130c:    ebfffc9d    ....    BL       I2C_slaveInit ; 0x40000588
        0x40001310:    e1a00005    ....    MOV      r0,r5
        0x40001314:    e3e01000    ....    MVN      r1,#0
        0x40001318:    ebfffc8b    ....    BL       I2C_slaveClearInterruptStatus ; 0x4000054c
        0x4000131c:    e1a00005    ....    MOV      r0,r5
        0x40001320:    e3a01013    ....    MOV      r1,#0x13
        0x40001324:    ebfffc90    ....    BL       I2C_slaveEnableInterrupt ; 0x4000056c
        0x40001328:    e1a00005    ....    MOV      r0,r5
        0x4000132c:    ebfffc8a    ....    BL       I2C_slaveEnable ; 0x4000055c
        0x40001330:    ebfffb7d    }...    BL       GIC_enable ; 0x4000012c
        0x40001334:    e30018c0    ....    MOVW     r1,#0x8c0
        0x40001338:    e3441000    ..D.    MOVT     r1,#0x4000
        0x4000133c:    e300010e    ....    MOVW     r0,#0x10e
        0x40001340:    ebfffbc5    ....    BL       GIC_setInterruptHandler ; 0x4000025c
        0x40001344:    e30019d8    ....    MOV      r1,#0x9d8
        0x40001348:    e3441000    ..D.    MOVT     r1,#0x4000
        0x4000134c:    e300010f    ....    MOV      r0,#0x10f
        0x40001350:    ebfffbc1    ....    BL       GIC_setInterruptHandler ; 0x4000025c
        0x40001354:    e300010e    ....    MOVW     r0,#0x10e
        0x40001358:    ebfffb85    ....    BL       GIC_enableInterrupt ; 0x40000174
        0x4000135c:    e300010f    ....    MOV      r0,#0x10f
        0x40001360:    ebfffb83    ....    BL       GIC_enableInterrupt ; 0x40000174
        0x40001364:    e3030758    X...    MOV      r0,#0x3758
        0x40001368:    e3440000    ..D.    MOVT     r0,#0x4000
        0x4000136c:    e5901000    ....    LDR      r1,[r0,#0]
        0x40001370:    e2812001    . ..    ADD      r2,r1,#1
        0x40001374:    e5802000    . ..    STR      r2,[r0,#0]
        0x40001378:    e3015e90    .^..    MOV      r5,#0x1e90
        0x4000137c:    e3445000    .PD.    MOVT     r5,#0x4000
        0x40001380:    e7951101    ....    LDR      r1,[r5,r1,LSL #2]
        0x40001384:    e1a00004    ....    MOV      r0,r4
        0x40001388:    ebfffc44    D...    BL       I2C_masterSendMultipleByteStart ; 0x400004a0
        0x4000138c:    e30302bc    ....    MOV      r0,#0x32bc
        0x40001390:    e3440000    ..D.    MOVT     r0,#0x4000
        0x40001394:    e5d01000    ....    LDRB     r1,[r0,#0]
        0x40001398:    e3510000    ..Q.    CMP      r1,#0
        0x4000139c:    0afffffc    ....    BEQ      0x40001394 ; pad_check + 212
        0x400013a0:    e3a01000    ....    MOV      r1,#0
        0x400013a4:    e30302c0    ....    MOVW     r0,#0x32c0
        0x400013a8:    e3440000    ..D.    MOVT     r0,#0x4000
        0x400013ac:    e7952101    .!..    LDR      r2,[r5,r1,LSL #2]
        0x400013b0:    e7903101    .1..    LDR      r3,[r0,r1,LSL #2]
        0x400013b4:    e1530002    ..S.    CMP      r3,r2
        0x400013b8:    1a000005    ....    BNE      0x400013d4 ; pad_check + 276
        0x400013bc:    e2812001    . ..    ADD      r2,r1,#1
        0x400013c0:    e3a01001    ....    MOV      r1,#1
        0x400013c4:    e3520001    ..R.    CMP      r2,#1
        0x400013c8:    9afffff7    ....    BLS      0x400013ac ; pad_check + 236
        0x400013cc:    e3a00000    ....    MOV      r0,#0
        0x400013d0:    e8bd8830    0...    POP      {r4,r5,r11,pc}
        0x400013d4:    e3a00001    ....    MOV      r0,#1
        0x400013d8:    e8bd8830    0...    POP      {r4,r5,r11,pc}
    reg_check
        0x400013dc:    e92d4830    0H-.    PUSH     {r4,r5,r11,lr}
        0x400013e0:    e3a05000    .P..    MOV      r5,#0
        0x400013e4:    e3004000    .@..    MOVW     r4,#0
        0x400013e8:    e34e4650    PFN.    MOVT     r4,#0xe650
        0x400013ec:    e3a00000    ....    MOV      r0,#0
        0x400013f0:    e1a01004    ....    MOV      r1,r4
        0x400013f4:    ebfffd1a    ....    BL       checkReg ; 0x40000864
        0x400013f8:    e2841004    ....    ADD      r1,r4,#4
        0x400013fc:    e3a00001    ....    MOV      r0,#1
        0x40001400:    ebfffd17    ....    BL       checkReg ; 0x40000864
        0x40001404:    e2841008    ....    ADD      r1,r4,#8
        0x40001408:    e3a00002    ....    MOV      r0,#2
        0x4000140c:    ebfffd14    ....    BL       checkReg ; 0x40000864
        0x40001410:    e284100c    ....    ADD      r1,r4,#0xc
        0x40001414:    e3a00003    ....    MOV      r0,#3
        0x40001418:    ebfffd11    ....    BL       checkReg ; 0x40000864
        0x4000141c:    e2841010    ....    ADD      r1,r4,#0x10
        0x40001420:    e3a00004    ....    MOV      r0,#4
        0x40001424:    ebfffd0e    ....    BL       checkReg ; 0x40000864
        0x40001428:    e2841014    ....    ADD      r1,r4,#0x14
        0x4000142c:    e3a00005    ....    MOV      r0,#5
        0x40001430:    ebfffd0b    ....    BL       checkReg ; 0x40000864
        0x40001434:    e2841018    ....    ADD      r1,r4,#0x18
        0x40001438:    e3a00006    ....    MOV      r0,#6
        0x4000143c:    ebfffd08    ....    BL       checkReg ; 0x40000864
        0x40001440:    e284101c    ....    ADD      r1,r4,#0x1c
        0x40001444:    e3a00007    ....    MOV      r0,#7
        0x40001448:    ebfffd05    ....    BL       checkReg ; 0x40000864
        0x4000144c:    e2841020     ...    ADD      r1,r4,#0x20
        0x40001450:    e3a00008    ....    MOV      r0,#8
        0x40001454:    ebfffd02    ....    BL       checkReg ; 0x40000864
        0x40001458:    e2841024    $...    ADD      r1,r4,#0x24
        0x4000145c:    e3a00009    ....    MOV      r0,#9
        0x40001460:    ebfffcff    ....    BL       checkReg ; 0x40000864
        0x40001464:    e2841028    (...    ADD      r1,r4,#0x28
        0x40001468:    e3a0000a    ....    MOV      r0,#0xa
        0x4000146c:    ebfffcfc    ....    BL       checkReg ; 0x40000864
        0x40001470:    e284102c    ,...    ADD      r1,r4,#0x2c
        0x40001474:    e3a0000b    ....    MOV      r0,#0xb
        0x40001478:    ebfffcf9    ....    BL       checkReg ; 0x40000864
        0x4000147c:    e2841030    0...    ADD      r1,r4,#0x30
        0x40001480:    e3a0000c    ....    MOV      r0,#0xc
        0x40001484:    ebfffcf6    ....    BL       checkReg ; 0x40000864
        0x40001488:    e2841034    4...    ADD      r1,r4,#0x34
        0x4000148c:    e3a0000d    ....    MOV      r0,#0xd
        0x40001490:    ebfffcf3    ....    BL       checkReg ; 0x40000864
        0x40001494:    e2841038    8...    ADD      r1,r4,#0x38
        0x40001498:    e3a0000e    ....    MOV      r0,#0xe
        0x4000149c:    ebfffcf0    ....    BL       checkReg ; 0x40000864
        0x400014a0:    e284103c    <...    ADD      r1,r4,#0x3c
        0x400014a4:    e3a0000f    ....    MOV      r0,#0xf
        0x400014a8:    ebfffced    ....    BL       checkReg ; 0x40000864
        0x400014ac:    e30200a0    ....    MOV      r0,#0x20a0
        0x400014b0:    e3440000    ..D.    MOVT     r0,#0x4000
        0x400014b4:    e30314d8    ....    MOV      r1,#0x34d8
        0x400014b8:    e3441000    ..D.    MOVT     r1,#0x4000
        0x400014bc:    e3a02000    . ..    MOV      r2,#0
        0x400014c0:    e0803185    .1..    ADD      r3,r0,r5,LSL #3
        0x400014c4:    e7933102    .1..    LDR      r3,[r3,r2,LSL #2]
        0x400014c8:    e0814185    .A..    ADD      r4,r1,r5,LSL #3
        0x400014cc:    e7944102    .A..    LDR      r4,[r4,r2,LSL #2]
        0x400014d0:    e1540003    ..T.    CMP      r4,r3
        0x400014d4:    1a000008    ....    BNE      0x400014fc ; reg_check + 288
        0x400014d8:    e2823001    .0..    ADD      r3,r2,#1
        0x400014dc:    e3a02001    . ..    MOV      r2,#1
        0x400014e0:    e3530001    ..S.    CMP      r3,#1
        0x400014e4:    9afffff5    ....    BLS      0x400014c0 ; reg_check + 228
        0x400014e8:    e2855001    .P..    ADD      r5,r5,#1
        0x400014ec:    e3550010    ..U.    CMP      r5,#0x10
        0x400014f0:    3afffff1    ...:    BCC      0x400014bc ; reg_check + 224
        0x400014f4:    e3a00000    ....    MOV      r0,#0
        0x400014f8:    e8bd8830    0...    POP      {r4,r5,r11,pc}
        0x400014fc:    e3a00001    ....    MOV      r0,#1
        0x40001500:    e8bd8830    0...    POP      {r4,r5,r11,pc}
    srst_check
        0x40001504:    e92d4ff0    .O-.    PUSH     {r4-r11,lr}
        0x40001508:    e24dd03c    <.M.    SUB      sp,sp,#0x3c
        0x4000150c:    e3a09000    ....    MOV      r9,#0
        0x40001510:    e3004000    .@..    MOVW     r4,#0
        0x40001514:    e34e4650    PFN.    MOVT     r4,#0xe650
        0x40001518:    e3a00000    ....    MOV      r0,#0
        0x4000151c:    e3a01000    ....    MOV      r1,#0
        0x40001520:    e1a02004    . ..    MOV      r2,r4
        0x40001524:    ebfffcd9    ....    BL       checkReg ; 0x40000890
        0x40001528:    e2842004    . ..    ADD      r2,r4,#4
        0x4000152c:    e58d2038    8 ..    STR      r2,[sp,#0x38]
        0x40001530:    e3a00000    ....    MOV      r0,#0
        0x40001534:    e3a01001    ....    MOV      r1,#1
        0x40001538:    ebfffcd4    ....    BL       checkReg ; 0x40000890
        0x4000153c:    e2842008    . ..    ADD      r2,r4,#8
        0x40001540:    e58d2034    4 ..    STR      r2,[sp,#0x34]
        0x40001544:    e3a00000    ....    MOV      r0,#0
        0x40001548:    e3a01002    ....    MOV      r1,#2
        0x4000154c:    ebfffccf    ....    BL       checkReg ; 0x40000890
        0x40001550:    e284200c    . ..    ADD      r2,r4,#0xc
        0x40001554:    e58d202c    , ..    STR      r2,[sp,#0x2c]
        0x40001558:    e3a00000    ....    MOV      r0,#0
        0x4000155c:    e3a01003    ....    MOV      r1,#3
        0x40001560:    ebfffcca    ....    BL       checkReg ; 0x40000890
        0x40001564:    e284b010    ....    ADD      r11,r4,#0x10
        0x40001568:    e3a00000    ....    MOV      r0,#0
        0x4000156c:    e3a01004    ....    MOV      r1,#4
        0x40001570:    e1a0200b    . ..    MOV      r2,r11
        0x40001574:    e58db024    $...    STR      r11,[sp,#0x24]
        0x40001578:    ebfffcc4    ....    BL       checkReg ; 0x40000890
        0x4000157c:    e2842014    . ..    ADD      r2,r4,#0x14
        0x40001580:    e58d2028    ( ..    STR      r2,[sp,#0x28]
        0x40001584:    e3a00000    ....    MOV      r0,#0
        0x40001588:    e3a01005    ....    MOV      r1,#5
        0x4000158c:    ebfffcbf    ....    BL       checkReg ; 0x40000890
        0x40001590:    e2846018    .`..    ADD      r6,r4,#0x18
        0x40001594:    e3a00000    ....    MOV      r0,#0
        0x40001598:    e3a01006    ....    MOV      r1,#6
        0x4000159c:    e1a02006    . ..    MOV      r2,r6
        0x400015a0:    e58d6020     `..    STR      r6,[sp,#0x20]
        0x400015a4:    ebfffcb9    ....    BL       checkReg ; 0x40000890
        0x400015a8:    e284201c    . ..    ADD      r2,r4,#0x1c
        0x400015ac:    e58d2030    0 ..    STR      r2,[sp,#0x30]
        0x400015b0:    e3a00000    ....    MOV      r0,#0
        0x400015b4:    e3a01007    ....    MOV      r1,#7
        0x400015b8:    ebfffcb4    ....    BL       checkReg ; 0x40000890
        0x400015bc:    e2842020      ..    ADD      r2,r4,#0x20
        0x400015c0:    e58d2010    . ..    STR      r2,[sp,#0x10]
        0x400015c4:    e3a00000    ....    MOV      r0,#0
        0x400015c8:    e3a01008    ....    MOV      r1,#8
        0x400015cc:    ebfffcaf    ....    BL       checkReg ; 0x40000890
        0x400015d0:    e2848024    $...    ADD      r8,r4,#0x24
        0x400015d4:    e3a00000    ....    MOV      r0,#0
        0x400015d8:    e3a01009    ....    MOV      r1,#9
        0x400015dc:    e1a02008    . ..    MOV      r2,r8
        0x400015e0:    ebfffcaa    ....    BL       checkReg ; 0x40000890
        0x400015e4:    e2842028    ( ..    ADD      r2,r4,#0x28
        0x400015e8:    e58d200c    . ..    STR      r2,[sp,#0xc]
        0x400015ec:    e3a00000    ....    MOV      r0,#0
        0x400015f0:    e3a0100a    ....    MOV      r1,#0xa
        0x400015f4:    ebfffca5    ....    BL       checkReg ; 0x40000890
        0x400015f8:    e284a02c    ,...    ADD      r10,r4,#0x2c
        0x400015fc:    e3a00000    ....    MOV      r0,#0
        0x40001600:    e3a0100b    ....    MOV      r1,#0xb
        0x40001604:    e1a0200a    . ..    MOV      r2,r10
        0x40001608:    e58da01c    ....    STR      r10,[sp,#0x1c]
        0x4000160c:    ebfffc9f    ....    BL       checkReg ; 0x40000890
        0x40001610:    e2847030    0p..    ADD      r7,r4,#0x30
        0x40001614:    e3a00000    ....    MOV      r0,#0
        0x40001618:    e3a0100c    ....    MOV      r1,#0xc
        0x4000161c:    e1a02007    . ..    MOV      r2,r7
        0x40001620:    e58d7018    .p..    STR      r7,[sp,#0x18]
        0x40001624:    ebfffc99    ....    BL       checkReg ; 0x40000890
        0x40001628:    e2842034    4 ..    ADD      r2,r4,#0x34
        0x4000162c:    e58d2008    . ..    STR      r2,[sp,#8]
        0x40001630:    e3a00000    ....    MOV      r0,#0
        0x40001634:    e3a0100d    ....    MOV      r1,#0xd
        0x40001638:    ebfffc94    ....    BL       checkReg ; 0x40000890
        0x4000163c:    e2845038    8P..    ADD      r5,r4,#0x38
        0x40001640:    e3a00000    ....    MOV      r0,#0
        0x40001644:    e3a0100e    ....    MOV      r1,#0xe
        0x40001648:    e1a02005    . ..    MOV      r2,r5
        0x4000164c:    e58d5014    .P..    STR      r5,[sp,#0x14]
        0x40001650:    ebfffc8e    ....    BL       checkReg ; 0x40000890
        0x40001654:    e284203c    < ..    ADD      r2,r4,#0x3c
        0x40001658:    e58d2004    . ..    STR      r2,[sp,#4]
        0x4000165c:    e3a00000    ....    MOV      r0,#0
        0x40001660:    e3a0100f    ....    MOV      r1,#0xf
        0x40001664:    ebfffc89    ....    BL       checkReg ; 0x40000890
        0x40001668:    e3e00000    ....    MVN      r0,#0
        0x4000166c:    e5840000    ....    STR      r0,[r4,#0]
        0x40001670:    e5840004    ....    STR      r0,[r4,#4]
        0x40001674:    e5840008    ....    STR      r0,[r4,#8]
        0x40001678:    e584000c    ....    STR      r0,[r4,#0xc]
        0x4000167c:    e5840010    ....    STR      r0,[r4,#0x10]
        0x40001680:    e5840014    ....    STR      r0,[r4,#0x14]
        0x40001684:    e5840018    ....    STR      r0,[r4,#0x18]
        0x40001688:    e584001c    ....    STR      r0,[r4,#0x1c]
        0x4000168c:    e5840020     ...    STR      r0,[r4,#0x20]
        0x40001690:    e5840024    $...    STR      r0,[r4,#0x24]
        0x40001694:    e5840028    (...    STR      r0,[r4,#0x28]
        0x40001698:    e584002c    ,...    STR      r0,[r4,#0x2c]
        0x4000169c:    e5840030    0...    STR      r0,[r4,#0x30]
        0x400016a0:    e5840034    4...    STR      r0,[r4,#0x34]
        0x400016a4:    e5840038    8...    STR      r0,[r4,#0x38]
        0x400016a8:    e584003c    <...    STR      r0,[r4,#0x3c]
        0x400016ac:    e3020c14    ....    MOV      r0,#0x2c14
        0x400016b0:    e34e0615    ..N.    MOVT     r0,#0xe615
        0x400016b4:    e3a01012    ....    MOV      r1,#0x12
        0x400016b8:    ebfffa86    ....    BL       CPG_SetBit ; 0x400000d8
        0x400016bc:    e3a00001    ....    MOV      r0,#1
        0x400016c0:    e3a01000    ....    MOV      r1,#0
        0x400016c4:    e1a02004    . ..    MOV      r2,r4
        0x400016c8:    ebfffc70    p...    BL       checkReg ; 0x40000890
        0x400016cc:    e3a00001    ....    MOV      r0,#1
        0x400016d0:    e3a01001    ....    MOV      r1,#1
        0x400016d4:    e59d2038    8 ..    LDR      r2,[sp,#0x38]
        0x400016d8:    ebfffc6c    l...    BL       checkReg ; 0x40000890
        0x400016dc:    e3a00001    ....    MOV      r0,#1
        0x400016e0:    e3a01002    ....    MOV      r1,#2
        0x400016e4:    e59d2034    4 ..    LDR      r2,[sp,#0x34]
        0x400016e8:    ebfffc68    h...    BL       checkReg ; 0x40000890
        0x400016ec:    e3a00001    ....    MOV      r0,#1
        0x400016f0:    e3a01003    ....    MOV      r1,#3
        0x400016f4:    e59d202c    , ..    LDR      r2,[sp,#0x2c]
        0x400016f8:    ebfffc64    d...    BL       checkReg ; 0x40000890
        0x400016fc:    e3a00001    ....    MOV      r0,#1
        0x40001700:    e3a01004    ....    MOV      r1,#4
        0x40001704:    e1a0200b    . ..    MOV      r2,r11
        0x40001708:    ebfffc60    `...    BL       checkReg ; 0x40000890
        0x4000170c:    e3a00001    ....    MOV      r0,#1
        0x40001710:    e3a01005    ....    MOV      r1,#5
        0x40001714:    e59d2028    ( ..    LDR      r2,[sp,#0x28]
        0x40001718:    ebfffc5c    \...    BL       checkReg ; 0x40000890
        0x4000171c:    e3a00001    ....    MOV      r0,#1
        0x40001720:    e3a01006    ....    MOV      r1,#6
        0x40001724:    e1a02006    . ..    MOV      r2,r6
        0x40001728:    ebfffc58    X...    BL       checkReg ; 0x40000890
        0x4000172c:    e3a00001    ....    MOV      r0,#1
        0x40001730:    e3a01007    ....    MOV      r1,#7
        0x40001734:    e59d2030    0 ..    LDR      r2,[sp,#0x30]
        0x40001738:    ebfffc54    T...    BL       checkReg ; 0x40000890
        0x4000173c:    e3a00001    ....    MOV      r0,#1
        0x40001740:    e3a01008    ....    MOV      r1,#8
        0x40001744:    e59db010    ....    LDR      r11,[sp,#0x10]
        0x40001748:    e1a0200b    . ..    MOV      r2,r11
        0x4000174c:    ebfffc4f    O...    BL       checkReg ; 0x40000890
        0x40001750:    e3a00001    ....    MOV      r0,#1
        0x40001754:    e3a01009    ....    MOV      r1,#9
        0x40001758:    e1a02008    . ..    MOV      r2,r8
        0x4000175c:    e1a06008    .`..    MOV      r6,r8
        0x40001760:    ebfffc4a    J...    BL       checkReg ; 0x40000890
        0x40001764:    e3a00001    ....    MOV      r0,#1
        0x40001768:    e3a0100a    ....    MOV      r1,#0xa
        0x4000176c:    e59d800c    ....    LDR      r8,[sp,#0xc]
        0x40001770:    e1a02008    . ..    MOV      r2,r8
        0x40001774:    ebfffc45    E...    BL       checkReg ; 0x40000890
        0x40001778:    e3a00001    ....    MOV      r0,#1
        0x4000177c:    e3a0100b    ....    MOV      r1,#0xb
        0x40001780:    e1a0200a    . ..    MOV      r2,r10
        0x40001784:    ebfffc41    A...    BL       checkReg ; 0x40000890
        0x40001788:    e3a00001    ....    MOV      r0,#1
        0x4000178c:    e3a0100c    ....    MOV      r1,#0xc
        0x40001790:    e1a02007    . ..    MOV      r2,r7
        0x40001794:    ebfffc3d    =...    BL       checkReg ; 0x40000890
        0x40001798:    e3a00001    ....    MOV      r0,#1
        0x4000179c:    e3a0100d    ....    MOV      r1,#0xd
        0x400017a0:    e59d7008    .p..    LDR      r7,[sp,#8]
        0x400017a4:    e1a02007    . ..    MOV      r2,r7
        0x400017a8:    ebfffc38    8...    BL       checkReg ; 0x40000890
        0x400017ac:    e3a00001    ....    MOV      r0,#1
        0x400017b0:    e3a0100e    ....    MOV      r1,#0xe
        0x400017b4:    e1a02005    . ..    MOV      r2,r5
        0x400017b8:    ebfffc34    4...    BL       checkReg ; 0x40000890
        0x400017bc:    e3a00001    ....    MOV      r0,#1
        0x400017c0:    e3a0100f    ....    MOV      r1,#0xf
        0x400017c4:    e59d5004    .P..    LDR      r5,[sp,#4]
        0x400017c8:    e1a02005    . ..    MOV      r2,r5
        0x400017cc:    ebfffc2f    /...    BL       checkReg ; 0x40000890
        0x400017d0:    e3020c14    ....    MOV      r0,#0x2c14
        0x400017d4:    e34e0615    ..N.    MOVT     r0,#0xe615
        0x400017d8:    e2800080    ....    ADD      r0,r0,#0x80
        0x400017dc:    e3a01012    ....    MOV      r1,#0x12
        0x400017e0:    ebfffa3c    <...    BL       CPG_SetBit ; 0x400000d8
        0x400017e4:    e5940000    ....    LDR      r0,[r4,#0]
        0x400017e8:    e303a558    X...    MOV      r10,#0x3558
        0x400017ec:    e344a000    ..D.    MOVT     r10,#0x4000
        0x400017f0:    e58a0100    ....    STR      r0,[r10,#0x100]
        0x400017f4:    e5940004    ....    LDR      r0,[r4,#4]
        0x400017f8:    e58a0108    ....    STR      r0,[r10,#0x108]
        0x400017fc:    e5940008    ....    LDR      r0,[r4,#8]
        0x40001800:    e58a0110    ....    STR      r0,[r10,#0x110]
        0x40001804:    e594000c    ....    LDR      r0,[r4,#0xc]
        0x40001808:    e58a0118    ....    STR      r0,[r10,#0x118]
        0x4000180c:    e5940010    ....    LDR      r0,[r4,#0x10]
        0x40001810:    e58a0120     ...    STR      r0,[r10,#0x120]
        0x40001814:    e5940014    ....    LDR      r0,[r4,#0x14]
        0x40001818:    e58a0128    (...    STR      r0,[r10,#0x128]
        0x4000181c:    e5940018    ....    LDR      r0,[r4,#0x18]
        0x40001820:    e58a0130    0...    STR      r0,[r10,#0x130]
        0x40001824:    e594001c    ....    LDR      r0,[r4,#0x1c]
        0x40001828:    e58a0138    8...    STR      r0,[r10,#0x138]
        0x4000182c:    e5940020     ...    LDR      r0,[r4,#0x20]
        0x40001830:    e58a0140    @...    STR      r0,[r10,#0x140]
        0x40001834:    e5940024    $...    LDR      r0,[r4,#0x24]
        0x40001838:    e58a0148    H...    STR      r0,[r10,#0x148]
        0x4000183c:    e5940028    (...    LDR      r0,[r4,#0x28]
        0x40001840:    e58a0150    P...    STR      r0,[r10,#0x150]
        0x40001844:    e594002c    ,...    LDR      r0,[r4,#0x2c]
        0x40001848:    e58a0158    X...    STR      r0,[r10,#0x158]
        0x4000184c:    e5940030    0...    LDR      r0,[r4,#0x30]
        0x40001850:    e58a0160    `...    STR      r0,[r10,#0x160]
        0x40001854:    e5940034    4...    LDR      r0,[r4,#0x34]
        0x40001858:    e58a0168    h...    STR      r0,[r10,#0x168]
        0x4000185c:    e5940038    8...    LDR      r0,[r4,#0x38]
        0x40001860:    e58a0170    p...    STR      r0,[r10,#0x170]
        0x40001864:    e594003c    <...    LDR      r0,[r4,#0x3c]
        0x40001868:    e58a9104    ....    STR      r9,[r10,#0x104]
        0x4000186c:    e58a910c    ....    STR      r9,[r10,#0x10c]
        0x40001870:    e58a9114    ....    STR      r9,[r10,#0x114]
        0x40001874:    e58a911c    ....    STR      r9,[r10,#0x11c]
        0x40001878:    e58a9124    $...    STR      r9,[r10,#0x124]
        0x4000187c:    e58a912c    ,...    STR      r9,[r10,#0x12c]
        0x40001880:    e58a9134    4...    STR      r9,[r10,#0x134]
        0x40001884:    e58a913c    <...    STR      r9,[r10,#0x13c]
        0x40001888:    e58a9144    D...    STR      r9,[r10,#0x144]
        0x4000188c:    e58a914c    L...    STR      r9,[r10,#0x14c]
        0x40001890:    e58a9154    T...    STR      r9,[r10,#0x154]
        0x40001894:    e58a915c    \...    STR      r9,[r10,#0x15c]
        0x40001898:    e58a9164    d...    STR      r9,[r10,#0x164]
        0x4000189c:    e58a916c    l...    STR      r9,[r10,#0x16c]
        0x400018a0:    e58a9174    t...    STR      r9,[r10,#0x174]
        0x400018a4:    e58a917c    |...    STR      r9,[r10,#0x17c]
        0x400018a8:    e58a0178    x...    STR      r0,[r10,#0x178]
        0x400018ac:    e3a00003    ....    MOV      r0,#3
        0x400018b0:    e3a01000    ....    MOV      r1,#0
        0x400018b4:    e1a02004    . ..    MOV      r2,r4
        0x400018b8:    ebfffbf4    ....    BL       checkReg ; 0x40000890
        0x400018bc:    e3a00003    ....    MOV      r0,#3
        0x400018c0:    e3a01001    ....    MOV      r1,#1
        0x400018c4:    e59d2038    8 ..    LDR      r2,[sp,#0x38]
        0x400018c8:    ebfffbf0    ....    BL       checkReg ; 0x40000890
        0x400018cc:    e3a00003    ....    MOV      r0,#3
        0x400018d0:    e3a01002    ....    MOV      r1,#2
        0x400018d4:    e59d2034    4 ..    LDR      r2,[sp,#0x34]
        0x400018d8:    ebfffbec    ....    BL       checkReg ; 0x40000890
        0x400018dc:    e3a00003    ....    MOV      r0,#3
        0x400018e0:    e3a01003    ....    MOV      r1,#3
        0x400018e4:    e59d202c    , ..    LDR      r2,[sp,#0x2c]
        0x400018e8:    ebfffbe8    ....    BL       checkReg ; 0x40000890
        0x400018ec:    e3a00003    ....    MOV      r0,#3
        0x400018f0:    e3a01004    ....    MOV      r1,#4
        0x400018f4:    e59d2024    $ ..    LDR      r2,[sp,#0x24]
        0x400018f8:    ebfffbe4    ....    BL       checkReg ; 0x40000890
        0x400018fc:    e3a00003    ....    MOV      r0,#3
        0x40001900:    e3a01005    ....    MOV      r1,#5
        0x40001904:    e59d2028    ( ..    LDR      r2,[sp,#0x28]
        0x40001908:    ebfffbe0    ....    BL       checkReg ; 0x40000890
        0x4000190c:    e3a00003    ....    MOV      r0,#3
        0x40001910:    e3a01006    ....    MOV      r1,#6
        0x40001914:    e59d2020      ..    LDR      r2,[sp,#0x20]
        0x40001918:    ebfffbdc    ....    BL       checkReg ; 0x40000890
        0x4000191c:    e3a00003    ....    MOV      r0,#3
        0x40001920:    e3a01007    ....    MOV      r1,#7
        0x40001924:    e59d2030    0 ..    LDR      r2,[sp,#0x30]
        0x40001928:    ebfffbd8    ....    BL       checkReg ; 0x40000890
        0x4000192c:    e3a00003    ....    MOV      r0,#3
        0x40001930:    e3a01008    ....    MOV      r1,#8
        0x40001934:    e1a0200b    . ..    MOV      r2,r11
        0x40001938:    ebfffbd4    ....    BL       checkReg ; 0x40000890
        0x4000193c:    e3a00003    ....    MOV      r0,#3
        0x40001940:    e3a01009    ....    MOV      r1,#9
        0x40001944:    e1a02006    . ..    MOV      r2,r6
        0x40001948:    ebfffbd0    ....    BL       checkReg ; 0x40000890
        0x4000194c:    e3a00003    ....    MOV      r0,#3
        0x40001950:    e3a0100a    ....    MOV      r1,#0xa
        0x40001954:    e1a02008    . ..    MOV      r2,r8
        0x40001958:    ebfffbcc    ....    BL       checkReg ; 0x40000890
        0x4000195c:    e3a00003    ....    MOV      r0,#3
        0x40001960:    e3a0100b    ....    MOV      r1,#0xb
        0x40001964:    e59d201c    . ..    LDR      r2,[sp,#0x1c]
        0x40001968:    ebfffbc8    ....    BL       checkReg ; 0x40000890
        0x4000196c:    e3a00003    ....    MOV      r0,#3
        0x40001970:    e3a0100c    ....    MOV      r1,#0xc
        0x40001974:    e59d2018    . ..    LDR      r2,[sp,#0x18]
        0x40001978:    ebfffbc4    ....    BL       checkReg ; 0x40000890
        0x4000197c:    e3a00003    ....    MOV      r0,#3
        0x40001980:    e3a0100d    ....    MOV      r1,#0xd
        0x40001984:    e1a02007    . ..    MOV      r2,r7
        0x40001988:    ebfffbc0    ....    BL       checkReg ; 0x40000890
        0x4000198c:    e3a00003    ....    MOV      r0,#3
        0x40001990:    e3a0100e    ....    MOV      r1,#0xe
        0x40001994:    e59d2014    . ..    LDR      r2,[sp,#0x14]
        0x40001998:    ebfffbbc    ....    BL       checkReg ; 0x40000890
        0x4000199c:    e3a00003    ....    MOV      r0,#3
        0x400019a0:    e3a0100f    ....    MOV      r1,#0xf
        0x400019a4:    e1a02005    . ..    MOV      r2,r5
        0x400019a8:    ebfffbb8    ....    BL       checkReg ; 0x40000890
        0x400019ac:    e3020120     ...    MOV      r0,#0x2120
        0x400019b0:    e3440000    ..D.    MOVT     r0,#0x4000
        0x400019b4:    e3a01000    ....    MOV      r1,#0
        0x400019b8:    e3a02000    . ..    MOV      r2,#0
        0x400019bc:    e0803389    .3..    ADD      r3,r0,r9,LSL #7
        0x400019c0:    e0833181    .1..    ADD      r3,r3,r1,LSL #3
        0x400019c4:    e7933102    .1..    LDR      r3,[r3,r2,LSL #2]
        0x400019c8:    e08a7389    .s..    ADD      r7,r10,r9,LSL #7
        0x400019cc:    e0877181    .q..    ADD      r7,r7,r1,LSL #3
        0x400019d0:    e7977102    .q..    LDR      r7,[r7,r2,LSL #2]
        0x400019d4:    e1570003    ..W.    CMP      r7,r3
        0x400019d8:    1a00000c    ....    BNE      0x40001a10 ; srst_check + 1292
        0x400019dc:    e2823001    .0..    ADD      r3,r2,#1
        0x400019e0:    e3a02001    . ..    MOV      r2,#1
        0x400019e4:    e3530001    ..S.    CMP      r3,#1
        0x400019e8:    9afffff3    ....    BLS      0x400019bc ; srst_check + 1208
        0x400019ec:    e2811001    ....    ADD      r1,r1,#1
        0x400019f0:    e3510010    ..Q.    CMP      r1,#0x10
        0x400019f4:    3affffef    ...:    BCC      0x400019b8 ; srst_check + 1204
        0x400019f8:    e2899001    ....    ADD      r9,r9,#1
        0x400019fc:    e3590004    ..Y.    CMP      r9,#4
        0x40001a00:    3affffeb    ...:    BCC      0x400019b4 ; srst_check + 1200
        0x40001a04:    e3a00000    ....    MOV      r0,#0
        0x40001a08:    e28dd03c    <...    ADD      sp,sp,#0x3c
        0x40001a0c:    e8bd8ff0    ....    POP      {r4-r11,pc}
        0x40001a10:    e3a00001    ....    MOV      r0,#1
        0x40001a14:    e28dd03c    <...    ADD      sp,sp,#0x3c
        0x40001a18:    e8bd8ff0    ....    POP      {r4-r11,pc}
    $a
    $Ven$AA$L$$Reset_Handler
        0x40001a1c:    e51ff004    ....    LDR      pc,[pc,#-4] ; [0x40001a20] = 0x70
    $d
        0x40001a20:    00000070    p...    DCD    112
    $a
    x$fpl$fpinit
    $v0
    _fp_init
        0x40001a24:    e3a00403    ....    MOV      r0,#0x3000000
        0x40001a28:    eee10a10    ....    VMSR     FPSCR,r0
    __fplib_config_fpu_vfp
    __fplib_config_pureend_doubles
        0x40001a2c:    e12fff1e    ../.    BX       lr
    $d.realdata
    I2C_CLOCK_SETTINGS
        0x40001a30:    00000000    ....    DCD    0
        0x40001a34:    00000000    ....    DCD    0
        0x40001a38:    00000000    ....    DCD    0
        0x40001a3c:    00000000    ....    DCD    0
        0x40001a40:    00000006    ....    DCD    6
        0x40001a44:    0000002c    ,...    DCD    44
        0x40001a48:    00000000    ....    DCD    0
        0x40001a4c:    00000000    ....    DCD    0
        0x40001a50:    00000000    ....    DCD    0
        0x40001a54:    00000000    ....    DCD    0
        0x40001a58:    00000000    ....    DCD    0
        0x40001a5c:    00000000    ....    DCD    0
        0x40001a60:    00000000    ....    DCD    0
        0x40001a64:    00000000    ....    DCD    0
        0x40001a68:    00000006    ....    DCD    6
        0x40001a6c:    00000014    ....    DCD    20
        0x40001a70:    00000000    ....    DCD    0
        0x40001a74:    00000000    ....    DCD    0
        0x40001a78:    00000000    ....    DCD    0
        0x40001a7c:    00000000    ....    DCD    0
        0x40001a80:    00000000    ....    DCD    0
        0x40001a84:    00000000    ....    DCD    0
        0x40001a88:    00000000    ....    DCD    0
        0x40001a8c:    00000000    ....    DCD    0
        0x40001a90:    00000006    ....    DCD    6
        0x40001a94:    00000009    ....    DCD    9
        0x40001a98:    00000000    ....    DCD    0
        0x40001a9c:    00000000    ....    DCD    0
        0x40001aa0:    00000000    ....    DCD    0
        0x40001aa4:    00000000    ....    DCD    0
        0x40001aa8:    00000000    ....    DCD    0
        0x40001aac:    00000000    ....    DCD    0
        0x40001ab0:    00000000    ....    DCD    0
        0x40001ab4:    00000000    ....    DCD    0
        0x40001ab8:    00000006    ....    DCD    6
        0x40001abc:    00000007    ....    DCD    7
        0x40001ac0:    00000000    ....    DCD    0
        0x40001ac4:    00000000    ....    DCD    0
        0x40001ac8:    00000000    ....    DCD    0
        0x40001acc:    00000000    ....    DCD    0
        0x40001ad0:    00000000    ....    DCD    0
        0x40001ad4:    00000000    ....    DCD    0
        0x40001ad8:    00000000    ....    DCD    0
        0x40001adc:    00000000    ....    DCD    0
        0x40001ae0:    00000006    ....    DCD    6
        0x40001ae4:    00000005    ....    DCD    5
        0x40001ae8:    00000000    ....    DCD    0
        0x40001aec:    00000000    ....    DCD    0
        0x40001af0:    00000000    ....    DCD    0
        0x40001af4:    00000000    ....    DCD    0
        0x40001af8:    00000000    ....    DCD    0
        0x40001afc:    00000000    ....    DCD    0
        0x40001b00:    00000000    ....    DCD    0
        0x40001b04:    00000000    ....    DCD    0
        0x40001b08:    00000006    ....    DCD    6
        0x40001b0c:    00000003    ....    DCD    3
        0x40001b10:    00000000    ....    DCD    0
        0x40001b14:    00000000    ....    DCD    0
        0x40001b18:    00000000    ....    DCD    0
        0x40001b1c:    00000000    ....    DCD    0
        0x40001b20:    00000000    ....    DCD    0
        0x40001b24:    00000000    ....    DCD    0
        0x40001b28:    00000000    ....    DCD    0
        0x40001b2c:    00000000    ....    DCD    0
        0x40001b30:    00000006    ....    DCD    6
        0x40001b34:    00000003    ....    DCD    3
        0x40001b38:    00000000    ....    DCD    0
        0x40001b3c:    00000000    ....    DCD    0
        0x40001b40:    00000000    ....    DCD    0
        0x40001b44:    00000001    ....    DCD    1
        0x40001b48:    00000001    ....    DCD    1
        0x40001b4c:    00000001    ....    DCD    1
        0x40001b50:    00000001    ....    DCD    1
        0x40001b54:    0000000f    ....    DCD    15
        0x40001b58:    00000006    ....    DCD    6
        0x40001b5c:    00000000    ....    DCD    0
        0x40001b60:    0000001c    ....    DCD    28
        0x40001b64:    00000501    ....    DCD    1281
        0x40001b68:    00000514    ....    DCD    1300
        0x40001b6c:    00000000    ....    DCD    0
        0x40001b70:    00000001    ....    DCD    1
        0x40001b74:    00000001    ....    DCD    1
        0x40001b78:    00000001    ....    DCD    1
        0x40001b7c:    0000000f    ....    DCD    15
        0x40001b80:    00000006    ....    DCD    6
        0x40001b84:    00000000    ....    DCD    0
        0x40001b88:    0000001c    ....    DCD    28
        0x40001b8c:    00000267    g...    DCD    615
        0x40001b90:    00000279    y...    DCD    633
        0x40001b94:    00000000    ....    DCD    0
        0x40001b98:    00000001    ....    DCD    1
        0x40001b9c:    00000001    ....    DCD    1
        0x40001ba0:    00000001    ....    DCD    1
        0x40001ba4:    0000000f    ....    DCD    15
        0x40001ba8:    00000006    ....    DCD    6
        0x40001bac:    00000000    ....    DCD    0
        0x40001bb0:    0000001c    ....    DCD    28
        0x40001bb4:    00000119    ....    DCD    281
        0x40001bb8:    00000119    ....    DCD    281
        0x40001bbc:    00000000    ....    DCD    0
        0x40001bc0:    00000001    ....    DCD    1
        0x40001bc4:    00000001    ....    DCD    1
        0x40001bc8:    00000001    ....    DCD    1
        0x40001bcc:    0000000f    ....    DCD    15
        0x40001bd0:    00000006    ....    DCD    6
        0x40001bd4:    00000000    ....    DCD    0
        0x40001bd8:    0000001c    ....    DCD    28
        0x40001bdc:    000000d7    ....    DCD    215
        0x40001be0:    000000e9    ....    DCD    233
        0x40001be4:    00000000    ....    DCD    0
        0x40001be8:    00000001    ....    DCD    1
        0x40001bec:    00000001    ....    DCD    1
        0x40001bf0:    00000001    ....    DCD    1
        0x40001bf4:    0000000f    ....    DCD    15
        0x40001bf8:    00000006    ....    DCD    6
        0x40001bfc:    00000000    ....    DCD    0
        0x40001c00:    0000001c    ....    DCD    28
        0x40001c04:    000000aa    ....    DCD    170
        0x40001c08:    000000bd    ....    DCD    189
        0x40001c0c:    00000000    ....    DCD    0
        0x40001c10:    00000001    ....    DCD    1
        0x40001c14:    00000001    ....    DCD    1
        0x40001c18:    00000001    ....    DCD    1
        0x40001c1c:    0000000f    ....    DCD    15
        0x40001c20:    00000006    ....    DCD    6
        0x40001c24:    00000000    ....    DCD    0
        0x40001c28:    0000001c    ....    DCD    28
        0x40001c2c:    00000073    s...    DCD    115
        0x40001c30:    00000085    ....    DCD    133
        0x40001c34:    00000000    ....    DCD    0
        0x40001c38:    00000001    ....    DCD    1
        0x40001c3c:    00000001    ....    DCD    1
        0x40001c40:    00000001    ....    DCD    1
        0x40001c44:    0000000f    ....    DCD    15
        0x40001c48:    00000006    ....    DCD    6
        0x40001c4c:    00000000    ....    DCD    0
        0x40001c50:    0000001c    ....    DCD    28
        0x40001c54:    00000020     ...    DCD    32
        0x40001c58:    00000027    '...    DCD    39
        0x40001c5c:    00000001    ....    DCD    1
        0x40001c60:    00000000    ....    DCD    0
        0x40001c64:    00000000    ....    DCD    0
        0x40001c68:    00000000    ....    DCD    0
        0x40001c6c:    00000000    ....    DCD    0
        0x40001c70:    00000006    ....    DCD    6
        0x40001c74:    0000002c    ,...    DCD    44
        0x40001c78:    00000000    ....    DCD    0
        0x40001c7c:    00000000    ....    DCD    0
        0x40001c80:    00000000    ....    DCD    0
        0x40001c84:    00000000    ....    DCD    0
        0x40001c88:    00000000    ....    DCD    0
        0x40001c8c:    00000000    ....    DCD    0
        0x40001c90:    00000000    ....    DCD    0
        0x40001c94:    00000000    ....    DCD    0
        0x40001c98:    00000006    ....    DCD    6
        0x40001c9c:    00000014    ....    DCD    20
        0x40001ca0:    00000000    ....    DCD    0
        0x40001ca4:    00000000    ....    DCD    0
        0x40001ca8:    00000000    ....    DCD    0
        0x40001cac:    00000000    ....    DCD    0
        0x40001cb0:    00000000    ....    DCD    0
        0x40001cb4:    00000000    ....    DCD    0
        0x40001cb8:    00000000    ....    DCD    0
        0x40001cbc:    00000000    ....    DCD    0
        0x40001cc0:    00000006    ....    DCD    6
        0x40001cc4:    00000009    ....    DCD    9
        0x40001cc8:    00000000    ....    DCD    0
        0x40001ccc:    00000000    ....    DCD    0
        0x40001cd0:    00000000    ....    DCD    0
        0x40001cd4:    00000000    ....    DCD    0
        0x40001cd8:    00000000    ....    DCD    0
        0x40001cdc:    00000000    ....    DCD    0
        0x40001ce0:    00000000    ....    DCD    0
        0x40001ce4:    00000000    ....    DCD    0
        0x40001ce8:    00000006    ....    DCD    6
        0x40001cec:    00000007    ....    DCD    7
        0x40001cf0:    00000000    ....    DCD    0
        0x40001cf4:    00000000    ....    DCD    0
        0x40001cf8:    00000000    ....    DCD    0
        0x40001cfc:    00000000    ....    DCD    0
        0x40001d00:    00000000    ....    DCD    0
        0x40001d04:    00000000    ....    DCD    0
        0x40001d08:    00000000    ....    DCD    0
        0x40001d0c:    00000000    ....    DCD    0
        0x40001d10:    00000006    ....    DCD    6
        0x40001d14:    00000005    ....    DCD    5
        0x40001d18:    00000000    ....    DCD    0
        0x40001d1c:    00000000    ....    DCD    0
        0x40001d20:    00000000    ....    DCD    0
        0x40001d24:    00000000    ....    DCD    0
        0x40001d28:    00000000    ....    DCD    0
        0x40001d2c:    00000000    ....    DCD    0
        0x40001d30:    00000000    ....    DCD    0
        0x40001d34:    00000000    ....    DCD    0
        0x40001d38:    00000006    ....    DCD    6
        0x40001d3c:    00000003    ....    DCD    3
        0x40001d40:    00000000    ....    DCD    0
        0x40001d44:    00000000    ....    DCD    0
        0x40001d48:    00000000    ....    DCD    0
        0x40001d4c:    00000000    ....    DCD    0
        0x40001d50:    00000000    ....    DCD    0
        0x40001d54:    00000000    ....    DCD    0
        0x40001d58:    00000000    ....    DCD    0
        0x40001d5c:    00000000    ....    DCD    0
        0x40001d60:    00000006    ....    DCD    6
        0x40001d64:    00000003    ....    DCD    3
        0x40001d68:    00000000    ....    DCD    0
        0x40001d6c:    00000000    ....    DCD    0
        0x40001d70:    00000000    ....    DCD    0
        0x40001d74:    00000001    ....    DCD    1
        0x40001d78:    0000000f    ....    DCD    15
        0x40001d7c:    00000001    ....    DCD    1
        0x40001d80:    00000001    ....    DCD    1
        0x40001d84:    00000001    ....    DCD    1
        0x40001d88:    00000006    ....    DCD    6
        0x40001d8c:    00000000    ....    DCD    0
        0x40001d90:    0000001c    ....    DCD    28
        0x40001d94:    00000501    ....    DCD    1281
        0x40001d98:    00000514    ....    DCD    1300
        0x40001d9c:    00000000    ....    DCD    0
        0x40001da0:    0000000f    ....    DCD    15
        0x40001da4:    00000001    ....    DCD    1
        0x40001da8:    00000001    ....    DCD    1
        0x40001dac:    00000001    ....    DCD    1
        0x40001db0:    00000006    ....    DCD    6
        0x40001db4:    00000000    ....    DCD    0
        0x40001db8:    0000001c    ....    DCD    28
        0x40001dbc:    00000267    g...    DCD    615
        0x40001dc0:    00000279    y...    DCD    633
        0x40001dc4:    00000000    ....    DCD    0
        0x40001dc8:    0000000f    ....    DCD    15
        0x40001dcc:    00000001    ....    DCD    1
        0x40001dd0:    00000001    ....    DCD    1
        0x40001dd4:    00000001    ....    DCD    1
        0x40001dd8:    00000006    ....    DCD    6
        0x40001ddc:    00000000    ....    DCD    0
        0x40001de0:    0000001c    ....    DCD    28
        0x40001de4:    00000119    ....    DCD    281
        0x40001de8:    00000119    ....    DCD    281
        0x40001dec:    00000000    ....    DCD    0
        0x40001df0:    0000000f    ....    DCD    15
        0x40001df4:    00000001    ....    DCD    1
        0x40001df8:    00000001    ....    DCD    1
        0x40001dfc:    00000001    ....    DCD    1
        0x40001e00:    00000006    ....    DCD    6
        0x40001e04:    00000000    ....    DCD    0
        0x40001e08:    0000001c    ....    DCD    28
        0x40001e0c:    000000d7    ....    DCD    215
        0x40001e10:    000000e9    ....    DCD    233
        0x40001e14:    00000000    ....    DCD    0
        0x40001e18:    0000000f    ....    DCD    15
        0x40001e1c:    00000001    ....    DCD    1
        0x40001e20:    00000001    ....    DCD    1
        0x40001e24:    00000001    ....    DCD    1
        0x40001e28:    00000006    ....    DCD    6
        0x40001e2c:    00000000    ....    DCD    0
        0x40001e30:    0000001c    ....    DCD    28
        0x40001e34:    000000aa    ....    DCD    170
        0x40001e38:    000000bd    ....    DCD    189
        0x40001e3c:    00000000    ....    DCD    0
        0x40001e40:    0000000f    ....    DCD    15
        0x40001e44:    00000001    ....    DCD    1
        0x40001e48:    00000001    ....    DCD    1
        0x40001e4c:    00000001    ....    DCD    1
        0x40001e50:    00000006    ....    DCD    6
        0x40001e54:    00000000    ....    DCD    0
        0x40001e58:    0000001c    ....    DCD    28
        0x40001e5c:    00000073    s...    DCD    115
        0x40001e60:    00000085    ....    DCD    133
        0x40001e64:    00000000    ....    DCD    0
        0x40001e68:    0000000f    ....    DCD    15
        0x40001e6c:    00000001    ....    DCD    1
        0x40001e70:    00000001    ....    DCD    1
        0x40001e74:    00000001    ....    DCD    1
        0x40001e78:    00000006    ....    DCD    6
        0x40001e7c:    00000000    ....    DCD    0
        0x40001e80:    0000001c    ....    DCD    28
        0x40001e84:    00000020     ...    DCD    32
        0x40001e88:    00000027    '...    DCD    39
        0x40001e8c:    00000001    ....    DCD    1
    sendData
        0x40001e90:    000000aa    ....    DCD    170
        0x40001e94:    00000055    U...    DCD    85
    sendData
        0x40001e98:    000000aa    ....    DCD    170
        0x40001e9c:    00000055    U...    DCD    85
    golden
        0x40001ea0:    1f1f1f1f    ....    DCD    522133279
        0x40001ea4:    00000000    ....    DCD    0
        0x40001ea8:    dfdfdfdf    ....    DCD    3755991007
        0x40001eac:    40404040    @@@@    DCD    1077952576
        0x40001eb0:    00000000    ....    DCD    0
        0x40001eb4:    00000000    ....    DCD    0
        0x40001eb8:    00000000    ....    DCD    0
        0x40001ebc:    00000000    ....    DCD    0
        0x40001ec0:    1f1f1f1f    ....    DCD    522133279
        0x40001ec4:    00000000    ....    DCD    0
        0x40001ec8:    7f7f7f7f    ....    DCD    2139062143
        0x40001ecc:    00000000    ....    DCD    0
        0x40001ed0:    000001ff    ....    DCD    511
        0x40001ed4:    00000000    ....    DCD    0
        0x40001ed8:    7f7f7f7f    ....    DCD    2139062143
        0x40001edc:    00000000    ....    DCD    0
        0x40001ee0:    ffffffff    ....    DCD    4294967295
        0x40001ee4:    00000000    ....    DCD    0
        0x40001ee8:    00000000    ....    DCD    0
        0x40001eec:    00000000    ....    DCD    0
        0x40001ef0:    87878787    ....    DCD    2273806215
        0x40001ef4:    00000000    ....    DCD    0
        0x40001ef8:    ffffffff    ....    DCD    4294967295
        0x40001efc:    00000000    ....    DCD    0
        0x40001f00:    0000ffff    ....    DCD    65535
        0x40001f04:    00000000    ....    DCD    0
        0x40001f08:    0000ffff    ....    DCD    65535
        0x40001f0c:    00000000    ....    DCD    0
        0x40001f10:    1f1f001f    ....    DCD    522125343
        0x40001f14:    00000000    ....    DCD    0
        0x40001f18:    ffffffff    ....    DCD    4294967295
        0x40001f1c:    00000000    ....    DCD    0
        0x40001f20:    00000000    ....    DCD    0
        0x40001f24:    00000000    ....    DCD    0
        0x40001f28:    00000000    ....    DCD    0
        0x40001f2c:    00000000    ....    DCD    0
        0x40001f30:    00000000    ....    DCD    0
        0x40001f34:    00000000    ....    DCD    0
        0x40001f38:    00000000    ....    DCD    0
        0x40001f3c:    00000000    ....    DCD    0
        0x40001f40:    00000000    ....    DCD    0
        0x40001f44:    00000000    ....    DCD    0
        0x40001f48:    00000000    ....    DCD    0
        0x40001f4c:    00000000    ....    DCD    0
        0x40001f50:    00000000    ....    DCD    0
        0x40001f54:    00000000    ....    DCD    0
        0x40001f58:    00000000    ....    DCD    0
        0x40001f5c:    00000000    ....    DCD    0
        0x40001f60:    00000000    ....    DCD    0
        0x40001f64:    00000000    ....    DCD    0
        0x40001f68:    00000000    ....    DCD    0
        0x40001f6c:    00000000    ....    DCD    0
        0x40001f70:    00000000    ....    DCD    0
        0x40001f74:    00000000    ....    DCD    0
        0x40001f78:    00000000    ....    DCD    0
        0x40001f7c:    00000000    ....    DCD    0
        0x40001f80:    00000000    ....    DCD    0
        0x40001f84:    00000000    ....    DCD    0
        0x40001f88:    00000000    ....    DCD    0
        0x40001f8c:    00000000    ....    DCD    0
        0x40001f90:    00000000    ....    DCD    0
        0x40001f94:    00000000    ....    DCD    0
        0x40001f98:    00000000    ....    DCD    0
        0x40001f9c:    00000000    ....    DCD    0
        0x40001fa0:    1f1f1f1f    ....    DCD    522133279
        0x40001fa4:    00000000    ....    DCD    0
        0x40001fa8:    dfdfdfdf    ....    DCD    3755991007
        0x40001fac:    40404040    @@@@    DCD    1077952576
        0x40001fb0:    00000000    ....    DCD    0
        0x40001fb4:    00000000    ....    DCD    0
        0x40001fb8:    00000000    ....    DCD    0
        0x40001fbc:    00000000    ....    DCD    0
        0x40001fc0:    1f1f1f1f    ....    DCD    522133279
        0x40001fc4:    00000000    ....    DCD    0
        0x40001fc8:    7f7f7f7f    ....    DCD    2139062143
        0x40001fcc:    00000000    ....    DCD    0
        0x40001fd0:    000001ff    ....    DCD    511
        0x40001fd4:    00000000    ....    DCD    0
        0x40001fd8:    7f7f7f7f    ....    DCD    2139062143
        0x40001fdc:    00000000    ....    DCD    0
        0x40001fe0:    ffffffff    ....    DCD    4294967295
        0x40001fe4:    00000000    ....    DCD    0
        0x40001fe8:    00000000    ....    DCD    0
        0x40001fec:    00000000    ....    DCD    0
        0x40001ff0:    87878787    ....    DCD    2273806215
        0x40001ff4:    00000000    ....    DCD    0
        0x40001ff8:    ffffffff    ....    DCD    4294967295
        0x40001ffc:    00000000    ....    DCD    0
        0x40002000:    0000ffff    ....    DCD    65535
        0x40002004:    00000000    ....    DCD    0
        0x40002008:    0000ffff    ....    DCD    65535
        0x4000200c:    00000000    ....    DCD    0
        0x40002010:    1f1f001f    ....    DCD    522125343
        0x40002014:    00000000    ....    DCD    0
        0x40002018:    ffffffff    ....    DCD    4294967295
        0x4000201c:    00000000    ....    DCD    0
        0x40002020:    1f1f1f1f    ....    DCD    522133279
        0x40002024:    00000000    ....    DCD    0
        0x40002028:    dfdfdfdf    ....    DCD    3755991007
        0x4000202c:    40404040    @@@@    DCD    1077952576
        0x40002030:    00000000    ....    DCD    0
        0x40002034:    00000000    ....    DCD    0
        0x40002038:    00000000    ....    DCD    0
        0x4000203c:    00000000    ....    DCD    0
        0x40002040:    1f1f1f1f    ....    DCD    522133279
        0x40002044:    00000000    ....    DCD    0
        0x40002048:    7f7f7f7f    ....    DCD    2139062143
        0x4000204c:    00000000    ....    DCD    0
        0x40002050:    000001ff    ....    DCD    511
        0x40002054:    00000000    ....    DCD    0
        0x40002058:    7f7f7f7f    ....    DCD    2139062143
        0x4000205c:    00000000    ....    DCD    0
        0x40002060:    ffffffff    ....    DCD    4294967295
        0x40002064:    00000000    ....    DCD    0
        0x40002068:    00000000    ....    DCD    0
        0x4000206c:    00000000    ....    DCD    0
        0x40002070:    87878787    ....    DCD    2273806215
        0x40002074:    00000000    ....    DCD    0
        0x40002078:    ffffffff    ....    DCD    4294967295
        0x4000207c:    00000000    ....    DCD    0
        0x40002080:    0000ffff    ....    DCD    65535
        0x40002084:    00000000    ....    DCD    0
        0x40002088:    0000ffff    ....    DCD    65535
        0x4000208c:    00000000    ....    DCD    0
        0x40002090:    1f1f001f    ....    DCD    522125343
        0x40002094:    00000000    ....    DCD    0
        0x40002098:    ffffffff    ....    DCD    4294967295
        0x4000209c:    00000000    ....    DCD    0
    golden
        0x400020a0:    1f1f1f1f    ....    DCD    522133279
        0x400020a4:    00000000    ....    DCD    0
        0x400020a8:    dfdfdfdf    ....    DCD    3755991007
        0x400020ac:    40404040    @@@@    DCD    1077952576
        0x400020b0:    00000000    ....    DCD    0
        0x400020b4:    00000000    ....    DCD    0
        0x400020b8:    00000000    ....    DCD    0
        0x400020bc:    00000000    ....    DCD    0
        0x400020c0:    1f1f1f1f    ....    DCD    522133279
        0x400020c4:    00000000    ....    DCD    0
        0x400020c8:    7f7f7f7f    ....    DCD    2139062143
        0x400020cc:    00000000    ....    DCD    0
        0x400020d0:    000001ff    ....    DCD    511
        0x400020d4:    00000000    ....    DCD    0
        0x400020d8:    7f7f7f7f    ....    DCD    2139062143
        0x400020dc:    00000000    ....    DCD    0
        0x400020e0:    ffffffff    ....    DCD    4294967295
        0x400020e4:    00000000    ....    DCD    0
        0x400020e8:    00000000    ....    DCD    0
        0x400020ec:    00000000    ....    DCD    0
        0x400020f0:    87878787    ....    DCD    2273806215
        0x400020f4:    00000000    ....    DCD    0
        0x400020f8:    ffffffff    ....    DCD    4294967295
        0x400020fc:    00000000    ....    DCD    0
        0x40002100:    0000ffff    ....    DCD    65535
        0x40002104:    00000000    ....    DCD    0
        0x40002108:    0000ffff    ....    DCD    65535
        0x4000210c:    00000000    ....    DCD    0
        0x40002110:    1f1f001f    ....    DCD    522125343
        0x40002114:    00000000    ....    DCD    0
        0x40002118:    ffffffff    ....    DCD    4294967295
        0x4000211c:    00000000    ....    DCD    0
    golden
        0x40002120:    1f1f1f1f    ....    DCD    522133279
        0x40002124:    00000000    ....    DCD    0
        0x40002128:    dfdfdfdf    ....    DCD    3755991007
        0x4000212c:    40404040    @@@@    DCD    1077952576
        0x40002130:    00000000    ....    DCD    0
        0x40002134:    00000000    ....    DCD    0
        0x40002138:    00000000    ....    DCD    0
        0x4000213c:    00000000    ....    DCD    0
        0x40002140:    1f1f1f1f    ....    DCD    522133279
        0x40002144:    00000000    ....    DCD    0
        0x40002148:    7f7f7f7f    ....    DCD    2139062143
        0x4000214c:    00000000    ....    DCD    0
        0x40002150:    000001ff    ....    DCD    511
        0x40002154:    00000000    ....    DCD    0
        0x40002158:    7f7f7f7f    ....    DCD    2139062143
        0x4000215c:    00000000    ....    DCD    0
        0x40002160:    ffffffff    ....    DCD    4294967295
        0x40002164:    00000000    ....    DCD    0
        0x40002168:    00000000    ....    DCD    0
        0x4000216c:    00000000    ....    DCD    0
        0x40002170:    87878787    ....    DCD    2273806215
        0x40002174:    00000000    ....    DCD    0
        0x40002178:    ffffffff    ....    DCD    4294967295
        0x4000217c:    00000000    ....    DCD    0
        0x40002180:    0000ffff    ....    DCD    65535
        0x40002184:    00000000    ....    DCD    0
        0x40002188:    0000ffff    ....    DCD    65535
        0x4000218c:    00000000    ....    DCD    0
        0x40002190:    1f1f001f    ....    DCD    522125343
        0x40002194:    00000000    ....    DCD    0
        0x40002198:    ffffffff    ....    DCD    4294967295
        0x4000219c:    00000000    ....    DCD    0
        0x400021a0:    00000000    ....    DCD    0
        0x400021a4:    00000000    ....    DCD    0
        0x400021a8:    00000000    ....    DCD    0
        0x400021ac:    00000000    ....    DCD    0
        0x400021b0:    00000000    ....    DCD    0
        0x400021b4:    00000000    ....    DCD    0
        0x400021b8:    00000000    ....    DCD    0
        0x400021bc:    00000000    ....    DCD    0
        0x400021c0:    00000000    ....    DCD    0
        0x400021c4:    00000000    ....    DCD    0
        0x400021c8:    00000000    ....    DCD    0
        0x400021cc:    00000000    ....    DCD    0
        0x400021d0:    00000000    ....    DCD    0
        0x400021d4:    00000000    ....    DCD    0
        0x400021d8:    00000000    ....    DCD    0
        0x400021dc:    00000000    ....    DCD    0
        0x400021e0:    00000000    ....    DCD    0
        0x400021e4:    00000000    ....    DCD    0
        0x400021e8:    00000000    ....    DCD    0
        0x400021ec:    00000000    ....    DCD    0
        0x400021f0:    00000000    ....    DCD    0
        0x400021f4:    00000000    ....    DCD    0
        0x400021f8:    00000000    ....    DCD    0
        0x400021fc:    00000000    ....    DCD    0
        0x40002200:    00000000    ....    DCD    0
        0x40002204:    00000000    ....    DCD    0
        0x40002208:    00000000    ....    DCD    0
        0x4000220c:    00000000    ....    DCD    0
        0x40002210:    00000000    ....    DCD    0
        0x40002214:    00000000    ....    DCD    0
        0x40002218:    00000000    ....    DCD    0
        0x4000221c:    00000000    ....    DCD    0
        0x40002220:    00000000    ....    DCD    0
        0x40002224:    00000000    ....    DCD    0
        0x40002228:    40404040    @@@@    DCD    1077952576
        0x4000222c:    00000000    ....    DCD    0
        0x40002230:    00000000    ....    DCD    0
        0x40002234:    00000000    ....    DCD    0
        0x40002238:    00000000    ....    DCD    0
        0x4000223c:    00000000    ....    DCD    0
        0x40002240:    00000000    ....    DCD    0
        0x40002244:    00000000    ....    DCD    0
        0x40002248:    00000000    ....    DCD    0
        0x4000224c:    00000000    ....    DCD    0
        0x40002250:    00000000    ....    DCD    0
        0x40002254:    00000000    ....    DCD    0
        0x40002258:    00000000    ....    DCD    0
        0x4000225c:    00000000    ....    DCD    0
        0x40002260:    00000000    ....    DCD    0
        0x40002264:    00000000    ....    DCD    0
        0x40002268:    00000000    ....    DCD    0
        0x4000226c:    00000000    ....    DCD    0
        0x40002270:    00000000    ....    DCD    0
        0x40002274:    00000000    ....    DCD    0
        0x40002278:    00000000    ....    DCD    0
        0x4000227c:    00000000    ....    DCD    0
        0x40002280:    00000000    ....    DCD    0
        0x40002284:    00000000    ....    DCD    0
        0x40002288:    00000000    ....    DCD    0
        0x4000228c:    00000000    ....    DCD    0
        0x40002290:    00000004    ....    DCD    4
        0x40002294:    00000000    ....    DCD    0
        0x40002298:    00000000    ....    DCD    0
        0x4000229c:    00000000    ....    DCD    0
        0x400022a0:    1f1f1f1f    ....    DCD    522133279
        0x400022a4:    00000000    ....    DCD    0
        0x400022a8:    dfdfdfdf    ....    DCD    3755991007
        0x400022ac:    40404040    @@@@    DCD    1077952576
        0x400022b0:    00000000    ....    DCD    0
        0x400022b4:    00000000    ....    DCD    0
        0x400022b8:    00000000    ....    DCD    0
        0x400022bc:    00000000    ....    DCD    0
        0x400022c0:    1f1f1f1f    ....    DCD    522133279
        0x400022c4:    00000000    ....    DCD    0
        0x400022c8:    7f7f7f7f    ....    DCD    2139062143
        0x400022cc:    00000000    ....    DCD    0
        0x400022d0:    000001ff    ....    DCD    511
        0x400022d4:    00000000    ....    DCD    0
        0x400022d8:    7f7f7f7f    ....    DCD    2139062143
        0x400022dc:    00000000    ....    DCD    0
        0x400022e0:    ffffffff    ....    DCD    4294967295
        0x400022e4:    00000000    ....    DCD    0
        0x400022e8:    00000000    ....    DCD    0
        0x400022ec:    00000000    ....    DCD    0
        0x400022f0:    87878787    ....    DCD    2273806215
        0x400022f4:    00000000    ....    DCD    0
        0x400022f8:    ffffffff    ....    DCD    4294967295
        0x400022fc:    00000000    ....    DCD    0
        0x40002300:    0000ffff    ....    DCD    65535
        0x40002304:    00000000    ....    DCD    0
        0x40002308:    0000ffff    ....    DCD    65535
        0x4000230c:    00000000    ....    DCD    0
        0x40002310:    1f1f001f    ....    DCD    522125343
        0x40002314:    00000000    ....    DCD    0
        0x40002318:    ffffffff    ....    DCD    4294967295
        0x4000231c:    00000000    ....    DCD    0
    masterConfig
        0x40002320:    00000000    ....    DCD    0
        0x40002324:    00000051    Q...    DCD    81
        0x40002328:    00000000    ....    DCD    0
        0x4000232c:    00000000    ....    DCD    0
        0x40002330:    00000000    ....    DCD    0
        0x40002334:    00000005    ....    DCD    5
    masterConfig
        0x40002338:    00000000    ....    DCD    0
        0x4000233c:    00000051    Q...    DCD    81
        0x40002340:    00000000    ....    DCD    0
        0x40002344:    00000000    ....    DCD    0
        0x40002348:    00000000    ....    DCD    0
        0x4000234c:    00000005    ....    DCD    5
    slaveConfig
        0x40002350:    00000051    Q...    DCD    81
        0x40002354:    00000001    ....    DCD    1
        0x40002358:    00000000    ....    DCD    0
        0x4000235c:    00000000    ....    DCD    0
        0x40002360:    00000000    ....    DCD    0
        0x40002364:    00000005    ....    DCD    5
    slaveConfig
        0x40002368:    00000051    Q...    DCD    81
        0x4000236c:    00000001    ....    DCD    1
        0x40002370:    00000000    ....    DCD    0
        0x40002374:    00000000    ....    DCD    0
        0x40002378:    00000000    ....    DCD    0
        0x4000237c:    00000005    ....    DCD    5

====================================

** Section #3

    Name        : ER10
    Type        : SHT_PROGBITS (0x00000001)
    Flags       : SHF_ALLOC + SHF_WRITE (0x00000003)
    Addr        : 0x40002380
    File Offset : 14256 (0x37b0)
    Size        : 3896 bytes (0xf38)
    Link        : SHN_UNDEF
    Info        : 0
    Alignment   : 4
    Entry Size  : 0

    0x40002380:   28 01 00 40 28 01 00 40 28 01 00 40 28 01 00 40    (..@(..@(..@(..@
    0x40002390:   28 01 00 40 28 01 00 40 28 01 00 40 28 01 00 40    (..@(..@(..@(..@
    0x400023a0:   28 01 00 40 28 01 00 40 28 01 00 40 28 01 00 40    (..@(..@(..@(..@
    0x400023b0:   28 01 00 40 28 01 00 40 28 01 00 40 28 01 00 40    (..@(..@(..@(..@
    0x400023c0:   28 01 00 40 28 01 00 40 28 01 00 40 28 01 00 40    (..@(..@(..@(..@
    0x400023d0:   28 01 00 40 28 01 00 40 28 01 00 40 28 01 00 40    (..@(..@(..@(..@
    0x400023e0:   28 01 00 40 28 01 00 40 28 01 00 40 28 01 00 40    (..@(..@(..@(..@
    0x400023f0:   28 01 00 40 28 01 00 40 28 01 00 40 28 01 00 40    (..@(..@(..@(..@
    0x40002400:   28 01 00 40 28 01 00 40 28 01 00 40 28 01 00 40    (..@(..@(..@(..@
    0x40002410:   28 01 00 40 28 01 00 40 28 01 00 40 28 01 00 40    (..@(..@(..@(..@
    0x40002420:   28 01 00 40 28 01 00 40 28 01 00 40 28 01 00 40    (..@(..@(..@(..@
    0x40002430:   28 01 00 40 28 01 00 40 28 01 00 40 28 01 00 40    (..@(..@(..@(..@
    0x40002440:   28 01 00 40 28 01 00 40 28 01 00 40 28 01 00 40    (..@(..@(..@(..@
    0x40002450:   28 01 00 40 28 01 00 40 28 01 00 40 28 01 00 40    (..@(..@(..@(..@
    0x40002460:   28 01 00 40 28 01 00 40 28 01 00 40 28 01 00 40    (..@(..@(..@(..@
    0x40002470:   28 01 00 40 28 01 00 40 28 01 00 40 28 01 00 40    (..@(..@(..@(..@
    0x40002480:   28 01 00 40 28 01 00 40 28 01 00 40 28 01 00 40    (..@(..@(..@(..@
    0x40002490:   28 01 00 40 28 01 00 40 28 01 00 40 28 01 00 40    (..@(..@(..@(..@
    0x400024a0:   28 01 00 40 28 01 00 40 28 01 00 40 28 01 00 40    (..@(..@(..@(..@
    0x400024b0:   28 01 00 40 28 01 00 40 28 01 00 40 28 01 00 40    (..@(..@(..@(..@
    0x400024c0:   28 01 00 40 28 01 00 40 28 01 00 40 28 01 00 40    (..@(..@(..@(..@
    0x400024d0:   28 01 00 40 28 01 00 40 28 01 00 40 28 01 00 40    (..@(..@(..@(..@
    0x400024e0:   28 01 00 40 28 01 00 40 28 01 00 40 28 01 00 40    (..@(..@(..@(..@
    0x400024f0:   28 01 00 40 28 01 00 40 28 01 00 40 28 01 00 40    (..@(..@(..@(..@
    0x40002500:   28 01 00 40 28 01 00 40 28 01 00 40 28 01 00 40    (..@(..@(..@(..@
    0x40002510:   28 01 00 40 28 01 00 40 28 01 00 40 28 01 00 40    (..@(..@(..@(..@
    0x40002520:   28 01 00 40 28 01 00 40 28 01 00 40 28 01 00 40    (..@(..@(..@(..@
    0x40002530:   28 01 00 40 28 01 00 40 28 01 00 40 28 01 00 40    (..@(..@(..@(..@
    0x40002540:   28 01 00 40 28 01 00 40 28 01 00 40 28 01 00 40    (..@(..@(..@(..@
    0x40002550:   28 01 00 40 28 01 00 40 28 01 00 40 28 01 00 40    (..@(..@(..@(..@
    0x40002560:   28 01 00 40 28 01 00 40 28 01 00 40 28 01 00 40    (..@(..@(..@(..@
    0x40002570:   28 01 00 40 28 01 00 40 28 01 00 40 28 01 00 40    (..@(..@(..@(..@
    0x40002580:   28 01 00 40 28 01 00 40 28 01 00 40 28 01 00 40    (..@(..@(..@(..@
    0x40002590:   28 01 00 40 28 01 00 40 28 01 00 40 28 01 00 40    (..@(..@(..@(..@
    0x400025a0:   28 01 00 40 28 01 00 40 28 01 00 40 28 01 00 40    (..@(..@(..@(..@
    0x400025b0:   28 01 00 40 28 01 00 40 28 01 00 40 28 01 00 40    (..@(..@(..@(..@
    0x400025c0:   28 01 00 40 28 01 00 40 28 01 00 40 28 01 00 40    (..@(..@(..@(..@
    0x400025d0:   28 01 00 40 28 01 00 40 28 01 00 40 28 01 00 40    (..@(..@(..@(..@
    0x400025e0:   28 01 00 40 28 01 00 40 28 01 00 40 28 01 00 40    (..@(..@(..@(..@
    0x400025f0:   28 01 00 40 28 01 00 40 28 01 00 40 28 01 00 40    (..@(..@(..@(..@
    0x40002600:   28 01 00 40 28 01 00 40 28 01 00 40 28 01 00 40    (..@(..@(..@(..@
    0x40002610:   28 01 00 40 28 01 00 40 28 01 00 40 28 01 00 40    (..@(..@(..@(..@
    0x40002620:   28 01 00 40 28 01 00 40 28 01 00 40 28 01 00 40    (..@(..@(..@(..@
    0x40002630:   28 01 00 40 28 01 00 40 28 01 00 40 28 01 00 40    (..@(..@(..@(..@
    0x40002640:   28 01 00 40 28 01 00 40 28 01 00 40 28 01 00 40    (..@(..@(..@(..@
    0x40002650:   28 01 00 40 28 01 00 40 28 01 00 40 28 01 00 40    (..@(..@(..@(..@
    0x40002660:   28 01 00 40 28 01 00 40 28 01 00 40 28 01 00 40    (..@(..@(..@(..@
    0x40002670:   28 01 00 40 28 01 00 40 28 01 00 40 28 01 00 40    (..@(..@(..@(..@
    0x40002680:   28 01 00 40 28 01 00 40 28 01 00 40 28 01 00 40    (..@(..@(..@(..@
    0x40002690:   28 01 00 40 28 01 00 40 28 01 00 40 28 01 00 40    (..@(..@(..@(..@
    0x400026a0:   28 01 00 40 28 01 00 40 28 01 00 40 28 01 00 40    (..@(..@(..@(..@
    0x400026b0:   28 01 00 40 28 01 00 40 28 01 00 40 28 01 00 40    (..@(..@(..@(..@
    0x400026c0:   28 01 00 40 28 01 00 40 28 01 00 40 28 01 00 40    (..@(..@(..@(..@
    0x400026d0:   28 01 00 40 28 01 00 40 28 01 00 40 28 01 00 40    (..@(..@(..@(..@
    0x400026e0:   28 01 00 40 28 01 00 40 28 01 00 40 28 01 00 40    (..@(..@(..@(..@
    0x400026f0:   28 01 00 40 28 01 00 40 28 01 00 40 28 01 00 40    (..@(..@(..@(..@
    0x40002700:   28 01 00 40 28 01 00 40 28 01 00 40 28 01 00 40    (..@(..@(..@(..@
    0x40002710:   28 01 00 40 28 01 00 40 28 01 00 40 28 01 00 40    (..@(..@(..@(..@
    0x40002720:   28 01 00 40 28 01 00 40 28 01 00 40 28 01 00 40    (..@(..@(..@(..@
    0x40002730:   28 01 00 40 28 01 00 40 28 01 00 40 28 01 00 40    (..@(..@(..@(..@
    0x40002740:   28 01 00 40 28 01 00 40 28 01 00 40 28 01 00 40    (..@(..@(..@(..@
    0x40002750:   28 01 00 40 28 01 00 40 28 01 00 40 28 01 00 40    (..@(..@(..@(..@
    0x40002760:   28 01 00 40 28 01 00 40 28 01 00 40 28 01 00 40    (..@(..@(..@(..@
    0x40002770:   28 01 00 40 28 01 00 40 28 01 00 40 28 01 00 40    (..@(..@(..@(..@
    0x40002780:   28 01 00 40 28 01 00 40 28 01 00 40 28 01 00 40    (..@(..@(..@(..@
    0x40002790:   28 01 00 40 28 01 00 40 28 01 00 40 28 01 00 40    (..@(..@(..@(..@
    0x400027a0:   28 01 00 40 28 01 00 40 28 01 00 40 28 01 00 40    (..@(..@(..@(..@
    0x400027b0:   28 01 00 40 28 01 00 40 28 01 00 40 28 01 00 40    (..@(..@(..@(..@
    0x400027c0:   28 01 00 40 28 01 00 40 28 01 00 40 28 01 00 40    (..@(..@(..@(..@
    0x400027d0:   28 01 00 40 28 01 00 40 28 01 00 40 28 01 00 40    (..@(..@(..@(..@
    0x400027e0:   28 01 00 40 28 01 00 40 28 01 00 40 28 01 00 40    (..@(..@(..@(..@
    0x400027f0:   28 01 00 40 28 01 00 40 28 01 00 40 28 01 00 40    (..@(..@(..@(..@
    0x40002800:   28 01 00 40 28 01 00 40 28 01 00 40 28 01 00 40    (..@(..@(..@(..@
    0x40002810:   28 01 00 40 28 01 00 40 28 01 00 40 28 01 00 40    (..@(..@(..@(..@
    0x40002820:   28 01 00 40 28 01 00 40 28 01 00 40 28 01 00 40    (..@(..@(..@(..@
    0x40002830:   28 01 00 40 28 01 00 40 28 01 00 40 28 01 00 40    (..@(..@(..@(..@
    0x40002840:   28 01 00 40 28 01 00 40 28 01 00 40 28 01 00 40    (..@(..@(..@(..@
    0x40002850:   28 01 00 40 28 01 00 40 28 01 00 40 28 01 00 40    (..@(..@(..@(..@
    0x40002860:   28 01 00 40 28 01 00 40 28 01 00 40 28 01 00 40    (..@(..@(..@(..@
    0x40002870:   28 01 00 40 28 01 00 40 28 01 00 40 28 01 00 40    (..@(..@(..@(..@
    0x40002880:   28 01 00 40 28 01 00 40 28 01 00 40 28 01 00 40    (..@(..@(..@(..@
    0x40002890:   28 01 00 40 28 01 00 40 28 01 00 40 28 01 00 40    (..@(..@(..@(..@
    0x400028a0:   28 01 00 40 28 01 00 40 28 01 00 40 28 01 00 40    (..@(..@(..@(..@
    0x400028b0:   28 01 00 40 28 01 00 40 28 01 00 40 28 01 00 40    (..@(..@(..@(..@
    0x400028c0:   28 01 00 40 28 01 00 40 28 01 00 40 28 01 00 40    (..@(..@(..@(..@
    0x400028d0:   28 01 00 40 28 01 00 40 28 01 00 40 28 01 00 40    (..@(..@(..@(..@
    0x400028e0:   28 01 00 40 28 01 00 40 28 01 00 40 28 01 00 40    (..@(..@(..@(..@
    0x400028f0:   28 01 00 40 28 01 00 40 28 01 00 40 28 01 00 40    (..@(..@(..@(..@
    0x40002900:   28 01 00 40 28 01 00 40 28 01 00 40 28 01 00 40    (..@(..@(..@(..@
    0x40002910:   28 01 00 40 28 01 00 40 28 01 00 40 28 01 00 40    (..@(..@(..@(..@
    0x40002920:   28 01 00 40 28 01 00 40 28 01 00 40 28 01 00 40    (..@(..@(..@(..@
    0x40002930:   28 01 00 40 28 01 00 40 28 01 00 40 28 01 00 40    (..@(..@(..@(..@
    0x40002940:   28 01 00 40 28 01 00 40 28 01 00 40 28 01 00 40    (..@(..@(..@(..@
    0x40002950:   28 01 00 40 28 01 00 40 28 01 00 40 28 01 00 40    (..@(..@(..@(..@
    0x40002960:   28 01 00 40 28 01 00 40 28 01 00 40 28 01 00 40    (..@(..@(..@(..@
    0x40002970:   28 01 00 40 28 01 00 40 28 01 00 40 28 01 00 40    (..@(..@(..@(..@
    0x40002980:   28 01 00 40 28 01 00 40 28 01 00 40 28 01 00 40    (..@(..@(..@(..@
    0x40002990:   28 01 00 40 28 01 00 40 28 01 00 40 28 01 00 40    (..@(..@(..@(..@
    0x400029a0:   28 01 00 40 28 01 00 40 28 01 00 40 28 01 00 40    (..@(..@(..@(..@
    0x400029b0:   28 01 00 40 28 01 00 40 28 01 00 40 28 01 00 40    (..@(..@(..@(..@
    0x400029c0:   28 01 00 40 28 01 00 40 28 01 00 40 28 01 00 40    (..@(..@(..@(..@
    0x400029d0:   28 01 00 40 28 01 00 40 28 01 00 40 28 01 00 40    (..@(..@(..@(..@
    0x400029e0:   28 01 00 40 28 01 00 40 28 01 00 40 28 01 00 40    (..@(..@(..@(..@
    0x400029f0:   28 01 00 40 28 01 00 40 28 01 00 40 28 01 00 40    (..@(..@(..@(..@
    0x40002a00:   28 01 00 40 28 01 00 40 28 01 00 40 28 01 00 40    (..@(..@(..@(..@
    0x40002a10:   28 01 00 40 28 01 00 40 28 01 00 40 28 01 00 40    (..@(..@(..@(..@
    0x40002a20:   28 01 00 40 28 01 00 40 28 01 00 40 28 01 00 40    (..@(..@(..@(..@
    0x40002a30:   28 01 00 40 28 01 00 40 28 01 00 40 28 01 00 40    (..@(..@(..@(..@
    0x40002a40:   28 01 00 40 28 01 00 40 28 01 00 40 28 01 00 40    (..@(..@(..@(..@
    0x40002a50:   28 01 00 40 28 01 00 40 28 01 00 40 28 01 00 40    (..@(..@(..@(..@
    0x40002a60:   28 01 00 40 28 01 00 40 28 01 00 40 28 01 00 40    (..@(..@(..@(..@
    0x40002a70:   28 01 00 40 28 01 00 40 28 01 00 40 28 01 00 40    (..@(..@(..@(..@
    0x40002a80:   28 01 00 40 28 01 00 40 28 01 00 40 28 01 00 40    (..@(..@(..@(..@
    0x40002a90:   28 01 00 40 28 01 00 40 28 01 00 40 28 01 00 40    (..@(..@(..@(..@
    0x40002aa0:   28 01 00 40 28 01 00 40 28 01 00 40 28 01 00 40    (..@(..@(..@(..@
    0x40002ab0:   28 01 00 40 28 01 00 40 28 01 00 40 28 01 00 40    (..@(..@(..@(..@
    0x40002ac0:   28 01 00 40 28 01 00 40 28 01 00 40 28 01 00 40    (..@(..@(..@(..@
    0x40002ad0:   28 01 00 40 28 01 00 40 28 01 00 40 28 01 00 40    (..@(..@(..@(..@
    0x40002ae0:   28 01 00 40 28 01 00 40 28 01 00 40 28 01 00 40    (..@(..@(..@(..@
    0x40002af0:   28 01 00 40 28 01 00 40 28 01 00 40 28 01 00 40    (..@(..@(..@(..@
    0x40002b00:   28 01 00 40 28 01 00 40 28 01 00 40 28 01 00 40    (..@(..@(..@(..@
    0x40002b10:   28 01 00 40 28 01 00 40 28 01 00 40 28 01 00 40    (..@(..@(..@(..@
    0x40002b20:   28 01 00 40 28 01 00 40 28 01 00 40 28 01 00 40    (..@(..@(..@(..@
    0x40002b30:   28 01 00 40 28 01 00 40 28 01 00 40 28 01 00 40    (..@(..@(..@(..@
    0x40002b40:   28 01 00 40 28 01 00 40 28 01 00 40 28 01 00 40    (..@(..@(..@(..@
    0x40002b50:   28 01 00 40 28 01 00 40 28 01 00 40 28 01 00 40    (..@(..@(..@(..@
    0x40002b60:   28 01 00 40 28 01 00 40 28 01 00 40 28 01 00 40    (..@(..@(..@(..@
    0x40002b70:   28 01 00 40 28 01 00 40 28 01 00 40 28 01 00 40    (..@(..@(..@(..@
    0x40002b80:   28 01 00 40 28 01 00 40 28 01 00 40 28 01 00 40    (..@(..@(..@(..@
    0x40002b90:   28 01 00 40 28 01 00 40 28 01 00 40 28 01 00 40    (..@(..@(..@(..@
    0x40002ba0:   28 01 00 40 28 01 00 40 28 01 00 40 28 01 00 40    (..@(..@(..@(..@
    0x40002bb0:   28 01 00 40 28 01 00 40 28 01 00 40 28 01 00 40    (..@(..@(..@(..@
    0x40002bc0:   28 01 00 40 28 01 00 40 28 01 00 40 28 01 00 40    (..@(..@(..@(..@
    0x40002bd0:   28 01 00 40 28 01 00 40 28 01 00 40 28 01 00 40    (..@(..@(..@(..@
    0x40002be0:   28 01 00 40 28 01 00 40 28 01 00 40 28 01 00 40    (..@(..@(..@(..@
    0x40002bf0:   28 01 00 40 28 01 00 40 28 01 00 40 28 01 00 40    (..@(..@(..@(..@
    0x40002c00:   28 01 00 40 28 01 00 40 28 01 00 40 28 01 00 40    (..@(..@(..@(..@
    0x40002c10:   28 01 00 40 28 01 00 40 28 01 00 40 28 01 00 40    (..@(..@(..@(..@
    0x40002c20:   28 01 00 40 28 01 00 40 28 01 00 40 28 01 00 40    (..@(..@(..@(..@
    0x40002c30:   28 01 00 40 28 01 00 40 28 01 00 40 28 01 00 40    (..@(..@(..@(..@
    0x40002c40:   28 01 00 40 28 01 00 40 28 01 00 40 28 01 00 40    (..@(..@(..@(..@
    0x40002c50:   28 01 00 40 28 01 00 40 28 01 00 40 28 01 00 40    (..@(..@(..@(..@
    0x40002c60:   28 01 00 40 28 01 00 40 28 01 00 40 28 01 00 40    (..@(..@(..@(..@
    0x40002c70:   28 01 00 40 28 01 00 40 28 01 00 40 28 01 00 40    (..@(..@(..@(..@
    0x40002c80:   28 01 00 40 28 01 00 40 28 01 00 40 28 01 00 40    (..@(..@(..@(..@
    0x40002c90:   28 01 00 40 28 01 00 40 28 01 00 40 28 01 00 40    (..@(..@(..@(..@
    0x40002ca0:   28 01 00 40 28 01 00 40 28 01 00 40 28 01 00 40    (..@(..@(..@(..@
    0x40002cb0:   28 01 00 40 28 01 00 40 28 01 00 40 28 01 00 40    (..@(..@(..@(..@
    0x40002cc0:   28 01 00 40 28 01 00 40 28 01 00 40 28 01 00 40    (..@(..@(..@(..@
    0x40002cd0:   28 01 00 40 28 01 00 40 28 01 00 40 28 01 00 40    (..@(..@(..@(..@
    0x40002ce0:   28 01 00 40 28 01 00 40 28 01 00 40 28 01 00 40    (..@(..@(..@(..@
    0x40002cf0:   28 01 00 40 28 01 00 40 28 01 00 40 28 01 00 40    (..@(..@(..@(..@
    0x40002d00:   28 01 00 40 28 01 00 40 28 01 00 40 28 01 00 40    (..@(..@(..@(..@
    0x40002d10:   28 01 00 40 28 01 00 40 28 01 00 40 28 01 00 40    (..@(..@(..@(..@
    0x40002d20:   28 01 00 40 28 01 00 40 28 01 00 40 28 01 00 40    (..@(..@(..@(..@
    0x40002d30:   28 01 00 40 28 01 00 40 28 01 00 40 28 01 00 40    (..@(..@(..@(..@
    0x40002d40:   28 01 00 40 28 01 00 40 28 01 00 40 28 01 00 40    (..@(..@(..@(..@
    0x40002d50:   28 01 00 40 28 01 00 40 28 01 00 40 28 01 00 40    (..@(..@(..@(..@
    0x40002d60:   28 01 00 40 28 01 00 40 28 01 00 40 28 01 00 40    (..@(..@(..@(..@
    0x40002d70:   28 01 00 40 28 01 00 40 28 01 00 40 28 01 00 40    (..@(..@(..@(..@
    0x40002d80:   28 01 00 40 28 01 00 40 28 01 00 40 28 01 00 40    (..@(..@(..@(..@
    0x40002d90:   28 01 00 40 28 01 00 40 28 01 00 40 28 01 00 40    (..@(..@(..@(..@
    0x40002da0:   28 01 00 40 28 01 00 40 28 01 00 40 28 01 00 40    (..@(..@(..@(..@
    0x40002db0:   28 01 00 40 28 01 00 40 28 01 00 40 28 01 00 40    (..@(..@(..@(..@
    0x40002dc0:   28 01 00 40 28 01 00 40 28 01 00 40 28 01 00 40    (..@(..@(..@(..@
    0x40002dd0:   28 01 00 40 28 01 00 40 28 01 00 40 28 01 00 40    (..@(..@(..@(..@
    0x40002de0:   28 01 00 40 28 01 00 40 28 01 00 40 28 01 00 40    (..@(..@(..@(..@
    0x40002df0:   28 01 00 40 28 01 00 40 28 01 00 40 28 01 00 40    (..@(..@(..@(..@
    0x40002e00:   28 01 00 40 28 01 00 40 28 01 00 40 28 01 00 40    (..@(..@(..@(..@
    0x40002e10:   28 01 00 40 28 01 00 40 28 01 00 40 28 01 00 40    (..@(..@(..@(..@
    0x40002e20:   28 01 00 40 28 01 00 40 28 01 00 40 28 01 00 40    (..@(..@(..@(..@
    0x40002e30:   28 01 00 40 28 01 00 40 28 01 00 40 28 01 00 40    (..@(..@(..@(..@
    0x40002e40:   28 01 00 40 28 01 00 40 28 01 00 40 28 01 00 40    (..@(..@(..@(..@
    0x40002e50:   28 01 00 40 28 01 00 40 28 01 00 40 28 01 00 40    (..@(..@(..@(..@
    0x40002e60:   28 01 00 40 28 01 00 40 28 01 00 40 28 01 00 40    (..@(..@(..@(..@
    0x40002e70:   28 01 00 40 28 01 00 40 28 01 00 40 28 01 00 40    (..@(..@(..@(..@
    0x40002e80:   28 01 00 40 28 01 00 40 28 01 00 40 28 01 00 40    (..@(..@(..@(..@
    0x40002e90:   28 01 00 40 28 01 00 40 28 01 00 40 28 01 00 40    (..@(..@(..@(..@
    0x40002ea0:   28 01 00 40 28 01 00 40 28 01 00 40 28 01 00 40    (..@(..@(..@(..@
    0x40002eb0:   28 01 00 40 28 01 00 40 28 01 00 40 28 01 00 40    (..@(..@(..@(..@
    0x40002ec0:   28 01 00 40 28 01 00 40 28 01 00 40 28 01 00 40    (..@(..@(..@(..@
    0x40002ed0:   28 01 00 40 28 01 00 40 28 01 00 40 28 01 00 40    (..@(..@(..@(..@
    0x40002ee0:   28 01 00 40 28 01 00 40 28 01 00 40 28 01 00 40    (..@(..@(..@(..@
    0x40002ef0:   28 01 00 40 28 01 00 40 28 01 00 40 28 01 00 40    (..@(..@(..@(..@
    0x40002f00:   28 01 00 40 28 01 00 40 28 01 00 40 28 01 00 40    (..@(..@(..@(..@
    0x40002f10:   28 01 00 40 28 01 00 40 28 01 00 40 28 01 00 40    (..@(..@(..@(..@
    0x40002f20:   28 01 00 40 28 01 00 40 28 01 00 40 28 01 00 40    (..@(..@(..@(..@
    0x40002f30:   28 01 00 40 28 01 00 40 28 01 00 40 28 01 00 40    (..@(..@(..@(..@
    0x40002f40:   28 01 00 40 28 01 00 40 28 01 00 40 28 01 00 40    (..@(..@(..@(..@
    0x40002f50:   28 01 00 40 28 01 00 40 28 01 00 40 28 01 00 40    (..@(..@(..@(..@
    0x40002f60:   28 01 00 40 28 01 00 40 28 01 00 40 28 01 00 40    (..@(..@(..@(..@
    0x40002f70:   28 01 00 40 28 01 00 40 28 01 00 40 28 01 00 40    (..@(..@(..@(..@
    0x40002f80:   28 01 00 40 28 01 00 40 28 01 00 40 28 01 00 40    (..@(..@(..@(..@
    0x40002f90:   28 01 00 40 28 01 00 40 28 01 00 40 28 01 00 40    (..@(..@(..@(..@
    0x40002fa0:   28 01 00 40 28 01 00 40 28 01 00 40 28 01 00 40    (..@(..@(..@(..@
    0x40002fb0:   28 01 00 40 28 01 00 40 28 01 00 40 28 01 00 40    (..@(..@(..@(..@
    0x40002fc0:   28 01 00 40 28 01 00 40 28 01 00 40 28 01 00 40    (..@(..@(..@(..@
    0x40002fd0:   28 01 00 40 28 01 00 40 28 01 00 40 28 01 00 40    (..@(..@(..@(..@
    0x40002fe0:   28 01 00 40 28 01 00 40 28 01 00 40 28 01 00 40    (..@(..@(..@(..@
    0x40002ff0:   28 01 00 40 28 01 00 40 28 01 00 40 28 01 00 40    (..@(..@(..@(..@
    0x40003000:   28 01 00 40 28 01 00 40 28 01 00 40 28 01 00 40    (..@(..@(..@(..@
    0x40003010:   28 01 00 40 28 01 00 40 28 01 00 40 28 01 00 40    (..@(..@(..@(..@
    0x40003020:   28 01 00 40 28 01 00 40 28 01 00 40 28 01 00 40    (..@(..@(..@(..@
    0x40003030:   28 01 00 40 28 01 00 40 28 01 00 40 28 01 00 40    (..@(..@(..@(..@
    0x40003040:   28 01 00 40 28 01 00 40 28 01 00 40 28 01 00 40    (..@(..@(..@(..@
    0x40003050:   28 01 00 40 28 01 00 40 28 01 00 40 28 01 00 40    (..@(..@(..@(..@
    0x40003060:   28 01 00 40 28 01 00 40 28 01 00 40 28 01 00 40    (..@(..@(..@(..@
    0x40003070:   28 01 00 40 28 01 00 40 28 01 00 40 28 01 00 40    (..@(..@(..@(..@
    0x40003080:   28 01 00 40 28 01 00 40 28 01 00 40 28 01 00 40    (..@(..@(..@(..@
    0x40003090:   28 01 00 40 28 01 00 40 28 01 00 40 28 01 00 40    (..@(..@(..@(..@
    0x400030a0:   28 01 00 40 28 01 00 40 28 01 00 40 28 01 00 40    (..@(..@(..@(..@
    0x400030b0:   28 01 00 40 28 01 00 40 28 01 00 40 28 01 00 40    (..@(..@(..@(..@
    0x400030c0:   28 01 00 40 28 01 00 40 28 01 00 40 28 01 00 40    (..@(..@(..@(..@
    0x400030d0:   28 01 00 40 28 01 00 40 28 01 00 40 28 01 00 40    (..@(..@(..@(..@
    0x400030e0:   28 01 00 40 28 01 00 40 28 01 00 40 28 01 00 40    (..@(..@(..@(..@
    0x400030f0:   28 01 00 40 28 01 00 40 28 01 00 40 28 01 00 40    (..@(..@(..@(..@
    0x40003100:   28 01 00 40 28 01 00 40 28 01 00 40 28 01 00 40    (..@(..@(..@(..@
    0x40003110:   28 01 00 40 28 01 00 40 28 01 00 40 28 01 00 40    (..@(..@(..@(..@
    0x40003120:   28 01 00 40 28 01 00 40 28 01 00 40 28 01 00 40    (..@(..@(..@(..@
    0x40003130:   28 01 00 40 28 01 00 40 28 01 00 40 28 01 00 40    (..@(..@(..@(..@
    0x40003140:   28 01 00 40 28 01 00 40 28 01 00 40 28 01 00 40    (..@(..@(..@(..@
    0x40003150:   28 01 00 40 28 01 00 40 28 01 00 40 28 01 00 40    (..@(..@(..@(..@
    0x40003160:   28 01 00 40 28 01 00 40 28 01 00 40 28 01 00 40    (..@(..@(..@(..@
    0x40003170:   28 01 00 40 28 01 00 40 28 01 00 40 28 01 00 40    (..@(..@(..@(..@
    0x40003180:   28 01 00 40 28 01 00 40 28 01 00 40 28 01 00 40    (..@(..@(..@(..@
    0x40003190:   28 01 00 40 28 01 00 40 28 01 00 40 28 01 00 40    (..@(..@(..@(..@
    0x400031a0:   28 01 00 40 28 01 00 40 28 01 00 40 28 01 00 40    (..@(..@(..@(..@
    0x400031b0:   28 01 00 40 28 01 00 40 28 01 00 40 28 01 00 40    (..@(..@(..@(..@
    0x400031c0:   28 01 00 40 28 01 00 40 28 01 00 40 28 01 00 40    (..@(..@(..@(..@
    0x400031d0:   28 01 00 40 28 01 00 40 28 01 00 40 28 01 00 40    (..@(..@(..@(..@
    0x400031e0:   28 01 00 40 28 01 00 40 28 01 00 40 28 01 00 40    (..@(..@(..@(..@
    0x400031f0:   28 01 00 40 28 01 00 40 28 01 00 40 28 01 00 40    (..@(..@(..@(..@
    0x40003200:   28 01 00 40 28 01 00 40 28 01 00 40 28 01 00 40    (..@(..@(..@(..@
    0x40003210:   28 01 00 40 28 01 00 40 28 01 00 40 28 01 00 40    (..@(..@(..@(..@
    0x40003220:   28 01 00 40 28 01 00 40 28 01 00 40 28 01 00 40    (..@(..@(..@(..@
    0x40003230:   28 01 00 40 28 01 00 40 28 01 00 40 28 01 00 40    (..@(..@(..@(..@
    0x40003240:   28 01 00 40 28 01 00 40 28 01 00 40 28 01 00 40    (..@(..@(..@(..@
    0x40003250:   28 01 00 40 28 01 00 40 28 01 00 40 28 01 00 40    (..@(..@(..@(..@
    0x40003260:   28 01 00 40 28 01 00 40 28 01 00 40 28 01 00 40    (..@(..@(..@(..@
    0x40003270:   28 01 00 40 28 01 00 40 28 01 00 40 28 01 00 40    (..@(..@(..@(..@
    0x40003280:   28 01 00 40 28 01 00 40 28 01 00 40 28 01 00 40    (..@(..@(..@(..@
    0x40003290:   28 01 00 40 28 01 00 40 28 01 00 40 28 01 00 40    (..@(..@(..@(..@
    0x400032a0:   28 01 00 40 dc 13 00 40 88 0c 00 40 04 15 00 40    (..@...@...@...@
    0x400032b0:   c0 12 00 40 d8 0a 00 40                            ...@...@


====================================

** Section #4

    Name        : ER10
    Type        : SHT_NOBITS (0x00000008)
    Flags       : SHF_ALLOC + SHF_WRITE (0x00000003)
    Addr        : 0x400032b8
    File Offset : 18152 (0x46e8)
    Size        : 1192 bytes (0x4a8)
    Link        : SHN_UNDEF
    Info        : 0
    Alignment   : 4
    Entry Size  : 0


====================================

** Section #5

    Name        : ARM_LIB_STACK
    Type        : SHT_NOBITS (0x00000008)
    Flags       : SHF_ALLOC + SHF_WRITE (0x00000003)
    Addr        : 0x6ffffc00
    File Offset : 18152 (0x46e8)
    Size        : 1024 bytes (0x400)
    Link        : SHN_UNDEF
    Info        : 0
    Alignment   : 1
    Entry Size  : 0


====================================

** Section #6

    Name        : .debug_frame
    Type        : SHT_PROGBITS (0x00000001)
    Flags       : None (0x00000000)
    Addr        : 0x00000000
    File Offset : 18152 (0x46e8)
    Size        : 464 bytes (0x1d0)
    Link        : SHN_UNDEF
    Info        : 0
    Alignment   : 1
    Entry Size  : 0

  CIE 000000: version 3, "armcc+", code align 000001, data align fffffffc, return reg r14
    DW_CFA_def_cfa_sf r13=0
    DW_CFA_undefined r0
    DW_CFA_undefined r1
    DW_CFA_undefined r2
    DW_CFA_undefined r3
    DW_CFA_same_value r4
    DW_CFA_same_value r5
    DW_CFA_same_value r6
    DW_CFA_same_value r7
    DW_CFA_same_value r8
    DW_CFA_same_value r9
    DW_CFA_same_value r10
    DW_CFA_same_value r11
    DW_CFA_undefined r12
    DW_CFA_same_value r14
    DW_CFA_nop 
    DW_CFA_nop 
  FDE 000034: CIE 000000, init loc 0011bc, range 00002c
  CIE 000044: version 3, "armcc+", code align 000001, data align fffffffc, return reg r14
    DW_CFA_def_cfa_sf r13=0
    DW_CFA_undefined r0
    DW_CFA_undefined r1
    DW_CFA_undefined r2
    DW_CFA_undefined r3
    DW_CFA_same_value r4
    DW_CFA_same_value r5
    DW_CFA_same_value r6
    DW_CFA_same_value r7
    DW_CFA_same_value r8
    DW_CFA_same_value r9
    DW_CFA_same_value r10
    DW_CFA_same_value r11
    DW_CFA_undefined r12
    DW_CFA_same_value r14
    DW_CFA_nop 
    DW_CFA_nop 
  FDE 000078: CIE 000044, init loc 001180, range 000034
  CIE 000088: version 3, "armcc+", code align 000001, data align fffffffc, return reg r14
    DW_CFA_def_cfa_sf r13=0
    DW_CFA_undefined r0
    DW_CFA_undefined r1
    DW_CFA_undefined r2
    DW_CFA_undefined r3
    DW_CFA_same_value r4
    DW_CFA_same_value r5
    DW_CFA_same_value r6
    DW_CFA_same_value r7
    DW_CFA_same_value r8
    DW_CFA_same_value r9
    DW_CFA_same_value r10
    DW_CFA_same_value r11
    DW_CFA_undefined r12
    DW_CFA_same_value r14
    DW_CFA_nop 
    DW_CFA_nop 
  CIE 0000bc: version 3, "armcc+", code align 000002, data align fffffffc, return reg r14
    DW_CFA_def_cfa_sf r13=0
    DW_CFA_undefined r0
    DW_CFA_undefined r1
    DW_CFA_undefined r2
    DW_CFA_undefined r3
    DW_CFA_same_value r4
    DW_CFA_same_value r5
    DW_CFA_same_value r6
    DW_CFA_same_value r7
    DW_CFA_same_value r8
    DW_CFA_same_value r9
    DW_CFA_same_value r10
    DW_CFA_same_value r11
    DW_CFA_undefined r12
    DW_CFA_same_value r14
    DW_CFA_nop 
    DW_CFA_nop 
  CIE 0000f0: version 3, "armcc+", code align 000001, data align fffffffc, return reg r14
    DW_CFA_def_cfa_sf r13=0
    DW_CFA_undefined r0
    DW_CFA_undefined r1
    DW_CFA_undefined r2
    DW_CFA_undefined r3
    DW_CFA_same_value r4
    DW_CFA_same_value r5
    DW_CFA_same_value r6
    DW_CFA_same_value r7
    DW_CFA_same_value r8
    DW_CFA_same_value r9
    DW_CFA_same_value r10
    DW_CFA_same_value r11
    DW_CFA_undefined r12
    DW_CFA_same_value r14
    DW_CFA_undefined r256
    DW_CFA_undefined r257
    DW_CFA_undefined r258
    DW_CFA_undefined r259
    DW_CFA_undefined r260
    DW_CFA_undefined r261
    DW_CFA_undefined r262
    DW_CFA_undefined r263
    DW_CFA_same_value r264
    DW_CFA_same_value r265
    DW_CFA_same_value r266
    DW_CFA_same_value r267
    DW_CFA_same_value r268
    DW_CFA_same_value r269
    DW_CFA_same_value r270
    DW_CFA_same_value r271
    DW_CFA_undefined r272
    DW_CFA_undefined r273
    DW_CFA_undefined r274
    DW_CFA_undefined r275
    DW_CFA_undefined r276
    DW_CFA_undefined r277
    DW_CFA_undefined r278
    DW_CFA_undefined r279
    DW_CFA_undefined r280
    DW_CFA_undefined r281
    DW_CFA_undefined r282
    DW_CFA_undefined r283
    DW_CFA_undefined r284
    DW_CFA_undefined r285
    DW_CFA_undefined r286
    DW_CFA_undefined r287
    DW_CFA_nop 
    DW_CFA_nop 
  FDE 000184: CIE 000088, init loc 4000009c, range 000004
  FDE 000194: CIE 000088, init loc 001178, range 000008
  FDE 0001a4: CIE 0000bc, init loc 400000a0, range 000012
    DW_CFA_advance_loc +0x2 = 0x400000a2
    DW_CFA_def_cfa_offset_sf =0x8
    DW_CFA_offset r4=0xfffffff8
    DW_CFA_offset r14=0xfffffffc
    DW_CFA_advance_loc +0xc = 0x400000ae
    DW_CFA_def_cfa_offset_sf =0
    DW_CFA_restore r4
    DW_CFA_restore r14
  FDE 0001c0: CIE 0000f0, init loc 40001a24, range 00000c


====================================

** Section #7

    Name        : .symtab
    Type        : SHT_SYMTAB (0x00000002)
    Flags       : None (0x00000000)
    Addr        : 0x00000000
    File Offset : 18616 (0x48b8)
    Size        : 4864 bytes (0x1300)
    Link        : Section 8 (.strtab)
    Info        : Last local symbol no = 183
    Alignment   : 4
    Entry Size  : 16

    Symbol table .symtab (303 symbols, 183 local)

      #  Symbol Name                Value      Bind  Sec  Type  Vis  Size
    ========================================================================

      1  $a                         0x00000000   Lc    1   --   De 
      2  $d                         0x00000d50   Lc    1   --   De 
      3  $a                         0x0000116c   Lc    1   --   De 
      4  $d                         0x00001174   Lc    1   --   De 
      5  $a                         0x00001178   Lc    1   --   De 
      6  $d                         0x000011b4   Lc    1   --   De 
      7  $a                         0x000011bc   Lc    1   --   De 
      8  $d                         0x000013c0   Lc    1   --   De 
      9  $a                         0x000013c4   Lc    1   --   De 
     10  $d                         0x000013c8   Lc    1   --   De 
     11  $a                         0x000013cc   Lc    1   --   De 
     12  $d                         0x000013d0   Lc    1   --   De 
     13  $a                         0x000013d4   Lc    1   --   De 
     14  $d                         0x000013d8   Lc    1   --   De 
     15  $a                         0x000013dc   Lc    1   --   De 
     16  $d                         0x000013e0   Lc    1   --   De 
     17  $a                         0x000013e4   Lc    1   --   De 
     18  $d                         0x000013e8   Lc    1   --   De 
     19  $d.realdata                0x000013ec   Lc    1   --   De 
     20  $a                         0x40000000   Lc    2   --   De 
     21  $t                         0x40000070   Lc    2   --   De 
     22  $d                         0x4000008c   Lc    2   --   De 
     23  $t                         0x40000090   Lc    2   --   De 
     24  $a                         0x4000009c   Lc    2   --   De 
     25  $t                         0x400000a0   Lc    2   --   De 
     26  $a.1                       0x400000b4   Lc    2   --   De 
     27  $a                         0x40001a1c   Lc    2   --   De 
     28  $d                         0x40001a20   Lc    2   --   De 
     29  $a                         0x40001a24   Lc    2   --   De 
     30  $d.realdata                0x40001a30   Lc    2   --   De 
     31  $d.realdata                0x6ffffc00   Lc    5   --   De 
     32  retarget.c                 0x00000000   Lc  Abs  File  De 
     33  pad_check.c                0x00000000   Lc  Abs  File  De 
     34  i2c0InterruptHandler       0x400008c0   Lc    2  Code  De   0x8c
     35  i2c1InterruptHandler       0x400009d8   Lc    2  Code  De   0x80
     36  masterConfig               0x40002320   Lc    2  Data  De   0x18
     37  slaveConfig                0x40002350   Lc    2  Data  De   0x18
     38  sendData                   0x40001e90   Lc    2  Data  De   0x8
     39  sendDataIndex              0x40003758   Lc    4  Data  De   0x4
     40  isTransferComplete         0x400032bc   Lc    4  Data  De   0x1
     41  receivedData               0x400032c0   Lc    4  Data  De   0x8
     42  receivedDataIndex          0x400032d0   Lc    4  Data  De   0x4
     43  mstp_check.c               0x00000000   Lc  Abs  File  De 
     44  checkReg                   0x40000834   Lc    2  Code  De   0x30
     45  result                     0x400032d8   Lc    4  Data  De   0x200
     46  golden                     0x40001ea0   Lc    2  Data  De   0x200
     47  i2c_utils.c                0x00000000   Lc  Abs  File  De 
     48  dmac.c                     0x00000000   Lc  Abs  File  De 
     49  reg_check.c                0x00000000   Lc  Abs  File  De 
     50  checkReg                   0x40000864   Lc    2  Code  De   0x2c
     51  result                     0x400034d8   Lc    4  Data  De   0x80
     52  golden                     0x400020a0   Lc    2  Data  De   0x80
     53  main.c                     0x00000000   Lc  Abs  File  De 
     54  exception_handlers.c       0x00000000   Lc  Abs  File  De 
     55  srst_check.c               0x00000000   Lc  Abs  File  De 
     56  checkReg                   0x40000890   Lc    2  Code  De   0x30
     57  result                     0x40003558   Lc    4  Data  De   0x200
     58  golden                     0x40002120   Lc    2  Data  De   0x200
     59  sim_utils.c                0x00000000   Lc  Abs  File  De 
     60  pfc.c                      0x00000000   Lc  Abs  File  De 
     61  i2c.c                      0x00000000   Lc  Abs  File  De 
     62  gic.c                      0x00000000   Lc  Abs  File  De 
     63  interrupt_check.c          0x00000000   Lc  Abs  File  De 
     64  i2c0InterruptHandler       0x4000094c   Lc    2  Code  De   0x8c
     65  i2c1InterruptHandler       0x40000a58   Lc    2  Code  De   0x80
     66  masterConfig               0x40002338   Lc    2  Data  De   0x18
     67  slaveConfig                0x40002368   Lc    2  Data  De   0x18
     68  sendData                   0x40001e98   Lc    2  Data  De   0x8
     69  sendDataIndex              0x4000375c   Lc    4  Data  De   0x4
     70  isTransferComplete         0x400032bd   Lc    4  Data  De   0x1
     71  receivedData               0x400032c8   Lc    4  Data  De   0x8
     72  receivedDataIndex          0x400032d4   Lc    4  Data  De   0x4
     73  cpg.c                      0x00000000   Lc  Abs  File  De 
     74  /design01/rcarv3ufed_master/common_rvc/rcarv3u/VNET1/MASTER_TM/I2C_V3U_RTL/ct/include/rcar_v3u/startup/vectors_cr52.s 0x00000000   Lc  Abs  File  De 
     75  VECTORS                    0x40000000   Lc    2  Sect  De   0x70
     76  $v0                        0x40000000   Lc    2   --   De 
     77  /design01/rcarv3ufed_master/common_rvc/rcarv3u/VNET1/MASTER_TM/I2C_V3U_RTL/ct/include/rcar_v3u/startup/mpu_cr52.s 0x00000000   Lc  Abs  File  De 
     78  MPU_INIT                   0x000011e8   Lc    1  Sect  De   0x1d4
     79  $v0                        0x000011e8   Lc    1   --   De 
     80  /design01/rcarv3ufed_master/common_rvc/rcarv3u/VNET1/MASTER_TM/I2C_V3U_RTL/ct/include/rcar_v3u/startup/vectors_ca76.s 0x00000000   Lc  Abs  File  De 
     81  /design01/rcarv3ufed_master/common_rvc/rcarv3u/VNET1/MASTER_TM/I2C_V3U_RTL/ct/include/rcar_v3u/startup/startup_ca76.s 0x00000000   Lc  Abs  File  De 
     82  /design01/rcarv3ufed_master/common_rvc/rcarv3u/VNET1/MASTER_TM/I2C_V3U_RTL/ct/include/rcar_v3u/startup/startup_cr52.s 0x00000000   Lc  Abs  File  De 
     83  STARTUP                    0x00000000   Lc    1  Sect  De   0x1178
     84  $v0                        0x00000000   Lc    1   --   De 
     85  __ddr_init_start           0x00000134   Lc    1  Code  De 
     86  __ddr_init_end             0x00001174   Lc    1  Data  De 
     87  ../clib/angel/sys.s        0x00000000   Lc  Abs  File  De 
     88  .text                      0x4000009c   Lc    2  Sect  De   0x4
     89  ../clib/angel/startup.s    0x00000000   Lc  Abs  File  De 
     90  !!!main                    0x00001178   Lc    1  Sect  De   0x8
     91  ../clib/angel/kernel.s     0x00000000   Lc  Abs  File  De 
     92  .ARM.Collect$$rtentry$$00000000 0x4000007c   Lc    2  Sect  De 
     93  ../clib/angel/kernel.s     0x00000000   Lc  Abs  File  De 
     94  .ARM.Collect$$rtentry$$00000002 0x4000007c   Lc    2  Sect  De 
     95  .ARM.Collect$$rtentry$$00000009 0x40000080   Lc    2  Sect  De 
     96  .ARM.Collect$$rtentry$$0000000A 0x40000080   Lc    2  Sect  De   0x4
     97  .ARM.Collect$$rtentry$$0000000C 0x40000084   Lc    2  Sect  De 
     98  .ARM.Collect$$rtentry$$0000000D 0x40000084   Lc    2  Sect  De   0x8
     99  ../clib/angel/kernel.s     0x00000000   Lc  Abs  File  De 
    100  ../clib/angel/kernel.s     0x00000000   Lc  Abs  File  De 
    101  .ARM.Collect$$rtentry$$00000007 0x4000007c   Lc    2  Sect  De   0x4
    102  .ARM.Collect$$rtentry$$00002718 0x4000008c   Lc    2  Sect  De   0x4
    103  __lit__00000000            0x4000008c   Lc    2  Data  De   0x4
    104  ../clib/angel/sys.s        0x00000000   Lc  Abs  File  De 
    105  ../clib/stdlib.c           0x00000000   Lc  Abs  File  De 
    106  .text                      0x400000a0   Lc    2  Sect  De 
    107  ../clib/angel/boardlib.s   0x00000000   Lc  Abs  File  De 
    108  ../clib/angel/boardlib.s   0x00000000   Lc  Abs  File  De 
    109  ../clib/angel/boardlib.s   0x00000000   Lc  Abs  File  De 
    110  ../clib/libinit.s          0x00000000   Lc  Abs  File  De 
    111  .ARM.Collect$$libinit$$00000000 0x40000070   Lc    2  Sect  De   0x2
    112  ../clib/angel/sys.s        0x00000000   Lc  Abs  File  De 
    113  ../clib/angel/sys.s        0x00000000   Lc  Abs  File  De 
    114  ../clib/angel/sys.s        0x00000000   Lc  Abs  File  De 
    115  ../clib/angel/kernel.s     0x00000000   Lc  Abs  File  De 
    116  .ARM.Collect$$rtexit$$00000000 0x40000090   Lc    2  Sect  De   0x2
    117  ../clib/libinit.s          0x00000000   Lc  Abs  File  De 
    118  .ARM.Collect$$libinit$$00000001 0x40000072   Lc    2  Sect  De   0x4
    119  .ARM.Collect$$libinit$$00000004 0x40000076   Lc    2  Sect  De 
    120  .ARM.Collect$$libinit$$0000000A 0x40000076   Lc    2  Sect  De 
    121  .ARM.Collect$$libinit$$0000000C 0x40000076   Lc    2  Sect  De 
    122  .ARM.Collect$$libinit$$0000000E 0x40000076   Lc    2  Sect  De 
    123  .ARM.Collect$$libinit$$00000011 0x40000076   Lc    2  Sect  De 
    124  .ARM.Collect$$libinit$$00000013 0x40000076   Lc    2  Sect  De 
    125  .ARM.Collect$$libinit$$00000015 0x40000076   Lc    2  Sect  De 
    126  .ARM.Collect$$libinit$$00000017 0x40000076   Lc    2  Sect  De 
    127  .ARM.Collect$$libinit$$00000019 0x40000076   Lc    2  Sect  De 
    128  .ARM.Collect$$libinit$$0000001B 0x40000076   Lc    2  Sect  De 
    129  .ARM.Collect$$libinit$$0000001D 0x40000076   Lc    2  Sect  De 
    130  .ARM.Collect$$libinit$$0000001F 0x40000076   Lc    2  Sect  De 
    131  .ARM.Collect$$libinit$$00000021 0x40000076   Lc    2  Sect  De 
    132  .ARM.Collect$$libinit$$00000023 0x40000076   Lc    2  Sect  De 
    133  .ARM.Collect$$libinit$$00000025 0x40000076   Lc    2  Sect  De 
    134  .ARM.Collect$$libinit$$0000002C 0x40000076   Lc    2  Sect  De 
    135  .ARM.Collect$$libinit$$0000002E 0x40000076   Lc    2  Sect  De 
    136  .ARM.Collect$$libinit$$00000030 0x40000076   Lc    2  Sect  De 
    137  .ARM.Collect$$libinit$$00000032 0x40000076   Lc    2  Sect  De 
    138  .ARM.Collect$$libinit$$00000033 0x40000076   Lc    2  Sect  De   0x2
    139  ../clib/libinit.s          0x00000000   Lc  Abs  File  De 
    140  ../clib/angel/sys.s        0x00000000   Lc  Abs  File  De 
    141  ../clib/angel/kernel.s     0x00000000   Lc  Abs  File  De 
    142  .ARM.Collect$$rtexit$$00000002 0x40000092   Lc    2  Sect  De 
    143  .ARM.Collect$$rtexit$$00000003 0x40000092   Lc    2  Sect  De   0x4
    144  .ARM.Collect$$rtexit$$00000004 0x40000096   Lc    2  Sect  De   0x6
    145  ../clib/armsys.c           0x00000000   Lc  Abs  File  De 
    146  ../clib/armsys.c           0x00000000   Lc  Abs  File  De 
    147  ../fplib/fpinit.s          0x00000000   Lc  Abs  File  De 
    148  x$fpl$fpinit               0x40001a24   Lc    2  Sect  De   0xc
    149  $v0                        0x40001a24   Lc    2   --   De 
    150  ../clib/angel/boardlib.s   0x00000000   Lc  Abs  File  De 
    151  ../clib/armsys.c           0x00000000   Lc  Abs  File  De 
    152  ../clib/armsys.c           0x00000000   Lc  Abs  File  De 
    153  ../clib/libinit.s          0x00000000   Lc  Abs  File  De 
    154  .ARM.Collect$$libshutdown$$00000000 0x40000078   Lc    2  Sect  De   0x2
    155  ../clib/heapalloc.c        0x00000000   Lc  Abs  File  De 
    156  ../clib/signal.c           0x00000000   Lc  Abs  File  De 
    157  ../clib/signal.c           0x00000000   Lc  Abs  File  De 
    158  ../clib/libinit.s          0x00000000   Lc  Abs  File  De 
    159  .ARM.Collect$$libshutdown$$00000002 0x4000007a   Lc    2  Sect  De 
    160  .ARM.Collect$$libshutdown$$00000004 0x4000007a   Lc    2  Sect  De 
    161  .ARM.Collect$$libshutdown$$00000007 0x4000007a   Lc    2  Sect  De 
    162  .ARM.Collect$$libshutdown$$0000000A 0x4000007a   Lc    2  Sect  De 
    163  .ARM.Collect$$libshutdown$$0000000C 0x4000007a   Lc    2  Sect  De 
    164  .ARM.Collect$$libshutdown$$0000000F 0x4000007a   Lc    2  Sect  De 
    165  .ARM.Collect$$libshutdown$$00000010 0x4000007a   Lc    2  Sect  De   0x2
    166  ../clib/angel/rt.s         0x00000000   Lc  Abs  File  De 
    167  ../clib/signal.c           0x00000000   Lc  Abs  File  De 
    168  ../clib/signal.c           0x00000000   Lc  Abs  File  De 
    169  ../clib/signal.c           0x00000000   Lc  Abs  File  De 
    170  ../clib/signal.c           0x00000000   Lc  Abs  File  De 
    171  ../clib/signal.s           0x00000000   Lc  Abs  File  De 
    172  ../clib/signal.c           0x00000000   Lc  Abs  File  De 
    173  ../clib/signal.c           0x00000000   Lc  Abs  File  De 
    174  ../clib/signal.c           0x00000000   Lc  Abs  File  De 
    175  ../clib/signal.c           0x00000000   Lc  Abs  File  De 
    176  ../clib/signal.c           0x00000000   Lc  Abs  File  De 
    177  ../clib/signal.c           0x00000000   Lc  Abs  File  De 
    178  ../clib/signal.c           0x00000000   Lc  Abs  File  De 
    179  ../clib/signal.c           0x00000000   Lc  Abs  File  De 
    180  ../clib/angel/scatter.s    0x00000000   Lc  Abs  File  De 
    181  !!!scatter                 0x00001180   Lc    1  Sect  De   0x3c
    182  ../clib/angel/handlers.s   0x00000000   Lc  Abs  File  De 
    183  !!handler_zi               0x000011bc   Lc    1  Sect  De   0x2c
    184  BuildAttributes$$THM_ISAv5$ARM_ISAv8$E$P$J$N$DE$K$B$S$FP_ARMv8$PE$MPE$A:L22UL41UL21$X:L11$S22US41US21$IEEE1$IW$~IW$USESV6$~STKCKD$USESV7$WCHAR32$ENUMINT$~SHL$OTIME$ROPI$EBA8$UX$STANDARDLIB$THUMB2LIB$REQ8$PRES8$EABIv2 0x00000000   Gb  Abs   --   Hi 
    185  Reset_Handler              0x00000070   Gb    1  Code  Hi 
    186  __main                     0x00001178   Gb    1  Code  Hi   0x8
    187  __scatterload              0x00001180   Gb    1  Code  Hi 
    188  __scatterload_rt2          0x00001180   Gb    1  Code  Hi   0x34
    189  __scatterload_null         0x00001194   Gb    1  Code  Hi 
    190  __scatterload_zeroinit     0x000011bc   Gb    1  Code  Hi   0x2c
    191  __mpu_init                 0x000011e8   Gb    1  Code  Hi 
    192  __mpu_init_el1             0x000013b8   Gb    1  Code  Hi 
    193  $Ven$AA$L$$UndefinedInstruction_Handler 0x000013bc   Gb    1  Code  Hi   0x8
    194  $Ven$AA$L$$SupervisorCall_Handler 0x000013c4   Gb    1  Code  Hi   0x8
    195  $Ven$AA$L$$PrefetchAbort_Handler 0x000013cc   Gb    1  Code  Hi   0x8
    196  $Ven$AA$L$$DataAbort_Handler 0x000013d4   Gb    1  Code  Hi   0x8
    197  $Ven$AA$L$$IRQ_Handler     0x000013dc   Gb    1  Code  Hi   0x8
    198  $Ven$AT$L$$__rt_entry      0x000013e4   Gb    1  Code  Hi   0x8
    199  Region$$Table$$Base        0x000013ec   Gb    1   --   Hi 
    200  Region$$Table$$Limit       0x000013fc   Gb    1   --   Hi 
    201  __vectors_start            0x40000000   Gb    2  Code  Hi 
    202  __rt_lib_init              0x40000071   Gb    2  Code  De 
    203  __rt_lib_init_fp_1         0x40000073   Gb    2  Code  Hi 
    204  __rt_lib_init_alloca_1     0x40000077   Gb    2  Code  Hi 
    205  __rt_lib_init_argv_1       0x40000077   Gb    2  Code  Hi 
    206  __rt_lib_init_atexit_1     0x40000077   Gb    2  Code  Hi 
    207  __rt_lib_init_clock_1      0x40000077   Gb    2  Code  Hi 
    208  __rt_lib_init_cpp_1        0x40000077   Gb    2  Code  Hi 
    209  __rt_lib_init_exceptions_1 0x40000077   Gb    2  Code  Hi 
    210  __rt_lib_init_fp_trap_1    0x40000077   Gb    2  Code  Hi 
    211  __rt_lib_init_getenv_1     0x40000077   Gb    2  Code  Hi 
    212  __rt_lib_init_heap_1       0x40000077   Gb    2  Code  Hi 
    213  __rt_lib_init_lc_collate_1 0x40000077   Gb    2  Code  Hi 
    214  __rt_lib_init_lc_ctype_1   0x40000077   Gb    2  Code  Hi 
    215  __rt_lib_init_lc_monetary_1 0x40000077   Gb    2  Code  Hi 
    216  __rt_lib_init_lc_numeric_1 0x40000077   Gb    2  Code  Hi 
    217  __rt_lib_init_lc_time_1    0x40000077   Gb    2  Code  Hi 
    218  __rt_lib_init_preinit_1    0x40000077   Gb    2  Code  Hi 
    219  __rt_lib_init_rand_1       0x40000077   Gb    2  Code  Hi 
    220  __rt_lib_init_return       0x40000077   Gb    2  Code  Hi 
    221  __rt_lib_init_signal_1     0x40000077   Gb    2  Code  Hi 
    222  __rt_lib_init_stdio_1      0x40000077   Gb    2  Code  Hi 
    223  __rt_lib_init_user_alloc_1 0x40000077   Gb    2  Code  Hi 
    224  __rt_lib_shutdown          0x40000079   Gb    2  Code  De 
    225  __rt_lib_shutdown_cpp_1    0x4000007b   Gb    2  Code  Hi 
    226  __rt_lib_shutdown_fp_trap_1 0x4000007b   Gb    2  Code  Hi 
    227  __rt_lib_shutdown_heap_1   0x4000007b   Gb    2  Code  Hi 
    228  __rt_lib_shutdown_return   0x4000007b   Gb    2  Code  Hi 
    229  __rt_lib_shutdown_signal_1 0x4000007b   Gb    2  Code  Hi 
    230  __rt_lib_shutdown_stdio_1  0x4000007b   Gb    2  Code  Hi 
    231  __rt_lib_shutdown_user_alloc_1 0x4000007b   Gb    2  Code  Hi 
    232  __rt_entry                 0x4000007d   Gb    2  Code  Hi 
    233  __rt_entry_presh_1         0x4000007d   Gb    2  Code  Hi 
    234  __rt_entry_sh              0x4000007d   Gb    2  Code  Hi 
    235  __rt_entry_li              0x40000081   Gb    2  Code  Hi 
    236  __rt_entry_postsh_1        0x40000081   Gb    2  Code  Hi 
    237  __rt_entry_main            0x40000085   Gb    2  Code  Hi 
    238  __rt_entry_postli_1        0x40000085   Gb    2  Code  Hi 
    239  __rt_exit                  0x40000091   Gb    2  Code  De 
    240  __rt_exit_ls               0x40000093   Gb    2  Code  Hi 
    241  __rt_exit_prels_1          0x40000093   Gb    2  Code  Hi 
    242  __rt_exit_exit             0x40000097   Gb    2  Code  Hi 
    243  __I$use$semihosting        0x4000009c   Gb    2  Code  De 
    244  __use_no_semihosting_swi   0x4000009c   Gb    2  Code  Hi   0x4
    245  exit                       0x400000a1   Gb    2  Code  De   0x12
    246  CPG_ClearBit               0x400000b4   Gb    2  Code  Hi   0x24
    247  CPG_SetBit                 0x400000d8   Gb    2  Code  Hi   0x24
    248  CPG_SetMultipleBit         0x400000fc   Gb    2  Code  Hi   0x20
    249  DataAbort_Handler          0x4000011c   Gb    2  Code  Hi   0xc
    250  GIC_defaultHandler         0x40000128   Gb    2  Code  Hi   0x4
    251  GIC_enable                 0x4000012c   Gb    2  Code  Hi   0x48
    252  GIC_enableInterrupt        0x40000174   Gb    2  Code  Hi   0xa0
    253  GIC_endInterrupt           0x40000214   Gb    2  Code  Hi   0x14
    254  GIC_executeInterruptHandler 0x40000228   Gb    2  Code  Hi   0x18
    255  GIC_getACKID               0x40000240   Gb    2  Code  Hi   0x1c
    256  GIC_setInterruptHandler    0x4000025c   Gb    2  Code  Hi   0x18
    257  I2C_configPins             0x40000274   Gb    2  Code  Hi   0x14
    258  I2C_masterClearInterruptStatus 0x40000288   Gb    2  Code  Hi   0x10
    259  I2C_masterDisableStartGeneration 0x40000298   Gb    2  Code  Hi   0x10
    260  I2C_masterEnable           0x400002a8   Gb    2  Code  Hi   0x10
    261  I2C_masterEnableInterrupt  0x400002b8   Gb    2  Code  Hi   0x10
    262  I2C_masterGetInterruptStatus 0x400002c8   Gb    2  Code  Hi   0xc
    263  I2C_masterInit             0x400002d4   Gb    2  Code  Hi   0x1c4
    264  I2C_masterSendMultipleByteNext 0x40000498   Gb    2  Code  Hi   0x8
    265  I2C_masterSendMultipleByteStart 0x400004a0   Gb    2  Code  Hi   0x14
    266  I2C_modelConnect           0x400004b4   Gb    2  Code  Hi   0x34
    267  I2C_modelDisable           0x400004e8   Gb    2  Code  Hi   0x20
    268  I2C_releasePins            0x40000508   Gb    2  Code  Hi   0x14
    269  I2C_reset                  0x4000051c   Gb    2  Code  Hi   0x30
    270  I2C_slaveClearInterruptStatus 0x4000054c   Gb    2  Code  Hi   0x10
    271  I2C_slaveEnable            0x4000055c   Gb    2  Code  Hi   0x10
    272  I2C_slaveEnableInterrupt   0x4000056c   Gb    2  Code  Hi   0x10
    273  I2C_slaveGetInterruptStatus 0x4000057c   Gb    2  Code  Hi   0xc
    274  I2C_slaveInit              0x40000588   Gb    2  Code  Hi   0x1d4
    275  I2C_slaveReceiveMultipleByteFinish 0x4000075c   Gb    2  Code  Hi   0xc
    276  I2C_slaveReceiveMultipleByteStop 0x40000768   Gb    2  Code  Hi   0x18
    277  IRQ_Handler                0x40000780   Gb    2  Code  Hi   0x10
    278  PFC_ClearMultipleBit       0x40000790   Gb    2  Code  Hi   0x18
    279  PFC_SetMultipleBit         0x400007a8   Gb    2  Code  Hi   0x18
    280  PrefetchAbort_Handler      0x400007c0   Gb    2  Code  Hi   0xc
    281  Sim_Delay                  0x400007cc   Gb    2  Code  Hi   0x14
    282  Sim_Dump                   0x400007e0   Gb    2  Code  Hi   0x28
    283  Sim_Stop                   0x40000808   Gb    2  Code  Hi   0x10
    284  SupervisorCall_Handler     0x40000818   Gb    2  Code  Hi   0xc
    285  UndefinedInstruction_Handler 0x40000824   Gb    2  Code  Hi   0xc
    286  _sys_exit                  0x40000830   Gb    2  Code  Hi   0x4
    287  interrupt_check            0x40000ad8   Gb    2  Code  Hi   0x11c
    288  main                       0x40000bf4   Gb    2  Code  Hi   0x94
    289  mstp_check                 0x40000c88   Gb    2  Code  Hi   0x638
    290  pad_check                  0x400012c0   Gb    2  Code  Hi   0x11c
    291  reg_check                  0x400013dc   Gb    2  Code  Hi   0x128
    292  srst_check                 0x40001504   Gb    2  Code  Hi   0x518
    293  $Ven$AA$L$$Reset_Handler   0x40001a1c   Gb    2  Code  Hi   0x8
    294  _fp_init                   0x40001a24   Gb    2  Code  De   0xc
    295  __fplib_config_fpu_vfp     0x40001a2c   Gb    2  Code  De 
    296  __fplib_config_pureend_doubles 0x40001a2c   Gb    2  Code  De 
    297  I2C_CLOCK_SETTINGS         0x40001a30   Gb    2  Data  Hi   0x460
    298  GIC_intHandler             0x40002380   Gb    3  Data  Hi   0xf24
    299  pattern                    0x400032a4   Gb    3  Data  Hi   0x14
    300  DumpOffset                 0x400032b8   Gb    4  Data  Hi   0x4
    301  Image$$ARM_LIB_HEAP$$ZI$$Base 0x40003760   Gb  Abs   --   Hi 
    302  Image$$ARM_LIB_HEAP$$ZI$$Limit 0x40003760   Gb  Abs   --   Hi 
    303  Image$$ARM_LIB_STACK$$ZI$$Limit 0x70000000   Gb  Abs   --   Hi 


====================================

** Section #8

    Name        : .strtab
    Type        : SHT_STRTAB (0x00000003)
    Flags       : None (0x00000000)
    Addr        : 0x00000000
    File Offset : 23480 (0x5bb8)
    Size        : 5352 bytes (0x14e8)
    Link        : SHN_UNDEF
    Info        : 0
    Alignment   : 1
    Entry Size  : 0

            #  Offset String
        ====================================

            1      1: $a
            2      4: $d
            3      7: $d.realdata
            4     19: $t
            5     22: $a.1
            6     27: retarget.c
            7     38: pad_check.c
            8     50: i2c0InterruptHandler
            9     71: i2c1InterruptHandler
           10     92: masterConfig
           11    105: slaveConfig
           12    117: sendData
           13    126: sendDataIndex
           14    140: isTransferComplete
           15    159: receivedData
           16    172: receivedDataIndex
           17    190: mstp_check.c
           18    203: checkReg
           19    212: result
           20    219: golden
           21    226: i2c_utils.c
           22    238: dmac.c
           23    245: reg_check.c
           24    257: main.c
           25    264: exception_handlers.c
           26    285: srst_check.c
           27    298: sim_utils.c
           28    310: pfc.c
           29    316: i2c.c
           30    322: gic.c
           31    328: interrupt_check.c
           32    346: cpg.c
           33    352: /design01/rcarv3ufed_master/common_rvc/rcarv3u/VNET1/MASTER_TM/I2C_V3U_RTL/ct/include/rcar_v3u/startup/vectors_cr52.s
           34    470: VECTORS
           35    478: $v0
           36    482: /design01/rcarv3ufed_master/common_rvc/rcarv3u/VNET1/MASTER_TM/I2C_V3U_RTL/ct/include/rcar_v3u/startup/mpu_cr52.s
           37    596: MPU_INIT
           38    605: /design01/rcarv3ufed_master/common_rvc/rcarv3u/VNET1/MASTER_TM/I2C_V3U_RTL/ct/include/rcar_v3u/startup/vectors_ca76.s
           39    723: /design01/rcarv3ufed_master/common_rvc/rcarv3u/VNET1/MASTER_TM/I2C_V3U_RTL/ct/include/rcar_v3u/startup/startup_ca76.s
           40    841: /design01/rcarv3ufed_master/common_rvc/rcarv3u/VNET1/MASTER_TM/I2C_V3U_RTL/ct/include/rcar_v3u/startup/startup_cr52.s
           41    959: STARTUP
           42    967: __ddr_init_start
           43    984: __ddr_init_end
           44    999: ../clib/angel/sys.s
           45   1019: .text
           46   1025: ../clib/angel/startup.s
           47   1049: !!!main
           48   1057: ../clib/angel/kernel.s
           49   1080: .ARM.Collect$$rtentry$$00000000
           50   1112: .ARM.Collect$$rtentry$$00000002
           51   1144: .ARM.Collect$$rtentry$$00000009
           52   1176: .ARM.Collect$$rtentry$$0000000A
           53   1208: .ARM.Collect$$rtentry$$0000000C
           54   1240: .ARM.Collect$$rtentry$$0000000D
           55   1272: .ARM.Collect$$rtentry$$00000007
           56   1304: .ARM.Collect$$rtentry$$00002718
           57   1336: __lit__00000000
           58   1352: ../clib/stdlib.c
           59   1369: ../clib/angel/boardlib.s
           60   1394: ../clib/libinit.s
           61   1412: .ARM.Collect$$libinit$$00000000
           62   1444: .ARM.Collect$$rtexit$$00000000
           63   1475: .ARM.Collect$$libinit$$00000001
           64   1507: .ARM.Collect$$libinit$$00000004
           65   1539: .ARM.Collect$$libinit$$0000000A
           66   1571: .ARM.Collect$$libinit$$0000000C
           67   1603: .ARM.Collect$$libinit$$0000000E
           68   1635: .ARM.Collect$$libinit$$00000011
           69   1667: .ARM.Collect$$libinit$$00000013
           70   1699: .ARM.Collect$$libinit$$00000015
           71   1731: .ARM.Collect$$libinit$$00000017
           72   1763: .ARM.Collect$$libinit$$00000019
           73   1795: .ARM.Collect$$libinit$$0000001B
           74   1827: .ARM.Collect$$libinit$$0000001D
           75   1859: .ARM.Collect$$libinit$$0000001F
           76   1891: .ARM.Collect$$libinit$$00000021
           77   1923: .ARM.Collect$$libinit$$00000023
           78   1955: .ARM.Collect$$libinit$$00000025
           79   1987: .ARM.Collect$$libinit$$0000002C
           80   2019: .ARM.Collect$$libinit$$0000002E
           81   2051: .ARM.Collect$$libinit$$00000030
           82   2083: .ARM.Collect$$libinit$$00000032
           83   2115: .ARM.Collect$$libinit$$00000033
           84   2147: .ARM.Collect$$rtexit$$00000002
           85   2178: .ARM.Collect$$rtexit$$00000003
           86   2209: .ARM.Collect$$rtexit$$00000004
           87   2240: ../clib/armsys.c
           88   2257: ../fplib/fpinit.s
           89   2275: x$fpl$fpinit
           90   2288: .ARM.Collect$$libshutdown$$00000000
           91   2324: ../clib/heapalloc.c
           92   2344: ../clib/signal.c
           93   2361: .ARM.Collect$$libshutdown$$00000002
           94   2397: .ARM.Collect$$libshutdown$$00000004
           95   2433: .ARM.Collect$$libshutdown$$00000007
           96   2469: .ARM.Collect$$libshutdown$$0000000A
           97   2505: .ARM.Collect$$libshutdown$$0000000C
           98   2541: .ARM.Collect$$libshutdown$$0000000F
           99   2577: .ARM.Collect$$libshutdown$$00000010
          100   2613: ../clib/angel/rt.s
          101   2632: ../clib/signal.s
          102   2649: ../clib/angel/scatter.s
          103   2673: !!!scatter
          104   2684: ../clib/angel/handlers.s
          105   2709: !!handler_zi
          106   2722: BuildAttributes$$THM_ISAv5$ARM_ISAv8$E$P$J$N$DE$K$B$S$FP_ARMv8$PE$MPE$A:L22UL41UL21$X:L11$S22US41US21$IEEE1$IW$~IW$USESV6$~STKCKD$USESV7$WCHAR32$ENUMINT$~SHL$OTIME$ROPI$EBA8$UX$STANDARDLIB$THUMB2LIB$REQ8$PRES8$EABIv2
          107   2939: Reset_Handler
          108   2953: __main
          109   2960: __scatterload
          110   2974: __scatterload_rt2
          111   2992: __scatterload_null
          112   3011: __scatterload_zeroinit
          113   3034: __mpu_init
          114   3045: __mpu_init_el1
          115   3060: $Ven$AA$L$$UndefinedInstruction_Handler
          116   3100: $Ven$AA$L$$SupervisorCall_Handler
          117   3134: $Ven$AA$L$$PrefetchAbort_Handler
          118   3167: $Ven$AA$L$$DataAbort_Handler
          119   3196: $Ven$AA$L$$IRQ_Handler
          120   3219: $Ven$AT$L$$__rt_entry
          121   3241: Region$$Table$$Base
          122   3261: Region$$Table$$Limit
          123   3282: __vectors_start
          124   3298: __rt_lib_init
          125   3312: __rt_lib_init_fp_1
          126   3331: __rt_lib_init_alloca_1
          127   3354: __rt_lib_init_argv_1
          128   3375: __rt_lib_init_atexit_1
          129   3398: __rt_lib_init_clock_1
          130   3420: __rt_lib_init_cpp_1
          131   3440: __rt_lib_init_exceptions_1
          132   3467: __rt_lib_init_fp_trap_1
          133   3491: __rt_lib_init_getenv_1
          134   3514: __rt_lib_init_heap_1
          135   3535: __rt_lib_init_lc_collate_1
          136   3562: __rt_lib_init_lc_ctype_1
          137   3587: __rt_lib_init_lc_monetary_1
          138   3615: __rt_lib_init_lc_numeric_1
          139   3642: __rt_lib_init_lc_time_1
          140   3666: __rt_lib_init_preinit_1
          141   3690: __rt_lib_init_rand_1
          142   3711: __rt_lib_init_return
          143   3732: __rt_lib_init_signal_1
          144   3755: __rt_lib_init_stdio_1
          145   3777: __rt_lib_init_user_alloc_1
          146   3804: __rt_lib_shutdown
          147   3822: __rt_lib_shutdown_cpp_1
          148   3846: __rt_lib_shutdown_fp_trap_1
          149   3874: __rt_lib_shutdown_heap_1
          150   3899: __rt_lib_shutdown_return
          151   3924: __rt_lib_shutdown_signal_1
          152   3951: __rt_lib_shutdown_stdio_1
          153   3977: __rt_lib_shutdown_user_alloc_1
          154   4008: __rt_entry
          155   4019: __rt_entry_presh_1
          156   4038: __rt_entry_sh
          157   4052: __rt_entry_li
          158   4066: __rt_entry_postsh_1
          159   4086: __rt_entry_main
          160   4102: __rt_entry_postli_1
          161   4122: __rt_exit
          162   4132: __rt_exit_ls
          163   4145: __rt_exit_prels_1
          164   4163: __rt_exit_exit
          165   4178: __I$use$semihosting
          166   4198: __use_no_semihosting_swi
          167   4223: exit
          168   4228: CPG_ClearBit
          169   4241: CPG_SetBit
          170   4252: CPG_SetMultipleBit
          171   4271: DataAbort_Handler
          172   4289: GIC_defaultHandler
          173   4308: GIC_enable
          174   4319: GIC_enableInterrupt
          175   4339: GIC_endInterrupt
          176   4356: GIC_executeInterruptHandler
          177   4384: GIC_getACKID
          178   4397: GIC_setInterruptHandler
          179   4421: I2C_configPins
          180   4436: I2C_masterClearInterruptStatus
          181   4467: I2C_masterDisableStartGeneration
          182   4500: I2C_masterEnable
          183   4517: I2C_masterEnableInterrupt
          184   4543: I2C_masterGetInterruptStatus
          185   4572: I2C_masterInit
          186   4587: I2C_masterSendMultipleByteNext
          187   4618: I2C_masterSendMultipleByteStart
          188   4650: I2C_modelConnect
          189   4667: I2C_modelDisable
          190   4684: I2C_releasePins
          191   4700: I2C_reset
          192   4710: I2C_slaveClearInterruptStatus
          193   4740: I2C_slaveEnable
          194   4756: I2C_slaveEnableInterrupt
          195   4781: I2C_slaveGetInterruptStatus
          196   4809: I2C_slaveInit
          197   4823: I2C_slaveReceiveMultipleByteFinish
          198   4858: I2C_slaveReceiveMultipleByteStop
          199   4891: IRQ_Handler
          200   4903: PFC_ClearMultipleBit
          201   4924: PFC_SetMultipleBit
          202   4943: PrefetchAbort_Handler
          203   4965: Sim_Delay
          204   4975: Sim_Dump
          205   4984: Sim_Stop
          206   4993: SupervisorCall_Handler
          207   5016: UndefinedInstruction_Handler
          208   5045: _sys_exit
          209   5055: interrupt_check
          210   5071: main
          211   5076: mstp_check
          212   5087: pad_check
          213   5097: reg_check
          214   5107: srst_check
          215   5118: $Ven$AA$L$$Reset_Handler
          216   5143: _fp_init
          217   5152: __fplib_config_fpu_vfp
          218   5175: __fplib_config_pureend_doubles
          219   5206: I2C_CLOCK_SETTINGS
          220   5225: GIC_intHandler
          221   5240: pattern
          222   5248: DumpOffset
          223   5259: Image$$ARM_LIB_HEAP$$ZI$$Base
          224   5289: Image$$ARM_LIB_HEAP$$ZI$$Limit
          225   5320: Image$$ARM_LIB_STACK$$ZI$$Limit


====================================

** Section #9

    Name        : .note
    Type        : SHT_NOTE (0x00000007)
    Flags       : None (0x00000000)
    Addr        : 0x00000000
    File Offset : 28832 (0x70a0)
    Size        : 36 bytes (0x24)
    Link        : SHN_UNDEF
    Info        : 0
    Alignment   : 4
    Entry Size  : 0

        Section     Segment
    ====================================

              1           0
              2           1
              3           1
              4           1
              5           1

====================================

** Section #10

    Name        : .comment
    Type        : SHT_PROGBITS (0x00000001)
    Flags       : None (0x00000000)
    Addr        : 0x00000000
    File Offset : 28868 (0x70c4)
    Size        : 1672 bytes (0x688)
    Link        : SHN_UNDEF
    Info        : 0
    Alignment   : 1
    Entry Size  : 0

    Component: ARM Compiler 6.9 Tool: armlink [5ced1b00]
    armlink --map --datacompressor=off --errors=error.log --output=image.elf --scatter=/design01/rcarv3ufed_master/common_rvc/rcarv3u/VNET1/MASTER_TM/I2C_V3U_RTL/ct/include/rcar_v3u/scatters/scatter_ddr.scat --sysroot=/common/appl/ARM/DS500-BN-00019-r5p0-28rel1/sw/ARMCompiler6.9 --entry=0x00000000 --info=unused

    /common/appl/ARM/DS500-BN-00019-r5p0-28rel1/sw/ARMCompiler6.9/lib/armlib/c_8u.l
    /common/appl/ARM/DS500-BN-00019-r5p0-28rel1/sw/ARMCompiler6.9/lib/armlib/fz_8v.l
    /common/appl/ARM/DS500-BN-00019-r5p0-28rel1/sw/ARMCompiler6.9/lib/armlib/h_8u.l
    /common/appl/ARM/DS500-BN-00019-r5p0-28rel1/sw/ARMCompiler6.9/lib/libcxx/libcpp-experimental_8nu.l
    /common/appl/ARM/DS500-BN-00019-r5p0-28rel1/sw/ARMCompiler6.9/lib/libcxx/libcpp_8nu.l
    /common/appl/ARM/DS500-BN-00019-r5p0-28rel1/sw/ARMCompiler6.9/lib/libcxx/libcppabi_8nu.l
    /common/appl/ARM/DS500-BN-00019-r5p0-28rel1/sw/ARMCompiler6.9/lib/armlib/m_8v.l
    /common/appl/ARM/DS500-BN-00019-r5p0-28rel1/sw/ARMCompiler6.9/lib/armlib/vfpsupport.l
    Input Comments:
    
    vectors_cr52.o
    mpu_cr52.o
    vectors_ca76.o
    startup_ca76.o
    startup_cr52.o
    
    Component: ARM Compiler 6.9 Tool: armasm [5ced1b00]
    armasm --cpu=Cortex-R52 -m -I/design01/rcarv3ufed_master/common_rvc/rcarv3u/VNET1/MASTER_TM/I2C_V3U_RTL/ct/i2c0/full_check_common -I/design01/rcarv3ufed_master/common_rvc/rcarv3u/VNET1/MASTER_TM/I2C_V3U_RTL/ct/include --predefine="__AARCH32 SETL {TRUE}" --predef
    
    
    retarget.o
    pad_check.o
    mstp_check.o
    i2c_utils.o
    dmac.o
    reg_check.o
    main.o
    exception_handlers.o
    srst_check.o
    sim_utils.o
    pfc.o
    i2c.o
    gic.o
    interrupt_check.o
    cpg.o
    
    
    Component: ARM Compiler 6.9 Tool: armclang [5ced1d00]
    
    
    
    

====================================

** Section #11

    Name        : .shstrtab
    Type        : SHT_STRTAB (0x00000003)
    Flags       : None (0x00000000)
    Addr        : 0x00000000
    File Offset : 30540 (0x774c)
    Size        : 104 bytes (0x68)
    Link        : SHN_UNDEF
    Info        : 0
    Alignment   : 1
    Entry Size  : 0

            #  Offset String
        ====================================

            1      1: ER00
            2      6: ER01
            3     11: ER02
            4     16: ER10
            5     21: ARM_LIB_HEAP
            6     34: ARM_LIB_STACK
            7     48: .debug_frame
            8     61: .symtab
            9     69: .strtab
           10     77: .note
           11     83: .comment
           12     92: .shstrtab
           13    102: 
           14    103: 


====================================

