
========================================================================

** ELF Header Information

    File Name: /design01/rcarv3ufed_master/common_rvc/rcarv3u/VNET1/MASTER_TM/I2C_V3U_RTL/ct/i2c0/full_test/debug/image.elf

    Machine class: ELFCLASS32 (32-bit)
    Data encoding: ELFDATA2LSB (Little endian)
    Header version: EV_CURRENT (Current version)
    Operating System ABI: none
    ABI Version: 0
    File Type: ET_EXEC (Executable) (2)
    Machine: EM_ARM (ARM)

    Image Entry point: 0x00000000
    Flags: EF_ARM_HASENTRY (0x05000002)

    ARM ELF revision: 5 (ABI version 2)

    Conforms to Base float procedure-call standard

    Built with
    Component: ARM Compiler 6.9 Tool: armasm [5ced1b00]
    Component: ARM Compiler 6.9 Tool: armlink [5ced1b00]

    Header size: 52 bytes (0x34)
    Program header entry size: 32 bytes (0x20)
    Section header entry size: 40 bytes (0x28)

    Program header entries: 2
    Section header entries: 12

    Program header offset: 33224 (0x000081c8)
    Section header offset: 33288 (0x00008208)

    Section header string table index: 11

========================================================================

** Program header #0

    Type          : PT_LOAD (1)
    File Offset   : 52 (0x34)
    Virtual Addr  : 0x00000000
    Physical Addr : 0x00000000
    Size in file  : 5096 bytes (0x13e8)
    Size in memory: 5096 bytes (0x13e8)
    Flags         : PF_X + PF_R + PF_ARM_ENTRY (0x80000005)
    Alignment     : 4


====================================

** Program header #1

    Type          : PT_LOAD (1)
    File Offset   : 5148 (0x141c)
    Virtual Addr  : 0x40000000
    Physical Addr : 0x40000000
    Size in file  : 13264 bytes (0x33d0)
    Size in memory: 14860 bytes (0x3a0c)
    Flags         : PF_X + PF_W + PF_R (0x7)
    Alignment     : 4


========================================================================

** Section #1

    Name        : ER00
    Type        : SHT_PROGBITS (0x00000001)
    Flags       : SHF_ALLOC + SHF_EXECINSTR (0x00000006)
    Addr        : 0x00000000
    File Offset : 52 (0x34)
    Size        : 5096 bytes (0x13e8)
    Link        : SHN_UNDEF
    Info        : 0
    Alignment   : 4
    Entry Size  : 0

    $a
    STARTUP
    $v0
        0x00000000:    e59ff018    ....    LDR      pc,[pc,#24] ; [0x20] = 0x38
        0x00000004:    e59ff018    ....    LDR      pc,[pc,#24] ; [0x24] = 0x3c
        0x00000008:    e59ff018    ....    LDR      pc,[pc,#24] ; [0x28] = 0x44
        0x0000000c:    e59ff018    ....    LDR      pc,[pc,#24] ; [0x2c] = 0x4c
        0x00000010:    e59ff018    ....    LDR      pc,[pc,#24] ; [0x30] = 0x54
        0x00000014:    e320f000    .. .    NOP      
        0x00000018:    e59ff014    ....    LDR      pc,[pc,#20] ; [0x34] = 0x5c
        0x0000001c:    eafffffe    ....    B        0x1c ; 0x1c
    $d
        0x00000020:    00000038    8...    DCD    56
        0x00000024:    0000003c    <...    DCD    60
        0x00000028:    00000044    D...    DCD    68
        0x0000002c:    0000004c    L...    DCD    76
        0x00000030:    00000054    T...    DCD    84
        0x00000034:    0000005c    \...    DCD    92
    $a
    RST_EXC
        0x00000038:    ea000009    ....    B        Reset_Handler ; 0x64
    UDF_EXC
        0x0000003c:    eb0004d9    ....    BL       $Ven$AA$L$$UndefinedInstruction_Handler ; 0x13a8
        0x00000040:    e160006e    n.`.    ERET     
    SVC_EXC
        0x00000044:    eb0004d9    ....    BL       $Ven$AA$L$$SupervisorCall_Handler ; 0x13b0
        0x00000048:    e160006e    n.`.    ERET     
    PAB_EXC
        0x0000004c:    eb0004d9    ....    BL       $Ven$AA$L$$PrefetchAbort_Handler ; 0x13b8
        0x00000050:    e160006e    n.`.    ERET     
    DAB_EXC
        0x00000054:    eb0004d9    ....    BL       $Ven$AA$L$$DataAbort_Handler ; 0x13c0
        0x00000058:    e160006e    n.`.    ERET     
    IRQ_EXC
        0x0000005c:    eb0004d9    ....    BL       $Ven$AA$L$$IRQ_Handler ; 0x13c8
        0x00000060:    e160006e    n.`.    ERET     
    Reset_Handler
        0x00000064:    eb00045a    Z...    BL       __mpu_init ; 0x11d4
        0x00000068:    e3a0060f    ....    MOV      r0,#0xf00000
        0x0000006c:    ee010f50    P...    MCR      p15,#0x0,r0,c1,c0,#2
        0x00000070:    e3a03000    .0..    MOV      r3,#0
        0x00000074:    e3443000    .0D.    MOVT     r3,#0x4000
        0x00000078:    eee83a10    .:..    VMSR     FPEXC,r3
        0x0000007c:    e59f00a8    ....    LDR      r0,[pc,#168] ; [0x12c] = 0x40000000
        0x00000080:    ee8c0f10    ....    MCR      p15,#0x4,r0,c12,c0,#0
        0x00000084:    ee0c0f10    ....    MCR      p15,#0x0,r0,c12,c0,#0
        0x00000088:    e3a00000    ....    MOV      r0,#0
        0x0000008c:    e34e0730    0.N.    MOVT     r0,#0xe730
        0x00000090:    e59f1098    ....    LDR      r1,[pc,#152] ; [0x130] = 0x1a8
        0x00000094:    e5801000    ....    STR      r1,[r0,#0]
        0x00000098:    e3a01000    ....    MOV      r1,#0
        0x0000009c:    e34e1630    0.N.    MOVT     r1,#0xe630
        0x000000a0:    e59f2088    . ..    LDR      r2,[pc,#136] ; [0x130] = 0x1a8
        0x000000a4:    e0811002    ....    ADD      r1,r1,r2
        0x000000a8:    e5801004    ....    STR      r1,[r0,#4]
        0x000000ac:    e59f1080    ....    LDR      r1,[pc,#128] ; [0x134] = 0x11d4
        0x000000b0:    e59f2078    x ..    LDR      r2,[pc,#120] ; [0x130] = 0x1a8
        0x000000b4:    e0411002    ..A.    SUB      r1,r1,r2
        0x000000b8:    e1a01321    !...    LSR      r1,r1,#6
        0x000000bc:    e2811001    ....    ADD      r1,r1,#1
        0x000000c0:    e5801008    ....    STR      r1,[r0,#8]
        0x000000c4:    e3051409    ....    MOV      r1,#0x5409
        0x000000c8:    e3401010    ..@.    MOVT     r1,#0x10
        0x000000cc:    e580100c    ....    STR      r1,[r0,#0xc]
        0x000000d0:    e3a00000    ....    MOV      r0,#0
        0x000000d4:    e34e0735    5.N.    MOVT     r0,#0xe735
        0x000000d8:    e3a01001    ....    MOV      r1,#1
        0x000000dc:    e5801060    `...    STR      r1,[r0,#0x60]
        0x000000e0:    e3a00000    ....    MOV      r0,#0
        0x000000e4:    e34e0730    0.N.    MOVT     r0,#0xe730
        0x000000e8:    e5903008    .0..    LDR      r3,[r0,#8]
        0x000000ec:    e590100c    ....    LDR      r1,[r0,#0xc]
        0x000000f0:    e3a02002    . ..    MOV      r2,#2
        0x000000f4:    e0011002    ....    AND      r1,r1,r2
        0x000000f8:    e1510002    ..Q.    CMP      r1,r2
        0x000000fc:    1afffff9    ....    BNE      0xe8 ; Reset_Handler + 132
        0x00000100:    e3a02003    . ..    MOV      r2,#3
        0x00000104:    e1e02002    . ..    MVN      r2,r2
        0x00000108:    e0011002    ....    AND      r1,r1,r2
        0x0000010c:    e580100c    ....    STR      r1,[r0,#0xc]
        0x00000110:    e3a00000    ....    MOV      r0,#0
        0x00000114:    e34e0735    5.N.    MOVT     r0,#0xe735
        0x00000118:    e3a01000    ....    MOV      r1,#0
        0x0000011c:    e5801060    `...    STR      r1,[r0,#0x60]
        0x00000120:    e59f0000    ....    LDR      r0,[pc,#0] ; [0x128] = 0xe63001a8
        0x00000124:    e1a0f000    ....    MOV      pc,r0
    $d
        0x00000128:    e63001a8    ..0.    DCD    3861905832
        0x0000012c:    40000000    ...@    DCD    1073741824
        0x00000130:    000001a8    ....    DCD    424
        0x00000134:    000011d4    ....    DCD    4564
    $a
    !!!main
    __main
        0x00000138:    eb000000    ....    BL       __scatterload ; 0x140
        0x0000013c:    eb0004a3    ....    BL       $Ven$AT$L$$__rt_entry ; 0x13d0
    !!!scatter
    __scatterload
    __scatterload_rt2
        0x00000140:    e28f002c    ,...    ADR      r0,{pc}+0x34 ; 0x174
        0x00000144:    e8900c00    ....    LDM      r0,{r10,r11}
        0x00000148:    e08aa000    ....    ADD      r10,r10,r0
        0x0000014c:    e08bb000    ....    ADD      r11,r11,r0
        0x00000150:    e24a7001    .pJ.    SUB      r7,r10,#1
    __scatterload_null
        0x00000154:    e15a000b    ..Z.    CMP      r10,r11
        0x00000158:    1a000000    ....    BNE      0x160 ; __scatterload_null + 12
        0x0000015c:    eb00049b    ....    BL       $Ven$AT$L$$__rt_entry ; 0x13d0
        0x00000160:    e24fe014    ..O.    ADR      lr,{pc}-0xc ; 0x154
        0x00000164:    e8ba000f    ....    LDM      r10!,{r0-r3}
        0x00000168:    e3130001    ....    TST      r3,#1
        0x0000016c:    1047f003    ..G.    SUBNE    pc,r7,r3
        0x00000170:    e12fff13    ../.    BX       r3
    $d
        0x00000174:    00001264    d...    DCD    4708
        0x00000178:    00001274    t...    DCD    4724
    $a
    !!handler_zi
    __scatterload_zeroinit
        0x0000017c:    e3b03000    .0..    MOVS     r3,#0
        0x00000180:    e3b04000    .@..    MOVS     r4,#0
        0x00000184:    e3b05000    .P..    MOVS     r5,#0
        0x00000188:    e3b06000    .`..    MOVS     r6,#0
        0x0000018c:    e2522010    . R.    SUBS     r2,r2,#0x10
        0x00000190:    28a10078    x..(    STMCS    r1!,{r3-r6}
        0x00000194:    8afffffc    ....    BHI      0x18c ; __scatterload_zeroinit + 16
        0x00000198:    e1b02e82    ....    LSLS     r2,r2,#29
        0x0000019c:    28a10030    0..(    STMCS    r1!,{r4,r5}
        0x000001a0:    45813000    .0.E    STRMI    r3,[r1,#0]
        0x000001a4:    e12fff1e    ../.    BX       lr
    DDR_INIT
    $v0
    ddr_init_start
        0x000001a8:    e59f0c1c    ....    LDR      r0,[pc,#3100] ; [0xdcc] = 0xe6152e10
        0x000001ac:    e5901000    ....    LDR      r1,[r0,#0]
        0x000001b0:    e3c11018    ....    BIC      r1,r1,#0x18
        0x000001b4:    e1e02001    . ..    MVN      r2,r1
        0x000001b8:    e59f0c10    ....    LDR      r0,[pc,#3088] ; [0xdd0] = 0xe6150000
        0x000001bc:    e5802000    . ..    STR      r2,[r0,#0]
        0x000001c0:    e59f0c0c    ....    LDR      r0,[pc,#3084] ; [0xdd4] = 0xe6152d10
        0x000001c4:    e5801000    ....    STR      r1,[r0,#0]
        0x000001c8:    e59f0bfc    ....    LDR      r0,[pc,#3068] ; [0xdcc] = 0xe6152e10
        0x000001cc:    e5901000    ....    LDR      r1,[r0,#0]
        0x000001d0:    e3a00010    ....    MOV      r0,#0x10
        0x000001d4:    e2400001    ..@.    SUB      r0,r0,#1
        0x000001d8:    e3500000    ..P.    CMP      r0,#0
        0x000001dc:    1afffffc    ....    BNE      0x1d4 ; ddr_init_start + 44
        0x000001e0:    ea00000c    ....    B        0x218 ; ddr_init_start + 112
        0x000001e4:    e320f000    .. .    NOP      
        0x000001e8:    e3034fff    .O..    MOV      r4,#0x3fff
        0x000001ec:    e0011004    ....    AND      r1,r1,r4
        0x000001f0:    e5821000    ....    STR      r1,[r2,#0]
        0x000001f4:    e5830000    ....    STR      r0,[r3,#0]
        0x000001f8:    e5920000    ....    LDR      r0,[r2,#0]
        0x000001fc:    e3a04902    .I..    MOV      r4,#0x8000
        0x00000200:    e0000004    ....    AND      r0,r0,r4
        0x00000204:    e1500004    ..P.    CMP      r0,r4
        0x00000208:    1afffffa    ....    BNE      0x1f8 ; ddr_init_start + 80
        0x0000020c:    e1811004    ....    ORR      r1,r1,r4
        0x00000210:    e5821000    ....    STR      r1,[r2,#0]
        0x00000214:    e12fff1e    ../.    BX       lr
        0x00000218:    e3010234    4...    MOV      r0,#0x1234
        0x0000021c:    e59f1bb4    ....    LDR      r1,[pc,#2996] ; [0xdd8] = 0xe6790100
        0x00000220:    e5810000    ....    STR      r0,[r1,#0]
        0x00000224:    e3010234    4...    MOV      r0,#0x1234
        0x00000228:    e59f1bac    ....    LDR      r1,[pc,#2988] ; [0xddc] = 0xe6790108
        0x0000022c:    e5810000    ....    STR      r0,[r1,#0]
        0x00000230:    e3a0000a    ....    MOV      r0,#0xa
        0x00000234:    e59f1ba4    ....    LDR      r1,[pc,#2980] ; [0xde0] = 0xe6790020
        0x00000238:    e5810000    ....    STR      r0,[r1,#0]
        0x0000023c:    e3a0000a    ....    MOV      r0,#0xa
        0x00000240:    e59f1b9c    ....    LDR      r1,[pc,#2972] ; [0xde4] = 0xe6790024
        0x00000244:    e5810000    ....    STR      r0,[r1,#0]
        0x00000248:    e59f0b98    ....    LDR      r0,[pc,#2968] ; [0xde8] = 0xe030a01
        0x0000024c:    e59f1b98    ....    LDR      r1,[pc,#2968] ; [0xdec] = 0xe6790030
        0x00000250:    e5810000    ....    STR      r0,[r1,#0]
        0x00000254:    e59f0b8c    ....    LDR      r0,[pc,#2956] ; [0xde8] = 0xe030a01
        0x00000258:    e59f1b90    ....    LDR      r1,[pc,#2960] ; [0xdf0] = 0xe6790070
        0x0000025c:    e5810000    ....    STR      r0,[r1,#0]
        0x00000260:    e59f0b80    ....    LDR      r0,[pc,#2944] ; [0xde8] = 0xe030a01
        0x00000264:    e59f1b88    ....    LDR      r1,[pc,#2952] ; [0xdf4] = 0xe6790034
        0x00000268:    e5810000    ....    STR      r0,[r1,#0]
        0x0000026c:    e59f0b74    t...    LDR      r0,[pc,#2932] ; [0xde8] = 0xe030a01
        0x00000270:    e59f1b80    ....    LDR      r1,[pc,#2944] ; [0xdf8] = 0xe6790074
        0x00000274:    e5810000    ....    STR      r0,[r1,#0]
        0x00000278:    e59f0b68    h...    LDR      r0,[pc,#2920] ; [0xde8] = 0xe030a01
        0x0000027c:    e59f1b78    x...    LDR      r1,[pc,#2936] ; [0xdfc] = 0xe6790040
        0x00000280:    e5810000    ....    STR      r0,[r1,#0]
        0x00000284:    e59f0b5c    \...    LDR      r0,[pc,#2908] ; [0xde8] = 0xe030a01
        0x00000288:    e59f1b70    p...    LDR      r1,[pc,#2928] ; [0xe00] = 0xe6790080
        0x0000028c:    e5810000    ....    STR      r0,[r1,#0]
        0x00000290:    e59f0b50    P...    LDR      r0,[pc,#2896] ; [0xde8] = 0xe030a01
        0x00000294:    e59f1b68    h...    LDR      r1,[pc,#2920] ; [0xe04] = 0xe6790044
        0x00000298:    e5810000    ....    STR      r0,[r1,#0]
        0x0000029c:    e59f0b44    D...    LDR      r0,[pc,#2884] ; [0xde8] = 0xe030a01
        0x000002a0:    e59f1b60    `...    LDR      r1,[pc,#2912] ; [0xe08] = 0xe6790084
        0x000002a4:    e5810000    ....    STR      r0,[r1,#0]
        0x000002a8:    e59f0b38    8...    LDR      r0,[pc,#2872] ; [0xde8] = 0xe030a01
        0x000002ac:    e59f1b58    X...    LDR      r1,[pc,#2904] ; [0xe0c] = 0xe6790050
        0x000002b0:    e5810000    ....    STR      r0,[r1,#0]
        0x000002b4:    e59f0b2c    ,...    LDR      r0,[pc,#2860] ; [0xde8] = 0xe030a01
        0x000002b8:    e59f1b50    P...    LDR      r1,[pc,#2896] ; [0xe10] = 0xe6790090
        0x000002bc:    e5810000    ....    STR      r0,[r1,#0]
        0x000002c0:    e59f0b20     ...    LDR      r0,[pc,#2848] ; [0xde8] = 0xe030a01
        0x000002c4:    e59f1b48    H...    LDR      r1,[pc,#2888] ; [0xe14] = 0xe6790054
        0x000002c8:    e5810000    ....    STR      r0,[r1,#0]
        0x000002cc:    e59f0b14    ....    LDR      r0,[pc,#2836] ; [0xde8] = 0xe030a01
        0x000002d0:    e59f1b40    @...    LDR      r1,[pc,#2880] ; [0xe18] = 0xe6790094
        0x000002d4:    e5810000    ....    STR      r0,[r1,#0]
        0x000002d8:    e59f0b08    ....    LDR      r0,[pc,#2824] ; [0xde8] = 0xe030a01
        0x000002dc:    e59f1b38    8...    LDR      r1,[pc,#2872] ; [0xe1c] = 0xe6790060
        0x000002e0:    e5810000    ....    STR      r0,[r1,#0]
        0x000002e4:    e59f0afc    ....    LDR      r0,[pc,#2812] ; [0xde8] = 0xe030a01
        0x000002e8:    e59f1b30    0...    LDR      r1,[pc,#2864] ; [0xe20] = 0xe67900a0
        0x000002ec:    e5810000    ....    STR      r0,[r1,#0]
        0x000002f0:    e59f0af0    ....    LDR      r0,[pc,#2800] ; [0xde8] = 0xe030a01
        0x000002f4:    e59f1b28    (...    LDR      r1,[pc,#2856] ; [0xe24] = 0xe6790064
        0x000002f8:    e5810000    ....    STR      r0,[r1,#0]
        0x000002fc:    e59f0ae4    ....    LDR      r0,[pc,#2788] ; [0xde8] = 0xe030a01
        0x00000300:    e59f1b20     ...    LDR      r1,[pc,#2848] ; [0xe28] = 0xe67900a4
        0x00000304:    e5810000    ....    STR      r0,[r1,#0]
        0x00000308:    e3a00000    ....    MOV      r0,#0
        0x0000030c:    e59f1b18    ....    LDR      r1,[pc,#2840] ; [0xe2c] = 0xe6790104
        0x00000310:    e5810000    ....    STR      r0,[r1,#0]
        0x00000314:    e3a00001    ....    MOV      r0,#1
        0x00000318:    e59f1b10    ....    LDR      r1,[pc,#2832] ; [0xe30] = 0xe6790010
        0x0000031c:    e5810000    ....    STR      r0,[r1,#0]
        0x00000320:    e3a00028    (...    MOV      r0,#0x28
        0x00000324:    e59f1b08    ....    LDR      r1,[pc,#2824] ; [0xe34] = 0xe6790300
        0x00000328:    e5810000    ....    STR      r0,[r1,#0]
        0x0000032c:    e3a00012    ....    MOV      r0,#0x12
        0x00000330:    e59f1b00    ....    LDR      r1,[pc,#2816] ; [0xe38] = 0xe6790304
        0x00000334:    e5810000    ....    STR      r0,[r1,#0]
        0x00000338:    e3a00027    '...    MOV      r0,#0x27
        0x0000033c:    e59f1af8    ....    LDR      r1,[pc,#2808] ; [0xe3c] = 0xe679030c
        0x00000340:    e5810000    ....    STR      r0,[r1,#0]
        0x00000344:    e59f0af4    ....    LDR      r0,[pc,#2804] ; [0xe40] = 0x2d0027
        0x00000348:    e59f1af4    ....    LDR      r1,[pc,#2804] ; [0xe44] = 0xe6790310
        0x0000034c:    e5810000    ....    STR      r0,[r1,#0]
        0x00000350:    e3a00087    ....    MOV      r0,#0x87
        0x00000354:    e59f1aec    ....    LDR      r1,[pc,#2796] ; [0xe48] = 0xe6790314
        0x00000358:    e5810000    ....    STR      r0,[r1,#0]
        0x0000035c:    e3a0005a    Z...    MOV      r0,#0x5a
        0x00000360:    e59f1ae4    ....    LDR      r1,[pc,#2788] ; [0xe4c] = 0xe6790318
        0x00000364:    e5810000    ....    STR      r0,[r1,#0]
        0x00000368:    e59f0ae0    ....    LDR      r0,[pc,#2784] ; [0xe50] = 0x100010
        0x0000036c:    e59f1ae0    ....    LDR      r1,[pc,#2784] ; [0xe54] = 0xe679031c
        0x00000370:    e5810000    ....    STR      r0,[r1,#0]
        0x00000374:    e3a00040    @...    MOV      r0,#0x40
        0x00000378:    e59f1ad8    ....    LDR      r1,[pc,#2776] ; [0xe58] = 0xe6790320
        0x0000037c:    e5810000    ....    STR      r0,[r1,#0]
        0x00000380:    e3a00010    ....    MOV      r0,#0x10
        0x00000384:    e59f1ad0    ....    LDR      r1,[pc,#2768] ; [0xe5c] = 0xe6790324
        0x00000388:    e5810000    ....    STR      r0,[r1,#0]
        0x0000038c:    e3a00029    )...    MOV      r0,#0x29
        0x00000390:    e59f1ac8    ....    LDR      r1,[pc,#2760] ; [0xe60] = 0xe6790328
        0x00000394:    e5810000    ....    STR      r0,[r1,#0]
        0x00000398:    e3a00029    )...    MOV      r0,#0x29
        0x0000039c:    e59f1ac0    ....    LDR      r1,[pc,#2752] ; [0xe64] = 0xe679032c
        0x000003a0:    e5810000    ....    STR      r0,[r1,#0]
        0x000003a4:    e59f0abc    ....    LDR      r0,[pc,#2748] ; [0xe68] = 0x310031
        0x000003a8:    e59f1abc    ....    LDR      r1,[pc,#2748] ; [0xe6c] = 0xe6790330
        0x000003ac:    e5810000    ....    STR      r0,[r1,#0]
        0x000003b0:    e3000116    ....    MOVW     r0,#0x116
        0x000003b4:    e59f1ab4    ....    LDR      r1,[pc,#2740] ; [0xe70] = 0xe6790334
        0x000003b8:    e5810000    ....    STR      r0,[r1,#0]
        0x000003bc:    e59f0ab0    ....    LDR      r0,[pc,#2736] ; [0xe74] = 0x130013
        0x000003c0:    e59f1ab0    ....    LDR      r1,[pc,#2736] ; [0xe78] = 0xe6790338
        0x000003c4:    e5810000    ....    STR      r0,[r1,#0]
        0x000003c8:    e59f0aac    ....    LDR      r0,[pc,#2732] ; [0xe7c] = 0x200010
        0x000003cc:    e59f1aac    ....    LDR      r1,[pc,#2732] ; [0xe80] = 0xe679033c
        0x000003d0:    e5810000    ....    STR      r0,[r1,#0]
        0x000003d4:    e59f0aa8    ....    LDR      r0,[pc,#2728] ; [0xe84] = 0xd400a0e
        0x000003d8:    e59f1aa8    ....    LDR      r1,[pc,#2728] ; [0xe88] = 0xe6790340
        0x000003dc:    e5810000    ....    STR      r0,[r1,#0]
        0x000003e0:    e59f0aa4    ....    LDR      r0,[pc,#2724] ; [0xe8c] = 0x81e0000
        0x000003e4:    e59f1aa4    ....    LDR      r1,[pc,#2724] ; [0xe90] = 0xe6790344
        0x000003e8:    e5810000    ....    STR      r0,[r1,#0]
        0x000003ec:    e59f0aa0    ....    LDR      r0,[pc,#2720] ; [0xe94] = 0x1290129
        0x000003f0:    e59f1aa0    ....    LDR      r1,[pc,#2720] ; [0xe98] = 0xe6790350
        0x000003f4:    e5810000    ....    STR      r0,[r1,#0]
        0x000003f8:    e59f0a9c    ....    LDR      r0,[pc,#2716] ; [0xe9c] = 0x80008
        0x000003fc:    e59f1a9c    ....    LDR      r1,[pc,#2716] ; [0xea0] = 0xe6790354
        0x00000400:    e5810000    ....    STR      r0,[r1,#0]
        0x00000404:    e59f0a98    ....    LDR      r0,[pc,#2712] ; [0xea4] = 0x8550040
        0x00000408:    e59f1a98    ....    LDR      r1,[pc,#2712] ; [0xea8] = 0xe6790358
        0x0000040c:    e5810000    ....    STR      r0,[r1,#0]
        0x00000410:    e3a00003    ....    MOV      r0,#3
        0x00000414:    e59f1a90    ....    LDR      r1,[pc,#2704] ; [0xeac] = 0xe679035c
        0x00000418:    e5810000    ....    STR      r0,[r1,#0]
        0x0000041c:    e3a00002    ....    MOV      r0,#2
        0x00000420:    e59f1a88    ....    LDR      r1,[pc,#2696] ; [0xeb0] = 0xe6790400
        0x00000424:    e5810000    ....    STR      r0,[r1,#0]
        0x00000428:    e3a00002    ....    MOV      r0,#2
        0x0000042c:    e59f1a80    ....    LDR      r1,[pc,#2688] ; [0xeb4] = 0xe6790404
        0x00000430:    e5810000    ....    STR      r0,[r1,#0]
        0x00000434:    e3040444    D...    MOV      r0,#0x4444
        0x00000438:    e59f1a78    x...    LDR      r1,[pc,#2680] ; [0xeb8] = 0xe6790438
        0x0000043c:    e5810000    ....    STR      r0,[r1,#0]
        0x00000440:    e3040444    D...    MOV      r0,#0x4444
        0x00000444:    e59f1a70    p...    LDR      r1,[pc,#2672] ; [0xebc] = 0xe679043c
        0x00000448:    e5810000    ....    STR      r0,[r1,#0]
        0x0000044c:    e3040444    D...    MOV      r0,#0x4444
        0x00000450:    e59f1a68    h...    LDR      r1,[pc,#2664] ; [0xec0] = 0xe6790440
        0x00000454:    e5810000    ....    STR      r0,[r1,#0]
        0x00000458:    e3040444    D...    MOV      r0,#0x4444
        0x0000045c:    e59f1a60    `...    LDR      r1,[pc,#2656] ; [0xec4] = 0xe6790444
        0x00000460:    e5810000    ....    STR      r0,[r1,#0]
        0x00000464:    e59f0a5c    \...    LDR      r0,[pc,#2652] ; [0xec8] = 0x104214
        0x00000468:    e59f1a5c    \...    LDR      r1,[pc,#2652] ; [0xecc] = 0xe6790904
        0x0000046c:    e5810000    ....    STR      r0,[r1,#0]
        0x00000470:    e3a00f71    q...    MOV      r0,#0x1c4
        0x00000474:    e59f1a54    T...    LDR      r1,[pc,#2644] ; [0xed0] = 0xe6790908
        0x00000478:    e5810000    ....    STR      r0,[r1,#0]
        0x0000047c:    e3a00003    ....    MOV      r0,#3
        0x00000480:    e59f1a4c    L...    LDR      r1,[pc,#2636] ; [0xed4] = 0xe679090c
        0x00000484:    e5810000    ....    STR      r0,[r1,#0]
        0x00000488:    e59f0a48    H...    LDR      r0,[pc,#2632] ; [0xed8] = 0xf0037
        0x0000048c:    e59f1a48    H...    LDR      r1,[pc,#2632] ; [0xedc] = 0xe6791000
        0x00000490:    e5810000    ....    STR      r0,[r1,#0]
        0x00000494:    e3010010    ....    MOV      r0,#0x1010
        0x00000498:    e59f1a40    @...    LDR      r1,[pc,#2624] ; [0xee0] = 0xe6791004
        0x0000049c:    e5810000    ....    STR      r0,[r1,#0]
        0x000004a0:    e3a00001    ....    MOV      r0,#1
        0x000004a4:    e59f1a38    8...    LDR      r1,[pc,#2616] ; [0xee4] = 0xe6791010
        0x000004a8:    e5810000    ....    STR      r0,[r1,#0]
        0x000004ac:    e59f0a34    4...    LDR      r0,[pc,#2612] ; [0xee8] = 0xf7311111
        0x000004b0:    e59f1a34    4...    LDR      r1,[pc,#2612] ; [0xeec] = 0xe6791020
        0x000004b4:    e5810000    ....    STR      r0,[r1,#0]
        0x000004b8:    e3010834    4...    MOV      r0,#0x1834
        0x000004bc:    e59f1a2c    ,...    LDR      r1,[pc,#2604] ; [0xef0] = 0xe6791024
        0x000004c0:    e5810000    ....    STR      r0,[r1,#0]
        0x000004c4:    e3e00000    ....    MVN      r0,#0
        0x000004c8:    e59f1a24    $...    LDR      r1,[pc,#2596] ; [0xef4] = 0xe6791030
        0x000004cc:    e5810000    ....    STR      r0,[r1,#0]
        0x000004d0:    e3a00d12    ....    MOV      r0,#0x480
        0x000004d4:    e59f1a1c    ....    LDR      r1,[pc,#2588] ; [0xef8] = 0xe6791034
        0x000004d8:    e5810000    ....    STR      r0,[r1,#0]
        0x000004dc:    e3a00c03    ....    MOV      r0,#0x300
        0x000004e0:    e59f1a14    ....    LDR      r1,[pc,#2580] ; [0xefc] = 0xe6791038
        0x000004e4:    e5810000    ....    STR      r0,[r1,#0]
        0x000004e8:    e3a00d06    ....    MOV      r0,#0x180
        0x000004ec:    e59f1a0c    ....    LDR      r1,[pc,#2572] ; [0xf00] = 0xe679103c
        0x000004f0:    e5810000    ....    STR      r0,[r1,#0]
        0x000004f4:    e3a00c06    ....    MOV      r0,#0x600
        0x000004f8:    e59f1a04    ....    LDR      r1,[pc,#2564] ; [0xf04] = 0xe6791070
        0x000004fc:    e5810000    ....    STR      r0,[r1,#0]
        0x00000500:    e3a00d12    ....    MOV      r0,#0x480
        0x00000504:    e59f19fc    ....    LDR      r1,[pc,#2556] ; [0xf08] = 0xe6791074
        0x00000508:    e5810000    ....    STR      r0,[r1,#0]
        0x0000050c:    e3a00c03    ....    MOV      r0,#0x300
        0x00000510:    e59f19f4    ....    LDR      r1,[pc,#2548] ; [0xf0c] = 0xe6791078
        0x00000514:    e5810000    ....    STR      r0,[r1,#0]
        0x00000518:    e3a00d06    ....    MOV      r0,#0x180
        0x0000051c:    e59f19ec    ....    LDR      r1,[pc,#2540] ; [0xf10] = 0xe679107c
        0x00000520:    e5810000    ....    STR      r0,[r1,#0]
        0x00000524:    e3a00b01    ....    MOV      r0,#0x400
        0x00000528:    e59f19e4    ....    LDR      r1,[pc,#2532] ; [0xf14] = 0xe67910c0
        0x0000052c:    e5810000    ....    STR      r0,[r1,#0]
        0x00000530:    e3a00c03    ....    MOV      r0,#0x300
        0x00000534:    e59f19dc    ....    LDR      r1,[pc,#2524] ; [0xf18] = 0xe67910c4
        0x00000538:    e5810000    ....    STR      r0,[r1,#0]
        0x0000053c:    e3a00c02    ....    MOV      r0,#0x200
        0x00000540:    e59f19d4    ....    LDR      r1,[pc,#2516] ; [0xf1c] = 0xe67910c8
        0x00000544:    e5810000    ....    STR      r0,[r1,#0]
        0x00000548:    e3a00c01    ....    MOV      r0,#0x100
        0x0000054c:    e59f19cc    ....    LDR      r1,[pc,#2508] ; [0xf20] = 0xe67910cc
        0x00000550:    e5810000    ....    STR      r0,[r1,#0]
        0x00000554:    e3a00c03    ....    MOV      r0,#0x300
        0x00000558:    e59f19c4    ....    LDR      r1,[pc,#2500] ; [0xf24] = 0xe6791100
        0x0000055c:    e5810000    ....    STR      r0,[r1,#0]
        0x00000560:    e3a00d09    ....    MOV      r0,#0x240
        0x00000564:    e59f19bc    ....    LDR      r1,[pc,#2492] ; [0xf28] = 0xe6791104
        0x00000568:    e5810000    ....    STR      r0,[r1,#0]
        0x0000056c:    e3a00d06    ....    MOV      r0,#0x180
        0x00000570:    e59f19b4    ....    LDR      r1,[pc,#2484] ; [0xf2c] = 0xe6791108
        0x00000574:    e5810000    ....    STR      r0,[r1,#0]
        0x00000578:    e3a000c0    ....    MOV      r0,#0xc0
        0x0000057c:    e59f19ac    ....    LDR      r1,[pc,#2476] ; [0xf30] = 0xe679110c
        0x00000580:    e5810000    ....    STR      r0,[r1,#0]
        0x00000584:    e3a00c02    ....    MOV      r0,#0x200
        0x00000588:    e59f19a4    ....    LDR      r1,[pc,#2468] ; [0xf34] = 0xe6791110
        0x0000058c:    e5810000    ....    STR      r0,[r1,#0]
        0x00000590:    e3a00d06    ....    MOV      r0,#0x180
        0x00000594:    e59f199c    ....    LDR      r1,[pc,#2460] ; [0xf38] = 0xe6791114
        0x00000598:    e5810000    ....    STR      r0,[r1,#0]
        0x0000059c:    e3a00c01    ....    MOV      r0,#0x100
        0x000005a0:    e59f1994    ....    LDR      r1,[pc,#2452] ; [0xf3c] = 0xe6791118
        0x000005a4:    e5810000    ....    STR      r0,[r1,#0]
        0x000005a8:    e3a00080    ....    MOV      r0,#0x80
        0x000005ac:    e59f198c    ....    LDR      r1,[pc,#2444] ; [0xf40] = 0xe679111c
        0x000005b0:    e5810000    ....    STR      r0,[r1,#0]
        0x000005b4:    e3a00c01    ....    MOV      r0,#0x100
        0x000005b8:    e59f1984    ....    LDR      r1,[pc,#2436] ; [0xf44] = 0xe6791120
        0x000005bc:    e5810000    ....    STR      r0,[r1,#0]
        0x000005c0:    e3a000c0    ....    MOV      r0,#0xc0
        0x000005c4:    e59f197c    |...    LDR      r1,[pc,#2428] ; [0xf48] = 0xe6791124
        0x000005c8:    e5810000    ....    STR      r0,[r1,#0]
        0x000005cc:    e3a00080    ....    MOV      r0,#0x80
        0x000005d0:    e59f1974    t...    LDR      r1,[pc,#2420] ; [0xf4c] = 0xe6791128
        0x000005d4:    e5810000    ....    STR      r0,[r1,#0]
        0x000005d8:    e3a00040    @...    MOV      r0,#0x40
        0x000005dc:    e59f196c    l...    LDR      r1,[pc,#2412] ; [0xf50] = 0xe679112c
        0x000005e0:    e5810000    ....    STR      r0,[r1,#0]
        0x000005e4:    e59f0968    h...    LDR      r0,[pc,#2408] ; [0xf54] = 0x220e110a
        0x000005e8:    e59f1968    h...    LDR      r1,[pc,#2408] ; [0xf58] = 0xe6791700
        0x000005ec:    e5810000    ....    STR      r0,[r1,#0]
        0x000005f0:    e59f0964    d...    LDR      r0,[pc,#2404] ; [0xf5c] = 0xb0d0a0c
        0x000005f4:    e59f1964    d...    LDR      r1,[pc,#2404] ; [0xf60] = 0xe6791708
        0x000005f8:    e5810000    ....    STR      r0,[r1,#0]
        0x000005fc:    e59f0960    `...    LDR      r0,[pc,#2400] ; [0xf64] = 0x111f1fff
        0x00000600:    e59f1960    `...    LDR      r1,[pc,#2400] ; [0xf68] = 0xe679170c
        0x00000604:    e5810000    ....    STR      r0,[r1,#0]
        0x00000608:    e3a00001    ....    MOV      r0,#1
        0x0000060c:    e59f1958    X...    LDR      r1,[pc,#2392] ; [0xf6c] = 0xe6790000
        0x00000610:    e5810000    ....    STR      r0,[r1,#0]
        0x00000614:    e3a00002    ....    MOV      r0,#2
        0x00000618:    e59f1950    P...    LDR      r1,[pc,#2384] ; [0xf70] = 0xe6790004
        0x0000061c:    e5810000    ....    STR      r0,[r1,#0]
        0x00000620:    e3a00002    ....    MOV      r0,#2
        0x00000624:    e59f1948    H...    LDR      r1,[pc,#2376] ; [0xf74] = 0xe6790008
        0x00000628:    e5810000    ....    STR      r0,[r1,#0]
        0x0000062c:    e3a00001    ....    MOV      r0,#1
        0x00000630:    e59f1940    @...    LDR      r1,[pc,#2368] ; [0xf78] = 0xe679000c
        0x00000634:    e5810000    ....    STR      r0,[r1,#0]
        0x00000638:    e3a00041    A...    MOV      r0,#0x41
        0x0000063c:    e59f1938    8...    LDR      r1,[pc,#2360] ; [0xf7c] = 0xe6790014
        0x00000640:    e5810000    ....    STR      r0,[r1,#0]
        0x00000644:    e3a00011    ....    MOV      r0,#0x11
        0x00000648:    e59f1930    0...    LDR      r1,[pc,#2352] ; [0xf80] = 0xe6790604
        0x0000064c:    e5810000    ....    STR      r0,[r1,#0]
        0x00000650:    e3a00011    ....    MOV      r0,#0x11
        0x00000654:    e59f1928    (...    LDR      r1,[pc,#2344] ; [0xf84] = 0xe6790644
        0x00000658:    e5810000    ....    STR      r0,[r1,#0]
        0x0000065c:    e3a00011    ....    MOV      r0,#0x11
        0x00000660:    e59f1920     ...    LDR      r1,[pc,#2336] ; [0xf88] = 0xe6790684
        0x00000664:    e5810000    ....    STR      r0,[r1,#0]
        0x00000668:    e3a00011    ....    MOV      r0,#0x11
        0x0000066c:    e59f1918    ....    LDR      r1,[pc,#2328] ; [0xf8c] = 0xe67906c4
        0x00000670:    e5810000    ....    STR      r0,[r1,#0]
        0x00000674:    e30c0f01    ....    MOV      r0,#0xcf01
        0x00000678:    e59f1910    ....    LDR      r1,[pc,#2320] ; [0xf90] = 0xe679061c
        0x0000067c:    e5810000    ....    STR      r0,[r1,#0]
        0x00000680:    e30c0f01    ....    MOV      r0,#0xcf01
        0x00000684:    e59f1908    ....    LDR      r1,[pc,#2312] ; [0xf94] = 0xe679065c
        0x00000688:    e5810000    ....    STR      r0,[r1,#0]
        0x0000068c:    e30c0f01    ....    MOV      r0,#0xcf01
        0x00000690:    e59f1900    ....    LDR      r1,[pc,#2304] ; [0xf98] = 0xe679069c
        0x00000694:    e5810000    ....    STR      r0,[r1,#0]
        0x00000698:    e30c0f01    ....    MOV      r0,#0xcf01
        0x0000069c:    e59f18f8    ....    LDR      r1,[pc,#2296] ; [0xf9c] = 0xe67906dc
        0x000006a0:    e5810000    ....    STR      r0,[r1,#0]
        0x000006a4:    e3a06001    .`..    MOV      r6,#1
        0x000006a8:    e59f08f0    ....    LDR      r0,[pc,#2288] ; [0xfa0] = 0xe6790600
        0x000006ac:    e5907000    .p..    LDR      r7,[r0,#0]
        0x000006b0:    e0067007    .p..    AND      r7,r6,r7
        0x000006b4:    e1560007    ..V.    CMP      r6,r7
        0x000006b8:    1afffffa    ....    BNE      0x6a8 ; ddr_init_start + 1280
        0x000006bc:    e59f08e0    ....    LDR      r0,[pc,#2272] ; [0xfa4] = 0xe6790640
        0x000006c0:    e5907000    .p..    LDR      r7,[r0,#0]
        0x000006c4:    e0067007    .p..    AND      r7,r6,r7
        0x000006c8:    e1560007    ..V.    CMP      r6,r7
        0x000006cc:    1afffff5    ....    BNE      0x6a8 ; ddr_init_start + 1280
        0x000006d0:    e59f08d0    ....    LDR      r0,[pc,#2256] ; [0xfa8] = 0xe6790680
        0x000006d4:    e5907000    .p..    LDR      r7,[r0,#0]
        0x000006d8:    e0067007    .p..    AND      r7,r6,r7
        0x000006dc:    e1560007    ..V.    CMP      r6,r7
        0x000006e0:    1afffff0    ....    BNE      0x6a8 ; ddr_init_start + 1280
        0x000006e4:    e59f08c0    ....    LDR      r0,[pc,#2240] ; [0xfac] = 0xe67906c0
        0x000006e8:    e5907000    .p..    LDR      r7,[r0,#0]
        0x000006ec:    e0067007    .p..    AND      r7,r6,r7
        0x000006f0:    e1560007    ..V.    CMP      r6,r7
        0x000006f4:    1affffeb    ....    BNE      0x6a8 ; ddr_init_start + 1280
        0x000006f8:    e59f086c    l...    LDR      r0,[pc,#2156] ; [0xf6c] = 0xe6790000
        0x000006fc:    e59f08ac    ....    LDR      r0,[pc,#2220] ; [0xfb0] = 0x8840000
        0x00000700:    e59f18ac    ....    LDR      r1,[pc,#2220] ; [0xfb4] = 0xe6790208
        0x00000704:    e5810000    ....    STR      r0,[r1,#0]
        0x00000708:    e59f08a8    ....    LDR      r0,[pc,#2216] ; [0xfb8] = 0x8840001
        0x0000070c:    e59f18a0    ....    LDR      r1,[pc,#2208] ; [0xfb4] = 0xe6790208
        0x00000710:    e5810000    ....    STR      r0,[r1,#0]
        0x00000714:    e59f08a0    ....    LDR      r0,[pc,#2208] ; [0xfbc] = 0x1840001
        0x00000718:    e59f1894    ....    LDR      r1,[pc,#2196] ; [0xfb4] = 0xe6790208
        0x0000071c:    e5810000    ....    STR      r0,[r1,#0]
        0x00000720:    e59f0898    ....    LDR      r0,[pc,#2200] ; [0xfc0] = 0xe840aff
        0x00000724:    e59f1888    ....    LDR      r1,[pc,#2184] ; [0xfb4] = 0xe6790208
        0x00000728:    e5810000    ....    STR      r0,[r1,#0]
        0x0000072c:    e59f0890    ....    LDR      r0,[pc,#2192] ; [0xfc4] = 0xe840154
        0x00000730:    e59f187c    |...    LDR      r1,[pc,#2172] ; [0xfb4] = 0xe6790208
        0x00000734:    e5810000    ....    STR      r0,[r1,#0]
        0x00000738:    e59f0888    ....    LDR      r0,[pc,#2184] ; [0xfc8] = 0xe84022e
        0x0000073c:    e59f1870    p...    LDR      r1,[pc,#2160] ; [0xfb4] = 0xe6790208
        0x00000740:    e5810000    ....    STR      r0,[r1,#0]
        0x00000744:    e59f0880    ....    LDR      r0,[pc,#2176] ; [0xfcc] = 0xd84004f
        0x00000748:    e59f1864    d...    LDR      r1,[pc,#2148] ; [0xfb4] = 0xe6790208
        0x0000074c:    e5810000    ....    STR      r0,[r1,#0]
        0x00000750:    e59f0878    x...    LDR      r0,[pc,#2168] ; [0xfd0] = 0xd840051
        0x00000754:    e59f1858    X...    LDR      r1,[pc,#2136] ; [0xfb4] = 0xe6790208
        0x00000758:    e5810000    ....    STR      r0,[r1,#0]
        0x0000075c:    e59f0870    p...    LDR      r0,[pc,#2160] ; [0xfd4] = 0x70000100
        0x00000760:    e59f1870    p...    LDR      r1,[pc,#2160] ; [0xfd8] = 0xe6790804
        0x00000764:    e5810000    ....    STR      r0,[r1,#0]
        0x00000768:    e59f086c    l...    LDR      r0,[pc,#2156] ; [0xfdc] = 0x18010001
        0x0000076c:    e59f186c    l...    LDR      r1,[pc,#2156] ; [0xfe0] = 0xe6790800
        0x00000770:    e5810000    ....    STR      r0,[r1,#0]
        0x00000774:    e59f0868    h...    LDR      r0,[pc,#2152] ; [0xfe4] = 0x81860
        0x00000778:    e59f1868    h...    LDR      r1,[pc,#2152] ; [0xfe8] = 0xe6790414
        0x0000077c:    e5810000    ....    STR      r0,[r1,#0]
        0x00000780:    e3a00801    ....    MOV      r0,#0x10000
        0x00000784:    e59f1860    `...    LDR      r1,[pc,#2144] ; [0xfec] = 0xe6790418
        0x00000788:    e5810000    ....    STR      r0,[r1,#0]
        0x0000078c:    e3a00001    ....    MOV      r0,#1
        0x00000790:    e59f1858    X...    LDR      r1,[pc,#2136] ; [0xff0] = 0xe6790204
        0x00000794:    e5810000    ....    STR      r0,[r1,#0]
        0x00000798:    e30a055a    Z...    MOV      r0,#0xa55a
        0x0000079c:    e59f1850    P...    LDR      r1,[pc,#2128] ; [0xff4] = 0xe6790620
        0x000007a0:    e5810000    ....    STR      r0,[r1,#0]
        0x000007a4:    e30a055a    Z...    MOV      r0,#0xa55a
        0x000007a8:    e59f1848    H...    LDR      r1,[pc,#2120] ; [0xff8] = 0xe6790660
        0x000007ac:    e5810000    ....    STR      r0,[r1,#0]
        0x000007b0:    e30a055a    Z...    MOV      r0,#0xa55a
        0x000007b4:    e59f1840    @...    LDR      r1,[pc,#2112] ; [0xffc] = 0xe67906a0
        0x000007b8:    e5810000    ....    STR      r0,[r1,#0]
        0x000007bc:    e30a055a    Z...    MOV      r0,#0xa55a
        0x000007c0:    e59f1838    8...    LDR      r1,[pc,#2104] ; [0x1000] = 0xe67906e0
        0x000007c4:    e5810000    ....    STR      r0,[r1,#0]
        0x000007c8:    e3a00001    ....    MOV      r0,#1
        0x000007cc:    e59f1830    0...    LDR      r1,[pc,#2096] ; [0x1004] = 0xe6790200
        0x000007d0:    e5810000    ....    STR      r0,[r1,#0]
        0x000007d4:    e3a00001    ....    MOV      r0,#1
        0x000007d8:    e59f1828    (...    LDR      r1,[pc,#2088] ; [0x1008] = 0xe67f0024
        0x000007dc:    e5810000    ....    STR      r0,[r1,#0]
        0x000007e0:    e3a00000    ....    MOV      r0,#0
        0x000007e4:    e59f1820     ...    LDR      r1,[pc,#2080] ; [0x100c] = 0xe67f0018
        0x000007e8:    e5810000    ....    STR      r0,[r1,#0]
        0x000007ec:    e3010234    4...    MOV      r0,#0x1234
        0x000007f0:    e59f1818    ....    LDR      r1,[pc,#2072] ; [0x1010] = 0xe6798100
        0x000007f4:    e5810000    ....    STR      r0,[r1,#0]
        0x000007f8:    e3010234    4...    MOV      r0,#0x1234
        0x000007fc:    e59f1810    ....    LDR      r1,[pc,#2064] ; [0x1014] = 0xe6798108
        0x00000800:    e5810000    ....    STR      r0,[r1,#0]
        0x00000804:    e3a0000a    ....    MOV      r0,#0xa
        0x00000808:    e59f1808    ....    LDR      r1,[pc,#2056] ; [0x1018] = 0xe6798020
        0x0000080c:    e5810000    ....    STR      r0,[r1,#0]
        0x00000810:    e3a0000a    ....    MOV      r0,#0xa
        0x00000814:    e59f1800    ....    LDR      r1,[pc,#2048] ; [0x101c] = 0xe6798024
        0x00000818:    e5810000    ....    STR      r0,[r1,#0]
        0x0000081c:    e59f05c4    ....    LDR      r0,[pc,#1476] ; [0xde8] = 0xe030a01
        0x00000820:    e59f17f8    ....    LDR      r1,[pc,#2040] ; [0x1020] = 0xe6798030
        0x00000824:    e5810000    ....    STR      r0,[r1,#0]
        0x00000828:    e59f05b8    ....    LDR      r0,[pc,#1464] ; [0xde8] = 0xe030a01
        0x0000082c:    e59f17f0    ....    LDR      r1,[pc,#2032] ; [0x1024] = 0xe6798070
        0x00000830:    e5810000    ....    STR      r0,[r1,#0]
        0x00000834:    e59f05ac    ....    LDR      r0,[pc,#1452] ; [0xde8] = 0xe030a01
        0x00000838:    e59f17e8    ....    LDR      r1,[pc,#2024] ; [0x1028] = 0xe6798034
        0x0000083c:    e5810000    ....    STR      r0,[r1,#0]
        0x00000840:    e59f05a0    ....    LDR      r0,[pc,#1440] ; [0xde8] = 0xe030a01
        0x00000844:    e59f17e0    ....    LDR      r1,[pc,#2016] ; [0x102c] = 0xe6798074
        0x00000848:    e5810000    ....    STR      r0,[r1,#0]
        0x0000084c:    e59f0594    ....    LDR      r0,[pc,#1428] ; [0xde8] = 0xe030a01
        0x00000850:    e59f17d8    ....    LDR      r1,[pc,#2008] ; [0x1030] = 0xe6798040
        0x00000854:    e5810000    ....    STR      r0,[r1,#0]
        0x00000858:    e59f0588    ....    LDR      r0,[pc,#1416] ; [0xde8] = 0xe030a01
        0x0000085c:    e59f17d0    ....    LDR      r1,[pc,#2000] ; [0x1034] = 0xe6798080
        0x00000860:    e5810000    ....    STR      r0,[r1,#0]
        0x00000864:    e59f057c    |...    LDR      r0,[pc,#1404] ; [0xde8] = 0xe030a01
        0x00000868:    e59f17c8    ....    LDR      r1,[pc,#1992] ; [0x1038] = 0xe6798044
        0x0000086c:    e5810000    ....    STR      r0,[r1,#0]
        0x00000870:    e59f0570    p...    LDR      r0,[pc,#1392] ; [0xde8] = 0xe030a01
        0x00000874:    e59f17c0    ....    LDR      r1,[pc,#1984] ; [0x103c] = 0xe6798084
        0x00000878:    e5810000    ....    STR      r0,[r1,#0]
        0x0000087c:    e59f0564    d...    LDR      r0,[pc,#1380] ; [0xde8] = 0xe030a01
        0x00000880:    e59f17b8    ....    LDR      r1,[pc,#1976] ; [0x1040] = 0xe6798050
        0x00000884:    e5810000    ....    STR      r0,[r1,#0]
        0x00000888:    e59f0558    X...    LDR      r0,[pc,#1368] ; [0xde8] = 0xe030a01
        0x0000088c:    e59f17b0    ....    LDR      r1,[pc,#1968] ; [0x1044] = 0xe6798090
        0x00000890:    e5810000    ....    STR      r0,[r1,#0]
        0x00000894:    e59f054c    L...    LDR      r0,[pc,#1356] ; [0xde8] = 0xe030a01
        0x00000898:    e59f17a8    ....    LDR      r1,[pc,#1960] ; [0x1048] = 0xe6798054
        0x0000089c:    e5810000    ....    STR      r0,[r1,#0]
        0x000008a0:    e59f0540    @...    LDR      r0,[pc,#1344] ; [0xde8] = 0xe030a01
        0x000008a4:    e59f17a0    ....    LDR      r1,[pc,#1952] ; [0x104c] = 0xe6798094
        0x000008a8:    e5810000    ....    STR      r0,[r1,#0]
        0x000008ac:    e59f0534    4...    LDR      r0,[pc,#1332] ; [0xde8] = 0xe030a01
        0x000008b0:    e59f1798    ....    LDR      r1,[pc,#1944] ; [0x1050] = 0xe6798060
        0x000008b4:    e5810000    ....    STR      r0,[r1,#0]
        0x000008b8:    e59f0528    (...    LDR      r0,[pc,#1320] ; [0xde8] = 0xe030a01
        0x000008bc:    e59f1790    ....    LDR      r1,[pc,#1936] ; [0x1054] = 0xe67980a0
        0x000008c0:    e5810000    ....    STR      r0,[r1,#0]
        0x000008c4:    e59f051c    ....    LDR      r0,[pc,#1308] ; [0xde8] = 0xe030a01
        0x000008c8:    e59f1788    ....    LDR      r1,[pc,#1928] ; [0x1058] = 0xe6798064
        0x000008cc:    e5810000    ....    STR      r0,[r1,#0]
        0x000008d0:    e59f0510    ....    LDR      r0,[pc,#1296] ; [0xde8] = 0xe030a01
        0x000008d4:    e59f1780    ....    LDR      r1,[pc,#1920] ; [0x105c] = 0xe67980a4
        0x000008d8:    e5810000    ....    STR      r0,[r1,#0]
        0x000008dc:    e3a00000    ....    MOV      r0,#0
        0x000008e0:    e59f1778    x...    LDR      r1,[pc,#1912] ; [0x1060] = 0xe6798104
        0x000008e4:    e5810000    ....    STR      r0,[r1,#0]
        0x000008e8:    e3a00001    ....    MOV      r0,#1
        0x000008ec:    e59f1770    p...    LDR      r1,[pc,#1904] ; [0x1064] = 0xe6798010
        0x000008f0:    e5810000    ....    STR      r0,[r1,#0]
        0x000008f4:    e3a00028    (...    MOV      r0,#0x28
        0x000008f8:    e59f1768    h...    LDR      r1,[pc,#1896] ; [0x1068] = 0xe6798300
        0x000008fc:    e5810000    ....    STR      r0,[r1,#0]
        0x00000900:    e3a00012    ....    MOV      r0,#0x12
        0x00000904:    e59f1760    `...    LDR      r1,[pc,#1888] ; [0x106c] = 0xe6798304
        0x00000908:    e5810000    ....    STR      r0,[r1,#0]
        0x0000090c:    e3a00027    '...    MOV      r0,#0x27
        0x00000910:    e59f1758    X...    LDR      r1,[pc,#1880] ; [0x1070] = 0xe679830c
        0x00000914:    e5810000    ....    STR      r0,[r1,#0]
        0x00000918:    e59f0520     ...    LDR      r0,[pc,#1312] ; [0xe40] = 0x2d0027
        0x0000091c:    e59f1750    P...    LDR      r1,[pc,#1872] ; [0x1074] = 0xe6798310
        0x00000920:    e5810000    ....    STR      r0,[r1,#0]
        0x00000924:    e3a00087    ....    MOV      r0,#0x87
        0x00000928:    e59f1748    H...    LDR      r1,[pc,#1864] ; [0x1078] = 0xe6798314
        0x0000092c:    e5810000    ....    STR      r0,[r1,#0]
        0x00000930:    e3a0005a    Z...    MOV      r0,#0x5a
        0x00000934:    e59f1740    @...    LDR      r1,[pc,#1856] ; [0x107c] = 0xe6798318
        0x00000938:    e5810000    ....    STR      r0,[r1,#0]
        0x0000093c:    e59f050c    ....    LDR      r0,[pc,#1292] ; [0xe50] = 0x100010
        0x00000940:    e59f1738    8...    LDR      r1,[pc,#1848] ; [0x1080] = 0xe679831c
        0x00000944:    e5810000    ....    STR      r0,[r1,#0]
        0x00000948:    e3a00040    @...    MOV      r0,#0x40
        0x0000094c:    e59f1730    0...    LDR      r1,[pc,#1840] ; [0x1084] = 0xe6798320
        0x00000950:    e5810000    ....    STR      r0,[r1,#0]
        0x00000954:    e3a00010    ....    MOV      r0,#0x10
        0x00000958:    e59f1728    (...    LDR      r1,[pc,#1832] ; [0x1088] = 0xe6798324
        0x0000095c:    e5810000    ....    STR      r0,[r1,#0]
        0x00000960:    e3a00029    )...    MOV      r0,#0x29
        0x00000964:    e59f1720     ...    LDR      r1,[pc,#1824] ; [0x108c] = 0xe6798328
        0x00000968:    e5810000    ....    STR      r0,[r1,#0]
        0x0000096c:    e3a00029    )...    MOV      r0,#0x29
        0x00000970:    e59f1718    ....    LDR      r1,[pc,#1816] ; [0x1090] = 0xe679832c
        0x00000974:    e5810000    ....    STR      r0,[r1,#0]
        0x00000978:    e59f04e8    ....    LDR      r0,[pc,#1256] ; [0xe68] = 0x310031
        0x0000097c:    e59f1710    ....    LDR      r1,[pc,#1808] ; [0x1094] = 0xe6798330
        0x00000980:    e5810000    ....    STR      r0,[r1,#0]
        0x00000984:    e3000116    ....    MOVW     r0,#0x116
        0x00000988:    e59f1708    ....    LDR      r1,[pc,#1800] ; [0x1098] = 0xe6798334
        0x0000098c:    e5810000    ....    STR      r0,[r1,#0]
        0x00000990:    e59f04dc    ....    LDR      r0,[pc,#1244] ; [0xe74] = 0x130013
        0x00000994:    e59f1700    ....    LDR      r1,[pc,#1792] ; [0x109c] = 0xe6798338
        0x00000998:    e5810000    ....    STR      r0,[r1,#0]
        0x0000099c:    e59f04d8    ....    LDR      r0,[pc,#1240] ; [0xe7c] = 0x200010
        0x000009a0:    e59f16f8    ....    LDR      r1,[pc,#1784] ; [0x10a0] = 0xe679833c
        0x000009a4:    e5810000    ....    STR      r0,[r1,#0]
        0x000009a8:    e59f04d4    ....    LDR      r0,[pc,#1236] ; [0xe84] = 0xd400a0e
        0x000009ac:    e59f16f0    ....    LDR      r1,[pc,#1776] ; [0x10a4] = 0xe6798340
        0x000009b0:    e5810000    ....    STR      r0,[r1,#0]
        0x000009b4:    e59f04d0    ....    LDR      r0,[pc,#1232] ; [0xe8c] = 0x81e0000
        0x000009b8:    e59f16e8    ....    LDR      r1,[pc,#1768] ; [0x10a8] = 0xe6798344
        0x000009bc:    e5810000    ....    STR      r0,[r1,#0]
        0x000009c0:    e59f04cc    ....    LDR      r0,[pc,#1228] ; [0xe94] = 0x1290129
        0x000009c4:    e59f16e0    ....    LDR      r1,[pc,#1760] ; [0x10ac] = 0xe6798350
        0x000009c8:    e5810000    ....    STR      r0,[r1,#0]
        0x000009cc:    e59f04c8    ....    LDR      r0,[pc,#1224] ; [0xe9c] = 0x80008
        0x000009d0:    e59f16d8    ....    LDR      r1,[pc,#1752] ; [0x10b0] = 0xe6798354
        0x000009d4:    e5810000    ....    STR      r0,[r1,#0]
        0x000009d8:    e59f04c4    ....    LDR      r0,[pc,#1220] ; [0xea4] = 0x8550040
        0x000009dc:    e59f16d0    ....    LDR      r1,[pc,#1744] ; [0x10b4] = 0xe6798358
        0x000009e0:    e5810000    ....    STR      r0,[r1,#0]
        0x000009e4:    e3a00003    ....    MOV      r0,#3
        0x000009e8:    e59f16c8    ....    LDR      r1,[pc,#1736] ; [0x10b8] = 0xe679835c
        0x000009ec:    e5810000    ....    STR      r0,[r1,#0]
        0x000009f0:    e3a00002    ....    MOV      r0,#2
        0x000009f4:    e59f16c0    ....    LDR      r1,[pc,#1728] ; [0x10bc] = 0xe6798400
        0x000009f8:    e5810000    ....    STR      r0,[r1,#0]
        0x000009fc:    e3a00002    ....    MOV      r0,#2
        0x00000a00:    e59f16b8    ....    LDR      r1,[pc,#1720] ; [0x10c0] = 0xe6798404
        0x00000a04:    e5810000    ....    STR      r0,[r1,#0]
        0x00000a08:    e3040444    D...    MOV      r0,#0x4444
        0x00000a0c:    e59f16b0    ....    LDR      r1,[pc,#1712] ; [0x10c4] = 0xe6798438
        0x00000a10:    e5810000    ....    STR      r0,[r1,#0]
        0x00000a14:    e3040444    D...    MOV      r0,#0x4444
        0x00000a18:    e59f16a8    ....    LDR      r1,[pc,#1704] ; [0x10c8] = 0xe679843c
        0x00000a1c:    e5810000    ....    STR      r0,[r1,#0]
        0x00000a20:    e3040444    D...    MOV      r0,#0x4444
        0x00000a24:    e59f16a0    ....    LDR      r1,[pc,#1696] ; [0x10cc] = 0xe6798440
        0x00000a28:    e5810000    ....    STR      r0,[r1,#0]
        0x00000a2c:    e3040444    D...    MOV      r0,#0x4444
        0x00000a30:    e59f1698    ....    LDR      r1,[pc,#1688] ; [0x10d0] = 0xe6798444
        0x00000a34:    e5810000    ....    STR      r0,[r1,#0]
        0x00000a38:    e59f0488    ....    LDR      r0,[pc,#1160] ; [0xec8] = 0x104214
        0x00000a3c:    e59f1690    ....    LDR      r1,[pc,#1680] ; [0x10d4] = 0xe6798904
        0x00000a40:    e5810000    ....    STR      r0,[r1,#0]
        0x00000a44:    e3a00f71    q...    MOV      r0,#0x1c4
        0x00000a48:    e59f1688    ....    LDR      r1,[pc,#1672] ; [0x10d8] = 0xe6798908
        0x00000a4c:    e5810000    ....    STR      r0,[r1,#0]
        0x00000a50:    e3a00003    ....    MOV      r0,#3
        0x00000a54:    e59f1680    ....    LDR      r1,[pc,#1664] ; [0x10dc] = 0xe679890c
        0x00000a58:    e5810000    ....    STR      r0,[r1,#0]
        0x00000a5c:    e59f0474    t...    LDR      r0,[pc,#1140] ; [0xed8] = 0xf0037
        0x00000a60:    e59f1678    x...    LDR      r1,[pc,#1656] ; [0x10e0] = 0xe6799000
        0x00000a64:    e5810000    ....    STR      r0,[r1,#0]
        0x00000a68:    e3010010    ....    MOV      r0,#0x1010
        0x00000a6c:    e59f1670    p...    LDR      r1,[pc,#1648] ; [0x10e4] = 0xe6799004
        0x00000a70:    e5810000    ....    STR      r0,[r1,#0]
        0x00000a74:    e3a00001    ....    MOV      r0,#1
        0x00000a78:    e59f1668    h...    LDR      r1,[pc,#1640] ; [0x10e8] = 0xe6799010
        0x00000a7c:    e5810000    ....    STR      r0,[r1,#0]
        0x00000a80:    e59f0460    `...    LDR      r0,[pc,#1120] ; [0xee8] = 0xf7311111
        0x00000a84:    e59f1660    `...    LDR      r1,[pc,#1632] ; [0x10ec] = 0xe6799020
        0x00000a88:    e5810000    ....    STR      r0,[r1,#0]
        0x00000a8c:    e3010834    4...    MOV      r0,#0x1834
        0x00000a90:    e59f1658    X...    LDR      r1,[pc,#1624] ; [0x10f0] = 0xe6799024
        0x00000a94:    e5810000    ....    STR      r0,[r1,#0]
        0x00000a98:    e3e00000    ....    MVN      r0,#0
        0x00000a9c:    e59f1650    P...    LDR      r1,[pc,#1616] ; [0x10f4] = 0xe6799030
        0x00000aa0:    e5810000    ....    STR      r0,[r1,#0]
        0x00000aa4:    e3a00d12    ....    MOV      r0,#0x480
        0x00000aa8:    e59f1648    H...    LDR      r1,[pc,#1608] ; [0x10f8] = 0xe6799034
        0x00000aac:    e5810000    ....    STR      r0,[r1,#0]
        0x00000ab0:    e3a00c03    ....    MOV      r0,#0x300
        0x00000ab4:    e59f1640    @...    LDR      r1,[pc,#1600] ; [0x10fc] = 0xe6799038
        0x00000ab8:    e5810000    ....    STR      r0,[r1,#0]
        0x00000abc:    e3a00d06    ....    MOV      r0,#0x180
        0x00000ac0:    e59f1638    8...    LDR      r1,[pc,#1592] ; [0x1100] = 0xe679903c
        0x00000ac4:    e5810000    ....    STR      r0,[r1,#0]
        0x00000ac8:    e3a00c06    ....    MOV      r0,#0x600
        0x00000acc:    e59f1630    0...    LDR      r1,[pc,#1584] ; [0x1104] = 0xe6799070
        0x00000ad0:    e5810000    ....    STR      r0,[r1,#0]
        0x00000ad4:    e3a00d12    ....    MOV      r0,#0x480
        0x00000ad8:    e59f1628    (...    LDR      r1,[pc,#1576] ; [0x1108] = 0xe6799074
        0x00000adc:    e5810000    ....    STR      r0,[r1,#0]
        0x00000ae0:    e3a00c03    ....    MOV      r0,#0x300
        0x00000ae4:    e59f1620     ...    LDR      r1,[pc,#1568] ; [0x110c] = 0xe6799078
        0x00000ae8:    e5810000    ....    STR      r0,[r1,#0]
        0x00000aec:    e3a00d06    ....    MOV      r0,#0x180
        0x00000af0:    e59f1618    ....    LDR      r1,[pc,#1560] ; [0x1110] = 0xe679907c
        0x00000af4:    e5810000    ....    STR      r0,[r1,#0]
        0x00000af8:    e3a00b01    ....    MOV      r0,#0x400
        0x00000afc:    e59f1610    ....    LDR      r1,[pc,#1552] ; [0x1114] = 0xe67990c0
        0x00000b00:    e5810000    ....    STR      r0,[r1,#0]
        0x00000b04:    e3a00c03    ....    MOV      r0,#0x300
        0x00000b08:    e59f1608    ....    LDR      r1,[pc,#1544] ; [0x1118] = 0xe67990c4
        0x00000b0c:    e5810000    ....    STR      r0,[r1,#0]
        0x00000b10:    e3a00c02    ....    MOV      r0,#0x200
        0x00000b14:    e59f1600    ....    LDR      r1,[pc,#1536] ; [0x111c] = 0xe67990c8
        0x00000b18:    e5810000    ....    STR      r0,[r1,#0]
        0x00000b1c:    e3a00c01    ....    MOV      r0,#0x100
        0x00000b20:    e59f15f8    ....    LDR      r1,[pc,#1528] ; [0x1120] = 0xe67990cc
        0x00000b24:    e5810000    ....    STR      r0,[r1,#0]
        0x00000b28:    e3a00c03    ....    MOV      r0,#0x300
        0x00000b2c:    e59f15f0    ....    LDR      r1,[pc,#1520] ; [0x1124] = 0xe6799100
        0x00000b30:    e5810000    ....    STR      r0,[r1,#0]
        0x00000b34:    e3a00d09    ....    MOV      r0,#0x240
        0x00000b38:    e59f15e8    ....    LDR      r1,[pc,#1512] ; [0x1128] = 0xe6799104
        0x00000b3c:    e5810000    ....    STR      r0,[r1,#0]
        0x00000b40:    e3a00d06    ....    MOV      r0,#0x180
        0x00000b44:    e59f15e0    ....    LDR      r1,[pc,#1504] ; [0x112c] = 0xe6799108
        0x00000b48:    e5810000    ....    STR      r0,[r1,#0]
        0x00000b4c:    e3a000c0    ....    MOV      r0,#0xc0
        0x00000b50:    e59f15d8    ....    LDR      r1,[pc,#1496] ; [0x1130] = 0xe679910c
        0x00000b54:    e5810000    ....    STR      r0,[r1,#0]
        0x00000b58:    e3a00c02    ....    MOV      r0,#0x200
        0x00000b5c:    e59f15d0    ....    LDR      r1,[pc,#1488] ; [0x1134] = 0xe6799110
        0x00000b60:    e5810000    ....    STR      r0,[r1,#0]
        0x00000b64:    e3a00d06    ....    MOV      r0,#0x180
        0x00000b68:    e59f15c8    ....    LDR      r1,[pc,#1480] ; [0x1138] = 0xe6799114
        0x00000b6c:    e5810000    ....    STR      r0,[r1,#0]
        0x00000b70:    e3a00c01    ....    MOV      r0,#0x100
        0x00000b74:    e59f15c0    ....    LDR      r1,[pc,#1472] ; [0x113c] = 0xe6799118
        0x00000b78:    e5810000    ....    STR      r0,[r1,#0]
        0x00000b7c:    e3a00080    ....    MOV      r0,#0x80
        0x00000b80:    e59f15b8    ....    LDR      r1,[pc,#1464] ; [0x1140] = 0xe679911c
        0x00000b84:    e5810000    ....    STR      r0,[r1,#0]
        0x00000b88:    e3a00c01    ....    MOV      r0,#0x100
        0x00000b8c:    e59f15b0    ....    LDR      r1,[pc,#1456] ; [0x1144] = 0xe6799120
        0x00000b90:    e5810000    ....    STR      r0,[r1,#0]
        0x00000b94:    e3a000c0    ....    MOV      r0,#0xc0
        0x00000b98:    e59f15a8    ....    LDR      r1,[pc,#1448] ; [0x1148] = 0xe6799124
        0x00000b9c:    e5810000    ....    STR      r0,[r1,#0]
        0x00000ba0:    e3a00080    ....    MOV      r0,#0x80
        0x00000ba4:    e59f15a0    ....    LDR      r1,[pc,#1440] ; [0x114c] = 0xe6799128
        0x00000ba8:    e5810000    ....    STR      r0,[r1,#0]
        0x00000bac:    e3a00040    @...    MOV      r0,#0x40
        0x00000bb0:    e59f1598    ....    LDR      r1,[pc,#1432] ; [0x1150] = 0xe679912c
        0x00000bb4:    e5810000    ....    STR      r0,[r1,#0]
        0x00000bb8:    e59f0394    ....    LDR      r0,[pc,#916] ; [0xf54] = 0x220e110a
        0x00000bbc:    e59f1590    ....    LDR      r1,[pc,#1424] ; [0x1154] = 0xe6799700
        0x00000bc0:    e5810000    ....    STR      r0,[r1,#0]
        0x00000bc4:    e59f0390    ....    LDR      r0,[pc,#912] ; [0xf5c] = 0xb0d0a0c
        0x00000bc8:    e59f1588    ....    LDR      r1,[pc,#1416] ; [0x1158] = 0xe6799708
        0x00000bcc:    e5810000    ....    STR      r0,[r1,#0]
        0x00000bd0:    e59f038c    ....    LDR      r0,[pc,#908] ; [0xf64] = 0x111f1fff
        0x00000bd4:    e59f1580    ....    LDR      r1,[pc,#1408] ; [0x115c] = 0xe679970c
        0x00000bd8:    e5810000    ....    STR      r0,[r1,#0]
        0x00000bdc:    e3a00001    ....    MOV      r0,#1
        0x00000be0:    e59f1578    x...    LDR      r1,[pc,#1400] ; [0x1160] = 0xe6798000
        0x00000be4:    e5810000    ....    STR      r0,[r1,#0]
        0x00000be8:    e3a00002    ....    MOV      r0,#2
        0x00000bec:    e59f1570    p...    LDR      r1,[pc,#1392] ; [0x1164] = 0xe6798004
        0x00000bf0:    e5810000    ....    STR      r0,[r1,#0]
        0x00000bf4:    e3a00002    ....    MOV      r0,#2
        0x00000bf8:    e59f1568    h...    LDR      r1,[pc,#1384] ; [0x1168] = 0xe6798008
        0x00000bfc:    e5810000    ....    STR      r0,[r1,#0]
        0x00000c00:    e3a00001    ....    MOV      r0,#1
        0x00000c04:    e59f1560    `...    LDR      r1,[pc,#1376] ; [0x116c] = 0xe679800c
        0x00000c08:    e5810000    ....    STR      r0,[r1,#0]
        0x00000c0c:    e3a00041    A...    MOV      r0,#0x41
        0x00000c10:    e59f1558    X...    LDR      r1,[pc,#1368] ; [0x1170] = 0xe6798014
        0x00000c14:    e5810000    ....    STR      r0,[r1,#0]
        0x00000c18:    e3a00011    ....    MOV      r0,#0x11
        0x00000c1c:    e59f1550    P...    LDR      r1,[pc,#1360] ; [0x1174] = 0xe6798604
        0x00000c20:    e5810000    ....    STR      r0,[r1,#0]
        0x00000c24:    e3a00011    ....    MOV      r0,#0x11
        0x00000c28:    e59f1548    H...    LDR      r1,[pc,#1352] ; [0x1178] = 0xe6798644
        0x00000c2c:    e5810000    ....    STR      r0,[r1,#0]
        0x00000c30:    e3a00011    ....    MOV      r0,#0x11
        0x00000c34:    e59f1540    @...    LDR      r1,[pc,#1344] ; [0x117c] = 0xe6798684
        0x00000c38:    e5810000    ....    STR      r0,[r1,#0]
        0x00000c3c:    e3a00011    ....    MOV      r0,#0x11
        0x00000c40:    e59f1538    8...    LDR      r1,[pc,#1336] ; [0x1180] = 0xe67986c4
        0x00000c44:    e5810000    ....    STR      r0,[r1,#0]
        0x00000c48:    e30c0f01    ....    MOV      r0,#0xcf01
        0x00000c4c:    e59f1530    0...    LDR      r1,[pc,#1328] ; [0x1184] = 0xe679861c
        0x00000c50:    e5810000    ....    STR      r0,[r1,#0]
        0x00000c54:    e30c0f01    ....    MOV      r0,#0xcf01
        0x00000c58:    e59f1528    (...    LDR      r1,[pc,#1320] ; [0x1188] = 0xe679865c
        0x00000c5c:    e5810000    ....    STR      r0,[r1,#0]
        0x00000c60:    e30c0f01    ....    MOV      r0,#0xcf01
        0x00000c64:    e59f1520     ...    LDR      r1,[pc,#1312] ; [0x118c] = 0xe679869c
        0x00000c68:    e5810000    ....    STR      r0,[r1,#0]
        0x00000c6c:    e30c0f01    ....    MOV      r0,#0xcf01
        0x00000c70:    e59f1518    ....    LDR      r1,[pc,#1304] ; [0x1190] = 0xe67986dc
        0x00000c74:    e5810000    ....    STR      r0,[r1,#0]
        0x00000c78:    e3a06001    .`..    MOV      r6,#1
        0x00000c7c:    e59f0510    ....    LDR      r0,[pc,#1296] ; [0x1194] = 0xe6798600
        0x00000c80:    e5907000    .p..    LDR      r7,[r0,#0]
        0x00000c84:    e0067007    .p..    AND      r7,r6,r7
        0x00000c88:    e1560007    ..V.    CMP      r6,r7
        0x00000c8c:    1afffffa    ....    BNE      0xc7c ; ddr_init_start + 2772
        0x00000c90:    e59f0500    ....    LDR      r0,[pc,#1280] ; [0x1198] = 0xe6798640
        0x00000c94:    e5907000    .p..    LDR      r7,[r0,#0]
        0x00000c98:    e0067007    .p..    AND      r7,r6,r7
        0x00000c9c:    e1560007    ..V.    CMP      r6,r7
        0x00000ca0:    1afffff5    ....    BNE      0xc7c ; ddr_init_start + 2772
        0x00000ca4:    e59f04f0    ....    LDR      r0,[pc,#1264] ; [0x119c] = 0xe6798680
        0x00000ca8:    e5907000    .p..    LDR      r7,[r0,#0]
        0x00000cac:    e0067007    .p..    AND      r7,r6,r7
        0x00000cb0:    e1560007    ..V.    CMP      r6,r7
        0x00000cb4:    1afffff0    ....    BNE      0xc7c ; ddr_init_start + 2772
        0x00000cb8:    e59f04e0    ....    LDR      r0,[pc,#1248] ; [0x11a0] = 0xe67986c0
        0x00000cbc:    e5907000    .p..    LDR      r7,[r0,#0]
        0x00000cc0:    e0067007    .p..    AND      r7,r6,r7
        0x00000cc4:    e1560007    ..V.    CMP      r6,r7
        0x00000cc8:    1affffeb    ....    BNE      0xc7c ; ddr_init_start + 2772
        0x00000ccc:    e59f048c    ....    LDR      r0,[pc,#1164] ; [0x1160] = 0xe6798000
        0x00000cd0:    e59f02d8    ....    LDR      r0,[pc,#728] ; [0xfb0] = 0x8840000
        0x00000cd4:    e59f14c8    ....    LDR      r1,[pc,#1224] ; [0x11a4] = 0xe6798208
        0x00000cd8:    e5810000    ....    STR      r0,[r1,#0]
        0x00000cdc:    e59f02d4    ....    LDR      r0,[pc,#724] ; [0xfb8] = 0x8840001
        0x00000ce0:    e59f14bc    ....    LDR      r1,[pc,#1212] ; [0x11a4] = 0xe6798208
        0x00000ce4:    e5810000    ....    STR      r0,[r1,#0]
        0x00000ce8:    e59f02cc    ....    LDR      r0,[pc,#716] ; [0xfbc] = 0x1840001
        0x00000cec:    e59f14b0    ....    LDR      r1,[pc,#1200] ; [0x11a4] = 0xe6798208
        0x00000cf0:    e5810000    ....    STR      r0,[r1,#0]
        0x00000cf4:    e59f02c4    ....    LDR      r0,[pc,#708] ; [0xfc0] = 0xe840aff
        0x00000cf8:    e59f14a4    ....    LDR      r1,[pc,#1188] ; [0x11a4] = 0xe6798208
        0x00000cfc:    e5810000    ....    STR      r0,[r1,#0]
        0x00000d00:    e59f02bc    ....    LDR      r0,[pc,#700] ; [0xfc4] = 0xe840154
        0x00000d04:    e59f1498    ....    LDR      r1,[pc,#1176] ; [0x11a4] = 0xe6798208
        0x00000d08:    e5810000    ....    STR      r0,[r1,#0]
        0x00000d0c:    e59f02b4    ....    LDR      r0,[pc,#692] ; [0xfc8] = 0xe84022e
        0x00000d10:    e59f148c    ....    LDR      r1,[pc,#1164] ; [0x11a4] = 0xe6798208
        0x00000d14:    e5810000    ....    STR      r0,[r1,#0]
        0x00000d18:    e59f02ac    ....    LDR      r0,[pc,#684] ; [0xfcc] = 0xd84004f
        0x00000d1c:    e59f1480    ....    LDR      r1,[pc,#1152] ; [0x11a4] = 0xe6798208
        0x00000d20:    e5810000    ....    STR      r0,[r1,#0]
        0x00000d24:    e59f02a4    ....    LDR      r0,[pc,#676] ; [0xfd0] = 0xd840051
        0x00000d28:    e59f1474    t...    LDR      r1,[pc,#1140] ; [0x11a4] = 0xe6798208
        0x00000d2c:    e5810000    ....    STR      r0,[r1,#0]
        0x00000d30:    e59f029c    ....    LDR      r0,[pc,#668] ; [0xfd4] = 0x70000100
        0x00000d34:    e59f146c    l...    LDR      r1,[pc,#1132] ; [0x11a8] = 0xe6798804
        0x00000d38:    e5810000    ....    STR      r0,[r1,#0]
        0x00000d3c:    e59f0298    ....    LDR      r0,[pc,#664] ; [0xfdc] = 0x18010001
        0x00000d40:    e59f1464    d...    LDR      r1,[pc,#1124] ; [0x11ac] = 0xe6798800
        0x00000d44:    e5810000    ....    STR      r0,[r1,#0]
        0x00000d48:    e59f0294    ....    LDR      r0,[pc,#660] ; [0xfe4] = 0x81860
        0x00000d4c:    e59f145c    \...    LDR      r1,[pc,#1116] ; [0x11b0] = 0xe6798414
        0x00000d50:    e5810000    ....    STR      r0,[r1,#0]
        0x00000d54:    e3a00801    ....    MOV      r0,#0x10000
        0x00000d58:    e59f1454    T...    LDR      r1,[pc,#1108] ; [0x11b4] = 0xe6798418
        0x00000d5c:    e5810000    ....    STR      r0,[r1,#0]
        0x00000d60:    e3a00001    ....    MOV      r0,#1
        0x00000d64:    e59f144c    L...    LDR      r1,[pc,#1100] ; [0x11b8] = 0xe6798204
        0x00000d68:    e5810000    ....    STR      r0,[r1,#0]
        0x00000d6c:    e30a055a    Z...    MOV      r0,#0xa55a
        0x00000d70:    e59f1444    D...    LDR      r1,[pc,#1092] ; [0x11bc] = 0xe6798620
        0x00000d74:    e5810000    ....    STR      r0,[r1,#0]
        0x00000d78:    e30a055a    Z...    MOV      r0,#0xa55a
        0x00000d7c:    e59f143c    <...    LDR      r1,[pc,#1084] ; [0x11c0] = 0xe6798660
        0x00000d80:    e5810000    ....    STR      r0,[r1,#0]
        0x00000d84:    e30a055a    Z...    MOV      r0,#0xa55a
        0x00000d88:    e59f1434    4...    LDR      r1,[pc,#1076] ; [0x11c4] = 0xe67986a0
        0x00000d8c:    e5810000    ....    STR      r0,[r1,#0]
        0x00000d90:    e30a055a    Z...    MOV      r0,#0xa55a
        0x00000d94:    e59f142c    ,...    LDR      r1,[pc,#1068] ; [0x11c8] = 0xe67986e0
        0x00000d98:    e5810000    ....    STR      r0,[r1,#0]
        0x00000d9c:    e3a00001    ....    MOV      r0,#1
        0x00000da0:    e59f1424    $...    LDR      r1,[pc,#1060] ; [0x11cc] = 0xe6798200
        0x00000da4:    e5810000    ....    STR      r0,[r1,#0]
        0x00000da8:    e3a00001    ....    MOV      r0,#1
        0x00000dac:    e59f1254    T...    LDR      r1,[pc,#596] ; [0x1008] = 0xe67f0024
        0x00000db0:    e5810000    ....    STR      r0,[r1,#0]
        0x00000db4:    e3a00000    ....    MOV      r0,#0
        0x00000db8:    e59f124c    L...    LDR      r1,[pc,#588] ; [0x100c] = 0xe67f0018
        0x00000dbc:    e5810000    ....    STR      r0,[r1,#0]
        0x00000dc0:    e59f0408    ....    LDR      r0,[pc,#1032] ; [0x11d0] = 0x138
        0x00000dc4:    e1a0f000    ....    MOV      pc,r0
        0x00000dc8:    ea000101    ....    B        __mpu_init ; 0x11d4
    $d
        0x00000dcc:    e6152e10    ....    DCD    3860147728
        0x00000dd0:    e6150000    ....    DCD    3860135936
        0x00000dd4:    e6152d10    .-..    DCD    3860147472
        0x00000dd8:    e6790100    ..y.    DCD    3866689792
        0x00000ddc:    e6790108    ..y.    DCD    3866689800
        0x00000de0:    e6790020     .y.    DCD    3866689568
        0x00000de4:    e6790024    $.y.    DCD    3866689572
        0x00000de8:    0e030a01    ....    DCD    235080193
        0x00000dec:    e6790030    0.y.    DCD    3866689584
        0x00000df0:    e6790070    p.y.    DCD    3866689648
        0x00000df4:    e6790034    4.y.    DCD    3866689588
        0x00000df8:    e6790074    t.y.    DCD    3866689652
        0x00000dfc:    e6790040    @.y.    DCD    3866689600
        0x00000e00:    e6790080    ..y.    DCD    3866689664
        0x00000e04:    e6790044    D.y.    DCD    3866689604
        0x00000e08:    e6790084    ..y.    DCD    3866689668
        0x00000e0c:    e6790050    P.y.    DCD    3866689616
        0x00000e10:    e6790090    ..y.    DCD    3866689680
        0x00000e14:    e6790054    T.y.    DCD    3866689620
        0x00000e18:    e6790094    ..y.    DCD    3866689684
        0x00000e1c:    e6790060    `.y.    DCD    3866689632
        0x00000e20:    e67900a0    ..y.    DCD    3866689696
        0x00000e24:    e6790064    d.y.    DCD    3866689636
        0x00000e28:    e67900a4    ..y.    DCD    3866689700
        0x00000e2c:    e6790104    ..y.    DCD    3866689796
        0x00000e30:    e6790010    ..y.    DCD    3866689552
        0x00000e34:    e6790300    ..y.    DCD    3866690304
        0x00000e38:    e6790304    ..y.    DCD    3866690308
        0x00000e3c:    e679030c    ..y.    DCD    3866690316
        0x00000e40:    002d0027    '.-.    DCD    2949159
        0x00000e44:    e6790310    ..y.    DCD    3866690320
        0x00000e48:    e6790314    ..y.    DCD    3866690324
        0x00000e4c:    e6790318    ..y.    DCD    3866690328
        0x00000e50:    00100010    ....    DCD    1048592
        0x00000e54:    e679031c    ..y.    DCD    3866690332
        0x00000e58:    e6790320     .y.    DCD    3866690336
        0x00000e5c:    e6790324    $.y.    DCD    3866690340
        0x00000e60:    e6790328    (.y.    DCD    3866690344
        0x00000e64:    e679032c    ,.y.    DCD    3866690348
        0x00000e68:    00310031    1.1.    DCD    3211313
        0x00000e6c:    e6790330    0.y.    DCD    3866690352
        0x00000e70:    e6790334    4.y.    DCD    3866690356
        0x00000e74:    00130013    ....    DCD    1245203
        0x00000e78:    e6790338    8.y.    DCD    3866690360
        0x00000e7c:    00200010    .. .    DCD    2097168
        0x00000e80:    e679033c    <.y.    DCD    3866690364
        0x00000e84:    0d400a0e    ..@.    DCD    222300686
        0x00000e88:    e6790340    @.y.    DCD    3866690368
        0x00000e8c:    081e0000    ....    DCD    136183808
        0x00000e90:    e6790344    D.y.    DCD    3866690372
        0x00000e94:    01290129    ).).    DCD    19464489
        0x00000e98:    e6790350    P.y.    DCD    3866690384
        0x00000e9c:    00080008    ....    DCD    524296
        0x00000ea0:    e6790354    T.y.    DCD    3866690388
        0x00000ea4:    08550040    @.U.    DCD    139788352
        0x00000ea8:    e6790358    X.y.    DCD    3866690392
        0x00000eac:    e679035c    \.y.    DCD    3866690396
        0x00000eb0:    e6790400    ..y.    DCD    3866690560
        0x00000eb4:    e6790404    ..y.    DCD    3866690564
        0x00000eb8:    e6790438    8.y.    DCD    3866690616
        0x00000ebc:    e679043c    <.y.    DCD    3866690620
        0x00000ec0:    e6790440    @.y.    DCD    3866690624
        0x00000ec4:    e6790444    D.y.    DCD    3866690628
        0x00000ec8:    00104214    .B..    DCD    1065492
        0x00000ecc:    e6790904    ..y.    DCD    3866691844
        0x00000ed0:    e6790908    ..y.    DCD    3866691848
        0x00000ed4:    e679090c    ..y.    DCD    3866691852
        0x00000ed8:    000f0037    7...    DCD    983095
        0x00000edc:    e6791000    ..y.    DCD    3866693632
        0x00000ee0:    e6791004    ..y.    DCD    3866693636
        0x00000ee4:    e6791010    ..y.    DCD    3866693648
        0x00000ee8:    f7311111    ..1.    DCD    4147187985
        0x00000eec:    e6791020     .y.    DCD    3866693664
        0x00000ef0:    e6791024    $.y.    DCD    3866693668
        0x00000ef4:    e6791030    0.y.    DCD    3866693680
        0x00000ef8:    e6791034    4.y.    DCD    3866693684
        0x00000efc:    e6791038    8.y.    DCD    3866693688
        0x00000f00:    e679103c    <.y.    DCD    3866693692
        0x00000f04:    e6791070    p.y.    DCD    3866693744
        0x00000f08:    e6791074    t.y.    DCD    3866693748
        0x00000f0c:    e6791078    x.y.    DCD    3866693752
        0x00000f10:    e679107c    |.y.    DCD    3866693756
        0x00000f14:    e67910c0    ..y.    DCD    3866693824
        0x00000f18:    e67910c4    ..y.    DCD    3866693828
        0x00000f1c:    e67910c8    ..y.    DCD    3866693832
        0x00000f20:    e67910cc    ..y.    DCD    3866693836
        0x00000f24:    e6791100    ..y.    DCD    3866693888
        0x00000f28:    e6791104    ..y.    DCD    3866693892
        0x00000f2c:    e6791108    ..y.    DCD    3866693896
        0x00000f30:    e679110c    ..y.    DCD    3866693900
        0x00000f34:    e6791110    ..y.    DCD    3866693904
        0x00000f38:    e6791114    ..y.    DCD    3866693908
        0x00000f3c:    e6791118    ..y.    DCD    3866693912
        0x00000f40:    e679111c    ..y.    DCD    3866693916
        0x00000f44:    e6791120     .y.    DCD    3866693920
        0x00000f48:    e6791124    $.y.    DCD    3866693924
        0x00000f4c:    e6791128    (.y.    DCD    3866693928
        0x00000f50:    e679112c    ,.y.    DCD    3866693932
        0x00000f54:    220e110a    ..."    DCD    571347210
        0x00000f58:    e6791700    ..y.    DCD    3866695424
        0x00000f5c:    0b0d0a0c    ....    DCD    185403916
        0x00000f60:    e6791708    ..y.    DCD    3866695432
        0x00000f64:    111f1fff    ....    DCD    287252479
        0x00000f68:    e679170c    ..y.    DCD    3866695436
        0x00000f6c:    e6790000    ..y.    DCD    3866689536
        0x00000f70:    e6790004    ..y.    DCD    3866689540
        0x00000f74:    e6790008    ..y.    DCD    3866689544
        0x00000f78:    e679000c    ..y.    DCD    3866689548
        0x00000f7c:    e6790014    ..y.    DCD    3866689556
        0x00000f80:    e6790604    ..y.    DCD    3866691076
        0x00000f84:    e6790644    D.y.    DCD    3866691140
        0x00000f88:    e6790684    ..y.    DCD    3866691204
        0x00000f8c:    e67906c4    ..y.    DCD    3866691268
        0x00000f90:    e679061c    ..y.    DCD    3866691100
        0x00000f94:    e679065c    \.y.    DCD    3866691164
        0x00000f98:    e679069c    ..y.    DCD    3866691228
        0x00000f9c:    e67906dc    ..y.    DCD    3866691292
        0x00000fa0:    e6790600    ..y.    DCD    3866691072
        0x00000fa4:    e6790640    @.y.    DCD    3866691136
        0x00000fa8:    e6790680    ..y.    DCD    3866691200
        0x00000fac:    e67906c0    ..y.    DCD    3866691264
        0x00000fb0:    08840000    ....    DCD    142868480
        0x00000fb4:    e6790208    ..y.    DCD    3866690056
        0x00000fb8:    08840001    ....    DCD    142868481
        0x00000fbc:    01840001    ....    DCD    25427969
        0x00000fc0:    0e840aff    ....    DCD    243534591
        0x00000fc4:    0e840154    T...    DCD    243532116
        0x00000fc8:    0e84022e    ....    DCD    243532334
        0x00000fcc:    0d84004f    O...    DCD    226754639
        0x00000fd0:    0d840051    Q...    DCD    226754641
        0x00000fd4:    70000100    ...p    DCD    1879048448
        0x00000fd8:    e6790804    ..y.    DCD    3866691588
        0x00000fdc:    18010001    ....    DCD    402718721
        0x00000fe0:    e6790800    ..y.    DCD    3866691584
        0x00000fe4:    00081860    `...    DCD    530528
        0x00000fe8:    e6790414    ..y.    DCD    3866690580
        0x00000fec:    e6790418    ..y.    DCD    3866690584
        0x00000ff0:    e6790204    ..y.    DCD    3866690052
        0x00000ff4:    e6790620     .y.    DCD    3866691104
        0x00000ff8:    e6790660    `.y.    DCD    3866691168
        0x00000ffc:    e67906a0    ..y.    DCD    3866691232
        0x00001000:    e67906e0    ..y.    DCD    3866691296
        0x00001004:    e6790200    ..y.    DCD    3866690048
        0x00001008:    e67f0024    $...    DCD    3867082788
        0x0000100c:    e67f0018    ....    DCD    3867082776
        0x00001010:    e6798100    ..y.    DCD    3866722560
        0x00001014:    e6798108    ..y.    DCD    3866722568
        0x00001018:    e6798020     .y.    DCD    3866722336
        0x0000101c:    e6798024    $.y.    DCD    3866722340
        0x00001020:    e6798030    0.y.    DCD    3866722352
        0x00001024:    e6798070    p.y.    DCD    3866722416
        0x00001028:    e6798034    4.y.    DCD    3866722356
        0x0000102c:    e6798074    t.y.    DCD    3866722420
        0x00001030:    e6798040    @.y.    DCD    3866722368
        0x00001034:    e6798080    ..y.    DCD    3866722432
        0x00001038:    e6798044    D.y.    DCD    3866722372
        0x0000103c:    e6798084    ..y.    DCD    3866722436
        0x00001040:    e6798050    P.y.    DCD    3866722384
        0x00001044:    e6798090    ..y.    DCD    3866722448
        0x00001048:    e6798054    T.y.    DCD    3866722388
        0x0000104c:    e6798094    ..y.    DCD    3866722452
        0x00001050:    e6798060    `.y.    DCD    3866722400
        0x00001054:    e67980a0    ..y.    DCD    3866722464
        0x00001058:    e6798064    d.y.    DCD    3866722404
        0x0000105c:    e67980a4    ..y.    DCD    3866722468
        0x00001060:    e6798104    ..y.    DCD    3866722564
        0x00001064:    e6798010    ..y.    DCD    3866722320
        0x00001068:    e6798300    ..y.    DCD    3866723072
        0x0000106c:    e6798304    ..y.    DCD    3866723076
        0x00001070:    e679830c    ..y.    DCD    3866723084
        0x00001074:    e6798310    ..y.    DCD    3866723088
        0x00001078:    e6798314    ..y.    DCD    3866723092
        0x0000107c:    e6798318    ..y.    DCD    3866723096
        0x00001080:    e679831c    ..y.    DCD    3866723100
        0x00001084:    e6798320     .y.    DCD    3866723104
        0x00001088:    e6798324    $.y.    DCD    3866723108
        0x0000108c:    e6798328    (.y.    DCD    3866723112
        0x00001090:    e679832c    ,.y.    DCD    3866723116
        0x00001094:    e6798330    0.y.    DCD    3866723120
        0x00001098:    e6798334    4.y.    DCD    3866723124
        0x0000109c:    e6798338    8.y.    DCD    3866723128
        0x000010a0:    e679833c    <.y.    DCD    3866723132
        0x000010a4:    e6798340    @.y.    DCD    3866723136
        0x000010a8:    e6798344    D.y.    DCD    3866723140
        0x000010ac:    e6798350    P.y.    DCD    3866723152
        0x000010b0:    e6798354    T.y.    DCD    3866723156
        0x000010b4:    e6798358    X.y.    DCD    3866723160
        0x000010b8:    e679835c    \.y.    DCD    3866723164
        0x000010bc:    e6798400    ..y.    DCD    3866723328
        0x000010c0:    e6798404    ..y.    DCD    3866723332
        0x000010c4:    e6798438    8.y.    DCD    3866723384
        0x000010c8:    e679843c    <.y.    DCD    3866723388
        0x000010cc:    e6798440    @.y.    DCD    3866723392
        0x000010d0:    e6798444    D.y.    DCD    3866723396
        0x000010d4:    e6798904    ..y.    DCD    3866724612
        0x000010d8:    e6798908    ..y.    DCD    3866724616
        0x000010dc:    e679890c    ..y.    DCD    3866724620
        0x000010e0:    e6799000    ..y.    DCD    3866726400
        0x000010e4:    e6799004    ..y.    DCD    3866726404
        0x000010e8:    e6799010    ..y.    DCD    3866726416
        0x000010ec:    e6799020     .y.    DCD    3866726432
        0x000010f0:    e6799024    $.y.    DCD    3866726436
        0x000010f4:    e6799030    0.y.    DCD    3866726448
        0x000010f8:    e6799034    4.y.    DCD    3866726452
        0x000010fc:    e6799038    8.y.    DCD    3866726456
        0x00001100:    e679903c    <.y.    DCD    3866726460
        0x00001104:    e6799070    p.y.    DCD    3866726512
        0x00001108:    e6799074    t.y.    DCD    3866726516
        0x0000110c:    e6799078    x.y.    DCD    3866726520
        0x00001110:    e679907c    |.y.    DCD    3866726524
        0x00001114:    e67990c0    ..y.    DCD    3866726592
        0x00001118:    e67990c4    ..y.    DCD    3866726596
        0x0000111c:    e67990c8    ..y.    DCD    3866726600
        0x00001120:    e67990cc    ..y.    DCD    3866726604
        0x00001124:    e6799100    ..y.    DCD    3866726656
        0x00001128:    e6799104    ..y.    DCD    3866726660
        0x0000112c:    e6799108    ..y.    DCD    3866726664
        0x00001130:    e679910c    ..y.    DCD    3866726668
        0x00001134:    e6799110    ..y.    DCD    3866726672
        0x00001138:    e6799114    ..y.    DCD    3866726676
        0x0000113c:    e6799118    ..y.    DCD    3866726680
        0x00001140:    e679911c    ..y.    DCD    3866726684
        0x00001144:    e6799120     .y.    DCD    3866726688
        0x00001148:    e6799124    $.y.    DCD    3866726692
        0x0000114c:    e6799128    (.y.    DCD    3866726696
        0x00001150:    e679912c    ,.y.    DCD    3866726700
        0x00001154:    e6799700    ..y.    DCD    3866728192
        0x00001158:    e6799708    ..y.    DCD    3866728200
        0x0000115c:    e679970c    ..y.    DCD    3866728204
        0x00001160:    e6798000    ..y.    DCD    3866722304
        0x00001164:    e6798004    ..y.    DCD    3866722308
        0x00001168:    e6798008    ..y.    DCD    3866722312
        0x0000116c:    e679800c    ..y.    DCD    3866722316
        0x00001170:    e6798014    ..y.    DCD    3866722324
        0x00001174:    e6798604    ..y.    DCD    3866723844
        0x00001178:    e6798644    D.y.    DCD    3866723908
        0x0000117c:    e6798684    ..y.    DCD    3866723972
        0x00001180:    e67986c4    ..y.    DCD    3866724036
        0x00001184:    e679861c    ..y.    DCD    3866723868
        0x00001188:    e679865c    \.y.    DCD    3866723932
        0x0000118c:    e679869c    ..y.    DCD    3866723996
        0x00001190:    e67986dc    ..y.    DCD    3866724060
        0x00001194:    e6798600    ..y.    DCD    3866723840
        0x00001198:    e6798640    @.y.    DCD    3866723904
        0x0000119c:    e6798680    ..y.    DCD    3866723968
        0x000011a0:    e67986c0    ..y.    DCD    3866724032
        0x000011a4:    e6798208    ..y.    DCD    3866722824
        0x000011a8:    e6798804    ..y.    DCD    3866724356
        0x000011ac:    e6798800    ..y.    DCD    3866724352
        0x000011b0:    e6798414    ..y.    DCD    3866723348
        0x000011b4:    e6798418    ..y.    DCD    3866723352
        0x000011b8:    e6798204    ..y.    DCD    3866722820
        0x000011bc:    e6798620     .y.    DCD    3866723872
        0x000011c0:    e6798660    `.y.    DCD    3866723936
        0x000011c4:    e67986a0    ..y.    DCD    3866724000
        0x000011c8:    e67986e0    ..y.    DCD    3866724064
        0x000011cc:    e6798200    ..y.    DCD    3866722816
        0x000011d0:    00000138    8...    DCD    312
    $a
    MPU_INIT
    $v0
    __mpu_init
    ddr_init_end
        0x000011d4:    e30004ff    ....    MOV      r0,#0x4ff
        0x000011d8:    e3400044    D.@.    MOVT     r0,#0x44
        0x000011dc:    ee8a0f12    ....    MCR      p15,#0x4,r0,c10,c2,#0
        0x000011e0:    e3a00cbb    ....    MOV      r0,#0xbb00
        0x000011e4:    e34d0dee    ..M.    MOVT     r0,#0xddee
        0x000011e8:    ee8a0f32    2...    MCR      p15,#0x4,r0,c10,c2,#1
        0x000011ec:    e3a00000    ....    MOV      r0,#0
        0x000011f0:    ee860f32    2...    MCR      p15,#0x4,r0,c6,c2,#1
        0x000011f4:    e3a00002    ....    MOV      r0,#2
        0x000011f8:    e3400000    ..@.    MOVT     r0,#0
        0x000011fc:    ee860f13    ....    MCR      p15,#0x4,r0,c6,c3,#0
        0x00001200:    e30f0fc1    ....    MOV      r0,#0xffc1
        0x00001204:    e34007ff    ..@.    MOVT     r0,#0x7ff
        0x00001208:    ee860f33    3...    MCR      p15,#0x4,r0,c6,c3,#1
        0x0000120c:    e3a00001    ....    MOV      r0,#1
        0x00001210:    ee860f32    2...    MCR      p15,#0x4,r0,c6,c2,#1
        0x00001214:    e3a00002    ....    MOV      r0,#2
        0x00001218:    e3400800    ..@.    MOVT     r0,#0x800
        0x0000121c:    ee860f13    ....    MCR      p15,#0x4,r0,c6,c3,#0
        0x00001220:    e30f0fc1    ....    MOV      r0,#0xffc1
        0x00001224:    e3400fff    ..@.    MOVT     r0,#0xfff
        0x00001228:    ee860f33    3...    MCR      p15,#0x4,r0,c6,c3,#1
        0x0000122c:    e3a00002    ....    MOV      r0,#2
        0x00001230:    ee860f32    2...    MCR      p15,#0x4,r0,c6,c2,#1
        0x00001234:    e3a00002    ....    MOV      r0,#2
        0x00001238:    e3410000    ..A.    MOVT     r0,#0x1000
        0x0000123c:    ee860f13    ....    MCR      p15,#0x4,r0,c6,c3,#0
        0x00001240:    e30f0fc1    ....    MOV      r0,#0xffc1
        0x00001244:    e3410fff    ..A.    MOVT     r0,#0x1fff
        0x00001248:    ee860f33    3...    MCR      p15,#0x4,r0,c6,c3,#1
        0x0000124c:    e3a00003    ....    MOV      r0,#3
        0x00001250:    ee860f32    2...    MCR      p15,#0x4,r0,c6,c2,#1
        0x00001254:    e3a00002    ....    MOV      r0,#2
        0x00001258:    e3420000    ..B.    MOVT     r0,#0x2000
        0x0000125c:    ee860f13    ....    MCR      p15,#0x4,r0,c6,c3,#0
        0x00001260:    e30f0fc1    ....    MOV      r0,#0xffc1
        0x00001264:    e3430fff    ..C.    MOVT     r0,#0x3fff
        0x00001268:    ee860f33    3...    MCR      p15,#0x4,r0,c6,c3,#1
        0x0000126c:    e3a00004    ....    MOV      r0,#4
        0x00001270:    ee860f32    2...    MCR      p15,#0x4,r0,c6,c2,#1
        0x00001274:    e3a00002    ....    MOV      r0,#2
        0x00001278:    e3440000    ..D.    MOVT     r0,#0x4000
        0x0000127c:    ee860f13    ....    MCR      p15,#0x4,r0,c6,c3,#0
        0x00001280:    e30f0fc1    ....    MOV      r0,#0xffc1
        0x00001284:    e34b0fff    ..K.    MOVT     r0,#0xbfff
        0x00001288:    ee860f33    3...    MCR      p15,#0x4,r0,c6,c3,#1
        0x0000128c:    e3a00005    ....    MOV      r0,#5
        0x00001290:    ee860f32    2...    MCR      p15,#0x4,r0,c6,c2,#1
        0x00001294:    e3a00002    ....    MOV      r0,#2
        0x00001298:    e34c0000    ..L.    MOVT     r0,#0xc000
        0x0000129c:    ee860f13    ....    MCR      p15,#0x4,r0,c6,c3,#0
        0x000012a0:    e30f0fc1    ....    MOV      r0,#0xffc1
        0x000012a4:    e34d0fff    ..M.    MOVT     r0,#0xdfff
        0x000012a8:    ee860f33    3...    MCR      p15,#0x4,r0,c6,c3,#1
        0x000012ac:    e3a00006    ....    MOV      r0,#6
        0x000012b0:    ee860f32    2...    MCR      p15,#0x4,r0,c6,c2,#1
        0x000012b4:    e3a00002    ....    MOV      r0,#2
        0x000012b8:    e34e0000    ..N.    MOVT     r0,#0xe000
        0x000012bc:    ee860f13    ....    MCR      p15,#0x4,r0,c6,c3,#0
        0x000012c0:    e30f0fc7    ....    MOV      r0,#0xffc7
        0x000012c4:    e34e062f    /.N.    MOVT     r0,#0xe62f
        0x000012c8:    ee860f33    3...    MCR      p15,#0x4,r0,c6,c3,#1
        0x000012cc:    e3a00007    ....    MOV      r0,#7
        0x000012d0:    ee860f32    2...    MCR      p15,#0x4,r0,c6,c2,#1
        0x000012d4:    e3a00002    ....    MOV      r0,#2
        0x000012d8:    e34e0630    0.N.    MOVT     r0,#0xe630
        0x000012dc:    ee860f13    ....    MCR      p15,#0x4,r0,c6,c3,#0
        0x000012e0:    e30f0fc1    ....    MOV      r0,#0xffc1
        0x000012e4:    e34e063f    ?.N.    MOVT     r0,#0xe63f
        0x000012e8:    ee860f33    3...    MCR      p15,#0x4,r0,c6,c3,#1
        0x000012ec:    e3a00008    ....    MOV      r0,#8
        0x000012f0:    ee860f32    2...    MCR      p15,#0x4,r0,c6,c2,#1
        0x000012f4:    e3a00002    ....    MOV      r0,#2
        0x000012f8:    e34e0640    @.N.    MOVT     r0,#0xe640
        0x000012fc:    ee860f13    ....    MCR      p15,#0x4,r0,c6,c3,#0
        0x00001300:    e30f0fc7    ....    MOV      r0,#0xffc7
        0x00001304:    e34e0b0f    ..N.    MOVT     r0,#0xeb0f
        0x00001308:    ee860f33    3...    MCR      p15,#0x4,r0,c6,c3,#1
        0x0000130c:    e3a00009    ....    MOV      r0,#9
        0x00001310:    ee860f32    2...    MCR      p15,#0x4,r0,c6,c2,#1
        0x00001314:    e3a00002    ....    MOV      r0,#2
        0x00001318:    e34e0b10    ..N.    MOVT     r0,#0xeb10
        0x0000131c:    ee860f13    ....    MCR      p15,#0x4,r0,c6,c3,#0
        0x00001320:    e30f0fc1    ....    MOV      r0,#0xffc1
        0x00001324:    e34e0b3f    ?.N.    MOVT     r0,#0xeb3f
        0x00001328:    ee860f33    3...    MCR      p15,#0x4,r0,c6,c3,#1
        0x0000132c:    e3a0000a    ....    MOV      r0,#0xa
        0x00001330:    ee860f32    2...    MCR      p15,#0x4,r0,c6,c2,#1
        0x00001334:    e3a00002    ....    MOV      r0,#2
        0x00001338:    e34e0b40    @.N.    MOVT     r0,#0xeb40
        0x0000133c:    ee860f13    ....    MCR      p15,#0x4,r0,c6,c3,#0
        0x00001340:    e30f0fc7    ....    MOV      r0,#0xffc7
        0x00001344:    e34e0cff    ..N.    MOVT     r0,#0xecff
        0x00001348:    ee860f33    3...    MCR      p15,#0x4,r0,c6,c3,#1
        0x0000134c:    e3a0000b    ....    MOV      r0,#0xb
        0x00001350:    ee860f32    2...    MCR      p15,#0x4,r0,c6,c2,#1
        0x00001354:    e3a00002    ....    MOV      r0,#2
        0x00001358:    e34e0d00    ..N.    MOVT     r0,#0xed00
        0x0000135c:    ee860f13    ....    MCR      p15,#0x4,r0,c6,c3,#0
        0x00001360:    e30f0fc1    ....    MOV      r0,#0xffc1
        0x00001364:    e34e0dff    ..N.    MOVT     r0,#0xedff
        0x00001368:    ee860f33    3...    MCR      p15,#0x4,r0,c6,c3,#1
        0x0000136c:    e3a0000c    ....    MOV      r0,#0xc
        0x00001370:    ee860f32    2...    MCR      p15,#0x4,r0,c6,c2,#1
        0x00001374:    e3a00002    ....    MOV      r0,#2
        0x00001378:    e34e0e00    ..N.    MOVT     r0,#0xee00
        0x0000137c:    ee860f13    ....    MCR      p15,#0x4,r0,c6,c3,#0
        0x00001380:    e30f0fc7    ....    MOV      r0,#0xffc7
        0x00001384:    e34f0fff    ..O.    MOVT     r0,#0xffff
        0x00001388:    ee860f33    3...    MCR      p15,#0x4,r0,c6,c3,#1
        0x0000138c:    ee910f10    ....    MRC      p15,#0x4,r0,c1,c0,#0
        0x00001390:    e3800001    ....    ORR      r0,r0,#1
        0x00001394:    f57ff04f    O...    DSB      
        0x00001398:    ee810f10    ....    MCR      p15,#0x4,r0,c1,c0,#0
        0x0000139c:    f57ff06f    o...    ISB      
        0x000013a0:    e12fff1e    ../.    BX       lr
    __mpu_init_el1
        0x000013a4:    e12fff1e    ../.    BX       lr
    $Ven$AA$L$$UndefinedInstruction_Handler
        0x000013a8:    e51ff004    ....    LDR      pc,[pc,#-4] ; [0x13ac] = 0x40000bdc
    $d
        0x000013ac:    40000bdc    ...@    DCD    1073744860
    $a
    $Ven$AA$L$$SupervisorCall_Handler
        0x000013b0:    e51ff004    ....    LDR      pc,[pc,#-4] ; [0x13b4] = 0x40000bd0
    $d
        0x000013b4:    40000bd0    ...@    DCD    1073744848
    $a
    $Ven$AA$L$$PrefetchAbort_Handler
        0x000013b8:    e51ff004    ....    LDR      pc,[pc,#-4] ; [0x13bc] = 0x40000b44
    $d
        0x000013bc:    40000b44    D..@    DCD    1073744708
    $a
    $Ven$AA$L$$DataAbort_Handler
        0x000013c0:    e51ff004    ....    LDR      pc,[pc,#-4] ; [0x13c4] = 0x400000a8
    $d
        0x000013c4:    400000a8    ...@    DCD    1073741992
    $a
    $Ven$AA$L$$IRQ_Handler
        0x000013c8:    e51ff004    ....    LDR      pc,[pc,#-4] ; [0x13cc] = 0x40000b04
    $d
        0x000013cc:    40000b04    ...@    DCD    1073744644
    $a
    $Ven$AT$L$$__rt_entry
        0x000013d0:    e51ff004    ....    LDR      pc,[pc,#-4] ; [0x13d4] = 0x40000071
    $d
        0x000013d4:    40000071    q..@    DCD    1073741937
    $d.realdata
    Region$$Table$$Base
        0x000013d8:    400033d0    .3.@    DCD    1073755088
        0x000013dc:    400033d0    .3.@    DCD    1073755088
        0x000013e0:    0000023c    <...    DCD    572
        0x000013e4:    0000017c    |...    DCD    380
    Region$$Table$$Limit

====================================

** Section #2

    Name        : ER10
    Type        : SHT_PROGBITS (0x00000001)
    Flags       : SHF_ALLOC + SHF_EXECINSTR (0x00000006)
    Addr        : 0x40000000
    File Offset : 5148 (0x141c)
    Size        : 9344 bytes (0x2480)
    Link        : SHN_UNDEF
    Info        : 0
    Alignment   : 4
    Entry Size  : 0

    $a
    VECTORS
    $v0
    vectors_start
        0x40000000:    e59ff018    ....    LDR      pc,[pc,#24] ; [0x40000020] = 0x40000038
        0x40000004:    e59ff018    ....    LDR      pc,[pc,#24] ; [0x40000024] = 0x4000003c
        0x40000008:    e59ff018    ....    LDR      pc,[pc,#24] ; [0x40000028] = 0x40000044
        0x4000000c:    e59ff018    ....    LDR      pc,[pc,#24] ; [0x4000002c] = 0x4000004c
        0x40000010:    e59ff018    ....    LDR      pc,[pc,#24] ; [0x40000030] = 0x40000054
        0x40000014:    e320f000    .. .    NOP      
        0x40000018:    e59ff014    ....    LDR      pc,[pc,#20] ; [0x40000034] = 0x4000005c
        0x4000001c:    eafffffe    ....    B        0x4000001c ; vectors_start + 28
    $d
        0x40000020:    40000038    8..@    DCD    1073741880
        0x40000024:    4000003c    <..@    DCD    1073741884
        0x40000028:    40000044    D..@    DCD    1073741892
        0x4000002c:    4000004c    L..@    DCD    1073741900
        0x40000030:    40000054    T..@    DCD    1073741908
        0x40000034:    4000005c    \..@    DCD    1073741916
    $a
    RST_EXC_VECTORS
        0x40000038:    ea000805    ....    B        $Ven$AA$L$$Reset_Handler ; 0x40002054
    UDF_EXC_VECTORS
        0x4000003c:    eb0002e6    ....    BL       UndefinedInstruction_Handler ; 0x40000bdc
        0x40000040:    e160006e    n.`.    ERET     
    SVC_EXC_VECTORS
        0x40000044:    eb0002e1    ....    BL       SupervisorCall_Handler ; 0x40000bd0
        0x40000048:    e160006e    n.`.    ERET     
    PAB_EXC_VECTORS
        0x4000004c:    eb0002bc    ....    BL       PrefetchAbort_Handler ; 0x40000b44
        0x40000050:    e160006e    n.`.    ERET     
    DAB_EXC_VECTORS
        0x40000054:    eb000013    ....    BL       DataAbort_Handler ; 0x400000a8
        0x40000058:    e160006e    n.`.    ERET     
    IRQ_EXC_VECTORS
        0x4000005c:    eb0002a8    ....    BL       IRQ_Handler ; 0x40000b04
        0x40000060:    e160006e    n.`.    ERET     
    $t
    .ARM.Collect$$libinit$$00000000
    __rt_lib_init
        0x40000064:    b51f        ..      PUSH     {r0-r4,lr}
    .ARM.Collect$$libinit$$00000001
    __rt_lib_init_fp_1
        0x40000066:    f001effa    ....    BLX      _fp_init ; 0x4000205c
    .ARM.Collect$$libinit$$00000004
    .ARM.Collect$$libinit$$0000000A
    .ARM.Collect$$libinit$$0000000C
    .ARM.Collect$$libinit$$0000000E
    .ARM.Collect$$libinit$$00000011
    .ARM.Collect$$libinit$$00000013
    .ARM.Collect$$libinit$$00000015
    .ARM.Collect$$libinit$$00000017
    .ARM.Collect$$libinit$$00000019
    .ARM.Collect$$libinit$$0000001B
    .ARM.Collect$$libinit$$0000001D
    .ARM.Collect$$libinit$$0000001F
    .ARM.Collect$$libinit$$00000021
    .ARM.Collect$$libinit$$00000023
    .ARM.Collect$$libinit$$00000025
    .ARM.Collect$$libinit$$0000002C
    .ARM.Collect$$libinit$$0000002E
    .ARM.Collect$$libinit$$00000030
    .ARM.Collect$$libinit$$00000032
    .ARM.Collect$$libinit$$00000033
    __rt_lib_init_alloca_1
    __rt_lib_init_argv_1
    __rt_lib_init_atexit_1
    __rt_lib_init_clock_1
    __rt_lib_init_cpp_1
    __rt_lib_init_exceptions_1
    __rt_lib_init_fp_trap_1
    __rt_lib_init_getenv_1
    __rt_lib_init_heap_1
    __rt_lib_init_lc_collate_1
    __rt_lib_init_lc_ctype_1
    __rt_lib_init_lc_monetary_1
    __rt_lib_init_lc_numeric_1
    __rt_lib_init_lc_time_1
    __rt_lib_init_preinit_1
    __rt_lib_init_rand_1
    __rt_lib_init_return
    __rt_lib_init_signal_1
    __rt_lib_init_stdio_1
    __rt_lib_init_user_alloc_1
        0x4000006a:    bd1f        ..      POP      {r0-r4,pc}
    .ARM.Collect$$libshutdown$$00000000
    __rt_lib_shutdown
        0x4000006c:    b510        ..      PUSH     {r4,lr}
    .ARM.Collect$$libshutdown$$00000002
    .ARM.Collect$$libshutdown$$00000004
    .ARM.Collect$$libshutdown$$00000007
    .ARM.Collect$$libshutdown$$0000000A
    .ARM.Collect$$libshutdown$$0000000C
    .ARM.Collect$$libshutdown$$0000000F
    .ARM.Collect$$libshutdown$$00000010
    __rt_lib_shutdown_cpp_1
    __rt_lib_shutdown_fp_trap_1
    __rt_lib_shutdown_heap_1
    __rt_lib_shutdown_return
    __rt_lib_shutdown_signal_1
    __rt_lib_shutdown_stdio_1
    __rt_lib_shutdown_user_alloc_1
        0x4000006e:    bd10        ..      POP      {r4,pc}
    .ARM.Collect$$rtentry$$00000000
    .ARM.Collect$$rtentry$$00000002
    .ARM.Collect$$rtentry$$00000007
    __rt_entry
    __rt_entry_presh_1
    __rt_entry_sh
        0x40000070:    f8dfd00c    ....    LDR      sp,__lit__00000000 ; [0x40000080] = 0x70000000
    .ARM.Collect$$rtentry$$00000009
    .ARM.Collect$$rtentry$$0000000A
    __rt_entry_li
    __rt_entry_postsh_1
        0x40000074:    f7fffff6    ....    BL       __rt_lib_init ; 0x40000064
    .ARM.Collect$$rtentry$$0000000C
    .ARM.Collect$$rtentry$$0000000D
    __rt_entry_main
    __rt_entry_postli_1
        0x40000078:    f000edb8    ....    BLX      main ; 0x40000bec
        0x4000007c:    f000f80a    ....    BL       exit ; 0x40000094
    $d
    .ARM.Collect$$rtentry$$00002718
    __lit__00000000
        0x40000080:    70000000    ...p    DCD    1879048192
    $t
    .ARM.Collect$$rtexit$$00000000
    __rt_exit
        0x40000084:    b403        ..      PUSH     {r0,r1}
    .ARM.Collect$$rtexit$$00000002
    .ARM.Collect$$rtexit$$00000003
    __rt_exit_ls
    __rt_exit_prels_1
        0x40000086:    f7fffff1    ....    BL       __rt_lib_shutdown ; 0x4000006c
    .ARM.Collect$$rtexit$$00000004
    __rt_exit_exit
        0x4000008a:    bc03        ..      POP      {r0,r1}
        0x4000008c:    f000edac    ....    BLX      _sys_exit ; 0x40000be8
    $a
    .text
    __I$use$semihosting
    __use_no_semihosting_swi
        0x40000090:    e12fff1e    ../.    BX       lr
    $t
    .text
    exit
        0x40000094:    b510        ..      PUSH     {r4,lr}
        0x40000096:    4604        .F      MOV      r4,r0
        0x40000098:    f3af8000    ....    NOP.W    
        0x4000009c:    4620         F      MOV      r0,r4
        0x4000009e:    e8bd4010    ...@    POP      {r4,lr}
        0x400000a2:    f7ffbfef    ....    B.W      __rt_exit ; 0x40000084
        0x400000a6:    0000        ..      MOVS     r0,r0
    $a.3
    DataAbort_Handler
        0x400000a8:    e92d4800    .H-.    PUSH     {r11,lr}
        0x400000ac:    eb0002c3    ....    BL       Sim_Stop ; 0x40000bc0
        0x400000b0:    eafffffe    ....    B        0x400000b0 ; DataAbort_Handler + 8
    GIC_defaultHandler
        0x400000b4:    eafffffe    ....    B        GIC_defaultHandler ; 0x400000b4
    GIC_endInterrupt
        0x400000b8:    ee0c0f3c    <...    MCR      p15,#0x0,r0,c12,c12,#1
        0x400000bc:    f57ff04f    O...    DSB      
        0x400000c0:    e12fff1e    ../.    BX       lr
    GIC_executeInterruptHandler
        0x400000c4:    e3021480    ....    MOVW     r1,#0x2480
        0x400000c8:    e3441000    ..D.    MOVT     r1,#0x4000
        0x400000cc:    e7910100    ....    LDR      r0,[r1,r0,LSL #2]
        0x400000d0:    e12fff10    ../.    BX       r0
    GIC_getACKID
        0x400000d4:    e92d4010    .@-.    PUSH     {r4,lr}
        0x400000d8:    ee1c4f1c    .O..    MRC      p15,#0x0,r4,c12,c12,#0
        0x400000dc:    f57ff04f    O...    DSB      
        0x400000e0:    e1a00004    ....    MOV      r0,r4
        0x400000e4:    ebfffff3    ....    BL       GIC_endInterrupt ; 0x400000b8
        0x400000e8:    e1a00004    ....    MOV      r0,r4
        0x400000ec:    e8bd8010    ....    POP      {r4,pc}
    I2C_configPins
        0x400000f0:    e3000800    ....    MOVW     r0,#0x800
        0x400000f4:    e34e0605    ..N.    MOVT     r0,#0xe605
        0x400000f8:    e2801c01    ....    ADD      r1,r0,#0x100
        0x400000fc:    e30f2ffc    ./..    MOV      r2,#0xfffc
        0x40000100:    ea000289    ....    B        PFC_SetMultipleBit ; 0x40000b2c
    I2C_masterClearInterruptStatus
        0x40000104:    e590200c    . ..    LDR      r2,[r0,#0xc]
        0x40000108:    e1c21001    ....    BIC      r1,r2,r1
        0x4000010c:    e580100c    ....    STR      r1,[r0,#0xc]
        0x40000110:    e12fff1e    ../.    BX       lr
    I2C_masterDisable
        0x40000114:    e5901004    ....    LDR      r1,[r0,#4]
        0x40000118:    e3c11008    ....    BIC      r1,r1,#8
        0x4000011c:    e5801004    ....    STR      r1,[r0,#4]
        0x40000120:    e12fff1e    ../.    BX       lr
    I2C_masterEnable
        0x40000124:    e5901004    ....    LDR      r1,[r0,#4]
        0x40000128:    e3811008    ....    ORR      r1,r1,#8
        0x4000012c:    e5801004    ....    STR      r1,[r0,#4]
        0x40000130:    e12fff1e    ../.    BX       lr
    I2C_masterInit
        0x40000134:    e5d12004    . ..    LDRB     r2,[r1,#4]
        0x40000138:    e5913000    .0..    LDR      r3,[r1,#0]
        0x4000013c:    e1832082    . ..    ORR      r2,r3,r2,LSL #1
        0x40000140:    e5802020      ..    STR      r2,[r0,#0x20]
        0x40000144:    e5912008    . ..    LDR      r2,[r1,#8]
        0x40000148:    e3a03080    .0..    MOV      r3,#0x80
        0x4000014c:    e3520001    ..R.    CMP      r2,#1
        0x40000150:    03003084    .0..    MOVWEQ   r3,#0x84
        0x40000154:    e5803004    .0..    STR      r3,[r0,#4]
        0x40000158:    e591200c    . ..    LDR      r2,[r1,#0xc]
        0x4000015c:    e3520001    ..R.    CMP      r2,#1
        0x40000160:    0a000016    ....    BEQ      0x400001c0 ; I2C_masterInit + 140
        0x40000164:    e3520000    ..R.    CMP      r2,#0
        0x40000168:    1a000030    0...    BNE      0x40000230 ; I2C_masterInit + 252
        0x4000016c:    e5912010    . ..    LDR      r2,[r1,#0x10]
        0x40000170:    e3520001    ..R.    CMP      r2,#1
        0x40000174:    0a00003d    =...    BEQ      0x40000270 ; I2C_masterInit + 316
        0x40000178:    e3520000    ..R.    CMP      r2,#0
        0x4000017c:    1a00002b    +...    BNE      0x40000230 ; I2C_masterInit + 252
        0x40000180:    e5902028    ( ..    LDR      r2,[r0,#0x28]
        0x40000184:    e3c22007    . ..    BIC      r2,r2,#7
        0x40000188:    e5802028    ( ..    STR      r2,[r0,#0x28]
        0x4000018c:    e5911014    ....    LDR      r1,[r1,#0x14]
        0x40000190:    e3510006    ..Q.    CMP      r1,#6
        0x40000194:    8a000028    (...    BHI      0x4000023c ; I2C_masterInit + 264
        0x40000198:    e1a01101    ....    LSL      r1,r1,#2
        0x4000019c:    e28f2000    . ..    ADR      r2,{pc}+8 ; 0x400001a4
        0x400001a0:    e791f002    ....    LDR      pc,[r1,r2]
    $d.25
        0x400001a4:    40000214    ...@    DCD    1073742356
        0x400001a8:    40000380    ...@    DCD    1073742720
        0x400001ac:    4000039c    ...@    DCD    1073742748
        0x400001b0:    400003b8    ...@    DCD    1073742776
        0x400001b4:    400003d4    ...@    DCD    1073742804
        0x400001b8:    4000023c    <..@    DCD    1073742396
        0x400001bc:    400003f0    ...@    DCD    1073742832
    $a.26
        0x400001c0:    e5912010    . ..    LDR      r2,[r1,#0x10]
        0x400001c4:    e3520001    ..R.    CMP      r2,#1
        0x400001c8:    0a00003c    <...    BEQ      0x400002c0 ; I2C_masterInit + 396
        0x400001cc:    e3520000    ..R.    CMP      r2,#0
        0x400001d0:    1a000016    ....    BNE      0x40000230 ; I2C_masterInit + 252
        0x400001d4:    e5902028    ( ..    LDR      r2,[r0,#0x28]
        0x400001d8:    e3c22007    . ..    BIC      r2,r2,#7
        0x400001dc:    e5802028    ( ..    STR      r2,[r0,#0x28]
        0x400001e0:    e5911014    ....    LDR      r1,[r1,#0x14]
        0x400001e4:    e3510006    ..Q.    CMP      r1,#6
        0x400001e8:    8a000013    ....    BHI      0x4000023c ; I2C_masterInit + 264
        0x400001ec:    e1a01101    ....    LSL      r1,r1,#2
        0x400001f0:    e28f2000    . ..    ADR      r2,{pc}+8 ; 0x400001f8
        0x400001f4:    e791f002    ....    LDR      pc,[r1,r2]
    $d.27
        0x400001f8:    40000214    ...@    DCD    1073742356
        0x400001fc:    40000380    ...@    DCD    1073742720
        0x40000200:    4000039c    ...@    DCD    1073742748
        0x40000204:    400003b8    ...@    DCD    1073742776
        0x40000208:    400003d4    ...@    DCD    1073742804
        0x4000020c:    4000023c    <..@    DCD    1073742396
        0x40000210:    400003f0    ...@    DCD    1073742832
    $a.28
        0x40000214:    e5901018    ....    LDR      r1,[r0,#0x18]
        0x40000218:    e3a02006    . ..    MOV      r2,#6
        0x4000021c:    e7c21012    ....    BFI      r1,r2,#0,#3
        0x40000220:    e5801018    ....    STR      r1,[r0,#0x18]
        0x40000224:    e5901018    ....    LDR      r1,[r0,#0x18]
        0x40000228:    e3a0202c    , ..    MOV      r2,#0x2c
        0x4000022c:    ea000008    ....    B        0x40000254 ; I2C_masterInit + 288
        0x40000230:    e5901028    (...    LDR      r1,[r0,#0x28]
        0x40000234:    e3c11007    ....    BIC      r1,r1,#7
        0x40000238:    e5801028    (...    STR      r1,[r0,#0x28]
        0x4000023c:    e5901018    ....    LDR      r1,[r0,#0x18]
        0x40000240:    e3a02006    . ..    MOV      r2,#6
        0x40000244:    e7c21012    ....    BFI      r1,r2,#0,#3
        0x40000248:    e5801018    ....    STR      r1,[r0,#0x18]
        0x4000024c:    e5901018    ....    LDR      r1,[r0,#0x18]
        0x40000250:    e3a02003    . ..    MOV      r2,#3
        0x40000254:    e7c81192    ....    BFI      r1,r2,#3,#6
        0x40000258:    e5801018    ....    STR      r1,[r0,#0x18]
        0x4000025c:    e3a01000    ....    MOV      r1,#0
        0x40000260:    e580102c    ,...    STR      r1,[r0,#0x2c]
        0x40000264:    e5801030    0...    STR      r1,[r0,#0x30]
        0x40000268:    e5801034    4...    STR      r1,[r0,#0x34]
        0x4000026c:    e12fff1e    ../.    BX       lr
        0x40000270:    e5902028    ( ..    LDR      r2,[r0,#0x28]
        0x40000274:    e3822007    . ..    ORR      r2,r2,#7
        0x40000278:    e5802028    ( ..    STR      r2,[r0,#0x28]
        0x4000027c:    e5902038    8 ..    LDR      r2,[r0,#0x38]
        0x40000280:    e3a0300f    .0..    MOV      r3,#0xf
        0x40000284:    e7c42013    . ..    BFI      r2,r3,#0,#5
        0x40000288:    e5802038    8 ..    STR      r2,[r0,#0x38]
        0x4000028c:    e5911014    ....    LDR      r1,[r1,#0x14]
        0x40000290:    e3510006    ..Q.    CMP      r1,#6
        0x40000294:    8a00002b    +...    BHI      0x40000348 ; I2C_masterInit + 532
        0x40000298:    e1a01101    ....    LSL      r1,r1,#2
        0x4000029c:    e28f2000    . ..    ADR      r2,{pc}+8 ; 0x400002a4
        0x400002a0:    e791f002    ....    LDR      pc,[r1,r2]
    $d.29
        0x400002a4:    40000310    ...@    DCD    1073742608
        0x400002a8:    40000420     ..@    DCD    1073742880
        0x400002ac:    40000458    X..@    DCD    1073742936
        0x400002b0:    40000490    ...@    DCD    1073742992
        0x400002b4:    400004c8    ...@    DCD    1073743048
        0x400002b8:    40000348    H..@    DCD    1073742664
        0x400002bc:    40000500    ...@    DCD    1073743104
    $a.30
        0x400002c0:    e5902028    ( ..    LDR      r2,[r0,#0x28]
        0x400002c4:    e3822007    . ..    ORR      r2,r2,#7
        0x400002c8:    e5802028    ( ..    STR      r2,[r0,#0x28]
        0x400002cc:    e5902038    8 ..    LDR      r2,[r0,#0x38]
        0x400002d0:    e3a0300f    .0..    MOV      r3,#0xf
        0x400002d4:    e7c42013    . ..    BFI      r2,r3,#0,#5
        0x400002d8:    e5802038    8 ..    STR      r2,[r0,#0x38]
        0x400002dc:    e5911014    ....    LDR      r1,[r1,#0x14]
        0x400002e0:    e3510006    ..Q.    CMP      r1,#6
        0x400002e4:    8a000017    ....    BHI      0x40000348 ; I2C_masterInit + 532
        0x400002e8:    e1a01101    ....    LSL      r1,r1,#2
        0x400002ec:    e28f2000    . ..    ADR      r2,{pc}+8 ; 0x400002f4
        0x400002f0:    e791f002    ....    LDR      pc,[r1,r2]
    $d.31
        0x400002f4:    40000310    ...@    DCD    1073742608
        0x400002f8:    40000420     ..@    DCD    1073742880
        0x400002fc:    40000458    X..@    DCD    1073742936
        0x40000300:    40000490    ...@    DCD    1073742992
        0x40000304:    400004c8    ...@    DCD    1073743048
        0x40000308:    40000348    H..@    DCD    1073742664
        0x4000030c:    40000500    ...@    DCD    1073743104
    $a.32
        0x40000310:    e5901018    ....    LDR      r1,[r0,#0x18]
        0x40000314:    e3a02006    . ..    MOV      r2,#6
        0x40000318:    e7c21012    ....    BFI      r1,r2,#0,#3
        0x4000031c:    e5801018    ....    STR      r1,[r0,#0x18]
        0x40000320:    e5901018    ....    LDR      r1,[r0,#0x18]
        0x40000324:    e3c11f7e    ~...    BIC      r1,r1,#0x1f8
        0x40000328:    e5801018    ....    STR      r1,[r0,#0x18]
        0x4000032c:    e3a0101c    ....    MOV      r1,#0x1c
        0x40000330:    e580102c    ,...    STR      r1,[r0,#0x2c]
        0x40000334:    e3001501    ....    MOV      r1,#0x501
        0x40000338:    e5801030    0...    STR      r1,[r0,#0x30]
        0x4000033c:    e3001514    ....    MOV      r1,#0x514
        0x40000340:    e5801034    4...    STR      r1,[r0,#0x34]
        0x40000344:    e12fff1e    ../.    BX       lr
        0x40000348:    e5901018    ....    LDR      r1,[r0,#0x18]
        0x4000034c:    e3a02006    . ..    MOV      r2,#6
        0x40000350:    e7c21012    ....    BFI      r1,r2,#0,#3
        0x40000354:    e5801018    ....    STR      r1,[r0,#0x18]
        0x40000358:    e5901018    ....    LDR      r1,[r0,#0x18]
        0x4000035c:    e3c11f7e    ~...    BIC      r1,r1,#0x1f8
        0x40000360:    e5801018    ....    STR      r1,[r0,#0x18]
        0x40000364:    e3a0101c    ....    MOV      r1,#0x1c
        0x40000368:    e580102c    ,...    STR      r1,[r0,#0x2c]
        0x4000036c:    e3a01073    s...    MOV      r1,#0x73
        0x40000370:    e5801030    0...    STR      r1,[r0,#0x30]
        0x40000374:    e3a01085    ....    MOV      r1,#0x85
        0x40000378:    e5801034    4...    STR      r1,[r0,#0x34]
        0x4000037c:    e12fff1e    ../.    BX       lr
        0x40000380:    e5901018    ....    LDR      r1,[r0,#0x18]
        0x40000384:    e3a02006    . ..    MOV      r2,#6
        0x40000388:    e7c21012    ....    BFI      r1,r2,#0,#3
        0x4000038c:    e5801018    ....    STR      r1,[r0,#0x18]
        0x40000390:    e5901018    ....    LDR      r1,[r0,#0x18]
        0x40000394:    e3a02014    . ..    MOV      r2,#0x14
        0x40000398:    eaffffad    ....    B        0x40000254 ; I2C_masterInit + 288
        0x4000039c:    e5901018    ....    LDR      r1,[r0,#0x18]
        0x400003a0:    e3a02006    . ..    MOV      r2,#6
        0x400003a4:    e7c21012    ....    BFI      r1,r2,#0,#3
        0x400003a8:    e5801018    ....    STR      r1,[r0,#0x18]
        0x400003ac:    e5901018    ....    LDR      r1,[r0,#0x18]
        0x400003b0:    e3a02009    . ..    MOV      r2,#9
        0x400003b4:    eaffffa6    ....    B        0x40000254 ; I2C_masterInit + 288
        0x400003b8:    e5901018    ....    LDR      r1,[r0,#0x18]
        0x400003bc:    e3a02006    . ..    MOV      r2,#6
        0x400003c0:    e7c21012    ....    BFI      r1,r2,#0,#3
        0x400003c4:    e5801018    ....    STR      r1,[r0,#0x18]
        0x400003c8:    e5901018    ....    LDR      r1,[r0,#0x18]
        0x400003cc:    e3a02007    . ..    MOV      r2,#7
        0x400003d0:    eaffff9f    ....    B        0x40000254 ; I2C_masterInit + 288
        0x400003d4:    e5901018    ....    LDR      r1,[r0,#0x18]
        0x400003d8:    e3a02006    . ..    MOV      r2,#6
        0x400003dc:    e7c21012    ....    BFI      r1,r2,#0,#3
        0x400003e0:    e5801018    ....    STR      r1,[r0,#0x18]
        0x400003e4:    e5901018    ....    LDR      r1,[r0,#0x18]
        0x400003e8:    e3a02005    . ..    MOV      r2,#5
        0x400003ec:    eaffff98    ....    B        0x40000254 ; I2C_masterInit + 288
        0x400003f0:    e5901018    ....    LDR      r1,[r0,#0x18]
        0x400003f4:    e3a02006    . ..    MOV      r2,#6
        0x400003f8:    e7c21012    ....    BFI      r1,r2,#0,#3
        0x400003fc:    e5801018    ....    STR      r1,[r0,#0x18]
        0x40000400:    e5901018    ....    LDR      r1,[r0,#0x18]
        0x40000404:    e3a02003    . ..    MOV      r2,#3
        0x40000408:    e7c81192    ....    BFI      r1,r2,#3,#6
        0x4000040c:    e5801018    ....    STR      r1,[r0,#0x18]
        0x40000410:    e3a01000    ....    MOV      r1,#0
        0x40000414:    e580102c    ,...    STR      r1,[r0,#0x2c]
        0x40000418:    e5801030    0...    STR      r1,[r0,#0x30]
        0x4000041c:    ea000043    C...    B        0x40000530 ; I2C_masterInit + 1020
        0x40000420:    e5901018    ....    LDR      r1,[r0,#0x18]
        0x40000424:    e3a02006    . ..    MOV      r2,#6
        0x40000428:    e7c21012    ....    BFI      r1,r2,#0,#3
        0x4000042c:    e5801018    ....    STR      r1,[r0,#0x18]
        0x40000430:    e5901018    ....    LDR      r1,[r0,#0x18]
        0x40000434:    e3c11f7e    ~...    BIC      r1,r1,#0x1f8
        0x40000438:    e5801018    ....    STR      r1,[r0,#0x18]
        0x4000043c:    e3a0101c    ....    MOV      r1,#0x1c
        0x40000440:    e580102c    ,...    STR      r1,[r0,#0x2c]
        0x40000444:    e3001267    g...    MOV      r1,#0x267
        0x40000448:    e5801030    0...    STR      r1,[r0,#0x30]
        0x4000044c:    e3001279    y...    MOV      r1,#0x279
        0x40000450:    e5801034    4...    STR      r1,[r0,#0x34]
        0x40000454:    e12fff1e    ../.    BX       lr
        0x40000458:    e5901018    ....    LDR      r1,[r0,#0x18]
        0x4000045c:    e3a02006    . ..    MOV      r2,#6
        0x40000460:    e7c21012    ....    BFI      r1,r2,#0,#3
        0x40000464:    e5801018    ....    STR      r1,[r0,#0x18]
        0x40000468:    e5901018    ....    LDR      r1,[r0,#0x18]
        0x4000046c:    e3c11f7e    ~...    BIC      r1,r1,#0x1f8
        0x40000470:    e5801018    ....    STR      r1,[r0,#0x18]
        0x40000474:    e3a0101c    ....    MOV      r1,#0x1c
        0x40000478:    e580102c    ,...    STR      r1,[r0,#0x2c]
        0x4000047c:    e3001119    ....    MOV      r1,#0x119
        0x40000480:    e5801030    0...    STR      r1,[r0,#0x30]
        0x40000484:    e3a01f4b    K...    MOV      r1,#0x12c
        0x40000488:    e5801034    4...    STR      r1,[r0,#0x34]
        0x4000048c:    e12fff1e    ../.    BX       lr
        0x40000490:    e5901018    ....    LDR      r1,[r0,#0x18]
        0x40000494:    e3a02006    . ..    MOV      r2,#6
        0x40000498:    e7c21012    ....    BFI      r1,r2,#0,#3
        0x4000049c:    e5801018    ....    STR      r1,[r0,#0x18]
        0x400004a0:    e5901018    ....    LDR      r1,[r0,#0x18]
        0x400004a4:    e3c11f7e    ~...    BIC      r1,r1,#0x1f8
        0x400004a8:    e5801018    ....    STR      r1,[r0,#0x18]
        0x400004ac:    e3a0101c    ....    MOV      r1,#0x1c
        0x400004b0:    e580102c    ,...    STR      r1,[r0,#0x2c]
        0x400004b4:    e3a010d7    ....    MOV      r1,#0xd7
        0x400004b8:    e5801030    0...    STR      r1,[r0,#0x30]
        0x400004bc:    e3a010e9    ....    MOV      r1,#0xe9
        0x400004c0:    e5801034    4...    STR      r1,[r0,#0x34]
        0x400004c4:    e12fff1e    ../.    BX       lr
        0x400004c8:    e5901018    ....    LDR      r1,[r0,#0x18]
        0x400004cc:    e3a02006    . ..    MOV      r2,#6
        0x400004d0:    e7c21012    ....    BFI      r1,r2,#0,#3
        0x400004d4:    e5801018    ....    STR      r1,[r0,#0x18]
        0x400004d8:    e5901018    ....    LDR      r1,[r0,#0x18]
        0x400004dc:    e3c11f7e    ~...    BIC      r1,r1,#0x1f8
        0x400004e0:    e5801018    ....    STR      r1,[r0,#0x18]
        0x400004e4:    e3a0101c    ....    MOV      r1,#0x1c
        0x400004e8:    e580102c    ,...    STR      r1,[r0,#0x2c]
        0x400004ec:    e3a010aa    ....    MOV      r1,#0xaa
        0x400004f0:    e5801030    0...    STR      r1,[r0,#0x30]
        0x400004f4:    e3a010bd    ....    MOV      r1,#0xbd
        0x400004f8:    e5801034    4...    STR      r1,[r0,#0x34]
        0x400004fc:    e12fff1e    ../.    BX       lr
        0x40000500:    e5901018    ....    LDR      r1,[r0,#0x18]
        0x40000504:    e3a02006    . ..    MOV      r2,#6
        0x40000508:    e7c21012    ....    BFI      r1,r2,#0,#3
        0x4000050c:    e5801018    ....    STR      r1,[r0,#0x18]
        0x40000510:    e5901018    ....    LDR      r1,[r0,#0x18]
        0x40000514:    e3c11f7e    ~...    BIC      r1,r1,#0x1f8
        0x40000518:    e5801018    ....    STR      r1,[r0,#0x18]
        0x4000051c:    e3a0101b    ....    MOV      r1,#0x1b
        0x40000520:    e580102c    ,...    STR      r1,[r0,#0x2c]
        0x40000524:    e3a01020     ...    MOV      r1,#0x20
        0x40000528:    e5801030    0...    STR      r1,[r0,#0x30]
        0x4000052c:    e3a01027    '...    MOV      r1,#0x27
        0x40000530:    e5801034    4...    STR      r1,[r0,#0x34]
        0x40000534:    e5901028    (...    LDR      r1,[r0,#0x28]
        0x40000538:    e3811080    ....    ORR      r1,r1,#0x80
        0x4000053c:    e5801028    (...    STR      r1,[r0,#0x28]
        0x40000540:    e12fff1e    ../.    BX       lr
    I2C_masterReceiveMultipleByteFinish
        0x40000544:    e5900024    $...    LDR      r0,[r0,#0x24]
        0x40000548:    e12fff1e    ../.    BX       lr
    I2C_masterReceiveMultipleByteNext
        0x4000054c:    e5900024    $...    LDR      r0,[r0,#0x24]
        0x40000550:    e12fff1e    ../.    BX       lr
    I2C_masterReceiveMultipleByteStop
        0x40000554:    e5901004    ....    LDR      r1,[r0,#4]
        0x40000558:    e3811002    ....    ORR      r1,r1,#2
        0x4000055c:    e5801004    ....    STR      r1,[r0,#4]
        0x40000560:    e5900024    $...    LDR      r0,[r0,#0x24]
        0x40000564:    e12fff1e    ../.    BX       lr
    I2C_masterReceiveStart
        0x40000568:    e5901004    ....    LDR      r1,[r0,#4]
        0x4000056c:    e3811001    ....    ORR      r1,r1,#1
        0x40000570:    e5801004    ....    STR      r1,[r0,#4]
        0x40000574:    e12fff1e    ../.    BX       lr
    I2C_masterSendMultipleByteNext
        0x40000578:    e5801024    $...    STR      r1,[r0,#0x24]
        0x4000057c:    e12fff1e    ../.    BX       lr
    I2C_masterSendMultipleByteStart
        0x40000580:    e5801024    $...    STR      r1,[r0,#0x24]
        0x40000584:    e5901004    ....    LDR      r1,[r0,#4]
        0x40000588:    e3811001    ....    ORR      r1,r1,#1
        0x4000058c:    e5801004    ....    STR      r1,[r0,#4]
        0x40000590:    e12fff1e    ../.    BX       lr
    I2C_masterSendMultipleByteStop
        0x40000594:    e5901004    ....    LDR      r1,[r0,#4]
        0x40000598:    e3811002    ....    ORR      r1,r1,#2
        0x4000059c:    e5801004    ....    STR      r1,[r0,#4]
        0x400005a0:    e12fff1e    ../.    BX       lr
    I2C_modelConnect
        0x400005a4:    e92d0403    ..-.    PUSH     {r0,r1,r10}
        0x400005a8:    e3a0a000    ....    MOV      r10,#0
        0x400005ac:    e340a000    ..@.    MOVT     r10,#0
        0x400005b0:    e1a00600    ....    LSL      r0,r0,#12
        0x400005b4:    e1a01401    ....    LSL      r1,r1,#8
        0x400005b8:    e18aa000    ....    ORR      r10,r10,r0
        0x400005bc:    e18aa001    ....    ORR      r10,r10,r1
        0x400005c0:    e38aa001    ....    ORR      r10,r10,#1
        0x400005c4:    e34aa55a    Z.J.    MOVT     r10,#0xa55a
        0x400005c8:    e320f000    .. .    NOP      
        0x400005cc:    e320f000    .. .    NOP      
        0x400005d0:    e320f000    .. .    NOP      
        0x400005d4:    e320f000    .. .    NOP      
        0x400005d8:    e320f000    .. .    NOP      
        0x400005dc:    e320f000    .. .    NOP      
        0x400005e0:    e320f000    .. .    NOP      
        0x400005e4:    e320f000    .. .    NOP      
        0x400005e8:    e320f000    .. .    NOP      
        0x400005ec:    e320f000    .. .    NOP      
        0x400005f0:    e320f000    .. .    NOP      
        0x400005f4:    e320f000    .. .    NOP      
        0x400005f8:    e320f000    .. .    NOP      
        0x400005fc:    e320f000    .. .    NOP      
        0x40000600:    e320f000    .. .    NOP      
        0x40000604:    e320f000    .. .    NOP      
        0x40000608:    e320f000    .. .    NOP      
        0x4000060c:    e320f000    .. .    NOP      
        0x40000610:    e320f000    .. .    NOP      
        0x40000614:    e320f000    .. .    NOP      
        0x40000618:    e8bd0403    ....    POP      {r0,r1,r10}
        0x4000061c:    e12fff1e    ../.    BX       lr
    I2C_modelDisable
        0x40000620:    e52da004    ..-.    PUSH     {r10}
        0x40000624:    e3a0a000    ....    MOV      r10,#0
        0x40000628:    e34aa55a    Z.J.    MOVT     r10,#0xa55a
        0x4000062c:    e320f000    .. .    NOP      
        0x40000630:    e320f000    .. .    NOP      
        0x40000634:    e320f000    .. .    NOP      
        0x40000638:    e320f000    .. .    NOP      
        0x4000063c:    e320f000    .. .    NOP      
        0x40000640:    e320f000    .. .    NOP      
        0x40000644:    e320f000    .. .    NOP      
        0x40000648:    e320f000    .. .    NOP      
        0x4000064c:    e320f000    .. .    NOP      
        0x40000650:    e320f000    .. .    NOP      
        0x40000654:    e320f000    .. .    NOP      
        0x40000658:    e320f000    .. .    NOP      
        0x4000065c:    e320f000    .. .    NOP      
        0x40000660:    e320f000    .. .    NOP      
        0x40000664:    e320f000    .. .    NOP      
        0x40000668:    e320f000    .. .    NOP      
        0x4000066c:    e320f000    .. .    NOP      
        0x40000670:    e320f000    .. .    NOP      
        0x40000674:    e320f000    .. .    NOP      
        0x40000678:    e320f000    .. .    NOP      
        0x4000067c:    e49da004    ....    POP      {r10}
        0x40000680:    e12fff1e    ../.    BX       lr
    I2C_releasePins
        0x40000684:    e3000800    ....    MOVW     r0,#0x800
        0x40000688:    e34e0605    ..N.    MOVT     r0,#0xe605
        0x4000068c:    e2801c01    ....    ADD      r1,r0,#0x100
        0x40000690:    e30f2ffc    ./..    MOV      r2,#0xfffc
        0x40000694:    ea00011e    ....    B        PFC_ClearMultipleBit ; 0x40000b14
    I2C_slaveClearInterruptStatus
        0x40000698:    e5902008    . ..    LDR      r2,[r0,#8]
        0x4000069c:    e1c21001    ....    BIC      r1,r2,r1
        0x400006a0:    e5801008    ....    STR      r1,[r0,#8]
        0x400006a4:    e12fff1e    ../.    BX       lr
    I2C_slaveDisable
        0x400006a8:    e5901000    ....    LDR      r1,[r0,#0]
        0x400006ac:    e3c11004    ....    BIC      r1,r1,#4
        0x400006b0:    e5801000    ....    STR      r1,[r0,#0]
        0x400006b4:    e12fff1e    ../.    BX       lr
    I2C_slaveEnable
        0x400006b8:    e5901000    ....    LDR      r1,[r0,#0]
        0x400006bc:    e3811004    ....    ORR      r1,r1,#4
        0x400006c0:    e5801000    ....    STR      r1,[r0,#0]
        0x400006c4:    e12fff1e    ../.    BX       lr
    I2C_slaveInit
        0x400006c8:    e5d12000    . ..    LDRB     r2,[r1,#0]
        0x400006cc:    e580201c    . ..    STR      r2,[r0,#0x1c]
        0x400006d0:    e9911004    ....    LDMIB    r1,{r2,r12}
        0x400006d4:    e3a03008    .0..    MOV      r3,#8
        0x400006d8:    e3520001    ..R.    CMP      r2,#1
        0x400006dc:    03003018    .0..    MOVWEQ   r3,#0x18
        0x400006e0:    e35c0001    ..\.    CMP      r12,#1
        0x400006e4:    03833002    .0..    ORREQ    r3,r3,#2
        0x400006e8:    e5803000    .0..    STR      r3,[r0,#0]
        0x400006ec:    e591200c    . ..    LDR      r2,[r1,#0xc]
        0x400006f0:    e3520001    ..R.    CMP      r2,#1
        0x400006f4:    0a000016    ....    BEQ      0x40000754 ; I2C_slaveInit + 140
        0x400006f8:    e3520000    ..R.    CMP      r2,#0
        0x400006fc:    1a000030    0...    BNE      0x400007c4 ; I2C_slaveInit + 252
        0x40000700:    e5912010    . ..    LDR      r2,[r1,#0x10]
        0x40000704:    e3520001    ..R.    CMP      r2,#1
        0x40000708:    0a00003d    =...    BEQ      0x40000804 ; I2C_slaveInit + 316
        0x4000070c:    e3520000    ..R.    CMP      r2,#0
        0x40000710:    1a00002b    +...    BNE      0x400007c4 ; I2C_slaveInit + 252
        0x40000714:    e5902028    ( ..    LDR      r2,[r0,#0x28]
        0x40000718:    e3c22007    . ..    BIC      r2,r2,#7
        0x4000071c:    e5802028    ( ..    STR      r2,[r0,#0x28]
        0x40000720:    e5911014    ....    LDR      r1,[r1,#0x14]
        0x40000724:    e3510006    ..Q.    CMP      r1,#6
        0x40000728:    8a000028    (...    BHI      0x400007d0 ; I2C_slaveInit + 264
        0x4000072c:    e1a01101    ....    LSL      r1,r1,#2
        0x40000730:    e28f2000    . ..    ADR      r2,{pc}+8 ; 0x40000738
        0x40000734:    e791f002    ....    LDR      pc,[r1,r2]
    $d.1
        0x40000738:    400007a8    ...@    DCD    1073743784
        0x4000073c:    40000914    ...@    DCD    1073744148
        0x40000740:    40000930    0..@    DCD    1073744176
        0x40000744:    4000094c    L..@    DCD    1073744204
        0x40000748:    40000968    h..@    DCD    1073744232
        0x4000074c:    400007d0    ...@    DCD    1073743824
        0x40000750:    40000984    ...@    DCD    1073744260
    $a.2
        0x40000754:    e5912010    . ..    LDR      r2,[r1,#0x10]
        0x40000758:    e3520001    ..R.    CMP      r2,#1
        0x4000075c:    0a00003c    <...    BEQ      0x40000854 ; I2C_slaveInit + 396
        0x40000760:    e3520000    ..R.    CMP      r2,#0
        0x40000764:    1a000016    ....    BNE      0x400007c4 ; I2C_slaveInit + 252
        0x40000768:    e5902028    ( ..    LDR      r2,[r0,#0x28]
        0x4000076c:    e3c22007    . ..    BIC      r2,r2,#7
        0x40000770:    e5802028    ( ..    STR      r2,[r0,#0x28]
        0x40000774:    e5911014    ....    LDR      r1,[r1,#0x14]
        0x40000778:    e3510006    ..Q.    CMP      r1,#6
        0x4000077c:    8a000013    ....    BHI      0x400007d0 ; I2C_slaveInit + 264
        0x40000780:    e1a01101    ....    LSL      r1,r1,#2
        0x40000784:    e28f2000    . ..    ADR      r2,{pc}+8 ; 0x4000078c
        0x40000788:    e791f002    ....    LDR      pc,[r1,r2]
    $d.3
        0x4000078c:    400007a8    ...@    DCD    1073743784
        0x40000790:    40000914    ...@    DCD    1073744148
        0x40000794:    40000930    0..@    DCD    1073744176
        0x40000798:    4000094c    L..@    DCD    1073744204
        0x4000079c:    40000968    h..@    DCD    1073744232
        0x400007a0:    400007d0    ...@    DCD    1073743824
        0x400007a4:    40000984    ...@    DCD    1073744260
    $a.4
        0x400007a8:    e5901018    ....    LDR      r1,[r0,#0x18]
        0x400007ac:    e3a02006    . ..    MOV      r2,#6
        0x400007b0:    e7c21012    ....    BFI      r1,r2,#0,#3
        0x400007b4:    e5801018    ....    STR      r1,[r0,#0x18]
        0x400007b8:    e5901018    ....    LDR      r1,[r0,#0x18]
        0x400007bc:    e3a0202c    , ..    MOV      r2,#0x2c
        0x400007c0:    ea000008    ....    B        0x400007e8 ; I2C_slaveInit + 288
        0x400007c4:    e5901028    (...    LDR      r1,[r0,#0x28]
        0x400007c8:    e3c11007    ....    BIC      r1,r1,#7
        0x400007cc:    e5801028    (...    STR      r1,[r0,#0x28]
        0x400007d0:    e5901018    ....    LDR      r1,[r0,#0x18]
        0x400007d4:    e3a02006    . ..    MOV      r2,#6
        0x400007d8:    e7c21012    ....    BFI      r1,r2,#0,#3
        0x400007dc:    e5801018    ....    STR      r1,[r0,#0x18]
        0x400007e0:    e5901018    ....    LDR      r1,[r0,#0x18]
        0x400007e4:    e3a02003    . ..    MOV      r2,#3
        0x400007e8:    e7c81192    ....    BFI      r1,r2,#3,#6
        0x400007ec:    e5801018    ....    STR      r1,[r0,#0x18]
        0x400007f0:    e3a01000    ....    MOV      r1,#0
        0x400007f4:    e580102c    ,...    STR      r1,[r0,#0x2c]
        0x400007f8:    e5801030    0...    STR      r1,[r0,#0x30]
        0x400007fc:    e5801034    4...    STR      r1,[r0,#0x34]
        0x40000800:    e12fff1e    ../.    BX       lr
        0x40000804:    e5902028    ( ..    LDR      r2,[r0,#0x28]
        0x40000808:    e3822007    . ..    ORR      r2,r2,#7
        0x4000080c:    e5802028    ( ..    STR      r2,[r0,#0x28]
        0x40000810:    e5902038    8 ..    LDR      r2,[r0,#0x38]
        0x40000814:    e3a0300f    .0..    MOV      r3,#0xf
        0x40000818:    e7c42013    . ..    BFI      r2,r3,#0,#5
        0x4000081c:    e5802038    8 ..    STR      r2,[r0,#0x38]
        0x40000820:    e5911014    ....    LDR      r1,[r1,#0x14]
        0x40000824:    e3510006    ..Q.    CMP      r1,#6
        0x40000828:    8a00002b    +...    BHI      0x400008dc ; I2C_slaveInit + 532
        0x4000082c:    e1a01101    ....    LSL      r1,r1,#2
        0x40000830:    e28f2000    . ..    ADR      r2,{pc}+8 ; 0x40000838
        0x40000834:    e791f002    ....    LDR      pc,[r1,r2]
    $d.5
        0x40000838:    400008a4    ...@    DCD    1073744036
        0x4000083c:    400009b4    ...@    DCD    1073744308
        0x40000840:    400009ec    ...@    DCD    1073744364
        0x40000844:    40000a24    $..@    DCD    1073744420
        0x40000848:    40000a5c    \..@    DCD    1073744476
        0x4000084c:    400008dc    ...@    DCD    1073744092
        0x40000850:    40000a94    ...@    DCD    1073744532
    $a.6
        0x40000854:    e5902028    ( ..    LDR      r2,[r0,#0x28]
        0x40000858:    e3822007    . ..    ORR      r2,r2,#7
        0x4000085c:    e5802028    ( ..    STR      r2,[r0,#0x28]
        0x40000860:    e5902038    8 ..    LDR      r2,[r0,#0x38]
        0x40000864:    e3a0300f    .0..    MOV      r3,#0xf
        0x40000868:    e7c42013    . ..    BFI      r2,r3,#0,#5
        0x4000086c:    e5802038    8 ..    STR      r2,[r0,#0x38]
        0x40000870:    e5911014    ....    LDR      r1,[r1,#0x14]
        0x40000874:    e3510006    ..Q.    CMP      r1,#6
        0x40000878:    8a000017    ....    BHI      0x400008dc ; I2C_slaveInit + 532
        0x4000087c:    e1a01101    ....    LSL      r1,r1,#2
        0x40000880:    e28f2000    . ..    ADR      r2,{pc}+8 ; 0x40000888
        0x40000884:    e791f002    ....    LDR      pc,[r1,r2]
    $d.7
        0x40000888:    400008a4    ...@    DCD    1073744036
        0x4000088c:    400009b4    ...@    DCD    1073744308
        0x40000890:    400009ec    ...@    DCD    1073744364
        0x40000894:    40000a24    $..@    DCD    1073744420
        0x40000898:    40000a5c    \..@    DCD    1073744476
        0x4000089c:    400008dc    ...@    DCD    1073744092
        0x400008a0:    40000a94    ...@    DCD    1073744532
    $a.8
        0x400008a4:    e5901018    ....    LDR      r1,[r0,#0x18]
        0x400008a8:    e3a02006    . ..    MOV      r2,#6
        0x400008ac:    e7c21012    ....    BFI      r1,r2,#0,#3
        0x400008b0:    e5801018    ....    STR      r1,[r0,#0x18]
        0x400008b4:    e5901018    ....    LDR      r1,[r0,#0x18]
        0x400008b8:    e3c11f7e    ~...    BIC      r1,r1,#0x1f8
        0x400008bc:    e5801018    ....    STR      r1,[r0,#0x18]
        0x400008c0:    e3a0101c    ....    MOV      r1,#0x1c
        0x400008c4:    e580102c    ,...    STR      r1,[r0,#0x2c]
        0x400008c8:    e3001501    ....    MOV      r1,#0x501
        0x400008cc:    e5801030    0...    STR      r1,[r0,#0x30]
        0x400008d0:    e3001514    ....    MOV      r1,#0x514
        0x400008d4:    e5801034    4...    STR      r1,[r0,#0x34]
        0x400008d8:    e12fff1e    ../.    BX       lr
        0x400008dc:    e5901018    ....    LDR      r1,[r0,#0x18]
        0x400008e0:    e3a02006    . ..    MOV      r2,#6
        0x400008e4:    e7c21012    ....    BFI      r1,r2,#0,#3
        0x400008e8:    e5801018    ....    STR      r1,[r0,#0x18]
        0x400008ec:    e5901018    ....    LDR      r1,[r0,#0x18]
        0x400008f0:    e3c11f7e    ~...    BIC      r1,r1,#0x1f8
        0x400008f4:    e5801018    ....    STR      r1,[r0,#0x18]
        0x400008f8:    e3a0101c    ....    MOV      r1,#0x1c
        0x400008fc:    e580102c    ,...    STR      r1,[r0,#0x2c]
        0x40000900:    e3a01073    s...    MOV      r1,#0x73
        0x40000904:    e5801030    0...    STR      r1,[r0,#0x30]
        0x40000908:    e3a01085    ....    MOV      r1,#0x85
        0x4000090c:    e5801034    4...    STR      r1,[r0,#0x34]
        0x40000910:    e12fff1e    ../.    BX       lr
        0x40000914:    e5901018    ....    LDR      r1,[r0,#0x18]
        0x40000918:    e3a02006    . ..    MOV      r2,#6
        0x4000091c:    e7c21012    ....    BFI      r1,r2,#0,#3
        0x40000920:    e5801018    ....    STR      r1,[r0,#0x18]
        0x40000924:    e5901018    ....    LDR      r1,[r0,#0x18]
        0x40000928:    e3a02014    . ..    MOV      r2,#0x14
        0x4000092c:    eaffffad    ....    B        0x400007e8 ; I2C_slaveInit + 288
        0x40000930:    e5901018    ....    LDR      r1,[r0,#0x18]
        0x40000934:    e3a02006    . ..    MOV      r2,#6
        0x40000938:    e7c21012    ....    BFI      r1,r2,#0,#3
        0x4000093c:    e5801018    ....    STR      r1,[r0,#0x18]
        0x40000940:    e5901018    ....    LDR      r1,[r0,#0x18]
        0x40000944:    e3a02009    . ..    MOV      r2,#9
        0x40000948:    eaffffa6    ....    B        0x400007e8 ; I2C_slaveInit + 288
        0x4000094c:    e5901018    ....    LDR      r1,[r0,#0x18]
        0x40000950:    e3a02006    . ..    MOV      r2,#6
        0x40000954:    e7c21012    ....    BFI      r1,r2,#0,#3
        0x40000958:    e5801018    ....    STR      r1,[r0,#0x18]
        0x4000095c:    e5901018    ....    LDR      r1,[r0,#0x18]
        0x40000960:    e3a02007    . ..    MOV      r2,#7
        0x40000964:    eaffff9f    ....    B        0x400007e8 ; I2C_slaveInit + 288
        0x40000968:    e5901018    ....    LDR      r1,[r0,#0x18]
        0x4000096c:    e3a02006    . ..    MOV      r2,#6
        0x40000970:    e7c21012    ....    BFI      r1,r2,#0,#3
        0x40000974:    e5801018    ....    STR      r1,[r0,#0x18]
        0x40000978:    e5901018    ....    LDR      r1,[r0,#0x18]
        0x4000097c:    e3a02005    . ..    MOV      r2,#5
        0x40000980:    eaffff98    ....    B        0x400007e8 ; I2C_slaveInit + 288
        0x40000984:    e5901018    ....    LDR      r1,[r0,#0x18]
        0x40000988:    e3a02006    . ..    MOV      r2,#6
        0x4000098c:    e7c21012    ....    BFI      r1,r2,#0,#3
        0x40000990:    e5801018    ....    STR      r1,[r0,#0x18]
        0x40000994:    e5901018    ....    LDR      r1,[r0,#0x18]
        0x40000998:    e3a02003    . ..    MOV      r2,#3
        0x4000099c:    e7c81192    ....    BFI      r1,r2,#3,#6
        0x400009a0:    e5801018    ....    STR      r1,[r0,#0x18]
        0x400009a4:    e3a01000    ....    MOV      r1,#0
        0x400009a8:    e580102c    ,...    STR      r1,[r0,#0x2c]
        0x400009ac:    e5801030    0...    STR      r1,[r0,#0x30]
        0x400009b0:    ea000043    C...    B        0x40000ac4 ; I2C_slaveInit + 1020
        0x400009b4:    e5901018    ....    LDR      r1,[r0,#0x18]
        0x400009b8:    e3a02006    . ..    MOV      r2,#6
        0x400009bc:    e7c21012    ....    BFI      r1,r2,#0,#3
        0x400009c0:    e5801018    ....    STR      r1,[r0,#0x18]
        0x400009c4:    e5901018    ....    LDR      r1,[r0,#0x18]
        0x400009c8:    e3c11f7e    ~...    BIC      r1,r1,#0x1f8
        0x400009cc:    e5801018    ....    STR      r1,[r0,#0x18]
        0x400009d0:    e3a0101c    ....    MOV      r1,#0x1c
        0x400009d4:    e580102c    ,...    STR      r1,[r0,#0x2c]
        0x400009d8:    e3001267    g...    MOV      r1,#0x267
        0x400009dc:    e5801030    0...    STR      r1,[r0,#0x30]
        0x400009e0:    e3001279    y...    MOV      r1,#0x279
        0x400009e4:    e5801034    4...    STR      r1,[r0,#0x34]
        0x400009e8:    e12fff1e    ../.    BX       lr
        0x400009ec:    e5901018    ....    LDR      r1,[r0,#0x18]
        0x400009f0:    e3a02006    . ..    MOV      r2,#6
        0x400009f4:    e7c21012    ....    BFI      r1,r2,#0,#3
        0x400009f8:    e5801018    ....    STR      r1,[r0,#0x18]
        0x400009fc:    e5901018    ....    LDR      r1,[r0,#0x18]
        0x40000a00:    e3c11f7e    ~...    BIC      r1,r1,#0x1f8
        0x40000a04:    e5801018    ....    STR      r1,[r0,#0x18]
        0x40000a08:    e3a0101c    ....    MOV      r1,#0x1c
        0x40000a0c:    e580102c    ,...    STR      r1,[r0,#0x2c]
        0x40000a10:    e3001119    ....    MOV      r1,#0x119
        0x40000a14:    e5801030    0...    STR      r1,[r0,#0x30]
        0x40000a18:    e3a01f4b    K...    MOV      r1,#0x12c
        0x40000a1c:    e5801034    4...    STR      r1,[r0,#0x34]
        0x40000a20:    e12fff1e    ../.    BX       lr
        0x40000a24:    e5901018    ....    LDR      r1,[r0,#0x18]
        0x40000a28:    e3a02006    . ..    MOV      r2,#6
        0x40000a2c:    e7c21012    ....    BFI      r1,r2,#0,#3
        0x40000a30:    e5801018    ....    STR      r1,[r0,#0x18]
        0x40000a34:    e5901018    ....    LDR      r1,[r0,#0x18]
        0x40000a38:    e3c11f7e    ~...    BIC      r1,r1,#0x1f8
        0x40000a3c:    e5801018    ....    STR      r1,[r0,#0x18]
        0x40000a40:    e3a0101c    ....    MOV      r1,#0x1c
        0x40000a44:    e580102c    ,...    STR      r1,[r0,#0x2c]
        0x40000a48:    e3a010d7    ....    MOV      r1,#0xd7
        0x40000a4c:    e5801030    0...    STR      r1,[r0,#0x30]
        0x40000a50:    e3a010e9    ....    MOV      r1,#0xe9
        0x40000a54:    e5801034    4...    STR      r1,[r0,#0x34]
        0x40000a58:    e12fff1e    ../.    BX       lr
        0x40000a5c:    e5901018    ....    LDR      r1,[r0,#0x18]
        0x40000a60:    e3a02006    . ..    MOV      r2,#6
        0x40000a64:    e7c21012    ....    BFI      r1,r2,#0,#3
        0x40000a68:    e5801018    ....    STR      r1,[r0,#0x18]
        0x40000a6c:    e5901018    ....    LDR      r1,[r0,#0x18]
        0x40000a70:    e3c11f7e    ~...    BIC      r1,r1,#0x1f8
        0x40000a74:    e5801018    ....    STR      r1,[r0,#0x18]
        0x40000a78:    e3a0101c    ....    MOV      r1,#0x1c
        0x40000a7c:    e580102c    ,...    STR      r1,[r0,#0x2c]
        0x40000a80:    e3a010aa    ....    MOV      r1,#0xaa
        0x40000a84:    e5801030    0...    STR      r1,[r0,#0x30]
        0x40000a88:    e3a010bd    ....    MOV      r1,#0xbd
        0x40000a8c:    e5801034    4...    STR      r1,[r0,#0x34]
        0x40000a90:    e12fff1e    ../.    BX       lr
        0x40000a94:    e5901018    ....    LDR      r1,[r0,#0x18]
        0x40000a98:    e3a02006    . ..    MOV      r2,#6
        0x40000a9c:    e7c21012    ....    BFI      r1,r2,#0,#3
        0x40000aa0:    e5801018    ....    STR      r1,[r0,#0x18]
        0x40000aa4:    e5901018    ....    LDR      r1,[r0,#0x18]
        0x40000aa8:    e3c11f7e    ~...    BIC      r1,r1,#0x1f8
        0x40000aac:    e5801018    ....    STR      r1,[r0,#0x18]
        0x40000ab0:    e3a0101b    ....    MOV      r1,#0x1b
        0x40000ab4:    e580102c    ,...    STR      r1,[r0,#0x2c]
        0x40000ab8:    e3a01020     ...    MOV      r1,#0x20
        0x40000abc:    e5801030    0...    STR      r1,[r0,#0x30]
        0x40000ac0:    e3a01027    '...    MOV      r1,#0x27
        0x40000ac4:    e5801034    4...    STR      r1,[r0,#0x34]
        0x40000ac8:    e5901028    (...    LDR      r1,[r0,#0x28]
        0x40000acc:    e3811080    ....    ORR      r1,r1,#0x80
        0x40000ad0:    e5801028    (...    STR      r1,[r0,#0x28]
        0x40000ad4:    e12fff1e    ../.    BX       lr
    I2C_slaveReceiveMultipleByteFinish
        0x40000ad8:    e5900024    $...    LDR      r0,[r0,#0x24]
        0x40000adc:    e12fff1e    ../.    BX       lr
    I2C_slaveReceiveMultipleByteNext
        0x40000ae0:    e5900024    $...    LDR      r0,[r0,#0x24]
        0x40000ae4:    e12fff1e    ../.    BX       lr
    I2C_slaveReceiveMultipleByteStop
        0x40000ae8:    e5901000    ....    LDR      r1,[r0,#0]
        0x40000aec:    e3811001    ....    ORR      r1,r1,#1
        0x40000af0:    e5801000    ....    STR      r1,[r0,#0]
        0x40000af4:    e5900024    $...    LDR      r0,[r0,#0x24]
        0x40000af8:    e12fff1e    ../.    BX       lr
    I2C_slaveSetData
        0x40000afc:    e5801024    $...    STR      r1,[r0,#0x24]
        0x40000b00:    e12fff1e    ../.    BX       lr
    IRQ_Handler
        0x40000b04:    e92d4800    .H-.    PUSH     {r11,lr}
        0x40000b08:    ebfffd71    q...    BL       GIC_getACKID ; 0x400000d4
        0x40000b0c:    e8bd4800    .H..    POP      {r11,lr}
        0x40000b10:    eafffd6b    k...    B        GIC_executeInterruptHandler ; 0x400000c4
    PFC_ClearMultipleBit
        0x40000b14:    e5913000    .0..    LDR      r3,[r1,#0]
        0x40000b18:    e1c32002    . ..    BIC      r2,r3,r2
        0x40000b1c:    e1e03002    .0..    MVN      r3,r2
        0x40000b20:    e5803000    .0..    STR      r3,[r0,#0]
        0x40000b24:    e5812000    . ..    STR      r2,[r1,#0]
        0x40000b28:    e12fff1e    ../.    BX       lr
    PFC_SetMultipleBit
        0x40000b2c:    e5913000    .0..    LDR      r3,[r1,#0]
        0x40000b30:    e1832002    . ..    ORR      r2,r3,r2
        0x40000b34:    e1e03002    .0..    MVN      r3,r2
        0x40000b38:    e5803000    .0..    STR      r3,[r0,#0]
        0x40000b3c:    e5812000    . ..    STR      r2,[r1,#0]
        0x40000b40:    e12fff1e    ../.    BX       lr
    PrefetchAbort_Handler
        0x40000b44:    e92d4800    .H-.    PUSH     {r11,lr}
        0x40000b48:    eb00001c    ....    BL       Sim_Stop ; 0x40000bc0
        0x40000b4c:    eafffffe    ....    B        0x40000b4c ; PrefetchAbort_Handler + 8
    Sim_Delay
        0x40000b50:    e3500000    ..P.    CMP      r0,#0
        0x40000b54:    012fff1e    ../.    BXEQ     lr
        0x40000b58:    e30313d4    ....    MOV      r1,#0x33d4
        0x40000b5c:    e3441000    ..D.    MOVT     r1,#0x4000
        0x40000b60:    e5912000    . ..    LDR      r2,[r1,#0]
        0x40000b64:    e0820000    ....    ADD      r0,r2,r0
        0x40000b68:    e5810000    ....    STR      r0,[r1,#0]
        0x40000b6c:    e12fff1e    ../.    BX       lr
    Sim_Dump
        0x40000b70:    e30313d0    ....    MOV      r1,#0x33d0
        0x40000b74:    e3441000    ..D.    MOVT     r1,#0x4000
        0x40000b78:    e5912000    . ..    LDR      r2,[r1,#0]
        0x40000b7c:    e1a02102    .!..    LSL      r2,r2,#2
        0x40000b80:    e3a03301    .3..    MOV      r3,#0x4000000
        0x40000b84:    e7820003    ....    STR      r0,[r2,r3]
        0x40000b88:    e5910000    ....    LDR      r0,[r1,#0]
        0x40000b8c:    e2800001    ....    ADD      r0,r0,#1
        0x40000b90:    e5810000    ....    STR      r0,[r1,#0]
        0x40000b94:    e12fff1e    ../.    BX       lr
    Sim_Judge
        0x40000b98:    e3500001    ..P.    CMP      r0,#1
        0x40000b9c:    0a000004    ....    BEQ      0x40000bb4 ; Sim_Judge + 28
        0x40000ba0:    e3500000    ..P.    CMP      r0,#0
        0x40000ba4:    1a000002    ....    BNE      0x40000bb4 ; Sim_Judge + 28
        0x40000ba8:    e30e0bbe    ....    MOV      r0,#0xebbe
        0x40000bac:    e34e0bbe    ..N.    MOVT     r0,#0xebbe
        0x40000bb0:    eaffffee    ....    B        Sim_Dump ; 0x40000b70
        0x40000bb4:    e30a0dde    ....    MOV      r0,#0xadde
        0x40000bb8:    e34a0dde    ..J.    MOVT     r0,#0xadde
        0x40000bbc:    eaffffeb    ....    B        Sim_Dump ; 0x40000b70
    Sim_Stop
        0x40000bc0:    e3a0067f    ....    MOV      r0,#0x7f00000
        0x40000bc4:    e3a01000    ....    MOV      r1,#0
        0x40000bc8:    e5801000    ....    STR      r1,[r0,#0]
        0x40000bcc:    e12fff1e    ../.    BX       lr
    SupervisorCall_Handler
        0x40000bd0:    e92d4800    .H-.    PUSH     {r11,lr}
        0x40000bd4:    ebfffff9    ....    BL       Sim_Stop ; 0x40000bc0
        0x40000bd8:    eafffffe    ....    B        0x40000bd8 ; SupervisorCall_Handler + 8
    UndefinedInstruction_Handler
        0x40000bdc:    e92d4800    .H-.    PUSH     {r11,lr}
        0x40000be0:    ebfffff6    ....    BL       Sim_Stop ; 0x40000bc0
        0x40000be4:    eafffffe    ....    B        0x40000be4 ; UndefinedInstruction_Handler + 8
    _sys_exit
        0x40000be8:    eafffffe    ....    B        _sys_exit ; 0x40000be8
    main
        0x40000bec:    e92d48f0    .H-.    PUSH     {r4-r7,r11,lr}
        0x40000bf0:    ebfffd3e    >...    BL       I2C_configPins ; 0x400000f0
        0x40000bf4:    e3a06000    .`..    MOV      r6,#0
        0x40000bf8:    e3a04001    .@..    MOV      r4,#1
        0x40000bfc:    e3a00000    ....    MOV      r0,#0
        0x40000c00:    e3a01001    ....    MOV      r1,#1
        0x40000c04:    ebfffe66    f...    BL       I2C_modelConnect ; 0x400005a4
        0x40000c08:    e30373a4    .s..    MOV      r7,#0x33a4
        0x40000c0c:    e3447000    .pD.    MOVT     r7,#0x4000
        0x40000c10:    e30355e0    .U..    MOV      r5,#0x35e0
        0x40000c14:    e3445000    .PD.    MOVT     r5,#0x4000
        0x40000c18:    e7970106    ....    LDR      r0,[r7,r6,LSL #2]
        0x40000c1c:    e12fff30    0./.    BLX      r0
        0x40000c20:    e7850106    ....    STR      r0,[r5,r6,LSL #2]
        0x40000c24:    e3500001    ..P.    CMP      r0,#1
        0x40000c28:    0a000003    ....    BEQ      0x40000c3c ; main + 80
        0x40000c2c:    e2866001    .`..    ADD      r6,r6,#1
        0x40000c30:    e356000a    ..V.    CMP      r6,#0xa
        0x40000c34:    9afffff7    ....    BLS      0x40000c18 ; main + 44
        0x40000c38:    e3a04000    .@..    MOV      r4,#0
        0x40000c3c:    ebfffe77    w...    BL       I2C_modelDisable ; 0x40000620
        0x40000c40:    ebfffe8f    ....    BL       I2C_releasePins ; 0x40000684
        0x40000c44:    e3540000    ..T.    CMP      r4,#0
        0x40000c48:    0a000005    ....    BEQ      0x40000c64 ; main + 120
        0x40000c4c:    e3a06000    .`..    MOV      r6,#0
        0x40000c50:    e7950106    ....    LDR      r0,[r5,r6,LSL #2]
        0x40000c54:    ebffffc5    ....    BL       Sim_Dump ; 0x40000b70
        0x40000c58:    e2866001    .`..    ADD      r6,r6,#1
        0x40000c5c:    e356000b    ..V.    CMP      r6,#0xb
        0x40000c60:    1afffffa    ....    BNE      0x40000c50 ; main + 100
        0x40000c64:    e1a00004    ....    MOV      r0,r4
        0x40000c68:    ebffffca    ....    BL       Sim_Judge ; 0x40000b98
        0x40000c6c:    ebffffd3    ....    BL       Sim_Stop ; 0x40000bc0
        0x40000c70:    eafffffe    ....    B        0x40000c70 ; main + 132
    renesas_slave_rx
        0x40000c74:    e92d4ff0    .O-.    PUSH     {r4-r11,lr}
        0x40000c78:    e24dd004    ..M.    SUB      sp,sp,#4
        0x40000c7c:    e3084000    .@..    MOVW     r4,#0x8000
        0x40000c80:    e34e4650    PFN.    MOVT     r4,#0xe650
        0x40000c84:    e30210b0    ....    MOV      r1,#0x20b0
        0x40000c88:    e3441000    ..D.    MOVT     r1,#0x4000
        0x40000c8c:    e1a00004    ....    MOV      r0,r4
        0x40000c90:    ebfffd27    '...    BL       I2C_masterInit ; 0x40000134
        0x40000c94:    e1a00004    ....    MOV      r0,r4
        0x40000c98:    e3e01000    ....    MVN      r1,#0
        0x40000c9c:    ebfffd18    ....    BL       I2C_masterClearInterruptStatus ; 0x40000104
        0x40000ca0:    e1a00004    ....    MOV      r0,r4
        0x40000ca4:    ebfffd1e    ....    BL       I2C_masterEnable ; 0x40000124
        0x40000ca8:    e244a902    ..D.    SUB      r10,r4,#0x8000
        0x40000cac:    e30213c0    ....    MOVW     r1,#0x23c0
        0x40000cb0:    e3441000    ..D.    MOVT     r1,#0x4000
        0x40000cb4:    e1a0000a    ....    MOV      r0,r10
        0x40000cb8:    ebfffe82    ....    BL       I2C_slaveInit ; 0x400006c8
        0x40000cbc:    e3080000    ....    MOVW     r0,#0x8000
        0x40000cc0:    e34f0fff    ..O.    MOVT     r0,#0xffff
        0x40000cc4:    e7941000    ....    LDR      r1,[r4,r0]
        0x40000cc8:    e3c11008    ....    BIC      r1,r1,#8
        0x40000ccc:    e7841000    ....    STR      r1,[r4,r0]
        0x40000cd0:    e1a0000a    ....    MOV      r0,r10
        0x40000cd4:    e3e01000    ....    MVN      r1,#0
        0x40000cd8:    ebfffe6e    n...    BL       I2C_slaveClearInterruptStatus ; 0x40000698
        0x40000cdc:    e1a0000a    ....    MOV      r0,r10
        0x40000ce0:    ebfffe74    t...    BL       I2C_slaveEnable ; 0x400006b8
        0x40000ce4:    e1a00004    ....    MOV      r0,r4
        0x40000ce8:    e3a01048    H...    MOV      r1,#0x48
        0x40000cec:    ebfffe23    #...    BL       I2C_masterSendMultipleByteStart ; 0x40000580
        0x40000cf0:    e3086008    .`..    MOV      r6,#0x8008
        0x40000cf4:    e34f6fff    .oO.    MOVT     r6,#0xffff
        0x40000cf8:    e7940006    ....    LDR      r0,[r4,r6]
        0x40000cfc:    e3100001    ....    TST      r0,#1
        0x40000d00:    0afffffc    ....    BEQ      0x40000cf8 ; renesas_slave_rx + 132
        0x40000d04:    e1a0000a    ....    MOV      r0,r10
        0x40000d08:    e3a01001    ....    MOV      r1,#1
        0x40000d0c:    ebfffe61    a...    BL       I2C_slaveClearInterruptStatus ; 0x40000698
        0x40000d10:    e308700c    .p..    MOV      r7,#0x800c
        0x40000d14:    e34e7650    PvN.    MOVT     r7,#0xe650
        0x40000d18:    e5970000    ....    LDR      r0,[r7,#0]
        0x40000d1c:    e3100001    ....    TST      r0,#1
        0x40000d20:    0afffffc    ....    BEQ      0x40000d18 ; renesas_slave_rx + 164
        0x40000d24:    e5170008    ....    LDR      r0,[r7,#-8]
        0x40000d28:    e3c00001    ....    BIC      r0,r0,#1
        0x40000d2c:    e5070008    ....    STR      r0,[r7,#-8]
        0x40000d30:    e1a00004    ....    MOV      r0,r4
        0x40000d34:    e3a01009    ....    MOV      r1,#9
        0x40000d38:    ebfffcf1    ....    BL       I2C_masterClearInterruptStatus ; 0x40000104
        0x40000d3c:    e3a05001    .P..    MOV      r5,#1
        0x40000d40:    e302820c    ....    MOV      r8,#0x220c
        0x40000d44:    e3448000    ..D.    MOVT     r8,#0x4000
        0x40000d48:    e3039474    t...    MOV      r9,#0x3474
        0x40000d4c:    e3449000    ..D.    MOVT     r9,#0x4000
        0x40000d50:    e5970000    ....    LDR      r0,[r7,#0]
        0x40000d54:    e3100008    ....    TST      r0,#8
        0x40000d58:    0afffffc    ....    BEQ      0x40000d50 ; renesas_slave_rx + 220
        0x40000d5c:    e355000c    ..U.    CMP      r5,#0xc
        0x40000d60:    8a000003    ....    BHI      0x40000d74 ; renesas_slave_rx + 256
        0x40000d64:    e7981105    ....    LDR      r1,[r8,r5,LSL #2]
        0x40000d68:    e1a00004    ....    MOV      r0,r4
        0x40000d6c:    ebfffe01    ....    BL       I2C_masterSendMultipleByteNext ; 0x40000578
        0x40000d70:    ea000003    ....    B        0x40000d84 ; renesas_slave_rx + 272
        0x40000d74:    e355000d    ..U.    CMP      r5,#0xd
        0x40000d78:    1a000001    ....    BNE      0x40000d84 ; renesas_slave_rx + 272
        0x40000d7c:    e1a00004    ....    MOV      r0,r4
        0x40000d80:    ebfffe03    ....    BL       I2C_masterSendMultipleByteStop ; 0x40000594
        0x40000d84:    e1a00004    ....    MOV      r0,r4
        0x40000d88:    e3a01008    ....    MOV      r1,#8
        0x40000d8c:    ebfffcdc    ....    BL       I2C_masterClearInterruptStatus ; 0x40000104
        0x40000d90:    e5970000    ....    LDR      r0,[r7,#0]
        0x40000d94:    e3100004    ....    TST      r0,#4
        0x40000d98:    0afffffc    ....    BEQ      0x40000d90 ; renesas_slave_rx + 284
        0x40000d9c:    e1a00004    ....    MOV      r0,r4
        0x40000da0:    e3a01004    ....    MOV      r1,#4
        0x40000da4:    ebfffcd6    ....    BL       I2C_masterClearInterruptStatus ; 0x40000104
        0x40000da8:    e7940006    ....    LDR      r0,[r4,r6]
        0x40000dac:    e3100002    ....    TST      r0,#2
        0x40000db0:    0afffffc    ....    BEQ      0x40000da8 ; renesas_slave_rx + 308
        0x40000db4:    e089b105    ....    ADD      r11,r9,r5,LSL #2
        0x40000db8:    e1a0000a    ....    MOV      r0,r10
        0x40000dbc:    ebffff47    G...    BL       I2C_slaveReceiveMultipleByteNext ; 0x40000ae0
        0x40000dc0:    e50b0004    ....    STR      r0,[r11,#-4]
        0x40000dc4:    e1a0000a    ....    MOV      r0,r10
        0x40000dc8:    e3a01002    ....    MOV      r1,#2
        0x40000dcc:    ebfffe31    1...    BL       I2C_slaveClearInterruptStatus ; 0x40000698
        0x40000dd0:    e2855001    .P..    ADD      r5,r5,#1
        0x40000dd4:    e355000e    ..U.    CMP      r5,#0xe
        0x40000dd8:    1affffdc    ....    BNE      0x40000d50 ; renesas_slave_rx + 220
        0x40000ddc:    e7940006    ....    LDR      r0,[r4,r6]
        0x40000de0:    e3100010    ....    TST      r0,#0x10
        0x40000de4:    0afffffc    ....    BEQ      0x40000ddc ; renesas_slave_rx + 360
        0x40000de8:    e1a0000a    ....    MOV      r0,r10
        0x40000dec:    e3a01010    ....    MOV      r1,#0x10
        0x40000df0:    ebfffe28    (...    BL       I2C_slaveClearInterruptStatus ; 0x40000698
        0x40000df4:    e5970000    ....    LDR      r0,[r7,#0]
        0x40000df8:    e3100010    ....    TST      r0,#0x10
        0x40000dfc:    0afffffc    ....    BEQ      0x40000df4 ; renesas_slave_rx + 384
        0x40000e00:    e1a00004    ....    MOV      r0,r4
        0x40000e04:    e3a01010    ....    MOV      r1,#0x10
        0x40000e08:    ebfffcbd    ....    BL       I2C_masterClearInterruptStatus ; 0x40000104
        0x40000e0c:    e1a00004    ....    MOV      r0,r4
        0x40000e10:    ebfffcbf    ....    BL       I2C_masterDisable ; 0x40000114
        0x40000e14:    e1a0000a    ....    MOV      r0,r10
        0x40000e18:    ebfffe22    "...    BL       I2C_slaveDisable ; 0x400006a8
        0x40000e1c:    e3a00000    ....    MOV      r0,#0
        0x40000e20:    e7981100    ....    LDR      r1,[r8,r0,LSL #2]
        0x40000e24:    e7d92100    .!..    LDRB     r2,[r9,r0,LSL #2]
        0x40000e28:    e1520001    ..R.    CMP      r2,r1
        0x40000e2c:    1a000005    ....    BNE      0x40000e48 ; renesas_slave_rx + 468
        0x40000e30:    e2800001    ....    ADD      r0,r0,#1
        0x40000e34:    e350000c    ..P.    CMP      r0,#0xc
        0x40000e38:    9afffff8    ....    BLS      0x40000e20 ; renesas_slave_rx + 428
        0x40000e3c:    e3a00000    ....    MOV      r0,#0
        0x40000e40:    e28dd004    ....    ADD      sp,sp,#4
        0x40000e44:    e8bd8ff0    ....    POP      {r4-r11,pc}
        0x40000e48:    e3a00001    ....    MOV      r0,#1
        0x40000e4c:    e28dd004    ....    ADD      sp,sp,#4
        0x40000e50:    e8bd8ff0    ....    POP      {r4-r11,pc}
    renesas_slave_rx_fna
        0x40000e54:    e92d4bf0    .K-.    PUSH     {r4-r9,r11,lr}
        0x40000e58:    e3004000    .@..    MOVW     r4,#0
        0x40000e5c:    e34e4650    PFN.    MOVT     r4,#0xe650
        0x40000e60:    e2848902    ....    ADD      r8,r4,#0x8000
        0x40000e64:    e3021080    ....    MOVW     r1,#0x2080
        0x40000e68:    e3441000    ..D.    MOVT     r1,#0x4000
        0x40000e6c:    e1a00008    ....    MOV      r0,r8
        0x40000e70:    ebfffcaf    ....    BL       I2C_masterInit ; 0x40000134
        0x40000e74:    e1a00008    ....    MOV      r0,r8
        0x40000e78:    e3e01000    ....    MVN      r1,#0
        0x40000e7c:    ebfffca0    ....    BL       I2C_masterClearInterruptStatus ; 0x40000104
        0x40000e80:    e1a00008    ....    MOV      r0,r8
        0x40000e84:    ebfffca6    ....    BL       I2C_masterEnable ; 0x40000124
        0x40000e88:    e3021390    ....    MOV      r1,#0x2390
        0x40000e8c:    e3441000    ..D.    MOVT     r1,#0x4000
        0x40000e90:    e1a00004    ....    MOV      r0,r4
        0x40000e94:    ebfffe0b    ....    BL       I2C_slaveInit ; 0x400006c8
        0x40000e98:    e5940000    ....    LDR      r0,[r4,#0]
        0x40000e9c:    e3c00008    ....    BIC      r0,r0,#8
        0x40000ea0:    e5840000    ....    STR      r0,[r4,#0]
        0x40000ea4:    e1a00004    ....    MOV      r0,r4
        0x40000ea8:    e3e01000    ....    MVN      r1,#0
        0x40000eac:    ebfffdf9    ....    BL       I2C_slaveClearInterruptStatus ; 0x40000698
        0x40000eb0:    e1a00004    ....    MOV      r0,r4
        0x40000eb4:    ebfffdff    ....    BL       I2C_slaveEnable ; 0x400006b8
        0x40000eb8:    e1a00008    ....    MOV      r0,r8
        0x40000ebc:    e3a01048    H...    MOV      r1,#0x48
        0x40000ec0:    ebfffdae    ....    BL       I2C_masterSendMultipleByteStart ; 0x40000580
        0x40000ec4:    e5940008    ....    LDR      r0,[r4,#8]
        0x40000ec8:    e3100001    ....    TST      r0,#1
        0x40000ecc:    0afffffc    ....    BEQ      0x40000ec4 ; renesas_slave_rx_fna + 112
        0x40000ed0:    e1a00004    ....    MOV      r0,r4
        0x40000ed4:    e3a01001    ....    MOV      r1,#1
        0x40000ed8:    ebfffdee    ....    BL       I2C_slaveClearInterruptStatus ; 0x40000698
        0x40000edc:    e308500c    .P..    MOV      r5,#0x800c
        0x40000ee0:    e34e5650    PVN.    MOVT     r5,#0xe650
        0x40000ee4:    e5950000    ....    LDR      r0,[r5,#0]
        0x40000ee8:    e3100001    ....    TST      r0,#1
        0x40000eec:    0afffffc    ....    BEQ      0x40000ee4 ; renesas_slave_rx_fna + 144
        0x40000ef0:    e5150008    ....    LDR      r0,[r5,#-8]
        0x40000ef4:    e3c00001    ....    BIC      r0,r0,#1
        0x40000ef8:    e5050008    ....    STR      r0,[r5,#-8]
        0x40000efc:    e1a00008    ....    MOV      r0,r8
        0x40000f00:    e3a01009    ....    MOV      r1,#9
        0x40000f04:    ebfffc7e    ~...    BL       I2C_masterClearInterruptStatus ; 0x40000104
        0x40000f08:    e3a06001    .`..    MOV      r6,#1
        0x40000f0c:    e30291a4    ....    MOV      r9,#0x21a4
        0x40000f10:    e3449000    ..D.    MOVT     r9,#0x4000
        0x40000f14:    e303740c    .t..    MOV      r7,#0x340c
        0x40000f18:    e3447000    .pD.    MOVT     r7,#0x4000
        0x40000f1c:    e5950000    ....    LDR      r0,[r5,#0]
        0x40000f20:    e3100008    ....    TST      r0,#8
        0x40000f24:    0afffffc    ....    BEQ      0x40000f1c ; renesas_slave_rx_fna + 200
        0x40000f28:    e356000c    ..V.    CMP      r6,#0xc
        0x40000f2c:    8a000002    ....    BHI      0x40000f3c ; renesas_slave_rx_fna + 232
        0x40000f30:    e7991106    ....    LDR      r1,[r9,r6,LSL #2]
        0x40000f34:    e1a00008    ....    MOV      r0,r8
        0x40000f38:    ebfffd8e    ....    BL       I2C_masterSendMultipleByteNext ; 0x40000578
        0x40000f3c:    e1a00008    ....    MOV      r0,r8
        0x40000f40:    e3a01008    ....    MOV      r1,#8
        0x40000f44:    ebfffc6e    n...    BL       I2C_masterClearInterruptStatus ; 0x40000104
        0x40000f48:    e5950000    ....    LDR      r0,[r5,#0]
        0x40000f4c:    e3100004    ....    TST      r0,#4
        0x40000f50:    0afffffc    ....    BEQ      0x40000f48 ; renesas_slave_rx_fna + 244
        0x40000f54:    e1a00008    ....    MOV      r0,r8
        0x40000f58:    e3a01004    ....    MOV      r1,#4
        0x40000f5c:    ebfffc68    h...    BL       I2C_masterClearInterruptStatus ; 0x40000104
        0x40000f60:    e5940008    ....    LDR      r0,[r4,#8]
        0x40000f64:    e3100002    ....    TST      r0,#2
        0x40000f68:    0afffffc    ....    BEQ      0x40000f60 ; renesas_slave_rx_fna + 268
        0x40000f6c:    e356000b    ..V.    CMP      r6,#0xb
        0x40000f70:    8a000002    ....    BHI      0x40000f80 ; renesas_slave_rx_fna + 300
        0x40000f74:    e1a00004    ....    MOV      r0,r4
        0x40000f78:    ebfffed8    ....    BL       I2C_slaveReceiveMultipleByteNext ; 0x40000ae0
        0x40000f7c:    ea000009    ....    B        0x40000fa8 ; renesas_slave_rx_fna + 340
        0x40000f80:    e6ef0076    v...    UXTB     r0,r6
        0x40000f84:    e350000d    ..P.    CMP      r0,#0xd
        0x40000f88:    0a000004    ....    BEQ      0x40000fa0 ; renesas_slave_rx_fna + 332
        0x40000f8c:    e350000c    ..P.    CMP      r0,#0xc
        0x40000f90:    1a000006    ....    BNE      0x40000fb0 ; renesas_slave_rx_fna + 348
        0x40000f94:    e1a00004    ....    MOV      r0,r4
        0x40000f98:    ebfffed2    ....    BL       I2C_slaveReceiveMultipleByteStop ; 0x40000ae8
        0x40000f9c:    ea000001    ....    B        0x40000fa8 ; renesas_slave_rx_fna + 340
        0x40000fa0:    e1a00004    ....    MOV      r0,r4
        0x40000fa4:    ebfffecb    ....    BL       I2C_slaveReceiveMultipleByteFinish ; 0x40000ad8
        0x40000fa8:    e0871106    ....    ADD      r1,r7,r6,LSL #2
        0x40000fac:    e5010004    ....    STR      r0,[r1,#-4]
        0x40000fb0:    e1a00004    ....    MOV      r0,r4
        0x40000fb4:    e3a01002    ....    MOV      r1,#2
        0x40000fb8:    ebfffdb6    ....    BL       I2C_slaveClearInterruptStatus ; 0x40000698
        0x40000fbc:    e2866001    .`..    ADD      r6,r6,#1
        0x40000fc0:    e356000e    ..V.    CMP      r6,#0xe
        0x40000fc4:    1affffd4    ....    BNE      0x40000f1c ; renesas_slave_rx_fna + 200
        0x40000fc8:    e5950000    ....    LDR      r0,[r5,#0]
        0x40000fcc:    e3100040    @...    TST      r0,#0x40
        0x40000fd0:    0afffffc    ....    BEQ      0x40000fc8 ; renesas_slave_rx_fna + 372
        0x40000fd4:    e1a00008    ....    MOV      r0,r8
        0x40000fd8:    e3a01040    @...    MOV      r1,#0x40
        0x40000fdc:    ebfffc48    H...    BL       I2C_masterClearInterruptStatus ; 0x40000104
        0x40000fe0:    e5940008    ....    LDR      r0,[r4,#8]
        0x40000fe4:    e3100010    ....    TST      r0,#0x10
        0x40000fe8:    0afffffc    ....    BEQ      0x40000fe0 ; renesas_slave_rx_fna + 396
        0x40000fec:    e1a00004    ....    MOV      r0,r4
        0x40000ff0:    e3a01010    ....    MOV      r1,#0x10
        0x40000ff4:    ebfffda7    ....    BL       I2C_slaveClearInterruptStatus ; 0x40000698
        0x40000ff8:    e5950000    ....    LDR      r0,[r5,#0]
        0x40000ffc:    e3100010    ....    TST      r0,#0x10
        0x40001000:    0afffffc    ....    BEQ      0x40000ff8 ; renesas_slave_rx_fna + 420
        0x40001004:    e1a00008    ....    MOV      r0,r8
        0x40001008:    e3a01010    ....    MOV      r1,#0x10
        0x4000100c:    ebfffc3c    <...    BL       I2C_masterClearInterruptStatus ; 0x40000104
        0x40001010:    e1a00008    ....    MOV      r0,r8
        0x40001014:    ebfffc3e    >...    BL       I2C_masterDisable ; 0x40000114
        0x40001018:    e1a00004    ....    MOV      r0,r4
        0x4000101c:    ebfffda1    ....    BL       I2C_slaveDisable ; 0x400006a8
        0x40001020:    e3a00000    ....    MOV      r0,#0
        0x40001024:    e5991000    ....    LDR      r1,[r9,#0]
        0x40001028:    e5d72000    . ..    LDRB     r2,[r7,#0]
        0x4000102c:    e1520001    ..R.    CMP      r2,r1
        0x40001030:    1a000007    ....    BNE      0x40001054 ; renesas_slave_rx_fna + 512
        0x40001034:    e2800001    ....    ADD      r0,r0,#1
        0x40001038:    e2899004    ....    ADD      r9,r9,#4
        0x4000103c:    e2877004    .p..    ADD      r7,r7,#4
        0x40001040:    e6ef1070    p...    UXTB     r1,r0
        0x40001044:    e351000c    ..Q.    CMP      r1,#0xc
        0x40001048:    9afffff5    ....    BLS      0x40001024 ; renesas_slave_rx_fna + 464
        0x4000104c:    e3a00000    ....    MOV      r0,#0
        0x40001050:    e8bd8bf0    ....    POP      {r4-r9,r11,pc}
        0x40001054:    e3a00001    ....    MOV      r0,#1
        0x40001058:    e8bd8bf0    ....    POP      {r4-r9,r11,pc}
    renesas_slave_rx_fna_sdbs
        0x4000105c:    e92d47f0    .G-.    PUSH     {r4-r10,lr}
        0x40001060:    e3084000    .@..    MOVW     r4,#0x8000
        0x40001064:    e34e4650    PFN.    MOVT     r4,#0xe650
        0x40001068:    e30210e0    ....    MOV      r1,#0x20e0
        0x4000106c:    e3441000    ..D.    MOVT     r1,#0x4000
        0x40001070:    e1a00004    ....    MOV      r0,r4
        0x40001074:    ebfffc2e    ....    BL       I2C_masterInit ; 0x40000134
        0x40001078:    e1a00004    ....    MOV      r0,r4
        0x4000107c:    e3e01000    ....    MVN      r1,#0
        0x40001080:    ebfffc1f    ....    BL       I2C_masterClearInterruptStatus ; 0x40000104
        0x40001084:    e1a00004    ....    MOV      r0,r4
        0x40001088:    ebfffc25    %...    BL       I2C_masterEnable ; 0x40000124
        0x4000108c:    e2448902    ..D.    SUB      r8,r4,#0x8000
        0x40001090:    e30213f0    ....    MOV      r1,#0x23f0
        0x40001094:    e3441000    ..D.    MOVT     r1,#0x4000
        0x40001098:    e1a00008    ....    MOV      r0,r8
        0x4000109c:    ebfffd89    ....    BL       I2C_slaveInit ; 0x400006c8
        0x400010a0:    e1a00008    ....    MOV      r0,r8
        0x400010a4:    e3e01000    ....    MVN      r1,#0
        0x400010a8:    ebfffd7a    z...    BL       I2C_slaveClearInterruptStatus ; 0x40000698
        0x400010ac:    e1a00008    ....    MOV      r0,r8
        0x400010b0:    ebfffd80    ....    BL       I2C_slaveEnable ; 0x400006b8
        0x400010b4:    e1a00004    ....    MOV      r0,r4
        0x400010b8:    e3a01048    H...    MOV      r1,#0x48
        0x400010bc:    ebfffd2f    /...    BL       I2C_masterSendMultipleByteStart ; 0x40000580
        0x400010c0:    e3085008    .P..    MOV      r5,#0x8008
        0x400010c4:    e34f5fff    ._O.    MOVT     r5,#0xffff
        0x400010c8:    e7940005    ....    LDR      r0,[r4,r5]
        0x400010cc:    e3100001    ....    TST      r0,#1
        0x400010d0:    0afffffc    ....    BEQ      0x400010c8 ; renesas_slave_rx_fna_sdbs + 108
        0x400010d4:    e1a00008    ....    MOV      r0,r8
        0x400010d8:    e3a01001    ....    MOV      r1,#1
        0x400010dc:    ebfffd6d    m...    BL       I2C_slaveClearInterruptStatus ; 0x40000698
        0x400010e0:    e308600c    .`..    MOV      r6,#0x800c
        0x400010e4:    e34e6650    PfN.    MOVT     r6,#0xe650
        0x400010e8:    e5960000    ....    LDR      r0,[r6,#0]
        0x400010ec:    e3100001    ....    TST      r0,#1
        0x400010f0:    0afffffc    ....    BEQ      0x400010e8 ; renesas_slave_rx_fna_sdbs + 140
        0x400010f4:    e5160008    ....    LDR      r0,[r6,#-8]
        0x400010f8:    e3c00001    ....    BIC      r0,r0,#1
        0x400010fc:    e5060008    ....    STR      r0,[r6,#-8]
        0x40001100:    e1a00004    ....    MOV      r0,r4
        0x40001104:    e3a01009    ....    MOV      r1,#9
        0x40001108:    ebfffbfd    ....    BL       I2C_masterClearInterruptStatus ; 0x40000104
        0x4000110c:    e3a07001    .p..    MOV      r7,#1
        0x40001110:    e3029274    t...    MOV      r9,#0x2274
        0x40001114:    e3449000    ..D.    MOVT     r9,#0x4000
        0x40001118:    e303a4dc    ....    MOV      r10,#0x34dc
        0x4000111c:    e344a000    ..D.    MOVT     r10,#0x4000
        0x40001120:    e5960000    ....    LDR      r0,[r6,#0]
        0x40001124:    e3100008    ....    TST      r0,#8
        0x40001128:    0afffffc    ....    BEQ      0x40001120 ; renesas_slave_rx_fna_sdbs + 196
        0x4000112c:    e357000c    ..W.    CMP      r7,#0xc
        0x40001130:    8a000002    ....    BHI      0x40001140 ; renesas_slave_rx_fna_sdbs + 228
        0x40001134:    e7991107    ....    LDR      r1,[r9,r7,LSL #2]
        0x40001138:    e1a00004    ....    MOV      r0,r4
        0x4000113c:    ebfffd0d    ....    BL       I2C_masterSendMultipleByteNext ; 0x40000578
        0x40001140:    e1a00004    ....    MOV      r0,r4
        0x40001144:    e3a01008    ....    MOV      r1,#8
        0x40001148:    ebfffbed    ....    BL       I2C_masterClearInterruptStatus ; 0x40000104
        0x4000114c:    e5960000    ....    LDR      r0,[r6,#0]
        0x40001150:    e3100004    ....    TST      r0,#4
        0x40001154:    0afffffc    ....    BEQ      0x4000114c ; renesas_slave_rx_fna_sdbs + 240
        0x40001158:    e1a00004    ....    MOV      r0,r4
        0x4000115c:    e3a01004    ....    MOV      r1,#4
        0x40001160:    ebfffbe7    ....    BL       I2C_masterClearInterruptStatus ; 0x40000104
        0x40001164:    e7940005    ....    LDR      r0,[r4,r5]
        0x40001168:    e3100002    ....    TST      r0,#2
        0x4000116c:    0afffffc    ....    BEQ      0x40001164 ; renesas_slave_rx_fna_sdbs + 264
        0x40001170:    e357000b    ..W.    CMP      r7,#0xb
        0x40001174:    8a000002    ....    BHI      0x40001184 ; renesas_slave_rx_fna_sdbs + 296
        0x40001178:    e1a00008    ....    MOV      r0,r8
        0x4000117c:    ebfffe57    W...    BL       I2C_slaveReceiveMultipleByteNext ; 0x40000ae0
        0x40001180:    ea000009    ....    B        0x400011ac ; renesas_slave_rx_fna_sdbs + 336
        0x40001184:    e6ef0077    w...    UXTB     r0,r7
        0x40001188:    e350000d    ..P.    CMP      r0,#0xd
        0x4000118c:    0a000004    ....    BEQ      0x400011a4 ; renesas_slave_rx_fna_sdbs + 328
        0x40001190:    e350000c    ..P.    CMP      r0,#0xc
        0x40001194:    1a000006    ....    BNE      0x400011b4 ; renesas_slave_rx_fna_sdbs + 344
        0x40001198:    e1a00008    ....    MOV      r0,r8
        0x4000119c:    ebfffe51    Q...    BL       I2C_slaveReceiveMultipleByteStop ; 0x40000ae8
        0x400011a0:    ea000001    ....    B        0x400011ac ; renesas_slave_rx_fna_sdbs + 336
        0x400011a4:    e1a00008    ....    MOV      r0,r8
        0x400011a8:    ebfffe4a    J...    BL       I2C_slaveReceiveMultipleByteFinish ; 0x40000ad8
        0x400011ac:    e08a1107    ....    ADD      r1,r10,r7,LSL #2
        0x400011b0:    e5010004    ....    STR      r0,[r1,#-4]
        0x400011b4:    e1a00008    ....    MOV      r0,r8
        0x400011b8:    e3a01002    ....    MOV      r1,#2
        0x400011bc:    ebfffd35    5...    BL       I2C_slaveClearInterruptStatus ; 0x40000698
        0x400011c0:    e2877001    .p..    ADD      r7,r7,#1
        0x400011c4:    e357000e    ..W.    CMP      r7,#0xe
        0x400011c8:    1affffd4    ....    BNE      0x40001120 ; renesas_slave_rx_fna_sdbs + 196
        0x400011cc:    e5960000    ....    LDR      r0,[r6,#0]
        0x400011d0:    e3100040    @...    TST      r0,#0x40
        0x400011d4:    0afffffc    ....    BEQ      0x400011cc ; renesas_slave_rx_fna_sdbs + 368
        0x400011d8:    e1a00004    ....    MOV      r0,r4
        0x400011dc:    e3a01040    @...    MOV      r1,#0x40
        0x400011e0:    ebfffbc7    ....    BL       I2C_masterClearInterruptStatus ; 0x40000104
        0x400011e4:    e7940005    ....    LDR      r0,[r4,r5]
        0x400011e8:    e3100010    ....    TST      r0,#0x10
        0x400011ec:    0afffffc    ....    BEQ      0x400011e4 ; renesas_slave_rx_fna_sdbs + 392
        0x400011f0:    e1a00008    ....    MOV      r0,r8
        0x400011f4:    e3a01010    ....    MOV      r1,#0x10
        0x400011f8:    ebfffd26    &...    BL       I2C_slaveClearInterruptStatus ; 0x40000698
        0x400011fc:    e5960000    ....    LDR      r0,[r6,#0]
        0x40001200:    e3100010    ....    TST      r0,#0x10
        0x40001204:    0afffffc    ....    BEQ      0x400011fc ; renesas_slave_rx_fna_sdbs + 416
        0x40001208:    e1a00004    ....    MOV      r0,r4
        0x4000120c:    e3a01010    ....    MOV      r1,#0x10
        0x40001210:    ebfffbbb    ....    BL       I2C_masterClearInterruptStatus ; 0x40000104
        0x40001214:    e1a00004    ....    MOV      r0,r4
        0x40001218:    ebfffbbd    ....    BL       I2C_masterDisable ; 0x40000114
        0x4000121c:    e1a00008    ....    MOV      r0,r8
        0x40001220:    ebfffd20     ...    BL       I2C_slaveDisable ; 0x400006a8
        0x40001224:    e3a00000    ....    MOV      r0,#0
        0x40001228:    e5991000    ....    LDR      r1,[r9,#0]
        0x4000122c:    e5da2000    . ..    LDRB     r2,[r10,#0]
        0x40001230:    e1520001    ..R.    CMP      r2,r1
        0x40001234:    1a000007    ....    BNE      0x40001258 ; renesas_slave_rx_fna_sdbs + 508
        0x40001238:    e2800001    ....    ADD      r0,r0,#1
        0x4000123c:    e2899004    ....    ADD      r9,r9,#4
        0x40001240:    e28aa004    ....    ADD      r10,r10,#4
        0x40001244:    e6ef1070    p...    UXTB     r1,r0
        0x40001248:    e351000c    ..Q.    CMP      r1,#0xc
        0x4000124c:    9afffff5    ....    BLS      0x40001228 ; renesas_slave_rx_fna_sdbs + 460
        0x40001250:    e3a00000    ....    MOV      r0,#0
        0x40001254:    e8bd87f0    ....    POP      {r4-r10,pc}
        0x40001258:    e3a00001    ....    MOV      r0,#1
        0x4000125c:    e8bd87f0    ....    POP      {r4-r10,pc}
    renesas_slave_rx_sdbs
        0x40001260:    e92d4ff0    .O-.    PUSH     {r4-r11,lr}
        0x40001264:    e24dd004    ..M.    SUB      sp,sp,#4
        0x40001268:    e3084000    .@..    MOVW     r4,#0x8000
        0x4000126c:    e34e4650    PFN.    MOVT     r4,#0xe650
        0x40001270:    e3021158    X...    MOV      r1,#0x2158
        0x40001274:    e3441000    ..D.    MOVT     r1,#0x4000
        0x40001278:    e1a00004    ....    MOV      r0,r4
        0x4000127c:    ebfffbac    ....    BL       I2C_masterInit ; 0x40000134
        0x40001280:    e1a00004    ....    MOV      r0,r4
        0x40001284:    e3e01000    ....    MVN      r1,#0
        0x40001288:    ebfffb9d    ....    BL       I2C_masterClearInterruptStatus ; 0x40000104
        0x4000128c:    e1a00004    ....    MOV      r0,r4
        0x40001290:    ebfffba3    ....    BL       I2C_masterEnable ; 0x40000124
        0x40001294:    e244a902    ..D.    SUB      r10,r4,#0x8000
        0x40001298:    e3021468    h...    MOV      r1,#0x2468
        0x4000129c:    e3441000    ..D.    MOVT     r1,#0x4000
        0x400012a0:    e1a0000a    ....    MOV      r0,r10
        0x400012a4:    ebfffd07    ....    BL       I2C_slaveInit ; 0x400006c8
        0x400012a8:    e1a0000a    ....    MOV      r0,r10
        0x400012ac:    e3e01000    ....    MVN      r1,#0
        0x400012b0:    ebfffcf8    ....    BL       I2C_slaveClearInterruptStatus ; 0x40000698
        0x400012b4:    e1a0000a    ....    MOV      r0,r10
        0x400012b8:    ebfffcfe    ....    BL       I2C_slaveEnable ; 0x400006b8
        0x400012bc:    e1a00004    ....    MOV      r0,r4
        0x400012c0:    e3a01048    H...    MOV      r1,#0x48
        0x400012c4:    ebfffcad    ....    BL       I2C_masterSendMultipleByteStart ; 0x40000580
        0x400012c8:    e3086008    .`..    MOV      r6,#0x8008
        0x400012cc:    e34f6fff    .oO.    MOVT     r6,#0xffff
        0x400012d0:    e7940006    ....    LDR      r0,[r4,r6]
        0x400012d4:    e3100001    ....    TST      r0,#1
        0x400012d8:    0afffffc    ....    BEQ      0x400012d0 ; renesas_slave_rx_sdbs + 112
        0x400012dc:    e1a0000a    ....    MOV      r0,r10
        0x400012e0:    e3a01001    ....    MOV      r1,#1
        0x400012e4:    ebfffceb    ....    BL       I2C_slaveClearInterruptStatus ; 0x40000698
        0x400012e8:    e308700c    .p..    MOV      r7,#0x800c
        0x400012ec:    e34e7650    PvN.    MOVT     r7,#0xe650
        0x400012f0:    e5970000    ....    LDR      r0,[r7,#0]
        0x400012f4:    e3100001    ....    TST      r0,#1
        0x400012f8:    0afffffc    ....    BEQ      0x400012f0 ; renesas_slave_rx_sdbs + 144
        0x400012fc:    e5170008    ....    LDR      r0,[r7,#-8]
        0x40001300:    e3c00001    ....    BIC      r0,r0,#1
        0x40001304:    e5070008    ....    STR      r0,[r7,#-8]
        0x40001308:    e1a00004    ....    MOV      r0,r4
        0x4000130c:    e3a01009    ....    MOV      r1,#9
        0x40001310:    ebfffb7b    {...    BL       I2C_masterClearInterruptStatus ; 0x40000104
        0x40001314:    e3a05001    .P..    MOV      r5,#1
        0x40001318:    e3028344    D...    MOV      r8,#0x2344
        0x4000131c:    e3448000    ..D.    MOVT     r8,#0x4000
        0x40001320:    e30395ac    ....    MOV      r9,#0x35ac
        0x40001324:    e3449000    ..D.    MOVT     r9,#0x4000
        0x40001328:    e5970000    ....    LDR      r0,[r7,#0]
        0x4000132c:    e3100008    ....    TST      r0,#8
        0x40001330:    0afffffc    ....    BEQ      0x40001328 ; renesas_slave_rx_sdbs + 200
        0x40001334:    e355000c    ..U.    CMP      r5,#0xc
        0x40001338:    8a000003    ....    BHI      0x4000134c ; renesas_slave_rx_sdbs + 236
        0x4000133c:    e7981105    ....    LDR      r1,[r8,r5,LSL #2]
        0x40001340:    e1a00004    ....    MOV      r0,r4
        0x40001344:    ebfffc8b    ....    BL       I2C_masterSendMultipleByteNext ; 0x40000578
        0x40001348:    ea000003    ....    B        0x4000135c ; renesas_slave_rx_sdbs + 252
        0x4000134c:    e355000d    ..U.    CMP      r5,#0xd
        0x40001350:    1a000001    ....    BNE      0x4000135c ; renesas_slave_rx_sdbs + 252
        0x40001354:    e1a00004    ....    MOV      r0,r4
        0x40001358:    ebfffc8d    ....    BL       I2C_masterSendMultipleByteStop ; 0x40000594
        0x4000135c:    e1a00004    ....    MOV      r0,r4
        0x40001360:    e3a01008    ....    MOV      r1,#8
        0x40001364:    ebfffb66    f...    BL       I2C_masterClearInterruptStatus ; 0x40000104
        0x40001368:    e5970000    ....    LDR      r0,[r7,#0]
        0x4000136c:    e3100004    ....    TST      r0,#4
        0x40001370:    0afffffc    ....    BEQ      0x40001368 ; renesas_slave_rx_sdbs + 264
        0x40001374:    e1a00004    ....    MOV      r0,r4
        0x40001378:    e3a01004    ....    MOV      r1,#4
        0x4000137c:    ebfffb60    `...    BL       I2C_masterClearInterruptStatus ; 0x40000104
        0x40001380:    e7940006    ....    LDR      r0,[r4,r6]
        0x40001384:    e3100002    ....    TST      r0,#2
        0x40001388:    0afffffc    ....    BEQ      0x40001380 ; renesas_slave_rx_sdbs + 288
        0x4000138c:    e089b105    ....    ADD      r11,r9,r5,LSL #2
        0x40001390:    e1a0000a    ....    MOV      r0,r10
        0x40001394:    ebfffdd1    ....    BL       I2C_slaveReceiveMultipleByteNext ; 0x40000ae0
        0x40001398:    e50b0004    ....    STR      r0,[r11,#-4]
        0x4000139c:    e1a0000a    ....    MOV      r0,r10
        0x400013a0:    e3a01002    ....    MOV      r1,#2
        0x400013a4:    ebfffcbb    ....    BL       I2C_slaveClearInterruptStatus ; 0x40000698
        0x400013a8:    e2855001    .P..    ADD      r5,r5,#1
        0x400013ac:    e355000e    ..U.    CMP      r5,#0xe
        0x400013b0:    1affffdc    ....    BNE      0x40001328 ; renesas_slave_rx_sdbs + 200
        0x400013b4:    e7940006    ....    LDR      r0,[r4,r6]
        0x400013b8:    e3100010    ....    TST      r0,#0x10
        0x400013bc:    0afffffc    ....    BEQ      0x400013b4 ; renesas_slave_rx_sdbs + 340
        0x400013c0:    e1a0000a    ....    MOV      r0,r10
        0x400013c4:    e3a01010    ....    MOV      r1,#0x10
        0x400013c8:    ebfffcb2    ....    BL       I2C_slaveClearInterruptStatus ; 0x40000698
        0x400013cc:    e5970000    ....    LDR      r0,[r7,#0]
        0x400013d0:    e3100010    ....    TST      r0,#0x10
        0x400013d4:    0afffffc    ....    BEQ      0x400013cc ; renesas_slave_rx_sdbs + 364
        0x400013d8:    e1a00004    ....    MOV      r0,r4
        0x400013dc:    e3a01010    ....    MOV      r1,#0x10
        0x400013e0:    ebfffb47    G...    BL       I2C_masterClearInterruptStatus ; 0x40000104
        0x400013e4:    e1a00004    ....    MOV      r0,r4
        0x400013e8:    ebfffb49    I...    BL       I2C_masterDisable ; 0x40000114
        0x400013ec:    e1a0000a    ....    MOV      r0,r10
        0x400013f0:    ebfffcac    ....    BL       I2C_slaveDisable ; 0x400006a8
        0x400013f4:    e3a00000    ....    MOV      r0,#0
        0x400013f8:    e7981100    ....    LDR      r1,[r8,r0,LSL #2]
        0x400013fc:    e7d92100    .!..    LDRB     r2,[r9,r0,LSL #2]
        0x40001400:    e1520001    ..R.    CMP      r2,r1
        0x40001404:    1a000005    ....    BNE      0x40001420 ; renesas_slave_rx_sdbs + 448
        0x40001408:    e2800001    ....    ADD      r0,r0,#1
        0x4000140c:    e350000c    ..P.    CMP      r0,#0xc
        0x40001410:    9afffff8    ....    BLS      0x400013f8 ; renesas_slave_rx_sdbs + 408
        0x40001414:    e3a00000    ....    MOV      r0,#0
        0x40001418:    e28dd004    ....    ADD      sp,sp,#4
        0x4000141c:    e8bd8ff0    ....    POP      {r4-r11,pc}
        0x40001420:    e3a00001    ....    MOV      r0,#1
        0x40001424:    e28dd004    ....    ADD      sp,sp,#4
        0x40001428:    e8bd8ff0    ....    POP      {r4-r11,pc}
    renesas_slave_tx
        0x4000142c:    e92d47f0    .G-.    PUSH     {r4-r10,lr}
        0x40001430:    e3084000    .@..    MOVW     r4,#0x8000
        0x40001434:    e34e4650    PFN.    MOVT     r4,#0xe650
        0x40001438:    e30210f8    ....    MOV      r1,#0x20f8
        0x4000143c:    e3441000    ..D.    MOVT     r1,#0x4000
        0x40001440:    e1a00004    ....    MOV      r0,r4
        0x40001444:    ebfffb3a    :...    BL       I2C_masterInit ; 0x40000134
        0x40001448:    e1a00004    ....    MOV      r0,r4
        0x4000144c:    e3e01000    ....    MVN      r1,#0
        0x40001450:    ebfffb2b    +...    BL       I2C_masterClearInterruptStatus ; 0x40000104
        0x40001454:    e1a00004    ....    MOV      r0,r4
        0x40001458:    ebfffb31    1...    BL       I2C_masterEnable ; 0x40000124
        0x4000145c:    e244a902    ..D.    SUB      r10,r4,#0x8000
        0x40001460:    e3021408    ....    MOV      r1,#0x2408
        0x40001464:    e3441000    ..D.    MOVT     r1,#0x4000
        0x40001468:    e1a0000a    ....    MOV      r0,r10
        0x4000146c:    ebfffc95    ....    BL       I2C_slaveInit ; 0x400006c8
        0x40001470:    e1a0000a    ....    MOV      r0,r10
        0x40001474:    e3e01000    ....    MVN      r1,#0
        0x40001478:    ebfffc86    ....    BL       I2C_slaveClearInterruptStatus ; 0x40000698
        0x4000147c:    e1a0000a    ....    MOV      r0,r10
        0x40001480:    ebfffc8c    ....    BL       I2C_slaveEnable ; 0x400006b8
        0x40001484:    e1a0000a    ....    MOV      r0,r10
        0x40001488:    e3a01048    H...    MOV      r1,#0x48
        0x4000148c:    ebfffd9a    ....    BL       I2C_slaveSetData ; 0x40000afc
        0x40001490:    e1a00004    ....    MOV      r0,r4
        0x40001494:    ebfffc33    3...    BL       I2C_masterReceiveStart ; 0x40000568
        0x40001498:    e3086008    .`..    MOV      r6,#0x8008
        0x4000149c:    e34f6fff    .oO.    MOVT     r6,#0xffff
        0x400014a0:    e7940006    ....    LDR      r0,[r4,r6]
        0x400014a4:    e3100001    ....    TST      r0,#1
        0x400014a8:    0afffffc    ....    BEQ      0x400014a0 ; renesas_slave_tx + 116
        0x400014ac:    e1a0000a    ....    MOV      r0,r10
        0x400014b0:    e3a01001    ....    MOV      r1,#1
        0x400014b4:    ebfffc77    w...    BL       I2C_slaveClearInterruptStatus ; 0x40000698
        0x400014b8:    e308700c    .p..    MOV      r7,#0x800c
        0x400014bc:    e34e7650    PvN.    MOVT     r7,#0xe650
        0x400014c0:    e5970000    ....    LDR      r0,[r7,#0]
        0x400014c4:    e3100001    ....    TST      r0,#1
        0x400014c8:    0afffffc    ....    BEQ      0x400014c0 ; renesas_slave_tx + 148
        0x400014cc:    e5170008    ....    LDR      r0,[r7,#-8]
        0x400014d0:    e3c00001    ....    BIC      r0,r0,#1
        0x400014d4:    e5070008    ....    STR      r0,[r7,#-8]
        0x400014d8:    e1a00004    ....    MOV      r0,r4
        0x400014dc:    e3a01003    ....    MOV      r1,#3
        0x400014e0:    ebfffb07    ....    BL       I2C_masterClearInterruptStatus ; 0x40000104
        0x400014e4:    e3a05001    .P..    MOV      r5,#1
        0x400014e8:    e30282a8    ....    MOV      r8,#0x22a8
        0x400014ec:    e3448000    ..D.    MOVT     r8,#0x4000
        0x400014f0:    e3039510    ....    MOV      r9,#0x3510
        0x400014f4:    e3449000    ..D.    MOVT     r9,#0x4000
        0x400014f8:    e7940006    ....    LDR      r0,[r4,r6]
        0x400014fc:    e3100008    ....    TST      r0,#8
        0x40001500:    0afffffc    ....    BEQ      0x400014f8 ; renesas_slave_tx + 204
        0x40001504:    e355000c    ..U.    CMP      r5,#0xc
        0x40001508:    8a000002    ....    BHI      0x40001518 ; renesas_slave_tx + 236
        0x4000150c:    e7d81105    ....    LDRB     r1,[r8,r5,LSL #2]
        0x40001510:    e1a0000a    ....    MOV      r0,r10
        0x40001514:    ebfffd78    x...    BL       I2C_slaveSetData ; 0x40000afc
        0x40001518:    e1a0000a    ....    MOV      r0,r10
        0x4000151c:    e3a01008    ....    MOV      r1,#8
        0x40001520:    ebfffc5c    \...    BL       I2C_slaveClearInterruptStatus ; 0x40000698
        0x40001524:    e7940006    ....    LDR      r0,[r4,r6]
        0x40001528:    e3100004    ....    TST      r0,#4
        0x4000152c:    0afffffc    ....    BEQ      0x40001524 ; renesas_slave_tx + 248
        0x40001530:    e1a0000a    ....    MOV      r0,r10
        0x40001534:    e3a01004    ....    MOV      r1,#4
        0x40001538:    ebfffc56    V...    BL       I2C_slaveClearInterruptStatus ; 0x40000698
        0x4000153c:    e5970000    ....    LDR      r0,[r7,#0]
        0x40001540:    e3100002    ....    TST      r0,#2
        0x40001544:    0afffffc    ....    BEQ      0x4000153c ; renesas_slave_tx + 272
        0x40001548:    e355000b    ..U.    CMP      r5,#0xb
        0x4000154c:    8a000002    ....    BHI      0x4000155c ; renesas_slave_tx + 304
        0x40001550:    e1a00004    ....    MOV      r0,r4
        0x40001554:    ebfffbfc    ....    BL       I2C_masterReceiveMultipleByteNext ; 0x4000054c
        0x40001558:    ea000008    ....    B        0x40001580 ; renesas_slave_tx + 340
        0x4000155c:    e355000d    ..U.    CMP      r5,#0xd
        0x40001560:    0a000004    ....    BEQ      0x40001578 ; renesas_slave_tx + 332
        0x40001564:    e355000c    ..U.    CMP      r5,#0xc
        0x40001568:    1a000006    ....    BNE      0x40001588 ; renesas_slave_tx + 348
        0x4000156c:    e1a00004    ....    MOV      r0,r4
        0x40001570:    ebfffbf7    ....    BL       I2C_masterReceiveMultipleByteStop ; 0x40000554
        0x40001574:    ea000001    ....    B        0x40001580 ; renesas_slave_tx + 340
        0x40001578:    e1a00004    ....    MOV      r0,r4
        0x4000157c:    ebfffbf0    ....    BL       I2C_masterReceiveMultipleByteFinish ; 0x40000544
        0x40001580:    e0891105    ....    ADD      r1,r9,r5,LSL #2
        0x40001584:    e5010004    ....    STR      r0,[r1,#-4]
        0x40001588:    e1a00004    ....    MOV      r0,r4
        0x4000158c:    e3a01002    ....    MOV      r1,#2
        0x40001590:    ebfffadb    ....    BL       I2C_masterClearInterruptStatus ; 0x40000104
        0x40001594:    e2855001    .P..    ADD      r5,r5,#1
        0x40001598:    e355000e    ..U.    CMP      r5,#0xe
        0x4000159c:    1affffd5    ....    BNE      0x400014f8 ; renesas_slave_tx + 204
        0x400015a0:    e7940006    ....    LDR      r0,[r4,r6]
        0x400015a4:    e3100010    ....    TST      r0,#0x10
        0x400015a8:    0afffffc    ....    BEQ      0x400015a0 ; renesas_slave_tx + 372
        0x400015ac:    e1a0000a    ....    MOV      r0,r10
        0x400015b0:    e3a01010    ....    MOV      r1,#0x10
        0x400015b4:    ebfffc37    7...    BL       I2C_slaveClearInterruptStatus ; 0x40000698
        0x400015b8:    e5970000    ....    LDR      r0,[r7,#0]
        0x400015bc:    e3100010    ....    TST      r0,#0x10
        0x400015c0:    0afffffc    ....    BEQ      0x400015b8 ; renesas_slave_tx + 396
        0x400015c4:    e1a00004    ....    MOV      r0,r4
        0x400015c8:    e3a01010    ....    MOV      r1,#0x10
        0x400015cc:    ebfffacc    ....    BL       I2C_masterClearInterruptStatus ; 0x40000104
        0x400015d0:    e1a00004    ....    MOV      r0,r4
        0x400015d4:    ebffface    ....    BL       I2C_masterDisable ; 0x40000114
        0x400015d8:    e1a0000a    ....    MOV      r0,r10
        0x400015dc:    ebfffc31    1...    BL       I2C_slaveDisable ; 0x400006a8
        0x400015e0:    e3a00000    ....    MOV      r0,#0
        0x400015e4:    e7981100    ....    LDR      r1,[r8,r0,LSL #2]
        0x400015e8:    e7d92100    .!..    LDRB     r2,[r9,r0,LSL #2]
        0x400015ec:    e1520001    ..R.    CMP      r2,r1
        0x400015f0:    1a000004    ....    BNE      0x40001608 ; renesas_slave_tx + 476
        0x400015f4:    e2800001    ....    ADD      r0,r0,#1
        0x400015f8:    e350000c    ..P.    CMP      r0,#0xc
        0x400015fc:    9afffff8    ....    BLS      0x400015e4 ; renesas_slave_tx + 440
        0x40001600:    e3a00000    ....    MOV      r0,#0
        0x40001604:    e8bd87f0    ....    POP      {r4-r10,pc}
        0x40001608:    e3a00001    ....    MOV      r0,#1
        0x4000160c:    e8bd87f0    ....    POP      {r4-r10,pc}
    slave_general_call
        0x40001610:    e92d4ff0    .O-.    PUSH     {r4-r11,lr}
        0x40001614:    e24dd004    ..M.    SUB      sp,sp,#4
        0x40001618:    e3084000    .@..    MOVW     r4,#0x8000
        0x4000161c:    e34e4650    PFN.    MOVT     r4,#0xe650
        0x40001620:    e3021068    h...    MOV      r1,#0x2068
        0x40001624:    e3441000    ..D.    MOVT     r1,#0x4000
        0x40001628:    e1a00004    ....    MOV      r0,r4
        0x4000162c:    ebfffac0    ....    BL       I2C_masterInit ; 0x40000134
        0x40001630:    e1a00004    ....    MOV      r0,r4
        0x40001634:    e3e01000    ....    MVN      r1,#0
        0x40001638:    ebfffab1    ....    BL       I2C_masterClearInterruptStatus ; 0x40000104
        0x4000163c:    e1a00004    ....    MOV      r0,r4
        0x40001640:    ebfffab7    ....    BL       I2C_masterEnable ; 0x40000124
        0x40001644:    e244a902    ..D.    SUB      r10,r4,#0x8000
        0x40001648:    e3021378    x...    MOV      r1,#0x2378
        0x4000164c:    e3441000    ..D.    MOVT     r1,#0x4000
        0x40001650:    e1a0000a    ....    MOV      r0,r10
        0x40001654:    ebfffc1b    ....    BL       I2C_slaveInit ; 0x400006c8
        0x40001658:    e1a0000a    ....    MOV      r0,r10
        0x4000165c:    e3e01000    ....    MVN      r1,#0
        0x40001660:    ebfffc0c    ....    BL       I2C_slaveClearInterruptStatus ; 0x40000698
        0x40001664:    e1a0000a    ....    MOV      r0,r10
        0x40001668:    ebfffc12    ....    BL       I2C_slaveEnable ; 0x400006b8
        0x4000166c:    e1a00004    ....    MOV      r0,r4
        0x40001670:    e3a01048    H...    MOV      r1,#0x48
        0x40001674:    ebfffbc1    ....    BL       I2C_masterSendMultipleByteStart ; 0x40000580
        0x40001678:    e3086008    .`..    MOV      r6,#0x8008
        0x4000167c:    e34f6fff    .oO.    MOVT     r6,#0xffff
        0x40001680:    e7940006    ....    LDR      r0,[r4,r6]
        0x40001684:    e3100001    ....    TST      r0,#1
        0x40001688:    0afffffc    ....    BEQ      0x40001680 ; slave_general_call + 112
        0x4000168c:    e1a0000a    ....    MOV      r0,r10
        0x40001690:    e3a01001    ....    MOV      r1,#1
        0x40001694:    ebfffbff    ....    BL       I2C_slaveClearInterruptStatus ; 0x40000698
        0x40001698:    e308700c    .p..    MOV      r7,#0x800c
        0x4000169c:    e34e7650    PvN.    MOVT     r7,#0xe650
        0x400016a0:    e5970000    ....    LDR      r0,[r7,#0]
        0x400016a4:    e3100001    ....    TST      r0,#1
        0x400016a8:    0afffffc    ....    BEQ      0x400016a0 ; slave_general_call + 144
        0x400016ac:    e5170008    ....    LDR      r0,[r7,#-8]
        0x400016b0:    e3c00001    ....    BIC      r0,r0,#1
        0x400016b4:    e5070008    ....    STR      r0,[r7,#-8]
        0x400016b8:    e1a00004    ....    MOV      r0,r4
        0x400016bc:    e3a01009    ....    MOV      r1,#9
        0x400016c0:    ebfffa8f    ....    BL       I2C_masterClearInterruptStatus ; 0x40000104
        0x400016c4:    e3a05001    .P..    MOV      r5,#1
        0x400016c8:    e3028170    p...    MOV      r8,#0x2170
        0x400016cc:    e3448000    ..D.    MOVT     r8,#0x4000
        0x400016d0:    e30393d8    ....    MOV      r9,#0x33d8
        0x400016d4:    e3449000    ..D.    MOVT     r9,#0x4000
        0x400016d8:    e5970000    ....    LDR      r0,[r7,#0]
        0x400016dc:    e3100008    ....    TST      r0,#8
        0x400016e0:    0afffffc    ....    BEQ      0x400016d8 ; slave_general_call + 200
        0x400016e4:    e355000c    ..U.    CMP      r5,#0xc
        0x400016e8:    8a000003    ....    BHI      0x400016fc ; slave_general_call + 236
        0x400016ec:    e7981105    ....    LDR      r1,[r8,r5,LSL #2]
        0x400016f0:    e1a00004    ....    MOV      r0,r4
        0x400016f4:    ebfffb9f    ....    BL       I2C_masterSendMultipleByteNext ; 0x40000578
        0x400016f8:    ea000001    ....    B        0x40001704 ; slave_general_call + 244
        0x400016fc:    e1a00004    ....    MOV      r0,r4
        0x40001700:    ebfffba3    ....    BL       I2C_masterSendMultipleByteStop ; 0x40000594
        0x40001704:    e1a00004    ....    MOV      r0,r4
        0x40001708:    e3a01008    ....    MOV      r1,#8
        0x4000170c:    ebfffa7c    |...    BL       I2C_masterClearInterruptStatus ; 0x40000104
        0x40001710:    e5970000    ....    LDR      r0,[r7,#0]
        0x40001714:    e3100004    ....    TST      r0,#4
        0x40001718:    0afffffc    ....    BEQ      0x40001710 ; slave_general_call + 256
        0x4000171c:    e1a00004    ....    MOV      r0,r4
        0x40001720:    e3a01004    ....    MOV      r1,#4
        0x40001724:    ebfffa76    v...    BL       I2C_masterClearInterruptStatus ; 0x40000104
        0x40001728:    e7940006    ....    LDR      r0,[r4,r6]
        0x4000172c:    e3100002    ....    TST      r0,#2
        0x40001730:    0afffffc    ....    BEQ      0x40001728 ; slave_general_call + 280
        0x40001734:    e089b105    ....    ADD      r11,r9,r5,LSL #2
        0x40001738:    e1a0000a    ....    MOV      r0,r10
        0x4000173c:    ebfffce7    ....    BL       I2C_slaveReceiveMultipleByteNext ; 0x40000ae0
        0x40001740:    e50b0004    ....    STR      r0,[r11,#-4]
        0x40001744:    e1a0000a    ....    MOV      r0,r10
        0x40001748:    e3a01002    ....    MOV      r1,#2
        0x4000174c:    ebfffbd1    ....    BL       I2C_slaveClearInterruptStatus ; 0x40000698
        0x40001750:    e2855001    .P..    ADD      r5,r5,#1
        0x40001754:    e355000e    ..U.    CMP      r5,#0xe
        0x40001758:    1affffde    ....    BNE      0x400016d8 ; slave_general_call + 200
        0x4000175c:    e7940006    ....    LDR      r0,[r4,r6]
        0x40001760:    e3100010    ....    TST      r0,#0x10
        0x40001764:    0afffffc    ....    BEQ      0x4000175c ; slave_general_call + 332
        0x40001768:    e1a0000a    ....    MOV      r0,r10
        0x4000176c:    e3a01010    ....    MOV      r1,#0x10
        0x40001770:    ebfffbc8    ....    BL       I2C_slaveClearInterruptStatus ; 0x40000698
        0x40001774:    e5970000    ....    LDR      r0,[r7,#0]
        0x40001778:    e3100010    ....    TST      r0,#0x10
        0x4000177c:    0afffffc    ....    BEQ      0x40001774 ; slave_general_call + 356
        0x40001780:    e1a00004    ....    MOV      r0,r4
        0x40001784:    e3a01010    ....    MOV      r1,#0x10
        0x40001788:    ebfffa5d    ]...    BL       I2C_masterClearInterruptStatus ; 0x40000104
        0x4000178c:    e1a00004    ....    MOV      r0,r4
        0x40001790:    ebfffa5f    _...    BL       I2C_masterDisable ; 0x40000114
        0x40001794:    e1a0000a    ....    MOV      r0,r10
        0x40001798:    ebfffbc2    ....    BL       I2C_slaveDisable ; 0x400006a8
        0x4000179c:    e3a00000    ....    MOV      r0,#0
        0x400017a0:    e7981100    ....    LDR      r1,[r8,r0,LSL #2]
        0x400017a4:    e7d92100    .!..    LDRB     r2,[r9,r0,LSL #2]
        0x400017a8:    e1520001    ..R.    CMP      r2,r1
        0x400017ac:    1a000005    ....    BNE      0x400017c8 ; slave_general_call + 440
        0x400017b0:    e2800001    ....    ADD      r0,r0,#1
        0x400017b4:    e350000c    ..P.    CMP      r0,#0xc
        0x400017b8:    9afffff8    ....    BLS      0x400017a0 ; slave_general_call + 400
        0x400017bc:    e3a00000    ....    MOV      r0,#0
        0x400017c0:    e28dd004    ....    ADD      sp,sp,#4
        0x400017c4:    e8bd8ff0    ....    POP      {r4-r11,pc}
        0x400017c8:    e3a00001    ....    MOV      r0,#1
        0x400017cc:    e28dd004    ....    ADD      sp,sp,#4
        0x400017d0:    e8bd8ff0    ....    POP      {r4-r11,pc}
    slave_nack_addr
        0x400017d4:    e92d4070    p@-.    PUSH     {r4-r6,lr}
        0x400017d8:    e3084000    .@..    MOVW     r4,#0x8000
        0x400017dc:    e34e4650    PFN.    MOVT     r4,#0xe650
        0x400017e0:    e3021110    ....    MOV      r1,#0x2110
        0x400017e4:    e3441000    ..D.    MOVT     r1,#0x4000
        0x400017e8:    e1a00004    ....    MOV      r0,r4
        0x400017ec:    ebfffa50    P...    BL       I2C_masterInit ; 0x40000134
        0x400017f0:    e1a00004    ....    MOV      r0,r4
        0x400017f4:    e3e01000    ....    MVN      r1,#0
        0x400017f8:    ebfffa41    A...    BL       I2C_masterClearInterruptStatus ; 0x40000104
        0x400017fc:    e1a00004    ....    MOV      r0,r4
        0x40001800:    ebfffa47    G...    BL       I2C_masterEnable ; 0x40000124
        0x40001804:    e2445902    .YD.    SUB      r5,r4,#0x8000
        0x40001808:    e3021420     ...    MOV      r1,#0x2420
        0x4000180c:    e3441000    ..D.    MOVT     r1,#0x4000
        0x40001810:    e1a00005    ....    MOV      r0,r5
        0x40001814:    ebfffbab    ....    BL       I2C_slaveInit ; 0x400006c8
        0x40001818:    e1a00005    ....    MOV      r0,r5
        0x4000181c:    e3e01000    ....    MVN      r1,#0
        0x40001820:    ebfffb9c    ....    BL       I2C_slaveClearInterruptStatus ; 0x40000698
        0x40001824:    e1a00005    ....    MOV      r0,r5
        0x40001828:    ebfffba2    ....    BL       I2C_slaveEnable ; 0x400006b8
        0x4000182c:    e1a00004    ....    MOV      r0,r4
        0x40001830:    e3a01048    H...    MOV      r1,#0x48
        0x40001834:    ebfffb51    Q...    BL       I2C_masterSendMultipleByteStart ; 0x40000580
        0x40001838:    e308600c    .`..    MOV      r6,#0x800c
        0x4000183c:    e34e6650    PfN.    MOVT     r6,#0xe650
        0x40001840:    e5960000    ....    LDR      r0,[r6,#0]
        0x40001844:    e3100001    ....    TST      r0,#1
        0x40001848:    0afffffc    ....    BEQ      0x40001840 ; slave_nack_addr + 108
        0x4000184c:    e1a00004    ....    MOV      r0,r4
        0x40001850:    e3a01009    ....    MOV      r1,#9
        0x40001854:    ebfffa2a    *...    BL       I2C_masterClearInterruptStatus ; 0x40000104
        0x40001858:    e5160008    ....    LDR      r0,[r6,#-8]
        0x4000185c:    e3c00001    ....    BIC      r0,r0,#1
        0x40001860:    e5060008    ....    STR      r0,[r6,#-8]
        0x40001864:    e5960000    ....    LDR      r0,[r6,#0]
        0x40001868:    e3100040    @...    TST      r0,#0x40
        0x4000186c:    0afffffc    ....    BEQ      0x40001864 ; slave_nack_addr + 144
        0x40001870:    e1a00004    ....    MOV      r0,r4
        0x40001874:    e3a01040    @...    MOV      r1,#0x40
        0x40001878:    ebfffa21    !...    BL       I2C_masterClearInterruptStatus ; 0x40000104
        0x4000187c:    e3080008    ....    MOV      r0,#0x8008
        0x40001880:    e34f0fff    ..O.    MOVT     r0,#0xffff
        0x40001884:    e7941000    ....    LDR      r1,[r4,r0]
        0x40001888:    e3110010    ....    TST      r1,#0x10
        0x4000188c:    0afffffc    ....    BEQ      0x40001884 ; slave_nack_addr + 176
        0x40001890:    e1a00005    ....    MOV      r0,r5
        0x40001894:    e3a01010    ....    MOV      r1,#0x10
        0x40001898:    ebfffb7e    ~...    BL       I2C_slaveClearInterruptStatus ; 0x40000698
        0x4000189c:    e5960000    ....    LDR      r0,[r6,#0]
        0x400018a0:    e3100010    ....    TST      r0,#0x10
        0x400018a4:    0afffffc    ....    BEQ      0x4000189c ; slave_nack_addr + 200
        0x400018a8:    e1a00004    ....    MOV      r0,r4
        0x400018ac:    e3a01010    ....    MOV      r1,#0x10
        0x400018b0:    ebfffa13    ....    BL       I2C_masterClearInterruptStatus ; 0x40000104
        0x400018b4:    e1a00004    ....    MOV      r0,r4
        0x400018b8:    ebfffa15    ....    BL       I2C_masterDisable ; 0x40000114
        0x400018bc:    e1a00005    ....    MOV      r0,r5
        0x400018c0:    ebfffb78    x...    BL       I2C_slaveDisable ; 0x400006a8
        0x400018c4:    e3a00000    ....    MOV      r0,#0
        0x400018c8:    e8bd8070    p...    POP      {r4-r6,pc}
    slave_rx
        0x400018cc:    e92d4ff0    .O-.    PUSH     {r4-r11,lr}
        0x400018d0:    e24dd004    ..M.    SUB      sp,sp,#4
        0x400018d4:    e3084000    .@..    MOVW     r4,#0x8000
        0x400018d8:    e34e4650    PFN.    MOVT     r4,#0xe650
        0x400018dc:    e3021140    @...    MOVW     r1,#0x2140
        0x400018e0:    e3441000    ..D.    MOVT     r1,#0x4000
        0x400018e4:    e1a00004    ....    MOV      r0,r4
        0x400018e8:    ebfffa11    ....    BL       I2C_masterInit ; 0x40000134
        0x400018ec:    e1a00004    ....    MOV      r0,r4
        0x400018f0:    e3e01000    ....    MVN      r1,#0
        0x400018f4:    ebfffa02    ....    BL       I2C_masterClearInterruptStatus ; 0x40000104
        0x400018f8:    e1a00004    ....    MOV      r0,r4
        0x400018fc:    ebfffa08    ....    BL       I2C_masterEnable ; 0x40000124
        0x40001900:    e244a902    ..D.    SUB      r10,r4,#0x8000
        0x40001904:    e3021450    P...    MOV      r1,#0x2450
        0x40001908:    e3441000    ..D.    MOVT     r1,#0x4000
        0x4000190c:    e1a0000a    ....    MOV      r0,r10
        0x40001910:    ebfffb6c    l...    BL       I2C_slaveInit ; 0x400006c8
        0x40001914:    e1a0000a    ....    MOV      r0,r10
        0x40001918:    e3e01000    ....    MVN      r1,#0
        0x4000191c:    ebfffb5d    ]...    BL       I2C_slaveClearInterruptStatus ; 0x40000698
        0x40001920:    e1a0000a    ....    MOV      r0,r10
        0x40001924:    ebfffb63    c...    BL       I2C_slaveEnable ; 0x400006b8
        0x40001928:    e1a00004    ....    MOV      r0,r4
        0x4000192c:    e3a01048    H...    MOV      r1,#0x48
        0x40001930:    ebfffb12    ....    BL       I2C_masterSendMultipleByteStart ; 0x40000580
        0x40001934:    e3086008    .`..    MOV      r6,#0x8008
        0x40001938:    e34f6fff    .oO.    MOVT     r6,#0xffff
        0x4000193c:    e7940006    ....    LDR      r0,[r4,r6]
        0x40001940:    e3100001    ....    TST      r0,#1
        0x40001944:    0afffffc    ....    BEQ      0x4000193c ; slave_rx + 112
        0x40001948:    e1a0000a    ....    MOV      r0,r10
        0x4000194c:    e3a01001    ....    MOV      r1,#1
        0x40001950:    ebfffb50    P...    BL       I2C_slaveClearInterruptStatus ; 0x40000698
        0x40001954:    e308700c    .p..    MOV      r7,#0x800c
        0x40001958:    e34e7650    PvN.    MOVT     r7,#0xe650
        0x4000195c:    e5970000    ....    LDR      r0,[r7,#0]
        0x40001960:    e3100001    ....    TST      r0,#1
        0x40001964:    0afffffc    ....    BEQ      0x4000195c ; slave_rx + 144
        0x40001968:    e5170008    ....    LDR      r0,[r7,#-8]
        0x4000196c:    e3c00001    ....    BIC      r0,r0,#1
        0x40001970:    e5070008    ....    STR      r0,[r7,#-8]
        0x40001974:    e1a00004    ....    MOV      r0,r4
        0x40001978:    e3a01009    ....    MOV      r1,#9
        0x4000197c:    ebfff9e0    ....    BL       I2C_masterClearInterruptStatus ; 0x40000104
        0x40001980:    e3a05001    .P..    MOV      r5,#1
        0x40001984:    e3028310    ....    MOV      r8,#0x2310
        0x40001988:    e3448000    ..D.    MOVT     r8,#0x4000
        0x4000198c:    e3039578    x...    MOV      r9,#0x3578
        0x40001990:    e3449000    ..D.    MOVT     r9,#0x4000
        0x40001994:    e5970000    ....    LDR      r0,[r7,#0]
        0x40001998:    e3100008    ....    TST      r0,#8
        0x4000199c:    0afffffc    ....    BEQ      0x40001994 ; slave_rx + 200
        0x400019a0:    e355000c    ..U.    CMP      r5,#0xc
        0x400019a4:    8a000003    ....    BHI      0x400019b8 ; slave_rx + 236
        0x400019a8:    e7981105    ....    LDR      r1,[r8,r5,LSL #2]
        0x400019ac:    e1a00004    ....    MOV      r0,r4
        0x400019b0:    ebfffaf0    ....    BL       I2C_masterSendMultipleByteNext ; 0x40000578
        0x400019b4:    ea000001    ....    B        0x400019c0 ; slave_rx + 244
        0x400019b8:    e1a00004    ....    MOV      r0,r4
        0x400019bc:    ebfffaf4    ....    BL       I2C_masterSendMultipleByteStop ; 0x40000594
        0x400019c0:    e1a00004    ....    MOV      r0,r4
        0x400019c4:    e3a01008    ....    MOV      r1,#8
        0x400019c8:    ebfff9cd    ....    BL       I2C_masterClearInterruptStatus ; 0x40000104
        0x400019cc:    e5970000    ....    LDR      r0,[r7,#0]
        0x400019d0:    e3100004    ....    TST      r0,#4
        0x400019d4:    0afffffc    ....    BEQ      0x400019cc ; slave_rx + 256
        0x400019d8:    e1a00004    ....    MOV      r0,r4
        0x400019dc:    e3a01004    ....    MOV      r1,#4
        0x400019e0:    ebfff9c7    ....    BL       I2C_masterClearInterruptStatus ; 0x40000104
        0x400019e4:    e7940006    ....    LDR      r0,[r4,r6]
        0x400019e8:    e3100002    ....    TST      r0,#2
        0x400019ec:    0afffffc    ....    BEQ      0x400019e4 ; slave_rx + 280
        0x400019f0:    e089b105    ....    ADD      r11,r9,r5,LSL #2
        0x400019f4:    e1a0000a    ....    MOV      r0,r10
        0x400019f8:    ebfffc38    8...    BL       I2C_slaveReceiveMultipleByteNext ; 0x40000ae0
        0x400019fc:    e50b0004    ....    STR      r0,[r11,#-4]
        0x40001a00:    e1a0000a    ....    MOV      r0,r10
        0x40001a04:    e3a01002    ....    MOV      r1,#2
        0x40001a08:    ebfffb22    "...    BL       I2C_slaveClearInterruptStatus ; 0x40000698
        0x40001a0c:    e2855001    .P..    ADD      r5,r5,#1
        0x40001a10:    e355000e    ..U.    CMP      r5,#0xe
        0x40001a14:    1affffde    ....    BNE      0x40001994 ; slave_rx + 200
        0x40001a18:    e7940006    ....    LDR      r0,[r4,r6]
        0x40001a1c:    e3100010    ....    TST      r0,#0x10
        0x40001a20:    0afffffc    ....    BEQ      0x40001a18 ; slave_rx + 332
        0x40001a24:    e1a0000a    ....    MOV      r0,r10
        0x40001a28:    e3a01010    ....    MOV      r1,#0x10
        0x40001a2c:    ebfffb19    ....    BL       I2C_slaveClearInterruptStatus ; 0x40000698
        0x40001a30:    e5970000    ....    LDR      r0,[r7,#0]
        0x40001a34:    e3100010    ....    TST      r0,#0x10
        0x40001a38:    0afffffc    ....    BEQ      0x40001a30 ; slave_rx + 356
        0x40001a3c:    e1a00004    ....    MOV      r0,r4
        0x40001a40:    e3a01010    ....    MOV      r1,#0x10
        0x40001a44:    ebfff9ae    ....    BL       I2C_masterClearInterruptStatus ; 0x40000104
        0x40001a48:    e1a00004    ....    MOV      r0,r4
        0x40001a4c:    ebfff9b0    ....    BL       I2C_masterDisable ; 0x40000114
        0x40001a50:    e1a0000a    ....    MOV      r0,r10
        0x40001a54:    ebfffb13    ....    BL       I2C_slaveDisable ; 0x400006a8
        0x40001a58:    e3a00000    ....    MOV      r0,#0
        0x40001a5c:    e7981100    ....    LDR      r1,[r8,r0,LSL #2]
        0x40001a60:    e7d92100    .!..    LDRB     r2,[r9,r0,LSL #2]
        0x40001a64:    e1520001    ..R.    CMP      r2,r1
        0x40001a68:    1a000005    ....    BNE      0x40001a84 ; slave_rx + 440
        0x40001a6c:    e2800001    ....    ADD      r0,r0,#1
        0x40001a70:    e350000c    ..P.    CMP      r0,#0xc
        0x40001a74:    9afffff8    ....    BLS      0x40001a5c ; slave_rx + 400
        0x40001a78:    e3a00000    ....    MOV      r0,#0
        0x40001a7c:    e28dd004    ....    ADD      sp,sp,#4
        0x40001a80:    e8bd8ff0    ....    POP      {r4-r11,pc}
        0x40001a84:    e3a00001    ....    MOV      r0,#1
        0x40001a88:    e28dd004    ....    ADD      sp,sp,#4
        0x40001a8c:    e8bd8ff0    ....    POP      {r4-r11,pc}
    slave_rx_fna
        0x40001a90:    e92d47f0    .G-.    PUSH     {r4-r10,lr}
        0x40001a94:    e3084000    .@..    MOVW     r4,#0x8000
        0x40001a98:    e34e4650    PFN.    MOVT     r4,#0xe650
        0x40001a9c:    e3021128    (...    MOV      r1,#0x2128
        0x40001aa0:    e3441000    ..D.    MOVT     r1,#0x4000
        0x40001aa4:    e1a00004    ....    MOV      r0,r4
        0x40001aa8:    ebfff9a1    ....    BL       I2C_masterInit ; 0x40000134
        0x40001aac:    e1a00004    ....    MOV      r0,r4
        0x40001ab0:    e3e01000    ....    MVN      r1,#0
        0x40001ab4:    ebfff992    ....    BL       I2C_masterClearInterruptStatus ; 0x40000104
        0x40001ab8:    e1a00004    ....    MOV      r0,r4
        0x40001abc:    ebfff998    ....    BL       I2C_masterEnable ; 0x40000124
        0x40001ac0:    e244a902    ..D.    SUB      r10,r4,#0x8000
        0x40001ac4:    e3021438    8...    MOV      r1,#0x2438
        0x40001ac8:    e3441000    ..D.    MOVT     r1,#0x4000
        0x40001acc:    e1a0000a    ....    MOV      r0,r10
        0x40001ad0:    ebfffafc    ....    BL       I2C_slaveInit ; 0x400006c8
        0x40001ad4:    e1a0000a    ....    MOV      r0,r10
        0x40001ad8:    e3e01000    ....    MVN      r1,#0
        0x40001adc:    ebfffaed    ....    BL       I2C_slaveClearInterruptStatus ; 0x40000698
        0x40001ae0:    e1a0000a    ....    MOV      r0,r10
        0x40001ae4:    ebfffaf3    ....    BL       I2C_slaveEnable ; 0x400006b8
        0x40001ae8:    e1a00004    ....    MOV      r0,r4
        0x40001aec:    e3a01048    H...    MOV      r1,#0x48
        0x40001af0:    ebfffaa2    ....    BL       I2C_masterSendMultipleByteStart ; 0x40000580
        0x40001af4:    e3086008    .`..    MOV      r6,#0x8008
        0x40001af8:    e34f6fff    .oO.    MOVT     r6,#0xffff
        0x40001afc:    e7940006    ....    LDR      r0,[r4,r6]
        0x40001b00:    e3100001    ....    TST      r0,#1
        0x40001b04:    0afffffc    ....    BEQ      0x40001afc ; slave_rx_fna + 108
        0x40001b08:    e1a0000a    ....    MOV      r0,r10
        0x40001b0c:    e3a01001    ....    MOV      r1,#1
        0x40001b10:    ebfffae0    ....    BL       I2C_slaveClearInterruptStatus ; 0x40000698
        0x40001b14:    e308700c    .p..    MOV      r7,#0x800c
        0x40001b18:    e34e7650    PvN.    MOVT     r7,#0xe650
        0x40001b1c:    e5970000    ....    LDR      r0,[r7,#0]
        0x40001b20:    e3100001    ....    TST      r0,#1
        0x40001b24:    0afffffc    ....    BEQ      0x40001b1c ; slave_rx_fna + 140
        0x40001b28:    e5170008    ....    LDR      r0,[r7,#-8]
        0x40001b2c:    e3c00001    ....    BIC      r0,r0,#1
        0x40001b30:    e5070008    ....    STR      r0,[r7,#-8]
        0x40001b34:    e1a00004    ....    MOV      r0,r4
        0x40001b38:    e3a01009    ....    MOV      r1,#9
        0x40001b3c:    ebfff970    p...    BL       I2C_masterClearInterruptStatus ; 0x40000104
        0x40001b40:    e3a05001    .P..    MOV      r5,#1
        0x40001b44:    e30282dc    ....    MOV      r8,#0x22dc
        0x40001b48:    e3448000    ..D.    MOVT     r8,#0x4000
        0x40001b4c:    e3039544    D...    MOV      r9,#0x3544
        0x40001b50:    e3449000    ..D.    MOVT     r9,#0x4000
        0x40001b54:    e5970000    ....    LDR      r0,[r7,#0]
        0x40001b58:    e3100008    ....    TST      r0,#8
        0x40001b5c:    0afffffc    ....    BEQ      0x40001b54 ; slave_rx_fna + 196
        0x40001b60:    e355000c    ..U.    CMP      r5,#0xc
        0x40001b64:    8a000002    ....    BHI      0x40001b74 ; slave_rx_fna + 228
        0x40001b68:    e7981105    ....    LDR      r1,[r8,r5,LSL #2]
        0x40001b6c:    e1a00004    ....    MOV      r0,r4
        0x40001b70:    ebfffa80    ....    BL       I2C_masterSendMultipleByteNext ; 0x40000578
        0x40001b74:    e1a00004    ....    MOV      r0,r4
        0x40001b78:    e3a01008    ....    MOV      r1,#8
        0x40001b7c:    ebfff960    `...    BL       I2C_masterClearInterruptStatus ; 0x40000104
        0x40001b80:    e5970000    ....    LDR      r0,[r7,#0]
        0x40001b84:    e3100004    ....    TST      r0,#4
        0x40001b88:    0afffffc    ....    BEQ      0x40001b80 ; slave_rx_fna + 240
        0x40001b8c:    e1a00004    ....    MOV      r0,r4
        0x40001b90:    e3a01004    ....    MOV      r1,#4
        0x40001b94:    ebfff95a    Z...    BL       I2C_masterClearInterruptStatus ; 0x40000104
        0x40001b98:    e7940006    ....    LDR      r0,[r4,r6]
        0x40001b9c:    e3100002    ....    TST      r0,#2
        0x40001ba0:    0afffffc    ....    BEQ      0x40001b98 ; slave_rx_fna + 264
        0x40001ba4:    e355000b    ..U.    CMP      r5,#0xb
        0x40001ba8:    8a000002    ....    BHI      0x40001bb8 ; slave_rx_fna + 296
        0x40001bac:    e1a0000a    ....    MOV      r0,r10
        0x40001bb0:    ebfffbca    ....    BL       I2C_slaveReceiveMultipleByteNext ; 0x40000ae0
        0x40001bb4:    ea000008    ....    B        0x40001bdc ; slave_rx_fna + 332
        0x40001bb8:    e355000d    ..U.    CMP      r5,#0xd
        0x40001bbc:    0a000004    ....    BEQ      0x40001bd4 ; slave_rx_fna + 324
        0x40001bc0:    e355000c    ..U.    CMP      r5,#0xc
        0x40001bc4:    1a000006    ....    BNE      0x40001be4 ; slave_rx_fna + 340
        0x40001bc8:    e1a0000a    ....    MOV      r0,r10
        0x40001bcc:    ebfffbc5    ....    BL       I2C_slaveReceiveMultipleByteStop ; 0x40000ae8
        0x40001bd0:    ea000001    ....    B        0x40001bdc ; slave_rx_fna + 332
        0x40001bd4:    e1a0000a    ....    MOV      r0,r10
        0x40001bd8:    ebfffbbe    ....    BL       I2C_slaveReceiveMultipleByteFinish ; 0x40000ad8
        0x40001bdc:    e0891105    ....    ADD      r1,r9,r5,LSL #2
        0x40001be0:    e5010004    ....    STR      r0,[r1,#-4]
        0x40001be4:    e1a0000a    ....    MOV      r0,r10
        0x40001be8:    e3a01002    ....    MOV      r1,#2
        0x40001bec:    ebfffaa9    ....    BL       I2C_slaveClearInterruptStatus ; 0x40000698
        0x40001bf0:    e2855001    .P..    ADD      r5,r5,#1
        0x40001bf4:    e355000e    ..U.    CMP      r5,#0xe
        0x40001bf8:    1affffd5    ....    BNE      0x40001b54 ; slave_rx_fna + 196
        0x40001bfc:    e5970000    ....    LDR      r0,[r7,#0]
        0x40001c00:    e3100040    @...    TST      r0,#0x40
        0x40001c04:    0afffffc    ....    BEQ      0x40001bfc ; slave_rx_fna + 364
        0x40001c08:    e1a00004    ....    MOV      r0,r4
        0x40001c0c:    e3a01040    @...    MOV      r1,#0x40
        0x40001c10:    ebfff93b    ;...    BL       I2C_masterClearInterruptStatus ; 0x40000104
        0x40001c14:    e7940006    ....    LDR      r0,[r4,r6]
        0x40001c18:    e3100010    ....    TST      r0,#0x10
        0x40001c1c:    0afffffc    ....    BEQ      0x40001c14 ; slave_rx_fna + 388
        0x40001c20:    e1a0000a    ....    MOV      r0,r10
        0x40001c24:    e3a01010    ....    MOV      r1,#0x10
        0x40001c28:    ebfffa9a    ....    BL       I2C_slaveClearInterruptStatus ; 0x40000698
        0x40001c2c:    e5970000    ....    LDR      r0,[r7,#0]
        0x40001c30:    e3100010    ....    TST      r0,#0x10
        0x40001c34:    0afffffc    ....    BEQ      0x40001c2c ; slave_rx_fna + 412
        0x40001c38:    e1a00004    ....    MOV      r0,r4
        0x40001c3c:    e3a01010    ....    MOV      r1,#0x10
        0x40001c40:    ebfff92f    /...    BL       I2C_masterClearInterruptStatus ; 0x40000104
        0x40001c44:    e1a00004    ....    MOV      r0,r4
        0x40001c48:    ebfff931    1...    BL       I2C_masterDisable ; 0x40000114
        0x40001c4c:    e1a0000a    ....    MOV      r0,r10
        0x40001c50:    ebfffa94    ....    BL       I2C_slaveDisable ; 0x400006a8
        0x40001c54:    e3a00000    ....    MOV      r0,#0
        0x40001c58:    e7981100    ....    LDR      r1,[r8,r0,LSL #2]
        0x40001c5c:    e7d92100    .!..    LDRB     r2,[r9,r0,LSL #2]
        0x40001c60:    e1520001    ..R.    CMP      r2,r1
        0x40001c64:    1a000004    ....    BNE      0x40001c7c ; slave_rx_fna + 492
        0x40001c68:    e2800001    ....    ADD      r0,r0,#1
        0x40001c6c:    e350000c    ..P.    CMP      r0,#0xc
        0x40001c70:    9afffff8    ....    BLS      0x40001c58 ; slave_rx_fna + 456
        0x40001c74:    e3a00000    ....    MOV      r0,#0
        0x40001c78:    e8bd87f0    ....    POP      {r4-r10,pc}
        0x40001c7c:    e3a00001    ....    MOV      r0,#1
        0x40001c80:    e8bd87f0    ....    POP      {r4-r10,pc}
    slave_tx
        0x40001c84:    e92d47f0    .G-.    PUSH     {r4-r10,lr}
        0x40001c88:    e3084000    .@..    MOVW     r4,#0x8000
        0x40001c8c:    e34e4650    PFN.    MOVT     r4,#0xe650
        0x40001c90:    e3021098    ....    MOV      r1,#0x2098
        0x40001c94:    e3441000    ..D.    MOVT     r1,#0x4000
        0x40001c98:    e1a00004    ....    MOV      r0,r4
        0x40001c9c:    ebfff924    $...    BL       I2C_masterInit ; 0x40000134
        0x40001ca0:    e1a00004    ....    MOV      r0,r4
        0x40001ca4:    e3e01000    ....    MVN      r1,#0
        0x40001ca8:    ebfff915    ....    BL       I2C_masterClearInterruptStatus ; 0x40000104
        0x40001cac:    e1a00004    ....    MOV      r0,r4
        0x40001cb0:    ebfff91b    ....    BL       I2C_masterEnable ; 0x40000124
        0x40001cb4:    e244a902    ..D.    SUB      r10,r4,#0x8000
        0x40001cb8:    e30213a8    ....    MOV      r1,#0x23a8
        0x40001cbc:    e3441000    ..D.    MOVT     r1,#0x4000
        0x40001cc0:    e1a0000a    ....    MOV      r0,r10
        0x40001cc4:    ebfffa7f    ....    BL       I2C_slaveInit ; 0x400006c8
        0x40001cc8:    e1a0000a    ....    MOV      r0,r10
        0x40001ccc:    e3e01000    ....    MVN      r1,#0
        0x40001cd0:    ebfffa70    p...    BL       I2C_slaveClearInterruptStatus ; 0x40000698
        0x40001cd4:    e1a0000a    ....    MOV      r0,r10
        0x40001cd8:    ebfffa76    v...    BL       I2C_slaveEnable ; 0x400006b8
        0x40001cdc:    e1a0000a    ....    MOV      r0,r10
        0x40001ce0:    e3a01048    H...    MOV      r1,#0x48
        0x40001ce4:    ebfffb84    ....    BL       I2C_slaveSetData ; 0x40000afc
        0x40001ce8:    e1a00004    ....    MOV      r0,r4
        0x40001cec:    ebfffa1d    ....    BL       I2C_masterReceiveStart ; 0x40000568
        0x40001cf0:    e3086008    .`..    MOV      r6,#0x8008
        0x40001cf4:    e34f6fff    .oO.    MOVT     r6,#0xffff
        0x40001cf8:    e7940006    ....    LDR      r0,[r4,r6]
        0x40001cfc:    e3100001    ....    TST      r0,#1
        0x40001d00:    0afffffc    ....    BEQ      0x40001cf8 ; slave_tx + 116
        0x40001d04:    e1a0000a    ....    MOV      r0,r10
        0x40001d08:    e3a01001    ....    MOV      r1,#1
        0x40001d0c:    ebfffa61    a...    BL       I2C_slaveClearInterruptStatus ; 0x40000698
        0x40001d10:    e308700c    .p..    MOV      r7,#0x800c
        0x40001d14:    e34e7650    PvN.    MOVT     r7,#0xe650
        0x40001d18:    e5970000    ....    LDR      r0,[r7,#0]
        0x40001d1c:    e3100001    ....    TST      r0,#1
        0x40001d20:    0afffffc    ....    BEQ      0x40001d18 ; slave_tx + 148
        0x40001d24:    e5170008    ....    LDR      r0,[r7,#-8]
        0x40001d28:    e3c00001    ....    BIC      r0,r0,#1
        0x40001d2c:    e5070008    ....    STR      r0,[r7,#-8]
        0x40001d30:    e1a00004    ....    MOV      r0,r4
        0x40001d34:    e3a01003    ....    MOV      r1,#3
        0x40001d38:    ebfff8f1    ....    BL       I2C_masterClearInterruptStatus ; 0x40000104
        0x40001d3c:    e3a05001    .P..    MOV      r5,#1
        0x40001d40:    e30281d8    ....    MOV      r8,#0x21d8
        0x40001d44:    e3448000    ..D.    MOVT     r8,#0x4000
        0x40001d48:    e3039440    @...    MOVW     r9,#0x3440
        0x40001d4c:    e3449000    ..D.    MOVT     r9,#0x4000
        0x40001d50:    e7940006    ....    LDR      r0,[r4,r6]
        0x40001d54:    e3100008    ....    TST      r0,#8
        0x40001d58:    0afffffc    ....    BEQ      0x40001d50 ; slave_tx + 204
        0x40001d5c:    e355000c    ..U.    CMP      r5,#0xc
        0x40001d60:    8a000002    ....    BHI      0x40001d70 ; slave_tx + 236
        0x40001d64:    e7d81105    ....    LDRB     r1,[r8,r5,LSL #2]
        0x40001d68:    e1a0000a    ....    MOV      r0,r10
        0x40001d6c:    ebfffb62    b...    BL       I2C_slaveSetData ; 0x40000afc
        0x40001d70:    e1a0000a    ....    MOV      r0,r10
        0x40001d74:    e3a01008    ....    MOV      r1,#8
        0x40001d78:    ebfffa46    F...    BL       I2C_slaveClearInterruptStatus ; 0x40000698
        0x40001d7c:    e7940006    ....    LDR      r0,[r4,r6]
        0x40001d80:    e3100004    ....    TST      r0,#4
        0x40001d84:    0afffffc    ....    BEQ      0x40001d7c ; slave_tx + 248
        0x40001d88:    e1a0000a    ....    MOV      r0,r10
        0x40001d8c:    e3a01004    ....    MOV      r1,#4
        0x40001d90:    ebfffa40    @...    BL       I2C_slaveClearInterruptStatus ; 0x40000698
        0x40001d94:    e5970000    ....    LDR      r0,[r7,#0]
        0x40001d98:    e3100002    ....    TST      r0,#2
        0x40001d9c:    0afffffc    ....    BEQ      0x40001d94 ; slave_tx + 272
        0x40001da0:    e355000b    ..U.    CMP      r5,#0xb
        0x40001da4:    8a000002    ....    BHI      0x40001db4 ; slave_tx + 304
        0x40001da8:    e1a00004    ....    MOV      r0,r4
        0x40001dac:    ebfff9e6    ....    BL       I2C_masterReceiveMultipleByteNext ; 0x4000054c
        0x40001db0:    ea000008    ....    B        0x40001dd8 ; slave_tx + 340
        0x40001db4:    e355000d    ..U.    CMP      r5,#0xd
        0x40001db8:    0a000004    ....    BEQ      0x40001dd0 ; slave_tx + 332
        0x40001dbc:    e355000c    ..U.    CMP      r5,#0xc
        0x40001dc0:    1a000006    ....    BNE      0x40001de0 ; slave_tx + 348
        0x40001dc4:    e1a00004    ....    MOV      r0,r4
        0x40001dc8:    ebfff9e1    ....    BL       I2C_masterReceiveMultipleByteStop ; 0x40000554
        0x40001dcc:    ea000001    ....    B        0x40001dd8 ; slave_tx + 340
        0x40001dd0:    e1a00004    ....    MOV      r0,r4
        0x40001dd4:    ebfff9da    ....    BL       I2C_masterReceiveMultipleByteFinish ; 0x40000544
        0x40001dd8:    e0891105    ....    ADD      r1,r9,r5,LSL #2
        0x40001ddc:    e5010004    ....    STR      r0,[r1,#-4]
        0x40001de0:    e1a00004    ....    MOV      r0,r4
        0x40001de4:    e3a01002    ....    MOV      r1,#2
        0x40001de8:    ebfff8c5    ....    BL       I2C_masterClearInterruptStatus ; 0x40000104
        0x40001dec:    e2855001    .P..    ADD      r5,r5,#1
        0x40001df0:    e355000e    ..U.    CMP      r5,#0xe
        0x40001df4:    1affffd5    ....    BNE      0x40001d50 ; slave_tx + 204
        0x40001df8:    e7940006    ....    LDR      r0,[r4,r6]
        0x40001dfc:    e3100010    ....    TST      r0,#0x10
        0x40001e00:    0afffffc    ....    BEQ      0x40001df8 ; slave_tx + 372
        0x40001e04:    e1a0000a    ....    MOV      r0,r10
        0x40001e08:    e3a01010    ....    MOV      r1,#0x10
        0x40001e0c:    ebfffa21    !...    BL       I2C_slaveClearInterruptStatus ; 0x40000698
        0x40001e10:    e5970000    ....    LDR      r0,[r7,#0]
        0x40001e14:    e3100010    ....    TST      r0,#0x10
        0x40001e18:    0afffffc    ....    BEQ      0x40001e10 ; slave_tx + 396
        0x40001e1c:    e1a00004    ....    MOV      r0,r4
        0x40001e20:    e3a01010    ....    MOV      r1,#0x10
        0x40001e24:    ebfff8b6    ....    BL       I2C_masterClearInterruptStatus ; 0x40000104
        0x40001e28:    e1a00004    ....    MOV      r0,r4
        0x40001e2c:    ebfff8b8    ....    BL       I2C_masterDisable ; 0x40000114
        0x40001e30:    e1a0000a    ....    MOV      r0,r10
        0x40001e34:    ebfffa1b    ....    BL       I2C_slaveDisable ; 0x400006a8
        0x40001e38:    e3a00000    ....    MOV      r0,#0
        0x40001e3c:    e7981100    ....    LDR      r1,[r8,r0,LSL #2]
        0x40001e40:    e7d92100    .!..    LDRB     r2,[r9,r0,LSL #2]
        0x40001e44:    e1520001    ..R.    CMP      r2,r1
        0x40001e48:    1a000004    ....    BNE      0x40001e60 ; slave_tx + 476
        0x40001e4c:    e2800001    ....    ADD      r0,r0,#1
        0x40001e50:    e350000c    ..P.    CMP      r0,#0xc
        0x40001e54:    9afffff8    ....    BLS      0x40001e3c ; slave_tx + 440
        0x40001e58:    e3a00000    ....    MOV      r0,#0
        0x40001e5c:    e8bd87f0    ....    POP      {r4-r10,pc}
        0x40001e60:    e3a00001    ....    MOV      r0,#1
        0x40001e64:    e8bd87f0    ....    POP      {r4-r10,pc}
    slave_tx_delay
        0x40001e68:    e92d47f0    .G-.    PUSH     {r4-r10,lr}
        0x40001e6c:    e3084000    .@..    MOVW     r4,#0x8000
        0x40001e70:    e34e4650    PFN.    MOVT     r4,#0xe650
        0x40001e74:    e30210c8    ....    MOV      r1,#0x20c8
        0x40001e78:    e3441000    ..D.    MOVT     r1,#0x4000
        0x40001e7c:    e1a00004    ....    MOV      r0,r4
        0x40001e80:    ebfff8ab    ....    BL       I2C_masterInit ; 0x40000134
        0x40001e84:    e1a00004    ....    MOV      r0,r4
        0x40001e88:    e3e01000    ....    MVN      r1,#0
        0x40001e8c:    ebfff89c    ....    BL       I2C_masterClearInterruptStatus ; 0x40000104
        0x40001e90:    e1a00004    ....    MOV      r0,r4
        0x40001e94:    ebfff8a2    ....    BL       I2C_masterEnable ; 0x40000124
        0x40001e98:    e244a902    ..D.    SUB      r10,r4,#0x8000
        0x40001e9c:    e30213d8    ....    MOV      r1,#0x23d8
        0x40001ea0:    e3441000    ..D.    MOVT     r1,#0x4000
        0x40001ea4:    e1a0000a    ....    MOV      r0,r10
        0x40001ea8:    ebfffa06    ....    BL       I2C_slaveInit ; 0x400006c8
        0x40001eac:    e1a0000a    ....    MOV      r0,r10
        0x40001eb0:    e3e01000    ....    MVN      r1,#0
        0x40001eb4:    ebfff9f7    ....    BL       I2C_slaveClearInterruptStatus ; 0x40000698
        0x40001eb8:    e1a0000a    ....    MOV      r0,r10
        0x40001ebc:    ebfff9fd    ....    BL       I2C_slaveEnable ; 0x400006b8
        0x40001ec0:    e1a0000a    ....    MOV      r0,r10
        0x40001ec4:    e3a01048    H...    MOV      r1,#0x48
        0x40001ec8:    ebfffb0b    ....    BL       I2C_slaveSetData ; 0x40000afc
        0x40001ecc:    e1a00004    ....    MOV      r0,r4
        0x40001ed0:    ebfff9a4    ....    BL       I2C_masterReceiveStart ; 0x40000568
        0x40001ed4:    e3086008    .`..    MOV      r6,#0x8008
        0x40001ed8:    e34f6fff    .oO.    MOVT     r6,#0xffff
        0x40001edc:    e7940006    ....    LDR      r0,[r4,r6]
        0x40001ee0:    e3100001    ....    TST      r0,#1
        0x40001ee4:    0afffffc    ....    BEQ      0x40001edc ; slave_tx_delay + 116
        0x40001ee8:    e1a0000a    ....    MOV      r0,r10
        0x40001eec:    e3a01001    ....    MOV      r1,#1
        0x40001ef0:    ebfff9e8    ....    BL       I2C_slaveClearInterruptStatus ; 0x40000698
        0x40001ef4:    e308700c    .p..    MOV      r7,#0x800c
        0x40001ef8:    e34e7650    PvN.    MOVT     r7,#0xe650
        0x40001efc:    e5970000    ....    LDR      r0,[r7,#0]
        0x40001f00:    e3100001    ....    TST      r0,#1
        0x40001f04:    0afffffc    ....    BEQ      0x40001efc ; slave_tx_delay + 148
        0x40001f08:    e5170008    ....    LDR      r0,[r7,#-8]
        0x40001f0c:    e3c00001    ....    BIC      r0,r0,#1
        0x40001f10:    e5070008    ....    STR      r0,[r7,#-8]
        0x40001f14:    e1a00004    ....    MOV      r0,r4
        0x40001f18:    e3a01003    ....    MOV      r1,#3
        0x40001f1c:    ebfff878    x...    BL       I2C_masterClearInterruptStatus ; 0x40000104
        0x40001f20:    e3a05001    .P..    MOV      r5,#1
        0x40001f24:    e3028240    @...    MOVW     r8,#0x2240
        0x40001f28:    e3448000    ..D.    MOVT     r8,#0x4000
        0x40001f2c:    e30394a8    ....    MOV      r9,#0x34a8
        0x40001f30:    e3449000    ..D.    MOVT     r9,#0x4000
        0x40001f34:    e7940006    ....    LDR      r0,[r4,r6]
        0x40001f38:    e3100008    ....    TST      r0,#8
        0x40001f3c:    0afffffc    ....    BEQ      0x40001f34 ; slave_tx_delay + 204
        0x40001f40:    e355000c    ..U.    CMP      r5,#0xc
        0x40001f44:    8a000002    ....    BHI      0x40001f54 ; slave_tx_delay + 236
        0x40001f48:    e7d81105    ....    LDRB     r1,[r8,r5,LSL #2]
        0x40001f4c:    e1a0000a    ....    MOV      r0,r10
        0x40001f50:    ebfffae9    ....    BL       I2C_slaveSetData ; 0x40000afc
        0x40001f54:    e3a00014    ....    MOV      r0,#0x14
        0x40001f58:    ebfffafc    ....    BL       Sim_Delay ; 0x40000b50
        0x40001f5c:    e1a0000a    ....    MOV      r0,r10
        0x40001f60:    e3a01008    ....    MOV      r1,#8
        0x40001f64:    ebfff9cb    ....    BL       I2C_slaveClearInterruptStatus ; 0x40000698
        0x40001f68:    e7940006    ....    LDR      r0,[r4,r6]
        0x40001f6c:    e3100004    ....    TST      r0,#4
        0x40001f70:    0afffffc    ....    BEQ      0x40001f68 ; slave_tx_delay + 256
        0x40001f74:    e1a0000a    ....    MOV      r0,r10
        0x40001f78:    e3a01004    ....    MOV      r1,#4
        0x40001f7c:    ebfff9c5    ....    BL       I2C_slaveClearInterruptStatus ; 0x40000698
        0x40001f80:    e5970000    ....    LDR      r0,[r7,#0]
        0x40001f84:    e3100002    ....    TST      r0,#2
        0x40001f88:    0afffffc    ....    BEQ      0x40001f80 ; slave_tx_delay + 280
        0x40001f8c:    e355000b    ..U.    CMP      r5,#0xb
        0x40001f90:    8a000002    ....    BHI      0x40001fa0 ; slave_tx_delay + 312
        0x40001f94:    e1a00004    ....    MOV      r0,r4
        0x40001f98:    ebfff96b    k...    BL       I2C_masterReceiveMultipleByteNext ; 0x4000054c
        0x40001f9c:    ea000008    ....    B        0x40001fc4 ; slave_tx_delay + 348
        0x40001fa0:    e355000d    ..U.    CMP      r5,#0xd
        0x40001fa4:    0a000004    ....    BEQ      0x40001fbc ; slave_tx_delay + 340
        0x40001fa8:    e355000c    ..U.    CMP      r5,#0xc
        0x40001fac:    1a000006    ....    BNE      0x40001fcc ; slave_tx_delay + 356
        0x40001fb0:    e1a00004    ....    MOV      r0,r4
        0x40001fb4:    ebfff966    f...    BL       I2C_masterReceiveMultipleByteStop ; 0x40000554
        0x40001fb8:    ea000001    ....    B        0x40001fc4 ; slave_tx_delay + 348
        0x40001fbc:    e1a00004    ....    MOV      r0,r4
        0x40001fc0:    ebfff95f    _...    BL       I2C_masterReceiveMultipleByteFinish ; 0x40000544
        0x40001fc4:    e0891105    ....    ADD      r1,r9,r5,LSL #2
        0x40001fc8:    e5010004    ....    STR      r0,[r1,#-4]
        0x40001fcc:    e1a00004    ....    MOV      r0,r4
        0x40001fd0:    e3a01002    ....    MOV      r1,#2
        0x40001fd4:    ebfff84a    J...    BL       I2C_masterClearInterruptStatus ; 0x40000104
        0x40001fd8:    e2855001    .P..    ADD      r5,r5,#1
        0x40001fdc:    e355000e    ..U.    CMP      r5,#0xe
        0x40001fe0:    1affffd3    ....    BNE      0x40001f34 ; slave_tx_delay + 204
        0x40001fe4:    e7940006    ....    LDR      r0,[r4,r6]
        0x40001fe8:    e3100010    ....    TST      r0,#0x10
        0x40001fec:    0afffffc    ....    BEQ      0x40001fe4 ; slave_tx_delay + 380
        0x40001ff0:    e1a0000a    ....    MOV      r0,r10
        0x40001ff4:    e3a01010    ....    MOV      r1,#0x10
        0x40001ff8:    ebfff9a6    ....    BL       I2C_slaveClearInterruptStatus ; 0x40000698
        0x40001ffc:    e5970000    ....    LDR      r0,[r7,#0]
        0x40002000:    e3100010    ....    TST      r0,#0x10
        0x40002004:    0afffffc    ....    BEQ      0x40001ffc ; slave_tx_delay + 404
        0x40002008:    e1a00004    ....    MOV      r0,r4
        0x4000200c:    e3a01010    ....    MOV      r1,#0x10
        0x40002010:    ebfff83b    ;...    BL       I2C_masterClearInterruptStatus ; 0x40000104
        0x40002014:    e1a00004    ....    MOV      r0,r4
        0x40002018:    ebfff83d    =...    BL       I2C_masterDisable ; 0x40000114
        0x4000201c:    e1a0000a    ....    MOV      r0,r10
        0x40002020:    ebfff9a0    ....    BL       I2C_slaveDisable ; 0x400006a8
        0x40002024:    e3a00000    ....    MOV      r0,#0
        0x40002028:    e7981100    ....    LDR      r1,[r8,r0,LSL #2]
        0x4000202c:    e7d92100    .!..    LDRB     r2,[r9,r0,LSL #2]
        0x40002030:    e1520001    ..R.    CMP      r2,r1
        0x40002034:    1a000004    ....    BNE      0x4000204c ; slave_tx_delay + 484
        0x40002038:    e2800001    ....    ADD      r0,r0,#1
        0x4000203c:    e350000c    ..P.    CMP      r0,#0xc
        0x40002040:    9afffff8    ....    BLS      0x40002028 ; slave_tx_delay + 448
        0x40002044:    e3a00000    ....    MOV      r0,#0
        0x40002048:    e8bd87f0    ....    POP      {r4-r10,pc}
        0x4000204c:    e3a00001    ....    MOV      r0,#1
        0x40002050:    e8bd87f0    ....    POP      {r4-r10,pc}
    $a
    $Ven$AA$L$$Reset_Handler
        0x40002054:    e51ff004    ....    LDR      pc,[pc,#-4] ; [0x40002058] = 0x64
    $d
        0x40002058:    00000064    d...    DCD    100
    $a
    x$fpl$fpinit
    $v0
    _fp_init
        0x4000205c:    e3a00403    ....    MOV      r0,#0x3000000
        0x40002060:    eee10a10    ....    VMSR     FPSCR,r0
    __fplib_config_fpu_vfp
    __fplib_config_pureend_doubles
        0x40002064:    e12fff1e    ../.    BX       lr
    $d.realdata
    masterConfig
        0x40002068:    00000000    ....    DCD    0
        0x4000206c:    00000000    ....    DCD    0
        0x40002070:    00000000    ....    DCD    0
        0x40002074:    00000000    ....    DCD    0
        0x40002078:    00000000    ....    DCD    0
        0x4000207c:    00000005    ....    DCD    5
    masterConfig
        0x40002080:    00000000    ....    DCD    0
        0x40002084:    00000050    P...    DCD    80
        0x40002088:    00000000    ....    DCD    0
        0x4000208c:    00000000    ....    DCD    0
        0x40002090:    00000000    ....    DCD    0
        0x40002094:    00000005    ....    DCD    5
    masterConfig
        0x40002098:    00000001    ....    DCD    1
        0x4000209c:    00000050    P...    DCD    80
        0x400020a0:    00000000    ....    DCD    0
        0x400020a4:    00000000    ....    DCD    0
        0x400020a8:    00000000    ....    DCD    0
        0x400020ac:    00000005    ....    DCD    5
    masterConfig
        0x400020b0:    00000000    ....    DCD    0
        0x400020b4:    00000050    P...    DCD    80
        0x400020b8:    00000000    ....    DCD    0
        0x400020bc:    00000000    ....    DCD    0
        0x400020c0:    00000000    ....    DCD    0
        0x400020c4:    00000005    ....    DCD    5
    masterConfig
        0x400020c8:    00000001    ....    DCD    1
        0x400020cc:    00000050    P...    DCD    80
        0x400020d0:    00000000    ....    DCD    0
        0x400020d4:    00000000    ....    DCD    0
        0x400020d8:    00000000    ....    DCD    0
        0x400020dc:    00000005    ....    DCD    5
    masterConfig
        0x400020e0:    00000000    ....    DCD    0
        0x400020e4:    00000050    P...    DCD    80
        0x400020e8:    00000000    ....    DCD    0
        0x400020ec:    00000000    ....    DCD    0
        0x400020f0:    00000000    ....    DCD    0
        0x400020f4:    00000005    ....    DCD    5
    masterConfig
        0x400020f8:    00000001    ....    DCD    1
        0x400020fc:    00000050    P...    DCD    80
        0x40002100:    00000000    ....    DCD    0
        0x40002104:    00000000    ....    DCD    0
        0x40002108:    00000000    ....    DCD    0
        0x4000210c:    00000005    ....    DCD    5
    masterConfig
        0x40002110:    00000000    ....    DCD    0
        0x40002114:    00000052    R...    DCD    82
        0x40002118:    00000000    ....    DCD    0
        0x4000211c:    00000000    ....    DCD    0
        0x40002120:    00000000    ....    DCD    0
        0x40002124:    00000005    ....    DCD    5
    masterConfig
        0x40002128:    00000000    ....    DCD    0
        0x4000212c:    00000050    P...    DCD    80
        0x40002130:    00000000    ....    DCD    0
        0x40002134:    00000000    ....    DCD    0
        0x40002138:    00000000    ....    DCD    0
        0x4000213c:    00000005    ....    DCD    5
    masterConfig
        0x40002140:    00000000    ....    DCD    0
        0x40002144:    00000050    P...    DCD    80
        0x40002148:    00000000    ....    DCD    0
        0x4000214c:    00000000    ....    DCD    0
        0x40002150:    00000000    ....    DCD    0
        0x40002154:    00000005    ....    DCD    5
    masterConfig
        0x40002158:    00000000    ....    DCD    0
        0x4000215c:    00000050    P...    DCD    80
        0x40002160:    00000000    ....    DCD    0
        0x40002164:    00000000    ....    DCD    0
        0x40002168:    00000000    ....    DCD    0
        0x4000216c:    00000005    ....    DCD    5
    sendData
        0x40002170:    00000048    H...    DCD    72
        0x40002174:    00000045    E...    DCD    69
        0x40002178:    0000004c    L...    DCD    76
        0x4000217c:    0000004c    L...    DCD    76
        0x40002180:    0000004f    O...    DCD    79
        0x40002184:    0000002c    ,...    DCD    44
        0x40002188:    00000020     ...    DCD    32
        0x4000218c:    00000057    W...    DCD    87
        0x40002190:    0000004f    O...    DCD    79
        0x40002194:    00000052    R...    DCD    82
        0x40002198:    0000004c    L...    DCD    76
        0x4000219c:    00000044    D...    DCD    68
        0x400021a0:    00000021    !...    DCD    33
    sendData
        0x400021a4:    00000048    H...    DCD    72
        0x400021a8:    00000045    E...    DCD    69
        0x400021ac:    0000004c    L...    DCD    76
        0x400021b0:    0000004c    L...    DCD    76
        0x400021b4:    0000004f    O...    DCD    79
        0x400021b8:    0000002c    ,...    DCD    44
        0x400021bc:    00000020     ...    DCD    32
        0x400021c0:    00000057    W...    DCD    87
        0x400021c4:    0000004f    O...    DCD    79
        0x400021c8:    00000052    R...    DCD    82
        0x400021cc:    0000004c    L...    DCD    76
        0x400021d0:    00000044    D...    DCD    68
        0x400021d4:    00000021    !...    DCD    33
    sendData
        0x400021d8:    00000048    H...    DCD    72
        0x400021dc:    00000045    E...    DCD    69
        0x400021e0:    0000004c    L...    DCD    76
        0x400021e4:    0000004c    L...    DCD    76
        0x400021e8:    0000004f    O...    DCD    79
        0x400021ec:    0000002c    ,...    DCD    44
        0x400021f0:    00000020     ...    DCD    32
        0x400021f4:    00000057    W...    DCD    87
        0x400021f8:    0000004f    O...    DCD    79
        0x400021fc:    00000052    R...    DCD    82
        0x40002200:    0000004c    L...    DCD    76
        0x40002204:    00000044    D...    DCD    68
        0x40002208:    00000021    !...    DCD    33
    sendData
        0x4000220c:    00000048    H...    DCD    72
        0x40002210:    00000045    E...    DCD    69
        0x40002214:    0000004c    L...    DCD    76
        0x40002218:    0000004c    L...    DCD    76
        0x4000221c:    0000004f    O...    DCD    79
        0x40002220:    0000002c    ,...    DCD    44
        0x40002224:    00000020     ...    DCD    32
        0x40002228:    00000057    W...    DCD    87
        0x4000222c:    0000004f    O...    DCD    79
        0x40002230:    00000052    R...    DCD    82
        0x40002234:    0000004c    L...    DCD    76
        0x40002238:    00000044    D...    DCD    68
        0x4000223c:    00000021    !...    DCD    33
    sendData
        0x40002240:    00000048    H...    DCD    72
        0x40002244:    00000045    E...    DCD    69
        0x40002248:    0000004c    L...    DCD    76
        0x4000224c:    0000004c    L...    DCD    76
        0x40002250:    0000004f    O...    DCD    79
        0x40002254:    0000002c    ,...    DCD    44
        0x40002258:    00000020     ...    DCD    32
        0x4000225c:    00000057    W...    DCD    87
        0x40002260:    0000004f    O...    DCD    79
        0x40002264:    00000052    R...    DCD    82
        0x40002268:    0000004c    L...    DCD    76
        0x4000226c:    00000044    D...    DCD    68
        0x40002270:    00000021    !...    DCD    33
    sendData
        0x40002274:    00000048    H...    DCD    72
        0x40002278:    00000045    E...    DCD    69
        0x4000227c:    0000004c    L...    DCD    76
        0x40002280:    0000004c    L...    DCD    76
        0x40002284:    0000004f    O...    DCD    79
        0x40002288:    0000002c    ,...    DCD    44
        0x4000228c:    00000020     ...    DCD    32
        0x40002290:    00000057    W...    DCD    87
        0x40002294:    0000004f    O...    DCD    79
        0x40002298:    00000052    R...    DCD    82
        0x4000229c:    0000004c    L...    DCD    76
        0x400022a0:    00000044    D...    DCD    68
        0x400022a4:    00000021    !...    DCD    33
    sendData
        0x400022a8:    00000048    H...    DCD    72
        0x400022ac:    00000045    E...    DCD    69
        0x400022b0:    0000004c    L...    DCD    76
        0x400022b4:    0000004c    L...    DCD    76
        0x400022b8:    0000004f    O...    DCD    79
        0x400022bc:    0000002c    ,...    DCD    44
        0x400022c0:    00000020     ...    DCD    32
        0x400022c4:    00000057    W...    DCD    87
        0x400022c8:    0000004f    O...    DCD    79
        0x400022cc:    00000052    R...    DCD    82
        0x400022d0:    0000004c    L...    DCD    76
        0x400022d4:    00000044    D...    DCD    68
        0x400022d8:    00000021    !...    DCD    33
    sendData
        0x400022dc:    00000048    H...    DCD    72
        0x400022e0:    00000045    E...    DCD    69
        0x400022e4:    0000004c    L...    DCD    76
        0x400022e8:    0000004c    L...    DCD    76
        0x400022ec:    0000004f    O...    DCD    79
        0x400022f0:    0000002c    ,...    DCD    44
        0x400022f4:    00000020     ...    DCD    32
        0x400022f8:    00000057    W...    DCD    87
        0x400022fc:    0000004f    O...    DCD    79
        0x40002300:    00000052    R...    DCD    82
        0x40002304:    0000004c    L...    DCD    76
        0x40002308:    00000044    D...    DCD    68
        0x4000230c:    00000021    !...    DCD    33
    sendData
        0x40002310:    00000048    H...    DCD    72
        0x40002314:    00000045    E...    DCD    69
        0x40002318:    0000004c    L...    DCD    76
        0x4000231c:    0000004c    L...    DCD    76
        0x40002320:    0000004f    O...    DCD    79
        0x40002324:    0000002c    ,...    DCD    44
        0x40002328:    00000020     ...    DCD    32
        0x4000232c:    00000057    W...    DCD    87
        0x40002330:    0000004f    O...    DCD    79
        0x40002334:    00000052    R...    DCD    82
        0x40002338:    0000004c    L...    DCD    76
        0x4000233c:    00000044    D...    DCD    68
        0x40002340:    00000021    !...    DCD    33
    sendData
        0x40002344:    00000048    H...    DCD    72
        0x40002348:    00000045    E...    DCD    69
        0x4000234c:    0000004c    L...    DCD    76
        0x40002350:    0000004c    L...    DCD    76
        0x40002354:    0000004f    O...    DCD    79
        0x40002358:    0000002c    ,...    DCD    44
        0x4000235c:    00000020     ...    DCD    32
        0x40002360:    00000057    W...    DCD    87
        0x40002364:    0000004f    O...    DCD    79
        0x40002368:    00000052    R...    DCD    82
        0x4000236c:    0000004c    L...    DCD    76
        0x40002370:    00000044    D...    DCD    68
        0x40002374:    00000021    !...    DCD    33
    slaveConfig
        0x40002378:    00000050    P...    DCD    80
        0x4000237c:    00000001    ....    DCD    1
        0x40002380:    00000000    ....    DCD    0
        0x40002384:    00000000    ....    DCD    0
        0x40002388:    00000000    ....    DCD    0
        0x4000238c:    00000005    ....    DCD    5
    slaveConfig
        0x40002390:    00000050    P...    DCD    80
        0x40002394:    00000000    ....    DCD    0
        0x40002398:    00000000    ....    DCD    0
        0x4000239c:    00000000    ....    DCD    0
        0x400023a0:    00000000    ....    DCD    0
        0x400023a4:    00000005    ....    DCD    5
    slaveConfig
        0x400023a8:    00000050    P...    DCD    80
        0x400023ac:    00000001    ....    DCD    1
        0x400023b0:    00000000    ....    DCD    0
        0x400023b4:    00000000    ....    DCD    0
        0x400023b8:    00000000    ....    DCD    0
        0x400023bc:    00000005    ....    DCD    5
    slaveConfig
        0x400023c0:    00000050    P...    DCD    80
        0x400023c4:    00000000    ....    DCD    0
        0x400023c8:    00000000    ....    DCD    0
        0x400023cc:    00000000    ....    DCD    0
        0x400023d0:    00000000    ....    DCD    0
        0x400023d4:    00000005    ....    DCD    5
    slaveConfig
        0x400023d8:    00000050    P...    DCD    80
        0x400023dc:    00000001    ....    DCD    1
        0x400023e0:    00000000    ....    DCD    0
        0x400023e4:    00000000    ....    DCD    0
        0x400023e8:    00000000    ....    DCD    0
        0x400023ec:    00000005    ....    DCD    5
    slaveConfig
        0x400023f0:    00000050    P...    DCD    80
        0x400023f4:    00000000    ....    DCD    0
        0x400023f8:    00000000    ....    DCD    0
        0x400023fc:    00000000    ....    DCD    0
        0x40002400:    00000000    ....    DCD    0
        0x40002404:    00000005    ....    DCD    5
    slaveConfig
        0x40002408:    00000050    P...    DCD    80
        0x4000240c:    00000000    ....    DCD    0
        0x40002410:    00000000    ....    DCD    0
        0x40002414:    00000000    ....    DCD    0
        0x40002418:    00000000    ....    DCD    0
        0x4000241c:    00000005    ....    DCD    5
    slaveConfig
        0x40002420:    00000050    P...    DCD    80
        0x40002424:    00000001    ....    DCD    1
        0x40002428:    00000000    ....    DCD    0
        0x4000242c:    00000000    ....    DCD    0
        0x40002430:    00000000    ....    DCD    0
        0x40002434:    00000005    ....    DCD    5
    slaveConfig
        0x40002438:    00000050    P...    DCD    80
        0x4000243c:    00000001    ....    DCD    1
        0x40002440:    00000000    ....    DCD    0
        0x40002444:    00000000    ....    DCD    0
        0x40002448:    00000000    ....    DCD    0
        0x4000244c:    00000005    ....    DCD    5
    slaveConfig
        0x40002450:    00000050    P...    DCD    80
        0x40002454:    00000001    ....    DCD    1
        0x40002458:    00000000    ....    DCD    0
        0x4000245c:    00000000    ....    DCD    0
        0x40002460:    00000000    ....    DCD    0
        0x40002464:    00000005    ....    DCD    5
    slaveConfig
        0x40002468:    00000050    P...    DCD    80
        0x4000246c:    00000000    ....    DCD    0
        0x40002470:    00000000    ....    DCD    0
        0x40002474:    00000000    ....    DCD    0
        0x40002478:    00000000    ....    DCD    0
        0x4000247c:    00000005    ....    DCD    5

====================================

** Section #3

    Name        : ER10
    Type        : SHT_PROGBITS (0x00000001)
    Flags       : SHF_ALLOC + SHF_WRITE (0x00000003)
    Addr        : 0x40002480
    File Offset : 14492 (0x389c)
    Size        : 3920 bytes (0xf50)
    Link        : SHN_UNDEF
    Info        : 0
    Alignment   : 4
    Entry Size  : 0

    0x40002480:   b4 00 00 40 b4 00 00 40 b4 00 00 40 b4 00 00 40    ...@...@...@...@
    0x40002490:   b4 00 00 40 b4 00 00 40 b4 00 00 40 b4 00 00 40    ...@...@...@...@
    0x400024a0:   b4 00 00 40 b4 00 00 40 b4 00 00 40 b4 00 00 40    ...@...@...@...@
    0x400024b0:   b4 00 00 40 b4 00 00 40 b4 00 00 40 b4 00 00 40    ...@...@...@...@
    0x400024c0:   b4 00 00 40 b4 00 00 40 b4 00 00 40 b4 00 00 40    ...@...@...@...@
    0x400024d0:   b4 00 00 40 b4 00 00 40 b4 00 00 40 b4 00 00 40    ...@...@...@...@
    0x400024e0:   b4 00 00 40 b4 00 00 40 b4 00 00 40 b4 00 00 40    ...@...@...@...@
    0x400024f0:   b4 00 00 40 b4 00 00 40 b4 00 00 40 b4 00 00 40    ...@...@...@...@
    0x40002500:   b4 00 00 40 b4 00 00 40 b4 00 00 40 b4 00 00 40    ...@...@...@...@
    0x40002510:   b4 00 00 40 b4 00 00 40 b4 00 00 40 b4 00 00 40    ...@...@...@...@
    0x40002520:   b4 00 00 40 b4 00 00 40 b4 00 00 40 b4 00 00 40    ...@...@...@...@
    0x40002530:   b4 00 00 40 b4 00 00 40 b4 00 00 40 b4 00 00 40    ...@...@...@...@
    0x40002540:   b4 00 00 40 b4 00 00 40 b4 00 00 40 b4 00 00 40    ...@...@...@...@
    0x40002550:   b4 00 00 40 b4 00 00 40 b4 00 00 40 b4 00 00 40    ...@...@...@...@
    0x40002560:   b4 00 00 40 b4 00 00 40 b4 00 00 40 b4 00 00 40    ...@...@...@...@
    0x40002570:   b4 00 00 40 b4 00 00 40 b4 00 00 40 b4 00 00 40    ...@...@...@...@
    0x40002580:   b4 00 00 40 b4 00 00 40 b4 00 00 40 b4 00 00 40    ...@...@...@...@
    0x40002590:   b4 00 00 40 b4 00 00 40 b4 00 00 40 b4 00 00 40    ...@...@...@...@
    0x400025a0:   b4 00 00 40 b4 00 00 40 b4 00 00 40 b4 00 00 40    ...@...@...@...@
    0x400025b0:   b4 00 00 40 b4 00 00 40 b4 00 00 40 b4 00 00 40    ...@...@...@...@
    0x400025c0:   b4 00 00 40 b4 00 00 40 b4 00 00 40 b4 00 00 40    ...@...@...@...@
    0x400025d0:   b4 00 00 40 b4 00 00 40 b4 00 00 40 b4 00 00 40    ...@...@...@...@
    0x400025e0:   b4 00 00 40 b4 00 00 40 b4 00 00 40 b4 00 00 40    ...@...@...@...@
    0x400025f0:   b4 00 00 40 b4 00 00 40 b4 00 00 40 b4 00 00 40    ...@...@...@...@
    0x40002600:   b4 00 00 40 b4 00 00 40 b4 00 00 40 b4 00 00 40    ...@...@...@...@
    0x40002610:   b4 00 00 40 b4 00 00 40 b4 00 00 40 b4 00 00 40    ...@...@...@...@
    0x40002620:   b4 00 00 40 b4 00 00 40 b4 00 00 40 b4 00 00 40    ...@...@...@...@
    0x40002630:   b4 00 00 40 b4 00 00 40 b4 00 00 40 b4 00 00 40    ...@...@...@...@
    0x40002640:   b4 00 00 40 b4 00 00 40 b4 00 00 40 b4 00 00 40    ...@...@...@...@
    0x40002650:   b4 00 00 40 b4 00 00 40 b4 00 00 40 b4 00 00 40    ...@...@...@...@
    0x40002660:   b4 00 00 40 b4 00 00 40 b4 00 00 40 b4 00 00 40    ...@...@...@...@
    0x40002670:   b4 00 00 40 b4 00 00 40 b4 00 00 40 b4 00 00 40    ...@...@...@...@
    0x40002680:   b4 00 00 40 b4 00 00 40 b4 00 00 40 b4 00 00 40    ...@...@...@...@
    0x40002690:   b4 00 00 40 b4 00 00 40 b4 00 00 40 b4 00 00 40    ...@...@...@...@
    0x400026a0:   b4 00 00 40 b4 00 00 40 b4 00 00 40 b4 00 00 40    ...@...@...@...@
    0x400026b0:   b4 00 00 40 b4 00 00 40 b4 00 00 40 b4 00 00 40    ...@...@...@...@
    0x400026c0:   b4 00 00 40 b4 00 00 40 b4 00 00 40 b4 00 00 40    ...@...@...@...@
    0x400026d0:   b4 00 00 40 b4 00 00 40 b4 00 00 40 b4 00 00 40    ...@...@...@...@
    0x400026e0:   b4 00 00 40 b4 00 00 40 b4 00 00 40 b4 00 00 40    ...@...@...@...@
    0x400026f0:   b4 00 00 40 b4 00 00 40 b4 00 00 40 b4 00 00 40    ...@...@...@...@
    0x40002700:   b4 00 00 40 b4 00 00 40 b4 00 00 40 b4 00 00 40    ...@...@...@...@
    0x40002710:   b4 00 00 40 b4 00 00 40 b4 00 00 40 b4 00 00 40    ...@...@...@...@
    0x40002720:   b4 00 00 40 b4 00 00 40 b4 00 00 40 b4 00 00 40    ...@...@...@...@
    0x40002730:   b4 00 00 40 b4 00 00 40 b4 00 00 40 b4 00 00 40    ...@...@...@...@
    0x40002740:   b4 00 00 40 b4 00 00 40 b4 00 00 40 b4 00 00 40    ...@...@...@...@
    0x40002750:   b4 00 00 40 b4 00 00 40 b4 00 00 40 b4 00 00 40    ...@...@...@...@
    0x40002760:   b4 00 00 40 b4 00 00 40 b4 00 00 40 b4 00 00 40    ...@...@...@...@
    0x40002770:   b4 00 00 40 b4 00 00 40 b4 00 00 40 b4 00 00 40    ...@...@...@...@
    0x40002780:   b4 00 00 40 b4 00 00 40 b4 00 00 40 b4 00 00 40    ...@...@...@...@
    0x40002790:   b4 00 00 40 b4 00 00 40 b4 00 00 40 b4 00 00 40    ...@...@...@...@
    0x400027a0:   b4 00 00 40 b4 00 00 40 b4 00 00 40 b4 00 00 40    ...@...@...@...@
    0x400027b0:   b4 00 00 40 b4 00 00 40 b4 00 00 40 b4 00 00 40    ...@...@...@...@
    0x400027c0:   b4 00 00 40 b4 00 00 40 b4 00 00 40 b4 00 00 40    ...@...@...@...@
    0x400027d0:   b4 00 00 40 b4 00 00 40 b4 00 00 40 b4 00 00 40    ...@...@...@...@
    0x400027e0:   b4 00 00 40 b4 00 00 40 b4 00 00 40 b4 00 00 40    ...@...@...@...@
    0x400027f0:   b4 00 00 40 b4 00 00 40 b4 00 00 40 b4 00 00 40    ...@...@...@...@
    0x40002800:   b4 00 00 40 b4 00 00 40 b4 00 00 40 b4 00 00 40    ...@...@...@...@
    0x40002810:   b4 00 00 40 b4 00 00 40 b4 00 00 40 b4 00 00 40    ...@...@...@...@
    0x40002820:   b4 00 00 40 b4 00 00 40 b4 00 00 40 b4 00 00 40    ...@...@...@...@
    0x40002830:   b4 00 00 40 b4 00 00 40 b4 00 00 40 b4 00 00 40    ...@...@...@...@
    0x40002840:   b4 00 00 40 b4 00 00 40 b4 00 00 40 b4 00 00 40    ...@...@...@...@
    0x40002850:   b4 00 00 40 b4 00 00 40 b4 00 00 40 b4 00 00 40    ...@...@...@...@
    0x40002860:   b4 00 00 40 b4 00 00 40 b4 00 00 40 b4 00 00 40    ...@...@...@...@
    0x40002870:   b4 00 00 40 b4 00 00 40 b4 00 00 40 b4 00 00 40    ...@...@...@...@
    0x40002880:   b4 00 00 40 b4 00 00 40 b4 00 00 40 b4 00 00 40    ...@...@...@...@
    0x40002890:   b4 00 00 40 b4 00 00 40 b4 00 00 40 b4 00 00 40    ...@...@...@...@
    0x400028a0:   b4 00 00 40 b4 00 00 40 b4 00 00 40 b4 00 00 40    ...@...@...@...@
    0x400028b0:   b4 00 00 40 b4 00 00 40 b4 00 00 40 b4 00 00 40    ...@...@...@...@
    0x400028c0:   b4 00 00 40 b4 00 00 40 b4 00 00 40 b4 00 00 40    ...@...@...@...@
    0x400028d0:   b4 00 00 40 b4 00 00 40 b4 00 00 40 b4 00 00 40    ...@...@...@...@
    0x400028e0:   b4 00 00 40 b4 00 00 40 b4 00 00 40 b4 00 00 40    ...@...@...@...@
    0x400028f0:   b4 00 00 40 b4 00 00 40 b4 00 00 40 b4 00 00 40    ...@...@...@...@
    0x40002900:   b4 00 00 40 b4 00 00 40 b4 00 00 40 b4 00 00 40    ...@...@...@...@
    0x40002910:   b4 00 00 40 b4 00 00 40 b4 00 00 40 b4 00 00 40    ...@...@...@...@
    0x40002920:   b4 00 00 40 b4 00 00 40 b4 00 00 40 b4 00 00 40    ...@...@...@...@
    0x40002930:   b4 00 00 40 b4 00 00 40 b4 00 00 40 b4 00 00 40    ...@...@...@...@
    0x40002940:   b4 00 00 40 b4 00 00 40 b4 00 00 40 b4 00 00 40    ...@...@...@...@
    0x40002950:   b4 00 00 40 b4 00 00 40 b4 00 00 40 b4 00 00 40    ...@...@...@...@
    0x40002960:   b4 00 00 40 b4 00 00 40 b4 00 00 40 b4 00 00 40    ...@...@...@...@
    0x40002970:   b4 00 00 40 b4 00 00 40 b4 00 00 40 b4 00 00 40    ...@...@...@...@
    0x40002980:   b4 00 00 40 b4 00 00 40 b4 00 00 40 b4 00 00 40    ...@...@...@...@
    0x40002990:   b4 00 00 40 b4 00 00 40 b4 00 00 40 b4 00 00 40    ...@...@...@...@
    0x400029a0:   b4 00 00 40 b4 00 00 40 b4 00 00 40 b4 00 00 40    ...@...@...@...@
    0x400029b0:   b4 00 00 40 b4 00 00 40 b4 00 00 40 b4 00 00 40    ...@...@...@...@
    0x400029c0:   b4 00 00 40 b4 00 00 40 b4 00 00 40 b4 00 00 40    ...@...@...@...@
    0x400029d0:   b4 00 00 40 b4 00 00 40 b4 00 00 40 b4 00 00 40    ...@...@...@...@
    0x400029e0:   b4 00 00 40 b4 00 00 40 b4 00 00 40 b4 00 00 40    ...@...@...@...@
    0x400029f0:   b4 00 00 40 b4 00 00 40 b4 00 00 40 b4 00 00 40    ...@...@...@...@
    0x40002a00:   b4 00 00 40 b4 00 00 40 b4 00 00 40 b4 00 00 40    ...@...@...@...@
    0x40002a10:   b4 00 00 40 b4 00 00 40 b4 00 00 40 b4 00 00 40    ...@...@...@...@
    0x40002a20:   b4 00 00 40 b4 00 00 40 b4 00 00 40 b4 00 00 40    ...@...@...@...@
    0x40002a30:   b4 00 00 40 b4 00 00 40 b4 00 00 40 b4 00 00 40    ...@...@...@...@
    0x40002a40:   b4 00 00 40 b4 00 00 40 b4 00 00 40 b4 00 00 40    ...@...@...@...@
    0x40002a50:   b4 00 00 40 b4 00 00 40 b4 00 00 40 b4 00 00 40    ...@...@...@...@
    0x40002a60:   b4 00 00 40 b4 00 00 40 b4 00 00 40 b4 00 00 40    ...@...@...@...@
    0x40002a70:   b4 00 00 40 b4 00 00 40 b4 00 00 40 b4 00 00 40    ...@...@...@...@
    0x40002a80:   b4 00 00 40 b4 00 00 40 b4 00 00 40 b4 00 00 40    ...@...@...@...@
    0x40002a90:   b4 00 00 40 b4 00 00 40 b4 00 00 40 b4 00 00 40    ...@...@...@...@
    0x40002aa0:   b4 00 00 40 b4 00 00 40 b4 00 00 40 b4 00 00 40    ...@...@...@...@
    0x40002ab0:   b4 00 00 40 b4 00 00 40 b4 00 00 40 b4 00 00 40    ...@...@...@...@
    0x40002ac0:   b4 00 00 40 b4 00 00 40 b4 00 00 40 b4 00 00 40    ...@...@...@...@
    0x40002ad0:   b4 00 00 40 b4 00 00 40 b4 00 00 40 b4 00 00 40    ...@...@...@...@
    0x40002ae0:   b4 00 00 40 b4 00 00 40 b4 00 00 40 b4 00 00 40    ...@...@...@...@
    0x40002af0:   b4 00 00 40 b4 00 00 40 b4 00 00 40 b4 00 00 40    ...@...@...@...@
    0x40002b00:   b4 00 00 40 b4 00 00 40 b4 00 00 40 b4 00 00 40    ...@...@...@...@
    0x40002b10:   b4 00 00 40 b4 00 00 40 b4 00 00 40 b4 00 00 40    ...@...@...@...@
    0x40002b20:   b4 00 00 40 b4 00 00 40 b4 00 00 40 b4 00 00 40    ...@...@...@...@
    0x40002b30:   b4 00 00 40 b4 00 00 40 b4 00 00 40 b4 00 00 40    ...@...@...@...@
    0x40002b40:   b4 00 00 40 b4 00 00 40 b4 00 00 40 b4 00 00 40    ...@...@...@...@
    0x40002b50:   b4 00 00 40 b4 00 00 40 b4 00 00 40 b4 00 00 40    ...@...@...@...@
    0x40002b60:   b4 00 00 40 b4 00 00 40 b4 00 00 40 b4 00 00 40    ...@...@...@...@
    0x40002b70:   b4 00 00 40 b4 00 00 40 b4 00 00 40 b4 00 00 40    ...@...@...@...@
    0x40002b80:   b4 00 00 40 b4 00 00 40 b4 00 00 40 b4 00 00 40    ...@...@...@...@
    0x40002b90:   b4 00 00 40 b4 00 00 40 b4 00 00 40 b4 00 00 40    ...@...@...@...@
    0x40002ba0:   b4 00 00 40 b4 00 00 40 b4 00 00 40 b4 00 00 40    ...@...@...@...@
    0x40002bb0:   b4 00 00 40 b4 00 00 40 b4 00 00 40 b4 00 00 40    ...@...@...@...@
    0x40002bc0:   b4 00 00 40 b4 00 00 40 b4 00 00 40 b4 00 00 40    ...@...@...@...@
    0x40002bd0:   b4 00 00 40 b4 00 00 40 b4 00 00 40 b4 00 00 40    ...@...@...@...@
    0x40002be0:   b4 00 00 40 b4 00 00 40 b4 00 00 40 b4 00 00 40    ...@...@...@...@
    0x40002bf0:   b4 00 00 40 b4 00 00 40 b4 00 00 40 b4 00 00 40    ...@...@...@...@
    0x40002c00:   b4 00 00 40 b4 00 00 40 b4 00 00 40 b4 00 00 40    ...@...@...@...@
    0x40002c10:   b4 00 00 40 b4 00 00 40 b4 00 00 40 b4 00 00 40    ...@...@...@...@
    0x40002c20:   b4 00 00 40 b4 00 00 40 b4 00 00 40 b4 00 00 40    ...@...@...@...@
    0x40002c30:   b4 00 00 40 b4 00 00 40 b4 00 00 40 b4 00 00 40    ...@...@...@...@
    0x40002c40:   b4 00 00 40 b4 00 00 40 b4 00 00 40 b4 00 00 40    ...@...@...@...@
    0x40002c50:   b4 00 00 40 b4 00 00 40 b4 00 00 40 b4 00 00 40    ...@...@...@...@
    0x40002c60:   b4 00 00 40 b4 00 00 40 b4 00 00 40 b4 00 00 40    ...@...@...@...@
    0x40002c70:   b4 00 00 40 b4 00 00 40 b4 00 00 40 b4 00 00 40    ...@...@...@...@
    0x40002c80:   b4 00 00 40 b4 00 00 40 b4 00 00 40 b4 00 00 40    ...@...@...@...@
    0x40002c90:   b4 00 00 40 b4 00 00 40 b4 00 00 40 b4 00 00 40    ...@...@...@...@
    0x40002ca0:   b4 00 00 40 b4 00 00 40 b4 00 00 40 b4 00 00 40    ...@...@...@...@
    0x40002cb0:   b4 00 00 40 b4 00 00 40 b4 00 00 40 b4 00 00 40    ...@...@...@...@
    0x40002cc0:   b4 00 00 40 b4 00 00 40 b4 00 00 40 b4 00 00 40    ...@...@...@...@
    0x40002cd0:   b4 00 00 40 b4 00 00 40 b4 00 00 40 b4 00 00 40    ...@...@...@...@
    0x40002ce0:   b4 00 00 40 b4 00 00 40 b4 00 00 40 b4 00 00 40    ...@...@...@...@
    0x40002cf0:   b4 00 00 40 b4 00 00 40 b4 00 00 40 b4 00 00 40    ...@...@...@...@
    0x40002d00:   b4 00 00 40 b4 00 00 40 b4 00 00 40 b4 00 00 40    ...@...@...@...@
    0x40002d10:   b4 00 00 40 b4 00 00 40 b4 00 00 40 b4 00 00 40    ...@...@...@...@
    0x40002d20:   b4 00 00 40 b4 00 00 40 b4 00 00 40 b4 00 00 40    ...@...@...@...@
    0x40002d30:   b4 00 00 40 b4 00 00 40 b4 00 00 40 b4 00 00 40    ...@...@...@...@
    0x40002d40:   b4 00 00 40 b4 00 00 40 b4 00 00 40 b4 00 00 40    ...@...@...@...@
    0x40002d50:   b4 00 00 40 b4 00 00 40 b4 00 00 40 b4 00 00 40    ...@...@...@...@
    0x40002d60:   b4 00 00 40 b4 00 00 40 b4 00 00 40 b4 00 00 40    ...@...@...@...@
    0x40002d70:   b4 00 00 40 b4 00 00 40 b4 00 00 40 b4 00 00 40    ...@...@...@...@
    0x40002d80:   b4 00 00 40 b4 00 00 40 b4 00 00 40 b4 00 00 40    ...@...@...@...@
    0x40002d90:   b4 00 00 40 b4 00 00 40 b4 00 00 40 b4 00 00 40    ...@...@...@...@
    0x40002da0:   b4 00 00 40 b4 00 00 40 b4 00 00 40 b4 00 00 40    ...@...@...@...@
    0x40002db0:   b4 00 00 40 b4 00 00 40 b4 00 00 40 b4 00 00 40    ...@...@...@...@
    0x40002dc0:   b4 00 00 40 b4 00 00 40 b4 00 00 40 b4 00 00 40    ...@...@...@...@
    0x40002dd0:   b4 00 00 40 b4 00 00 40 b4 00 00 40 b4 00 00 40    ...@...@...@...@
    0x40002de0:   b4 00 00 40 b4 00 00 40 b4 00 00 40 b4 00 00 40    ...@...@...@...@
    0x40002df0:   b4 00 00 40 b4 00 00 40 b4 00 00 40 b4 00 00 40    ...@...@...@...@
    0x40002e00:   b4 00 00 40 b4 00 00 40 b4 00 00 40 b4 00 00 40    ...@...@...@...@
    0x40002e10:   b4 00 00 40 b4 00 00 40 b4 00 00 40 b4 00 00 40    ...@...@...@...@
    0x40002e20:   b4 00 00 40 b4 00 00 40 b4 00 00 40 b4 00 00 40    ...@...@...@...@
    0x40002e30:   b4 00 00 40 b4 00 00 40 b4 00 00 40 b4 00 00 40    ...@...@...@...@
    0x40002e40:   b4 00 00 40 b4 00 00 40 b4 00 00 40 b4 00 00 40    ...@...@...@...@
    0x40002e50:   b4 00 00 40 b4 00 00 40 b4 00 00 40 b4 00 00 40    ...@...@...@...@
    0x40002e60:   b4 00 00 40 b4 00 00 40 b4 00 00 40 b4 00 00 40    ...@...@...@...@
    0x40002e70:   b4 00 00 40 b4 00 00 40 b4 00 00 40 b4 00 00 40    ...@...@...@...@
    0x40002e80:   b4 00 00 40 b4 00 00 40 b4 00 00 40 b4 00 00 40    ...@...@...@...@
    0x40002e90:   b4 00 00 40 b4 00 00 40 b4 00 00 40 b4 00 00 40    ...@...@...@...@
    0x40002ea0:   b4 00 00 40 b4 00 00 40 b4 00 00 40 b4 00 00 40    ...@...@...@...@
    0x40002eb0:   b4 00 00 40 b4 00 00 40 b4 00 00 40 b4 00 00 40    ...@...@...@...@
    0x40002ec0:   b4 00 00 40 b4 00 00 40 b4 00 00 40 b4 00 00 40    ...@...@...@...@
    0x40002ed0:   b4 00 00 40 b4 00 00 40 b4 00 00 40 b4 00 00 40    ...@...@...@...@
    0x40002ee0:   b4 00 00 40 b4 00 00 40 b4 00 00 40 b4 00 00 40    ...@...@...@...@
    0x40002ef0:   b4 00 00 40 b4 00 00 40 b4 00 00 40 b4 00 00 40    ...@...@...@...@
    0x40002f00:   b4 00 00 40 b4 00 00 40 b4 00 00 40 b4 00 00 40    ...@...@...@...@
    0x40002f10:   b4 00 00 40 b4 00 00 40 b4 00 00 40 b4 00 00 40    ...@...@...@...@
    0x40002f20:   b4 00 00 40 b4 00 00 40 b4 00 00 40 b4 00 00 40    ...@...@...@...@
    0x40002f30:   b4 00 00 40 b4 00 00 40 b4 00 00 40 b4 00 00 40    ...@...@...@...@
    0x40002f40:   b4 00 00 40 b4 00 00 40 b4 00 00 40 b4 00 00 40    ...@...@...@...@
    0x40002f50:   b4 00 00 40 b4 00 00 40 b4 00 00 40 b4 00 00 40    ...@...@...@...@
    0x40002f60:   b4 00 00 40 b4 00 00 40 b4 00 00 40 b4 00 00 40    ...@...@...@...@
    0x40002f70:   b4 00 00 40 b4 00 00 40 b4 00 00 40 b4 00 00 40    ...@...@...@...@
    0x40002f80:   b4 00 00 40 b4 00 00 40 b4 00 00 40 b4 00 00 40    ...@...@...@...@
    0x40002f90:   b4 00 00 40 b4 00 00 40 b4 00 00 40 b4 00 00 40    ...@...@...@...@
    0x40002fa0:   b4 00 00 40 b4 00 00 40 b4 00 00 40 b4 00 00 40    ...@...@...@...@
    0x40002fb0:   b4 00 00 40 b4 00 00 40 b4 00 00 40 b4 00 00 40    ...@...@...@...@
    0x40002fc0:   b4 00 00 40 b4 00 00 40 b4 00 00 40 b4 00 00 40    ...@...@...@...@
    0x40002fd0:   b4 00 00 40 b4 00 00 40 b4 00 00 40 b4 00 00 40    ...@...@...@...@
    0x40002fe0:   b4 00 00 40 b4 00 00 40 b4 00 00 40 b4 00 00 40    ...@...@...@...@
    0x40002ff0:   b4 00 00 40 b4 00 00 40 b4 00 00 40 b4 00 00 40    ...@...@...@...@
    0x40003000:   b4 00 00 40 b4 00 00 40 b4 00 00 40 b4 00 00 40    ...@...@...@...@
    0x40003010:   b4 00 00 40 b4 00 00 40 b4 00 00 40 b4 00 00 40    ...@...@...@...@
    0x40003020:   b4 00 00 40 b4 00 00 40 b4 00 00 40 b4 00 00 40    ...@...@...@...@
    0x40003030:   b4 00 00 40 b4 00 00 40 b4 00 00 40 b4 00 00 40    ...@...@...@...@
    0x40003040:   b4 00 00 40 b4 00 00 40 b4 00 00 40 b4 00 00 40    ...@...@...@...@
    0x40003050:   b4 00 00 40 b4 00 00 40 b4 00 00 40 b4 00 00 40    ...@...@...@...@
    0x40003060:   b4 00 00 40 b4 00 00 40 b4 00 00 40 b4 00 00 40    ...@...@...@...@
    0x40003070:   b4 00 00 40 b4 00 00 40 b4 00 00 40 b4 00 00 40    ...@...@...@...@
    0x40003080:   b4 00 00 40 b4 00 00 40 b4 00 00 40 b4 00 00 40    ...@...@...@...@
    0x40003090:   b4 00 00 40 b4 00 00 40 b4 00 00 40 b4 00 00 40    ...@...@...@...@
    0x400030a0:   b4 00 00 40 b4 00 00 40 b4 00 00 40 b4 00 00 40    ...@...@...@...@
    0x400030b0:   b4 00 00 40 b4 00 00 40 b4 00 00 40 b4 00 00 40    ...@...@...@...@
    0x400030c0:   b4 00 00 40 b4 00 00 40 b4 00 00 40 b4 00 00 40    ...@...@...@...@
    0x400030d0:   b4 00 00 40 b4 00 00 40 b4 00 00 40 b4 00 00 40    ...@...@...@...@
    0x400030e0:   b4 00 00 40 b4 00 00 40 b4 00 00 40 b4 00 00 40    ...@...@...@...@
    0x400030f0:   b4 00 00 40 b4 00 00 40 b4 00 00 40 b4 00 00 40    ...@...@...@...@
    0x40003100:   b4 00 00 40 b4 00 00 40 b4 00 00 40 b4 00 00 40    ...@...@...@...@
    0x40003110:   b4 00 00 40 b4 00 00 40 b4 00 00 40 b4 00 00 40    ...@...@...@...@
    0x40003120:   b4 00 00 40 b4 00 00 40 b4 00 00 40 b4 00 00 40    ...@...@...@...@
    0x40003130:   b4 00 00 40 b4 00 00 40 b4 00 00 40 b4 00 00 40    ...@...@...@...@
    0x40003140:   b4 00 00 40 b4 00 00 40 b4 00 00 40 b4 00 00 40    ...@...@...@...@
    0x40003150:   b4 00 00 40 b4 00 00 40 b4 00 00 40 b4 00 00 40    ...@...@...@...@
    0x40003160:   b4 00 00 40 b4 00 00 40 b4 00 00 40 b4 00 00 40    ...@...@...@...@
    0x40003170:   b4 00 00 40 b4 00 00 40 b4 00 00 40 b4 00 00 40    ...@...@...@...@
    0x40003180:   b4 00 00 40 b4 00 00 40 b4 00 00 40 b4 00 00 40    ...@...@...@...@
    0x40003190:   b4 00 00 40 b4 00 00 40 b4 00 00 40 b4 00 00 40    ...@...@...@...@
    0x400031a0:   b4 00 00 40 b4 00 00 40 b4 00 00 40 b4 00 00 40    ...@...@...@...@
    0x400031b0:   b4 00 00 40 b4 00 00 40 b4 00 00 40 b4 00 00 40    ...@...@...@...@
    0x400031c0:   b4 00 00 40 b4 00 00 40 b4 00 00 40 b4 00 00 40    ...@...@...@...@
    0x400031d0:   b4 00 00 40 b4 00 00 40 b4 00 00 40 b4 00 00 40    ...@...@...@...@
    0x400031e0:   b4 00 00 40 b4 00 00 40 b4 00 00 40 b4 00 00 40    ...@...@...@...@
    0x400031f0:   b4 00 00 40 b4 00 00 40 b4 00 00 40 b4 00 00 40    ...@...@...@...@
    0x40003200:   b4 00 00 40 b4 00 00 40 b4 00 00 40 b4 00 00 40    ...@...@...@...@
    0x40003210:   b4 00 00 40 b4 00 00 40 b4 00 00 40 b4 00 00 40    ...@...@...@...@
    0x40003220:   b4 00 00 40 b4 00 00 40 b4 00 00 40 b4 00 00 40    ...@...@...@...@
    0x40003230:   b4 00 00 40 b4 00 00 40 b4 00 00 40 b4 00 00 40    ...@...@...@...@
    0x40003240:   b4 00 00 40 b4 00 00 40 b4 00 00 40 b4 00 00 40    ...@...@...@...@
    0x40003250:   b4 00 00 40 b4 00 00 40 b4 00 00 40 b4 00 00 40    ...@...@...@...@
    0x40003260:   b4 00 00 40 b4 00 00 40 b4 00 00 40 b4 00 00 40    ...@...@...@...@
    0x40003270:   b4 00 00 40 b4 00 00 40 b4 00 00 40 b4 00 00 40    ...@...@...@...@
    0x40003280:   b4 00 00 40 b4 00 00 40 b4 00 00 40 b4 00 00 40    ...@...@...@...@
    0x40003290:   b4 00 00 40 b4 00 00 40 b4 00 00 40 b4 00 00 40    ...@...@...@...@
    0x400032a0:   b4 00 00 40 b4 00 00 40 b4 00 00 40 b4 00 00 40    ...@...@...@...@
    0x400032b0:   b4 00 00 40 b4 00 00 40 b4 00 00 40 b4 00 00 40    ...@...@...@...@
    0x400032c0:   b4 00 00 40 b4 00 00 40 b4 00 00 40 b4 00 00 40    ...@...@...@...@
    0x400032d0:   b4 00 00 40 b4 00 00 40 b4 00 00 40 b4 00 00 40    ...@...@...@...@
    0x400032e0:   b4 00 00 40 b4 00 00 40 b4 00 00 40 b4 00 00 40    ...@...@...@...@
    0x400032f0:   b4 00 00 40 b4 00 00 40 b4 00 00 40 b4 00 00 40    ...@...@...@...@
    0x40003300:   b4 00 00 40 b4 00 00 40 b4 00 00 40 b4 00 00 40    ...@...@...@...@
    0x40003310:   b4 00 00 40 b4 00 00 40 b4 00 00 40 b4 00 00 40    ...@...@...@...@
    0x40003320:   b4 00 00 40 b4 00 00 40 b4 00 00 40 b4 00 00 40    ...@...@...@...@
    0x40003330:   b4 00 00 40 b4 00 00 40 b4 00 00 40 b4 00 00 40    ...@...@...@...@
    0x40003340:   b4 00 00 40 b4 00 00 40 b4 00 00 40 b4 00 00 40    ...@...@...@...@
    0x40003350:   b4 00 00 40 b4 00 00 40 b4 00 00 40 b4 00 00 40    ...@...@...@...@
    0x40003360:   b4 00 00 40 b4 00 00 40 b4 00 00 40 b4 00 00 40    ...@...@...@...@
    0x40003370:   b4 00 00 40 b4 00 00 40 b4 00 00 40 b4 00 00 40    ...@...@...@...@
    0x40003380:   b4 00 00 40 b4 00 00 40 b4 00 00 40 b4 00 00 40    ...@...@...@...@
    0x40003390:   b4 00 00 40 b4 00 00 40 b4 00 00 40 b4 00 00 40    ...@...@...@...@
    0x400033a0:   b4 00 00 40 d4 17 00 40 10 16 00 40 cc 18 00 40    ...@...@...@...@
    0x400033b0:   90 1a 00 40 84 1c 00 40 68 1e 00 40 74 0c 00 40    ...@...@h..@t..@
    0x400033c0:   54 0e 00 40 60 12 00 40 5c 10 00 40 2c 14 00 40    T..@`..@\..@,..@


====================================

** Section #4

    Name        : ER10
    Type        : SHT_NOBITS (0x00000008)
    Flags       : SHF_ALLOC + SHF_WRITE (0x00000003)
    Addr        : 0x400033d0
    File Offset : 18412 (0x47ec)
    Size        : 572 bytes (0x23c)
    Link        : SHN_UNDEF
    Info        : 0
    Alignment   : 4
    Entry Size  : 0


====================================

** Section #5

    Name        : ARM_LIB_STACK
    Type        : SHT_NOBITS (0x00000008)
    Flags       : SHF_ALLOC + SHF_WRITE (0x00000003)
    Addr        : 0x6ffffc00
    File Offset : 18412 (0x47ec)
    Size        : 1024 bytes (0x400)
    Link        : SHN_UNDEF
    Info        : 0
    Alignment   : 1
    Entry Size  : 0


====================================

** Section #6

    Name        : .debug_frame
    Type        : SHT_PROGBITS (0x00000001)
    Flags       : None (0x00000000)
    Addr        : 0x00000000
    File Offset : 18412 (0x47ec)
    Size        : 464 bytes (0x1d0)
    Link        : SHN_UNDEF
    Info        : 0
    Alignment   : 1
    Entry Size  : 0

  CIE 000000: version 3, "armcc+", code align 000001, data align fffffffc, return reg r14
    DW_CFA_def_cfa_sf r13=0
    DW_CFA_undefined r0
    DW_CFA_undefined r1
    DW_CFA_undefined r2
    DW_CFA_undefined r3
    DW_CFA_same_value r4
    DW_CFA_same_value r5
    DW_CFA_same_value r6
    DW_CFA_same_value r7
    DW_CFA_same_value r8
    DW_CFA_same_value r9
    DW_CFA_same_value r10
    DW_CFA_same_value r11
    DW_CFA_undefined r12
    DW_CFA_same_value r14
    DW_CFA_nop 
    DW_CFA_nop 
  FDE 000034: CIE 000000, init loc 00017c, range 00002c
  CIE 000044: version 3, "armcc+", code align 000001, data align fffffffc, return reg r14
    DW_CFA_def_cfa_sf r13=0
    DW_CFA_undefined r0
    DW_CFA_undefined r1
    DW_CFA_undefined r2
    DW_CFA_undefined r3
    DW_CFA_same_value r4
    DW_CFA_same_value r5
    DW_CFA_same_value r6
    DW_CFA_same_value r7
    DW_CFA_same_value r8
    DW_CFA_same_value r9
    DW_CFA_same_value r10
    DW_CFA_same_value r11
    DW_CFA_undefined r12
    DW_CFA_same_value r14
    DW_CFA_nop 
    DW_CFA_nop 
  FDE 000078: CIE 000044, init loc 000140, range 000034
  CIE 000088: version 3, "armcc+", code align 000001, data align fffffffc, return reg r14
    DW_CFA_def_cfa_sf r13=0
    DW_CFA_undefined r0
    DW_CFA_undefined r1
    DW_CFA_undefined r2
    DW_CFA_undefined r3
    DW_CFA_same_value r4
    DW_CFA_same_value r5
    DW_CFA_same_value r6
    DW_CFA_same_value r7
    DW_CFA_same_value r8
    DW_CFA_same_value r9
    DW_CFA_same_value r10
    DW_CFA_same_value r11
    DW_CFA_undefined r12
    DW_CFA_same_value r14
    DW_CFA_nop 
    DW_CFA_nop 
  CIE 0000bc: version 3, "armcc+", code align 000002, data align fffffffc, return reg r14
    DW_CFA_def_cfa_sf r13=0
    DW_CFA_undefined r0
    DW_CFA_undefined r1
    DW_CFA_undefined r2
    DW_CFA_undefined r3
    DW_CFA_same_value r4
    DW_CFA_same_value r5
    DW_CFA_same_value r6
    DW_CFA_same_value r7
    DW_CFA_same_value r8
    DW_CFA_same_value r9
    DW_CFA_same_value r10
    DW_CFA_same_value r11
    DW_CFA_undefined r12
    DW_CFA_same_value r14
    DW_CFA_nop 
    DW_CFA_nop 
  CIE 0000f0: version 3, "armcc+", code align 000001, data align fffffffc, return reg r14
    DW_CFA_def_cfa_sf r13=0
    DW_CFA_undefined r0
    DW_CFA_undefined r1
    DW_CFA_undefined r2
    DW_CFA_undefined r3
    DW_CFA_same_value r4
    DW_CFA_same_value r5
    DW_CFA_same_value r6
    DW_CFA_same_value r7
    DW_CFA_same_value r8
    DW_CFA_same_value r9
    DW_CFA_same_value r10
    DW_CFA_same_value r11
    DW_CFA_undefined r12
    DW_CFA_same_value r14
    DW_CFA_undefined r256
    DW_CFA_undefined r257
    DW_CFA_undefined r258
    DW_CFA_undefined r259
    DW_CFA_undefined r260
    DW_CFA_undefined r261
    DW_CFA_undefined r262
    DW_CFA_undefined r263
    DW_CFA_same_value r264
    DW_CFA_same_value r265
    DW_CFA_same_value r266
    DW_CFA_same_value r267
    DW_CFA_same_value r268
    DW_CFA_same_value r269
    DW_CFA_same_value r270
    DW_CFA_same_value r271
    DW_CFA_undefined r272
    DW_CFA_undefined r273
    DW_CFA_undefined r274
    DW_CFA_undefined r275
    DW_CFA_undefined r276
    DW_CFA_undefined r277
    DW_CFA_undefined r278
    DW_CFA_undefined r279
    DW_CFA_undefined r280
    DW_CFA_undefined r281
    DW_CFA_undefined r282
    DW_CFA_undefined r283
    DW_CFA_undefined r284
    DW_CFA_undefined r285
    DW_CFA_undefined r286
    DW_CFA_undefined r287
    DW_CFA_nop 
    DW_CFA_nop 
  FDE 000184: CIE 000088, init loc 40000090, range 000004
  FDE 000194: CIE 000088, init loc 000138, range 000008
  FDE 0001a4: CIE 0000bc, init loc 40000094, range 000012
    DW_CFA_advance_loc +0x2 = 0x40000096
    DW_CFA_def_cfa_offset_sf =0x8
    DW_CFA_offset r4=0xfffffff8
    DW_CFA_offset r14=0xfffffffc
    DW_CFA_advance_loc +0xc = 0x400000a2
    DW_CFA_def_cfa_offset_sf =0
    DW_CFA_restore r4
    DW_CFA_restore r14
  FDE 0001c0: CIE 0000f0, init loc 4000205c, range 00000c


====================================

** Section #7

    Name        : .symtab
    Type        : SHT_SYMTAB (0x00000002)
    Flags       : None (0x00000000)
    Addr        : 0x00000000
    File Offset : 18876 (0x49bc)
    Size        : 5792 bytes (0x16a0)
    Link        : Section 8 (.strtab)
    Info        : Last local symbol no = 234
    Alignment   : 4
    Entry Size  : 16

    Symbol table .symtab (361 symbols, 234 local)

      #  Symbol Name                Value      Bind  Sec  Type  Vis  Size
    ========================================================================

      1  $a                         0x00000000   Lc    1   --   De 
      2  $d                         0x00000020   Lc    1   --   De 
      3  $a                         0x00000038   Lc    1   --   De 
      4  $d                         0x00000128   Lc    1   --   De 
      5  $a                         0x00000138   Lc    1   --   De 
      6  $d                         0x00000174   Lc    1   --   De 
      7  $a                         0x0000017c   Lc    1   --   De 
      8  $d                         0x00000dcc   Lc    1   --   De 
      9  $a                         0x000011d4   Lc    1   --   De 
     10  $d                         0x000013ac   Lc    1   --   De 
     11  $a                         0x000013b0   Lc    1   --   De 
     12  $d                         0x000013b4   Lc    1   --   De 
     13  $a                         0x000013b8   Lc    1   --   De 
     14  $d                         0x000013bc   Lc    1   --   De 
     15  $a                         0x000013c0   Lc    1   --   De 
     16  $d                         0x000013c4   Lc    1   --   De 
     17  $a                         0x000013c8   Lc    1   --   De 
     18  $d                         0x000013cc   Lc    1   --   De 
     19  $a                         0x000013d0   Lc    1   --   De 
     20  $d                         0x000013d4   Lc    1   --   De 
     21  $d.realdata                0x000013d8   Lc    1   --   De 
     22  $a                         0x40000000   Lc    2   --   De 
     23  $d                         0x40000020   Lc    2   --   De 
     24  $a                         0x40000038   Lc    2   --   De 
     25  $t                         0x40000064   Lc    2   --   De 
     26  $d                         0x40000080   Lc    2   --   De 
     27  $t                         0x40000084   Lc    2   --   De 
     28  $a                         0x40000090   Lc    2   --   De 
     29  $t                         0x40000094   Lc    2   --   De 
     30  $a.3                       0x400000a8   Lc    2   --   De 
     31  $d.25                      0x400001a4   Lc    2   --   De 
     32  $a.26                      0x400001c0   Lc    2   --   De 
     33  $d.27                      0x400001f8   Lc    2   --   De 
     34  $a.28                      0x40000214   Lc    2   --   De 
     35  $d.29                      0x400002a4   Lc    2   --   De 
     36  $a.30                      0x400002c0   Lc    2   --   De 
     37  $d.31                      0x400002f4   Lc    2   --   De 
     38  $a.32                      0x40000310   Lc    2   --   De 
     39  $d.1                       0x40000738   Lc    2   --   De 
     40  $a.2                       0x40000754   Lc    2   --   De 
     41  $d.3                       0x4000078c   Lc    2   --   De 
     42  $a.4                       0x400007a8   Lc    2   --   De 
     43  $d.5                       0x40000838   Lc    2   --   De 
     44  $a.6                       0x40000854   Lc    2   --   De 
     45  $d.7                       0x40000888   Lc    2   --   De 
     46  $a.8                       0x400008a4   Lc    2   --   De 
     47  $a                         0x40002054   Lc    2   --   De 
     48  $d                         0x40002058   Lc    2   --   De 
     49  $a                         0x4000205c   Lc    2   --   De 
     50  $d.realdata                0x40002068   Lc    2   --   De 
     51  $d.realdata                0x6ffffc00   Lc    5   --   De 
     52  slave_general_call.c       0x00000000   Lc  Abs  File  De 
     53  masterConfig               0x40002068   Lc    2  Data  De   0x18
     54  slaveConfig                0x40002378   Lc    2  Data  De   0x18
     55  sendData                   0x40002170   Lc    2  Data  De   0x34
     56  receivedData               0x400033d8   Lc    4  Data  De   0x34
     57  renesas_slave_rx_fna.c     0x00000000   Lc  Abs  File  De 
     58  masterConfig               0x40002080   Lc    2  Data  De   0x18
     59  slaveConfig                0x40002390   Lc    2  Data  De   0x18
     60  sendData                   0x400021a4   Lc    2  Data  De   0x34
     61  receivedData               0x4000340c   Lc    4  Data  De   0x34
     62  main.c                     0x00000000   Lc  Abs  File  De 
     63  retarget.c                 0x00000000   Lc  Abs  File  De 
     64  slave_tx.c                 0x00000000   Lc  Abs  File  De 
     65  masterConfig               0x40002098   Lc    2  Data  De   0x18
     66  slaveConfig                0x400023a8   Lc    2  Data  De   0x18
     67  sendData                   0x400021d8   Lc    2  Data  De   0x34
     68  receivedData               0x40003440   Lc    4  Data  De   0x34
     69  renesas_slave_rx.c         0x00000000   Lc  Abs  File  De 
     70  masterConfig               0x400020b0   Lc    2  Data  De   0x18
     71  slaveConfig                0x400023c0   Lc    2  Data  De   0x18
     72  sendData                   0x4000220c   Lc    2  Data  De   0x34
     73  receivedData               0x40003474   Lc    4  Data  De   0x34
     74  slave_tx_delay.c           0x00000000   Lc  Abs  File  De 
     75  masterConfig               0x400020c8   Lc    2  Data  De   0x18
     76  slaveConfig                0x400023d8   Lc    2  Data  De   0x18
     77  sendData                   0x40002240   Lc    2  Data  De   0x34
     78  receivedData               0x400034a8   Lc    4  Data  De   0x34
     79  exception_handlers.c       0x00000000   Lc  Abs  File  De 
     80  i2c.c                      0x00000000   Lc  Abs  File  De 
     81  renesas_slave_rx_fna_sdbs.c 0x00000000   Lc  Abs  File  De 
     82  masterConfig               0x400020e0   Lc    2  Data  De   0x18
     83  slaveConfig                0x400023f0   Lc    2  Data  De   0x18
     84  sendData                   0x40002274   Lc    2  Data  De   0x34
     85  receivedData               0x400034dc   Lc    4  Data  De   0x34
     86  renesas_slave_tx.c         0x00000000   Lc  Abs  File  De 
     87  masterConfig               0x400020f8   Lc    2  Data  De   0x18
     88  slaveConfig                0x40002408   Lc    2  Data  De   0x18
     89  sendData                   0x400022a8   Lc    2  Data  De   0x34
     90  receivedData               0x40003510   Lc    4  Data  De   0x34
     91  slave_nack_addr.c          0x00000000   Lc  Abs  File  De 
     92  masterConfig               0x40002110   Lc    2  Data  De   0x18
     93  slaveConfig                0x40002420   Lc    2  Data  De   0x18
     94  dmac.c                     0x00000000   Lc  Abs  File  De 
     95  slave_rx_fna.c             0x00000000   Lc  Abs  File  De 
     96  masterConfig               0x40002128   Lc    2  Data  De   0x18
     97  slaveConfig                0x40002438   Lc    2  Data  De   0x18
     98  sendData                   0x400022dc   Lc    2  Data  De   0x34
     99  receivedData               0x40003544   Lc    4  Data  De   0x34
    100  slave_rx.c                 0x00000000   Lc  Abs  File  De 
    101  masterConfig               0x40002140   Lc    2  Data  De   0x18
    102  slaveConfig                0x40002450   Lc    2  Data  De   0x18
    103  sendData                   0x40002310   Lc    2  Data  De   0x34
    104  receivedData               0x40003578   Lc    4  Data  De   0x34
    105  sim_utils.c                0x00000000   Lc  Abs  File  De 
    106  pfc.c                      0x00000000   Lc  Abs  File  De 
    107  renesas_slave_rx_sdbs.c    0x00000000   Lc  Abs  File  De 
    108  masterConfig               0x40002158   Lc    2  Data  De   0x18
    109  slaveConfig                0x40002468   Lc    2  Data  De   0x18
    110  sendData                   0x40002344   Lc    2  Data  De   0x34
    111  receivedData               0x400035ac   Lc    4  Data  De   0x34
    112  cpg.c                      0x00000000   Lc  Abs  File  De 
    113  gic.c                      0x00000000   Lc  Abs  File  De 
    114  /design01/rcarv3ufed_master/common_rvc/rcarv3u/VNET1/MASTER_TM/I2C_V3U_RTL/ct/include/rcar_v3u/startup/vectors_cr52.s 0x00000000   Lc  Abs  File  De 
    115  VECTORS                    0x40000000   Lc    2  Sect  De   0x64
    116  $v0                        0x40000000   Lc    2   --   De 
    117  RST_EXC_VECTORS            0x40000038   Lc    2  Code  De 
    118  UDF_EXC_VECTORS            0x4000003c   Lc    2  Code  De 
    119  SVC_EXC_VECTORS            0x40000044   Lc    2  Code  De 
    120  PAB_EXC_VECTORS            0x4000004c   Lc    2  Code  De 
    121  DAB_EXC_VECTORS            0x40000054   Lc    2  Code  De 
    122  IRQ_EXC_VECTORS            0x4000005c   Lc    2  Code  De 
    123  /design01/rcarv3ufed_master/common_rvc/rcarv3u/VNET1/MASTER_TM/I2C_V3U_RTL/ct/include/rcar_v3u/startup/startup_cr52.s 0x00000000   Lc  Abs  File  De 
    124  STARTUP                    0x00000000   Lc    1  Sect  De   0x138
    125  $v0                        0x00000000   Lc    1   --   De 
    126  RST_EXC                    0x00000038   Lc    1  Code  De 
    127  UDF_EXC                    0x0000003c   Lc    1  Code  De 
    128  SVC_EXC                    0x00000044   Lc    1  Code  De 
    129  PAB_EXC                    0x0000004c   Lc    1  Code  De 
    130  DAB_EXC                    0x00000054   Lc    1  Code  De 
    131  IRQ_EXC                    0x0000005c   Lc    1  Code  De 
    132  /design01/rcarv3ufed_master/common_rvc/rcarv3u/VNET1/MASTER_TM/I2C_V3U_RTL/ct/include/rcar_v3u/startup/mpu_cr52.s 0x00000000   Lc  Abs  File  De 
    133  MPU_INIT                   0x000011d4   Lc    1  Sect  De   0x1d4
    134  $v0                        0x000011d4   Lc    1   --   De 
    135  /design01/rcarv3ufed_master/common_rvc/rcarv3u/VNET1/MASTER_TM/I2C_V3U_RTL/ct/include/rcar_v3u/startup/rel_dbsc4_init_lpddr4_4266_CL40WL18_181012_cr52.s 0x00000000   Lc  Abs  File  De 
    136  DDR_INIT                   0x000001a8   Lc    1  Sect  De   0x102c
    137  $v0                        0x000001a8   Lc    1   --   De 
    138  ../clib/angel/sys.s        0x00000000   Lc  Abs  File  De 
    139  .text                      0x40000090   Lc    2  Sect  De   0x4
    140  ../clib/angel/startup.s    0x00000000   Lc  Abs  File  De 
    141  !!!main                    0x00000138   Lc    1  Sect  De   0x8
    142  ../clib/angel/kernel.s     0x00000000   Lc  Abs  File  De 
    143  .ARM.Collect$$rtentry$$00000000 0x40000070   Lc    2  Sect  De 
    144  ../clib/angel/kernel.s     0x00000000   Lc  Abs  File  De 
    145  .ARM.Collect$$rtentry$$00000002 0x40000070   Lc    2  Sect  De 
    146  .ARM.Collect$$rtentry$$00000009 0x40000074   Lc    2  Sect  De 
    147  .ARM.Collect$$rtentry$$0000000A 0x40000074   Lc    2  Sect  De   0x4
    148  .ARM.Collect$$rtentry$$0000000C 0x40000078   Lc    2  Sect  De 
    149  .ARM.Collect$$rtentry$$0000000D 0x40000078   Lc    2  Sect  De   0x8
    150  ../clib/angel/kernel.s     0x00000000   Lc  Abs  File  De 
    151  ../clib/angel/kernel.s     0x00000000   Lc  Abs  File  De 
    152  .ARM.Collect$$rtentry$$00000007 0x40000070   Lc    2  Sect  De   0x4
    153  .ARM.Collect$$rtentry$$00002718 0x40000080   Lc    2  Sect  De   0x4
    154  __lit__00000000            0x40000080   Lc    2  Data  De   0x4
    155  ../clib/angel/sys.s        0x00000000   Lc  Abs  File  De 
    156  ../clib/stdlib.c           0x00000000   Lc  Abs  File  De 
    157  .text                      0x40000094   Lc    2  Sect  De 
    158  ../clib/angel/boardlib.s   0x00000000   Lc  Abs  File  De 
    159  ../clib/angel/boardlib.s   0x00000000   Lc  Abs  File  De 
    160  ../clib/angel/boardlib.s   0x00000000   Lc  Abs  File  De 
    161  ../clib/libinit.s          0x00000000   Lc  Abs  File  De 
    162  .ARM.Collect$$libinit$$00000000 0x40000064   Lc    2  Sect  De   0x2
    163  ../clib/angel/sys.s        0x00000000   Lc  Abs  File  De 
    164  ../clib/angel/sys.s        0x00000000   Lc  Abs  File  De 
    165  ../clib/angel/sys.s        0x00000000   Lc  Abs  File  De 
    166  ../clib/angel/kernel.s     0x00000000   Lc  Abs  File  De 
    167  .ARM.Collect$$rtexit$$00000000 0x40000084   Lc    2  Sect  De   0x2
    168  ../clib/libinit.s          0x00000000   Lc  Abs  File  De 
    169  .ARM.Collect$$libinit$$00000001 0x40000066   Lc    2  Sect  De   0x4
    170  .ARM.Collect$$libinit$$00000004 0x4000006a   Lc    2  Sect  De 
    171  .ARM.Collect$$libinit$$0000000A 0x4000006a   Lc    2  Sect  De 
    172  .ARM.Collect$$libinit$$0000000C 0x4000006a   Lc    2  Sect  De 
    173  .ARM.Collect$$libinit$$0000000E 0x4000006a   Lc    2  Sect  De 
    174  .ARM.Collect$$libinit$$00000011 0x4000006a   Lc    2  Sect  De 
    175  .ARM.Collect$$libinit$$00000013 0x4000006a   Lc    2  Sect  De 
    176  .ARM.Collect$$libinit$$00000015 0x4000006a   Lc    2  Sect  De 
    177  .ARM.Collect$$libinit$$00000017 0x4000006a   Lc    2  Sect  De 
    178  .ARM.Collect$$libinit$$00000019 0x4000006a   Lc    2  Sect  De 
    179  .ARM.Collect$$libinit$$0000001B 0x4000006a   Lc    2  Sect  De 
    180  .ARM.Collect$$libinit$$0000001D 0x4000006a   Lc    2  Sect  De 
    181  .ARM.Collect$$libinit$$0000001F 0x4000006a   Lc    2  Sect  De 
    182  .ARM.Collect$$libinit$$00000021 0x4000006a   Lc    2  Sect  De 
    183  .ARM.Collect$$libinit$$00000023 0x4000006a   Lc    2  Sect  De 
    184  .ARM.Collect$$libinit$$00000025 0x4000006a   Lc    2  Sect  De 
    185  .ARM.Collect$$libinit$$0000002C 0x4000006a   Lc    2  Sect  De 
    186  .ARM.Collect$$libinit$$0000002E 0x4000006a   Lc    2  Sect  De 
    187  .ARM.Collect$$libinit$$00000030 0x4000006a   Lc    2  Sect  De 
    188  .ARM.Collect$$libinit$$00000032 0x4000006a   Lc    2  Sect  De 
    189  .ARM.Collect$$libinit$$00000033 0x4000006a   Lc    2  Sect  De   0x2
    190  ../clib/libinit.s          0x00000000   Lc  Abs  File  De 
    191  ../clib/angel/sys.s        0x00000000   Lc  Abs  File  De 
    192  ../clib/angel/kernel.s     0x00000000   Lc  Abs  File  De 
    193  .ARM.Collect$$rtexit$$00000002 0x40000086   Lc    2  Sect  De 
    194  .ARM.Collect$$rtexit$$00000003 0x40000086   Lc    2  Sect  De   0x4
    195  .ARM.Collect$$rtexit$$00000004 0x4000008a   Lc    2  Sect  De   0x6
    196  ../clib/armsys.c           0x00000000   Lc  Abs  File  De 
    197  ../clib/armsys.c           0x00000000   Lc  Abs  File  De 
    198  ../fplib/fpinit.s          0x00000000   Lc  Abs  File  De 
    199  x$fpl$fpinit               0x4000205c   Lc    2  Sect  De   0xc
    200  $v0                        0x4000205c   Lc    2   --   De 
    201  ../clib/angel/boardlib.s   0x00000000   Lc  Abs  File  De 
    202  ../clib/armsys.c           0x00000000   Lc  Abs  File  De 
    203  ../clib/armsys.c           0x00000000   Lc  Abs  File  De 
    204  ../clib/libinit.s          0x00000000   Lc  Abs  File  De 
    205  .ARM.Collect$$libshutdown$$00000000 0x4000006c   Lc    2  Sect  De   0x2
    206  ../clib/heapalloc.c        0x00000000   Lc  Abs  File  De 
    207  ../clib/signal.c           0x00000000   Lc  Abs  File  De 
    208  ../clib/signal.c           0x00000000   Lc  Abs  File  De 
    209  ../clib/libinit.s          0x00000000   Lc  Abs  File  De 
    210  .ARM.Collect$$libshutdown$$00000002 0x4000006e   Lc    2  Sect  De 
    211  .ARM.Collect$$libshutdown$$00000004 0x4000006e   Lc    2  Sect  De 
    212  .ARM.Collect$$libshutdown$$00000007 0x4000006e   Lc    2  Sect  De 
    213  .ARM.Collect$$libshutdown$$0000000A 0x4000006e   Lc    2  Sect  De 
    214  .ARM.Collect$$libshutdown$$0000000C 0x4000006e   Lc    2  Sect  De 
    215  .ARM.Collect$$libshutdown$$0000000F 0x4000006e   Lc    2  Sect  De 
    216  .ARM.Collect$$libshutdown$$00000010 0x4000006e   Lc    2  Sect  De   0x2
    217  ../clib/angel/rt.s         0x00000000   Lc  Abs  File  De 
    218  ../clib/signal.c           0x00000000   Lc  Abs  File  De 
    219  ../clib/signal.c           0x00000000   Lc  Abs  File  De 
    220  ../clib/signal.c           0x00000000   Lc  Abs  File  De 
    221  ../clib/signal.c           0x00000000   Lc  Abs  File  De 
    222  ../clib/signal.s           0x00000000   Lc  Abs  File  De 
    223  ../clib/signal.c           0x00000000   Lc  Abs  File  De 
    224  ../clib/signal.c           0x00000000   Lc  Abs  File  De 
    225  ../clib/signal.c           0x00000000   Lc  Abs  File  De 
    226  ../clib/signal.c           0x00000000   Lc  Abs  File  De 
    227  ../clib/signal.c           0x00000000   Lc  Abs  File  De 
    228  ../clib/signal.c           0x00000000   Lc  Abs  File  De 
    229  ../clib/signal.c           0x00000000   Lc  Abs  File  De 
    230  ../clib/signal.c           0x00000000   Lc  Abs  File  De 
    231  ../clib/angel/scatter.s    0x00000000   Lc  Abs  File  De 
    232  !!!scatter                 0x00000140   Lc    1  Sect  De   0x3c
    233  ../clib/angel/handlers.s   0x00000000   Lc  Abs  File  De 
    234  !!handler_zi               0x0000017c   Lc    1  Sect  De   0x2c
    235  BuildAttributes$$THM_ISAv5$ARM_ISAv8$E$P$J$N$DE$K$B$S$FP_ARMv8$PE$MPE$A:L22UL41UL21$X:L11$S22US41US21$IEEE1$IW$~IW$USESV6$~STKCKD$USESV7$WCHAR32$ENUMINT$~SHL$OTIME$ROPI$EBA8$UX$STANDARDLIB$THUMB2LIB$REQ8$PRES8$EABIv2 0x00000000   Gb  Abs   --   Hi 
    236  Reset_Handler              0x00000064   Gb    1  Code  Hi 
    237  __main                     0x00000138   Gb    1  Code  Hi   0x8
    238  __scatterload              0x00000140   Gb    1  Code  Hi 
    239  __scatterload_rt2          0x00000140   Gb    1  Code  Hi   0x34
    240  __scatterload_null         0x00000154   Gb    1  Code  Hi 
    241  __scatterload_zeroinit     0x0000017c   Gb    1  Code  Hi   0x2c
    242  ddr_init_start             0x000001a8   Gb    1  Code  Hi 
    243  __mpu_init                 0x000011d4   Gb    1  Code  Hi 
    244  ddr_init_end               0x000011d4   Gb    1  Data  Hi 
    245  __mpu_init_el1             0x000013a4   Gb    1  Code  Hi 
    246  $Ven$AA$L$$UndefinedInstruction_Handler 0x000013a8   Gb    1  Code  Hi   0x8
    247  $Ven$AA$L$$SupervisorCall_Handler 0x000013b0   Gb    1  Code  Hi   0x8
    248  $Ven$AA$L$$PrefetchAbort_Handler 0x000013b8   Gb    1  Code  Hi   0x8
    249  $Ven$AA$L$$DataAbort_Handler 0x000013c0   Gb    1  Code  Hi   0x8
    250  $Ven$AA$L$$IRQ_Handler     0x000013c8   Gb    1  Code  Hi   0x8
    251  $Ven$AT$L$$__rt_entry      0x000013d0   Gb    1  Code  Hi   0x8
    252  Region$$Table$$Base        0x000013d8   Gb    1   --   Hi 
    253  Region$$Table$$Limit       0x000013e8   Gb    1   --   Hi 
    254  vectors_start              0x40000000   Gb    2  Code  Hi 
    255  __rt_lib_init              0x40000065   Gb    2  Code  De 
    256  __rt_lib_init_fp_1         0x40000067   Gb    2  Code  Hi 
    257  __rt_lib_init_alloca_1     0x4000006b   Gb    2  Code  Hi 
    258  __rt_lib_init_argv_1       0x4000006b   Gb    2  Code  Hi 
    259  __rt_lib_init_atexit_1     0x4000006b   Gb    2  Code  Hi 
    260  __rt_lib_init_clock_1      0x4000006b   Gb    2  Code  Hi 
    261  __rt_lib_init_cpp_1        0x4000006b   Gb    2  Code  Hi 
    262  __rt_lib_init_exceptions_1 0x4000006b   Gb    2  Code  Hi 
    263  __rt_lib_init_fp_trap_1    0x4000006b   Gb    2  Code  Hi 
    264  __rt_lib_init_getenv_1     0x4000006b   Gb    2  Code  Hi 
    265  __rt_lib_init_heap_1       0x4000006b   Gb    2  Code  Hi 
    266  __rt_lib_init_lc_collate_1 0x4000006b   Gb    2  Code  Hi 
    267  __rt_lib_init_lc_ctype_1   0x4000006b   Gb    2  Code  Hi 
    268  __rt_lib_init_lc_monetary_1 0x4000006b   Gb    2  Code  Hi 
    269  __rt_lib_init_lc_numeric_1 0x4000006b   Gb    2  Code  Hi 
    270  __rt_lib_init_lc_time_1    0x4000006b   Gb    2  Code  Hi 
    271  __rt_lib_init_preinit_1    0x4000006b   Gb    2  Code  Hi 
    272  __rt_lib_init_rand_1       0x4000006b   Gb    2  Code  Hi 
    273  __rt_lib_init_return       0x4000006b   Gb    2  Code  Hi 
    274  __rt_lib_init_signal_1     0x4000006b   Gb    2  Code  Hi 
    275  __rt_lib_init_stdio_1      0x4000006b   Gb    2  Code  Hi 
    276  __rt_lib_init_user_alloc_1 0x4000006b   Gb    2  Code  Hi 
    277  __rt_lib_shutdown          0x4000006d   Gb    2  Code  De 
    278  __rt_lib_shutdown_cpp_1    0x4000006f   Gb    2  Code  Hi 
    279  __rt_lib_shutdown_fp_trap_1 0x4000006f   Gb    2  Code  Hi 
    280  __rt_lib_shutdown_heap_1   0x4000006f   Gb    2  Code  Hi 
    281  __rt_lib_shutdown_return   0x4000006f   Gb    2  Code  Hi 
    282  __rt_lib_shutdown_signal_1 0x4000006f   Gb    2  Code  Hi 
    283  __rt_lib_shutdown_stdio_1  0x4000006f   Gb    2  Code  Hi 
    284  __rt_lib_shutdown_user_alloc_1 0x4000006f   Gb    2  Code  Hi 
    285  __rt_entry                 0x40000071   Gb    2  Code  Hi 
    286  __rt_entry_presh_1         0x40000071   Gb    2  Code  Hi 
    287  __rt_entry_sh              0x40000071   Gb    2  Code  Hi 
    288  __rt_entry_li              0x40000075   Gb    2  Code  Hi 
    289  __rt_entry_postsh_1        0x40000075   Gb    2  Code  Hi 
    290  __rt_entry_main            0x40000079   Gb    2  Code  Hi 
    291  __rt_entry_postli_1        0x40000079   Gb    2  Code  Hi 
    292  __rt_exit                  0x40000085   Gb    2  Code  De 
    293  __rt_exit_ls               0x40000087   Gb    2  Code  Hi 
    294  __rt_exit_prels_1          0x40000087   Gb    2  Code  Hi 
    295  __rt_exit_exit             0x4000008b   Gb    2  Code  Hi 
    296  __I$use$semihosting        0x40000090   Gb    2  Code  De 
    297  __use_no_semihosting_swi   0x40000090   Gb    2  Code  Hi   0x4
    298  exit                       0x40000095   Gb    2  Code  De   0x12
    299  DataAbort_Handler          0x400000a8   Gb    2  Code  Hi   0xc
    300  GIC_defaultHandler         0x400000b4   Gb    2  Code  Hi   0x4
    301  GIC_endInterrupt           0x400000b8   Gb    2  Code  Hi   0xc
    302  GIC_executeInterruptHandler 0x400000c4   Gb    2  Code  Hi   0x10
    303  GIC_getACKID               0x400000d4   Gb    2  Code  Hi   0x1c
    304  I2C_configPins             0x400000f0   Gb    2  Code  Hi   0x14
    305  I2C_masterClearInterruptStatus 0x40000104   Gb    2  Code  Hi   0x10
    306  I2C_masterDisable          0x40000114   Gb    2  Code  Hi   0x10
    307  I2C_masterEnable           0x40000124   Gb    2  Code  Hi   0x10
    308  I2C_masterInit             0x40000134   Gb    2  Code  Hi   0x410
    309  I2C_masterReceiveMultipleByteFinish 0x40000544   Gb    2  Code  Hi   0x8
    310  I2C_masterReceiveMultipleByteNext 0x4000054c   Gb    2  Code  Hi   0x8
    311  I2C_masterReceiveMultipleByteStop 0x40000554   Gb    2  Code  Hi   0x14
    312  I2C_masterReceiveStart     0x40000568   Gb    2  Code  Hi   0x10
    313  I2C_masterSendMultipleByteNext 0x40000578   Gb    2  Code  Hi   0x8
    314  I2C_masterSendMultipleByteStart 0x40000580   Gb    2  Code  Hi   0x14
    315  I2C_masterSendMultipleByteStop 0x40000594   Gb    2  Code  Hi   0x10
    316  I2C_modelConnect           0x400005a4   Gb    2  Code  Hi   0x7c
    317  I2C_modelDisable           0x40000620   Gb    2  Code  Hi   0x64
    318  I2C_releasePins            0x40000684   Gb    2  Code  Hi   0x14
    319  I2C_slaveClearInterruptStatus 0x40000698   Gb    2  Code  Hi   0x10
    320  I2C_slaveDisable           0x400006a8   Gb    2  Code  Hi   0x10
    321  I2C_slaveEnable            0x400006b8   Gb    2  Code  Hi   0x10
    322  I2C_slaveInit              0x400006c8   Gb    2  Code  Hi   0x410
    323  I2C_slaveReceiveMultipleByteFinish 0x40000ad8   Gb    2  Code  Hi   0x8
    324  I2C_slaveReceiveMultipleByteNext 0x40000ae0   Gb    2  Code  Hi   0x8
    325  I2C_slaveReceiveMultipleByteStop 0x40000ae8   Gb    2  Code  Hi   0x14
    326  I2C_slaveSetData           0x40000afc   Gb    2  Code  Hi   0x8
    327  IRQ_Handler                0x40000b04   Gb    2  Code  Hi   0x10
    328  PFC_ClearMultipleBit       0x40000b14   Gb    2  Code  Hi   0x18
    329  PFC_SetMultipleBit         0x40000b2c   Gb    2  Code  Hi   0x18
    330  PrefetchAbort_Handler      0x40000b44   Gb    2  Code  Hi   0xc
    331  Sim_Delay                  0x40000b50   Gb    2  Code  Hi   0x20
    332  Sim_Dump                   0x40000b70   Gb    2  Code  Hi   0x28
    333  Sim_Judge                  0x40000b98   Gb    2  Code  Hi   0x28
    334  Sim_Stop                   0x40000bc0   Gb    2  Code  Hi   0x10
    335  SupervisorCall_Handler     0x40000bd0   Gb    2  Code  Hi   0xc
    336  UndefinedInstruction_Handler 0x40000bdc   Gb    2  Code  Hi   0xc
    337  _sys_exit                  0x40000be8   Gb    2  Code  Hi   0x4
    338  main                       0x40000bec   Gb    2  Code  Hi   0x88
    339  renesas_slave_rx           0x40000c74   Gb    2  Code  Hi   0x1e0
    340  renesas_slave_rx_fna       0x40000e54   Gb    2  Code  Hi   0x208
    341  renesas_slave_rx_fna_sdbs  0x4000105c   Gb    2  Code  Hi   0x204
    342  renesas_slave_rx_sdbs      0x40001260   Gb    2  Code  Hi   0x1cc
    343  renesas_slave_tx           0x4000142c   Gb    2  Code  Hi   0x1e4
    344  slave_general_call         0x40001610   Gb    2  Code  Hi   0x1c4
    345  slave_nack_addr            0x400017d4   Gb    2  Code  Hi   0xf8
    346  slave_rx                   0x400018cc   Gb    2  Code  Hi   0x1c4
    347  slave_rx_fna               0x40001a90   Gb    2  Code  Hi   0x1f4
    348  slave_tx                   0x40001c84   Gb    2  Code  Hi   0x1e4
    349  slave_tx_delay             0x40001e68   Gb    2  Code  Hi   0x1ec
    350  $Ven$AA$L$$Reset_Handler   0x40002054   Gb    2  Code  Hi   0x8
    351  _fp_init                   0x4000205c   Gb    2  Code  De   0xc
    352  __fplib_config_fpu_vfp     0x40002064   Gb    2  Code  De 
    353  __fplib_config_pureend_doubles 0x40002064   Gb    2  Code  De 
    354  GIC_intHandler             0x40002480   Gb    3  Data  Hi   0xf24
    355  pattern                    0x400033a4   Gb    3  Data  Hi   0x2c
    356  DumpOffset                 0x400033d0   Gb    4  Data  Hi   0x4
    357  delayCount                 0x400033d4   Gb    4  Data  Hi   0x4
    358  result                     0x400035e0   Gb    4  Data  Hi   0x2c
    359  Image$$ARM_LIB_HEAP$$ZI$$Base 0x4000360c   Gb  Abs   --   Hi 
    360  Image$$ARM_LIB_HEAP$$ZI$$Limit 0x4000360c   Gb  Abs   --   Hi 
    361  Image$$ARM_LIB_STACK$$ZI$$Limit 0x70000000   Gb  Abs   --   Hi 


====================================

** Section #8

    Name        : .strtab
    Type        : SHT_STRTAB (0x00000003)
    Flags       : None (0x00000000)
    Addr        : 0x00000000
    File Offset : 24668 (0x605c)
    Size        : 5644 bytes (0x160c)
    Link        : SHN_UNDEF
    Info        : 0
    Alignment   : 1
    Entry Size  : 0

            #  Offset String
        ====================================

            1      1: $a
            2      4: $d
            3      7: $d.realdata
            4     19: $t
            5     22: $a.3
            6     27: $d.25
            7     33: $a.26
            8     39: $d.27
            9     45: $a.28
           10     51: $d.29
           11     57: $a.30
           12     63: $d.31
           13     69: $a.32
           14     75: $d.1
           15     80: $a.2
           16     85: $d.3
           17     90: $a.4
           18     95: $d.5
           19    100: $a.6
           20    105: $d.7
           21    110: $a.8
           22    115: slave_general_call.c
           23    136: masterConfig
           24    149: slaveConfig
           25    161: sendData
           26    170: receivedData
           27    183: renesas_slave_rx_fna.c
           28    206: main.c
           29    213: retarget.c
           30    224: slave_tx.c
           31    235: renesas_slave_rx.c
           32    254: slave_tx_delay.c
           33    271: exception_handlers.c
           34    292: i2c.c
           35    298: renesas_slave_rx_fna_sdbs.c
           36    326: renesas_slave_tx.c
           37    345: slave_nack_addr.c
           38    363: dmac.c
           39    370: slave_rx_fna.c
           40    385: slave_rx.c
           41    396: sim_utils.c
           42    408: pfc.c
           43    414: renesas_slave_rx_sdbs.c
           44    438: cpg.c
           45    444: gic.c
           46    450: /design01/rcarv3ufed_master/common_rvc/rcarv3u/VNET1/MASTER_TM/I2C_V3U_RTL/ct/include/rcar_v3u/startup/vectors_cr52.s
           47    568: VECTORS
           48    576: $v0
           49    580: RST_EXC_VECTORS
           50    596: UDF_EXC_VECTORS
           51    612: SVC_EXC_VECTORS
           52    628: PAB_EXC_VECTORS
           53    644: DAB_EXC_VECTORS
           54    660: IRQ_EXC_VECTORS
           55    676: /design01/rcarv3ufed_master/common_rvc/rcarv3u/VNET1/MASTER_TM/I2C_V3U_RTL/ct/include/rcar_v3u/startup/startup_cr52.s
           56    794: STARTUP
           57    802: RST_EXC
           58    810: UDF_EXC
           59    818: SVC_EXC
           60    826: PAB_EXC
           61    834: DAB_EXC
           62    842: IRQ_EXC
           63    850: /design01/rcarv3ufed_master/common_rvc/rcarv3u/VNET1/MASTER_TM/I2C_V3U_RTL/ct/include/rcar_v3u/startup/mpu_cr52.s
           64    964: MPU_INIT
           65    973: /design01/rcarv3ufed_master/common_rvc/rcarv3u/VNET1/MASTER_TM/I2C_V3U_RTL/ct/include/rcar_v3u/startup/rel_dbsc4_init_lpddr4_4266_CL40WL18_181012_cr52.s
           66   1126: DDR_INIT
           67   1135: ../clib/angel/sys.s
           68   1155: .text
           69   1161: ../clib/angel/startup.s
           70   1185: !!!main
           71   1193: ../clib/angel/kernel.s
           72   1216: .ARM.Collect$$rtentry$$00000000
           73   1248: .ARM.Collect$$rtentry$$00000002
           74   1280: .ARM.Collect$$rtentry$$00000009
           75   1312: .ARM.Collect$$rtentry$$0000000A
           76   1344: .ARM.Collect$$rtentry$$0000000C
           77   1376: .ARM.Collect$$rtentry$$0000000D
           78   1408: .ARM.Collect$$rtentry$$00000007
           79   1440: .ARM.Collect$$rtentry$$00002718
           80   1472: __lit__00000000
           81   1488: ../clib/stdlib.c
           82   1505: ../clib/angel/boardlib.s
           83   1530: ../clib/libinit.s
           84   1548: .ARM.Collect$$libinit$$00000000
           85   1580: .ARM.Collect$$rtexit$$00000000
           86   1611: .ARM.Collect$$libinit$$00000001
           87   1643: .ARM.Collect$$libinit$$00000004
           88   1675: .ARM.Collect$$libinit$$0000000A
           89   1707: .ARM.Collect$$libinit$$0000000C
           90   1739: .ARM.Collect$$libinit$$0000000E
           91   1771: .ARM.Collect$$libinit$$00000011
           92   1803: .ARM.Collect$$libinit$$00000013
           93   1835: .ARM.Collect$$libinit$$00000015
           94   1867: .ARM.Collect$$libinit$$00000017
           95   1899: .ARM.Collect$$libinit$$00000019
           96   1931: .ARM.Collect$$libinit$$0000001B
           97   1963: .ARM.Collect$$libinit$$0000001D
           98   1995: .ARM.Collect$$libinit$$0000001F
           99   2027: .ARM.Collect$$libinit$$00000021
          100   2059: .ARM.Collect$$libinit$$00000023
          101   2091: .ARM.Collect$$libinit$$00000025
          102   2123: .ARM.Collect$$libinit$$0000002C
          103   2155: .ARM.Collect$$libinit$$0000002E
          104   2187: .ARM.Collect$$libinit$$00000030
          105   2219: .ARM.Collect$$libinit$$00000032
          106   2251: .ARM.Collect$$libinit$$00000033
          107   2283: .ARM.Collect$$rtexit$$00000002
          108   2314: .ARM.Collect$$rtexit$$00000003
          109   2345: .ARM.Collect$$rtexit$$00000004
          110   2376: ../clib/armsys.c
          111   2393: ../fplib/fpinit.s
          112   2411: x$fpl$fpinit
          113   2424: .ARM.Collect$$libshutdown$$00000000
          114   2460: ../clib/heapalloc.c
          115   2480: ../clib/signal.c
          116   2497: .ARM.Collect$$libshutdown$$00000002
          117   2533: .ARM.Collect$$libshutdown$$00000004
          118   2569: .ARM.Collect$$libshutdown$$00000007
          119   2605: .ARM.Collect$$libshutdown$$0000000A
          120   2641: .ARM.Collect$$libshutdown$$0000000C
          121   2677: .ARM.Collect$$libshutdown$$0000000F
          122   2713: .ARM.Collect$$libshutdown$$00000010
          123   2749: ../clib/angel/rt.s
          124   2768: ../clib/signal.s
          125   2785: ../clib/angel/scatter.s
          126   2809: !!!scatter
          127   2820: ../clib/angel/handlers.s
          128   2845: !!handler_zi
          129   2858: BuildAttributes$$THM_ISAv5$ARM_ISAv8$E$P$J$N$DE$K$B$S$FP_ARMv8$PE$MPE$A:L22UL41UL21$X:L11$S22US41US21$IEEE1$IW$~IW$USESV6$~STKCKD$USESV7$WCHAR32$ENUMINT$~SHL$OTIME$ROPI$EBA8$UX$STANDARDLIB$THUMB2LIB$REQ8$PRES8$EABIv2
          130   3075: Reset_Handler
          131   3089: __main
          132   3096: __scatterload
          133   3110: __scatterload_rt2
          134   3128: __scatterload_null
          135   3147: __scatterload_zeroinit
          136   3170: ddr_init_start
          137   3185: __mpu_init
          138   3196: ddr_init_end
          139   3209: __mpu_init_el1
          140   3224: $Ven$AA$L$$UndefinedInstruction_Handler
          141   3264: $Ven$AA$L$$SupervisorCall_Handler
          142   3298: $Ven$AA$L$$PrefetchAbort_Handler
          143   3331: $Ven$AA$L$$DataAbort_Handler
          144   3360: $Ven$AA$L$$IRQ_Handler
          145   3383: $Ven$AT$L$$__rt_entry
          146   3405: Region$$Table$$Base
          147   3425: Region$$Table$$Limit
          148   3446: vectors_start
          149   3460: __rt_lib_init
          150   3474: __rt_lib_init_fp_1
          151   3493: __rt_lib_init_alloca_1
          152   3516: __rt_lib_init_argv_1
          153   3537: __rt_lib_init_atexit_1
          154   3560: __rt_lib_init_clock_1
          155   3582: __rt_lib_init_cpp_1
          156   3602: __rt_lib_init_exceptions_1
          157   3629: __rt_lib_init_fp_trap_1
          158   3653: __rt_lib_init_getenv_1
          159   3676: __rt_lib_init_heap_1
          160   3697: __rt_lib_init_lc_collate_1
          161   3724: __rt_lib_init_lc_ctype_1
          162   3749: __rt_lib_init_lc_monetary_1
          163   3777: __rt_lib_init_lc_numeric_1
          164   3804: __rt_lib_init_lc_time_1
          165   3828: __rt_lib_init_preinit_1
          166   3852: __rt_lib_init_rand_1
          167   3873: __rt_lib_init_return
          168   3894: __rt_lib_init_signal_1
          169   3917: __rt_lib_init_stdio_1
          170   3939: __rt_lib_init_user_alloc_1
          171   3966: __rt_lib_shutdown
          172   3984: __rt_lib_shutdown_cpp_1
          173   4008: __rt_lib_shutdown_fp_trap_1
          174   4036: __rt_lib_shutdown_heap_1
          175   4061: __rt_lib_shutdown_return
          176   4086: __rt_lib_shutdown_signal_1
          177   4113: __rt_lib_shutdown_stdio_1
          178   4139: __rt_lib_shutdown_user_alloc_1
          179   4170: __rt_entry
          180   4181: __rt_entry_presh_1
          181   4200: __rt_entry_sh
          182   4214: __rt_entry_li
          183   4228: __rt_entry_postsh_1
          184   4248: __rt_entry_main
          185   4264: __rt_entry_postli_1
          186   4284: __rt_exit
          187   4294: __rt_exit_ls
          188   4307: __rt_exit_prels_1
          189   4325: __rt_exit_exit
          190   4340: __I$use$semihosting
          191   4360: __use_no_semihosting_swi
          192   4385: exit
          193   4390: DataAbort_Handler
          194   4408: GIC_defaultHandler
          195   4427: GIC_endInterrupt
          196   4444: GIC_executeInterruptHandler
          197   4472: GIC_getACKID
          198   4485: I2C_configPins
          199   4500: I2C_masterClearInterruptStatus
          200   4531: I2C_masterDisable
          201   4549: I2C_masterEnable
          202   4566: I2C_masterInit
          203   4581: I2C_masterReceiveMultipleByteFinish
          204   4617: I2C_masterReceiveMultipleByteNext
          205   4651: I2C_masterReceiveMultipleByteStop
          206   4685: I2C_masterReceiveStart
          207   4708: I2C_masterSendMultipleByteNext
          208   4739: I2C_masterSendMultipleByteStart
          209   4771: I2C_masterSendMultipleByteStop
          210   4802: I2C_modelConnect
          211   4819: I2C_modelDisable
          212   4836: I2C_releasePins
          213   4852: I2C_slaveClearInterruptStatus
          214   4882: I2C_slaveDisable
          215   4899: I2C_slaveEnable
          216   4915: I2C_slaveInit
          217   4929: I2C_slaveReceiveMultipleByteFinish
          218   4964: I2C_slaveReceiveMultipleByteNext
          219   4997: I2C_slaveReceiveMultipleByteStop
          220   5030: I2C_slaveSetData
          221   5047: IRQ_Handler
          222   5059: PFC_ClearMultipleBit
          223   5080: PFC_SetMultipleBit
          224   5099: PrefetchAbort_Handler
          225   5121: Sim_Delay
          226   5131: Sim_Dump
          227   5140: Sim_Judge
          228   5150: Sim_Stop
          229   5159: SupervisorCall_Handler
          230   5182: UndefinedInstruction_Handler
          231   5211: _sys_exit
          232   5221: main
          233   5226: renesas_slave_rx
          234   5243: renesas_slave_rx_fna
          235   5264: renesas_slave_rx_fna_sdbs
          236   5290: renesas_slave_rx_sdbs
          237   5312: renesas_slave_tx
          238   5329: slave_general_call
          239   5348: slave_nack_addr
          240   5364: slave_rx
          241   5373: slave_rx_fna
          242   5386: slave_tx
          243   5395: slave_tx_delay
          244   5410: $Ven$AA$L$$Reset_Handler
          245   5435: _fp_init
          246   5444: __fplib_config_fpu_vfp
          247   5467: __fplib_config_pureend_doubles
          248   5498: GIC_intHandler
          249   5513: pattern
          250   5521: DumpOffset
          251   5532: delayCount
          252   5543: result
          253   5550: Image$$ARM_LIB_HEAP$$ZI$$Base
          254   5580: Image$$ARM_LIB_HEAP$$ZI$$Limit
          255   5611: Image$$ARM_LIB_STACK$$ZI$$Limit
          256   5643: 


====================================

** Section #9

    Name        : .note
    Type        : SHT_NOTE (0x00000007)
    Flags       : None (0x00000000)
    Addr        : 0x00000000
    File Offset : 30312 (0x7668)
    Size        : 36 bytes (0x24)
    Link        : SHN_UNDEF
    Info        : 0
    Alignment   : 4
    Entry Size  : 0

        Section     Segment
    ====================================

              1           0
              2           1
              3           1
              4           1
              5           1

====================================

** Section #10

    Name        : .comment
    Type        : SHT_PROGBITS (0x00000001)
    Flags       : None (0x00000000)
    Addr        : 0x00000000
    File Offset : 30348 (0x768c)
    Size        : 2772 bytes (0xad4)
    Link        : SHN_UNDEF
    Info        : 0
    Alignment   : 1
    Entry Size  : 0

    Component: ARM Compiler 6.9 Tool: armlink [5ced1b00]
    armlink --map --datacompressor=off --errors=error.log --output=image.elf --scatter=/design01/rcarv3ufed_master/common_rvc/rcarv3u/VNET1/MASTER_TM/I2C_V3U_RTL/ct/include/rcar_v3u/scatters/scatter_ddr.scat --sysroot=/common/appl/ARM/DS500-BN-00019-r5p0-28rel1/sw/ARMCompiler6.9 --entry=0x00000000 --info=unused

    /common/appl/ARM/DS500-BN-00019-r5p0-28rel1/sw/ARMCompiler6.9/lib/armlib/c_8u.l
    /common/appl/ARM/DS500-BN-00019-r5p0-28rel1/sw/ARMCompiler6.9/lib/armlib/fz_8v.l
    /common/appl/ARM/DS500-BN-00019-r5p0-28rel1/sw/ARMCompiler6.9/lib/armlib/h_8u.l
    /common/appl/ARM/DS500-BN-00019-r5p0-28rel1/sw/ARMCompiler6.9/lib/libcxx/libcpp-experimental_8nu.l
    /common/appl/ARM/DS500-BN-00019-r5p0-28rel1/sw/ARMCompiler6.9/lib/libcxx/libcpp_8nu.l
    /common/appl/ARM/DS500-BN-00019-r5p0-28rel1/sw/ARMCompiler6.9/lib/libcxx/libcppabi_8nu.l
    /common/appl/ARM/DS500-BN-00019-r5p0-28rel1/sw/ARMCompiler6.9/lib/armlib/m_8v.l
    /common/appl/ARM/DS500-BN-00019-r5p0-28rel1/sw/ARMCompiler6.9/lib/armlib/vfpsupport.l
    Input Comments:
    
    rel_dbsc4_init_lpddr4_4266_CL40WL18_181012_cr52.o
    
    Component: ARM Compiler 6.9 Tool: armasm [5ced1b00]
    armasm --cpu=Cortex-R52 -m -I/design01/rcarv3ufed_master/common_rvc/rcarv3u/VNET1/MASTER_TM/I2C_V3U_RTL/ct/i2c0/full_test -I/design01/rcarv3ufed_master/common_rvc/rcarv3u/VNET1/MASTER_TM/I2C_V3U_RTL/ct/include --predefine="EXECUTE_LOCATION SETS \"DDR\"" --list=r
    
    
    startup_cr52.o
    
    Component: ARM Compiler 6.9 Tool: armasm [5ced1b00]
    armasm --cpu=Cortex-R52 -m -I/design01/rcarv3ufed_master/common_rvc/rcarv3u/VNET1/MASTER_TM/I2C_V3U_RTL/ct/i2c0/full_test -I/design01/rcarv3ufed_master/common_rvc/rcarv3u/VNET1/MASTER_TM/I2C_V3U_RTL/ct/include --predefine="EXECUTE_LOCATION SETS \"DDR\"" --list=s
    
    
    vectors_cr52.o
    
    Component: ARM Compiler 6.9 Tool: armasm [5ced1b00]
    armasm --cpu=Cortex-R52 -m -I/design01/rcarv3ufed_master/common_rvc/rcarv3u/VNET1/MASTER_TM/I2C_V3U_RTL/ct/i2c0/full_test -I/design01/rcarv3ufed_master/common_rvc/rcarv3u/VNET1/MASTER_TM/I2C_V3U_RTL/ct/include --predefine="EXECUTE_LOCATION SETS \"DDR\"" --list=v
    
    
    mpu_cr52.o
    
    Component: ARM Compiler 6.9 Tool: armasm [5ced1b00]
    armasm --cpu=Cortex-R52 -m -I/design01/rcarv3ufed_master/common_rvc/rcarv3u/VNET1/MASTER_TM/I2C_V3U_RTL/ct/i2c0/full_test -I/design01/rcarv3ufed_master/common_rvc/rcarv3u/VNET1/MASTER_TM/I2C_V3U_RTL/ct/include --predefine="EXECUTE_LOCATION SETS \"DDR\"" --list=m
    
    
    slave_general_call.o
    renesas_slave_rx_fna.o
    main.o
    retarget.o
    slave_tx.o
    renesas_slave_rx.o
    slave_tx_delay.o
    exception_handlers.o
    i2c.o
    renesas_slave_rx_fna_sdbs.o
    renesas_slave_tx.o
    slave_nack_addr.o
    dmac.o
    slave_rx_fna.o
    slave_rx.o
    sim_utils.o
    pfc.o
    renesas_slave_rx_sdbs.o
    cpg.o
    gic.o
    
    
    Component: ARM Compiler 6.9 Tool: armclang [5ced1d00]
    
    
    
    

====================================

** Section #11

    Name        : .shstrtab
    Type        : SHT_STRTAB (0x00000003)
    Flags       : None (0x00000000)
    Addr        : 0x00000000
    File Offset : 33120 (0x8160)
    Size        : 104 bytes (0x68)
    Link        : SHN_UNDEF
    Info        : 0
    Alignment   : 1
    Entry Size  : 0

            #  Offset String
        ====================================

            1      1: ER00
            2      6: ER01
            3     11: ER02
            4     16: ER10
            5     21: ARM_LIB_HEAP
            6     34: ARM_LIB_STACK
            7     48: .debug_frame
            8     61: .symtab
            9     69: .strtab
           10     77: .note
           11     83: .comment
           12     92: .shstrtab
           13    102: 
           14    103: 


====================================

