
========================================================================

** ELF Header Information

    File Name: /design01/rcarv3ufed_master/common_rvc/rcarv3u/VNET1/MASTER_TM/I2C_V3U_RTL/ct/i2c0/full_check/debug/image.elf

    Machine class: ELFCLASS64 (64-bit)
    Data encoding: ELFDATA2LSB (Little endian)
    Header version: EV_CURRENT (Current version)
    Operating System ABI: none
    ABI Version: 0
    File Type: ET_EXEC (Executable) (2)
    Machine: EM_AARCH64 (ARM)

    Image Entry point: 0x00000000
    Flags: EF_ARM_HASENTRY (0x00000002)

    ARM ELF revision: 0 (SDT / legacy GNU / unspecified)

    Built with
    Component: ARM Compiler 6.9 Tool: armasm [5ced1b00]
    Component: ARM Compiler 6.9 Tool: armlink [5ced1b00]

    Header size: 64 bytes (0x40)
    Program header entry size: 56 bytes (0x38)
    Section header entry size: 64 bytes (0x40)

    Program header entries: 2
    Section header entries: 11

    Program header offset: 69968 (0x00011150)
    Section header offset: 70080 (0x000111c0)

    Section header string table index: 9

========================================================================

** Program header #0

    Type          : PT_LOAD (1)
    File Offset   : 256 (0x100)
    Virtual Addr  : 0x00000000
    Physical Addr : 0x00000000
    Size in file  : 5384 bytes (0x1508)
    Size in memory: 5384 bytes (0x1508)
    Flags         : PF_X + PF_R + PF_ARM_ENTRY (0x80000005)
    Alignment     : 256


====================================

** Program header #1

    Type          : PT_LOAD (1)
    File Offset   : 5760 (0x1680)
    Virtual Addr  : 0x40000000
    Physical Addr : 0x40000000
    Size in file  : 40488 bytes (0x9e28)
    Size in memory: 41512 bytes (0xa228)
    Flags         : PF_X + PF_W + PF_R (0x7)
    Alignment     : 128


========================================================================

** Section #1

    Name        : ER00
    Type        : SHT_PROGBITS (0x00000001)
    Flags       : SHF_ALLOC + SHF_EXECINSTR (0x00000006)
    Addr        : 0x00000000
    File Offset : 256 (0x100)
    Size        : 5384 bytes (0x1508)
    Link        : SHN_UNDEF
    Info        : 0
    Alignment   : 256
    Entry Size  : 0

    $x
    STARTUP
        0x00000000:    52810000    ...R    MOV      w0,#0x800
        0x00000004:    72bcc2e0    ...r    MOVK     w0,#0xe617,LSL #16
        0x00000008:    52800201    ...R    MOV      w1,#0x10
        0x0000000c:    b9000001    ....    STR      w1,[x0,#0]
        0x00000010:    d5033f9f    .?..    DSB      SY
        0x00000014:    d5033fdf    .?..    ISB      
        0x00000018:    52800000    ...R    MOV      w0,#0
        0x0000001c:    d5184020     @..    MSR      ELR_EL1,x0
        0x00000020:    d51c4020     @..    MSR      ELR_EL2,x0
        0x00000024:    d51e4020     @..    MSR      ELR_EL3,x0
        0x00000028:    d5184000    .@..    MSR      SPSR_EL1,x0
        0x0000002c:    d51c4000    .@..    MSR      SPSR_EL2,x0
        0x00000030:    d51e4000    .@..    MSR      SPSR_EL3,x0
        0x00000034:    580001e0    ...X    LDR      x0,{pc}+0x3c ; 0x70 ; [0x70] = 
        0x00000038:    d51ec000    ....    MSR      VBAR_EL3,x0
        0x0000003c:    52800000    ...R    MOV      w0,#0
        0x00000040:    d51e1140    @...    MSR      CPTR_EL3,x0
        0x00000044:    52800000    ...R    MOV      w0,#0
        0x00000048:    32150000    ...2    ORR      w0,w0,#0x800
        0x0000004c:    32160000    ...2    ORR      w0,w0,#0x400
        0x00000050:    321d0000    ...2    ORR      w0,w0,#8
        0x00000054:    321e0000    ...2    ORR      w0,w0,#4
        0x00000058:    321f0000    ...2    ORR      w0,w0,#2
        0x0000005c:    d51e1100    ....    MSR      SCR_EL3,x0
        0x00000060:    52800000    ...R    MOV      w0,#0
        0x00000064:    d51b4220     B..    MSR      DAIF,x0
        0x00000068:    9400050c    ....    BL       $Ven$XX$L$$__ddr_init ; 0x1498
        0x0000006c:    14000003    ....    B        __main ; 0x78
    $d
        0x00000070:    40000000    ...@    DCD    1073741824
        0x00000074:    00000000    ....    DCD    0
    $x
    !!!main
    __main
        0x00000078:    9400050c    ....    BL       $Ven$XX$L$$__scatterload ; 0x14a8
        0x0000007c:    94000001    ....    BL       __rt_entry ; 0x80
    .ARM.Collect$$rtentry$$00000000
    .ARM.Collect$$rtentry$$00000002
    .ARM.Collect$$rtentry$$00000007
    __rt_entry
    __rt_entry_presh_1
    __rt_entry_sh
        0x00000080:    580000c0    ...X    LDR      x0,__lit__00000000 ; [0x98] = 
        0x00000084:    9100001f    ....    MOV      sp,x0
    .ARM.Collect$$rtentry$$00000009
    .ARM.Collect$$rtentry$$0000000A
    __rt_entry_li
    __rt_entry_postsh_1
        0x00000088:    9400050c    ....    BL       $Ven$XX$L$$__rt_lib_init ; 0x14b8
    .ARM.Collect$$rtentry$$0000000C
    .ARM.Collect$$rtentry$$0000000D
    __rt_entry_main
    __rt_entry_postli_1
        0x0000008c:    9400050f    ....    BL       $Ven$XX$L$$main ; 0x14c8
        0x00000090:    94000512    ....    BL       $Ven$XX$L$$exit ; 0x14d8
        0x00000094:    00000000    ....    DCI      0x00000000 ; ? Undefined
    $d
    .ARM.Collect$$rtentry$$00002718
    __lit__00000000
        0x00000098:    70000000    ...p    DCD    1879048192
        0x0000009c:    00000000    ....    DCD    0
    $x
    DDR_INIT
    __ddr_init_bsc
        0x000000a0:    58005b00    .[.X    LDR      x0,{pc}+0xb60 ; 0xc00 ; [0xc00] = 
        0x000000a4:    b9400001    ..@.    LDR      w1,[x0,#0]
        0x000000a8:    18005b02    .[..    LDR      w2,{pc}+0xb60 ; 0xc08 ; [0xc08] = 0xffffffe7
        0x000000ac:    0a020021    !...    AND      w1,w1,w2
        0x000000b0:    2a2103e2    ..!*    MVN      w2,w1
        0x000000b4:    58005ae0    .Z.X    LDR      x0,{pc}+0xb5c ; 0xc10 ; [0xc10] = 
        0x000000b8:    b9000002    ....    STR      w2,[x0,#0]
        0x000000bc:    58005ae0    .Z.X    LDR      x0,{pc}+0xb5c ; 0xc18 ; [0xc18] = 
        0x000000c0:    b9000001    ....    STR      w1,[x0,#0]
        0x000000c4:    580059e0    .Y.X    LDR      x0,{pc}+0xb3c ; 0xc00 ; [0xc00] = 
        0x000000c8:    b9400001    ..@.    LDR      w1,[x0,#0]
        0x000000cc:    18005aa0    .Z..    LDR      w0,{pc}+0xb54 ; 0xc20 ; [0xc20] = 0x10
        0x000000d0:    51000400    ...Q    SUB      w0,w0,#1
        0x000000d4:    7100001f    ...q    CMP      w0,#0
        0x000000d8:    54ffffc1    ...T    B.NE     0xd0 ; __ddr_init_bsc + 48
        0x000000dc:    1400000e    ....    B        0x114 ; __ddr_init_bsc + 116
        0x000000e0:    d503201f    . ..    NOP      
        0x000000e4:    58005a24    $Z.X    LDR      x4,{pc}+0xb44 ; 0xc28 ; [0xc28] = 
        0x000000e8:    8a040021    !...    AND      x1,x1,x4
        0x000000ec:    f9000041    A...    STR      x1,[x2,#0]
        0x000000f0:    f9000060    `...    STR      x0,[x3,#0]
        0x000000f4:    f9400040    @.@.    LDR      x0,[x2,#0]
        0x000000f8:    580059c4    .Y.X    LDR      x4,{pc}+0xb38 ; 0xc30 ; [0xc30] = 
        0x000000fc:    8a040000    ....    AND      x0,x0,x4
        0x00000100:    eb04001f    ....    CMP      x0,x4
        0x00000104:    54ffff81    ...T    B.NE     0xf4 ; __ddr_init_bsc + 84
        0x00000108:    aa040021    !...    ORR      x1,x1,x4
        0x0000010c:    f9000041    A...    STR      x1,[x2,#0]
        0x00000110:    d61f03c0    ....    BR       x30
        0x00000114:    18005920     Y..    LDR      w0,{pc}+0xb24 ; 0xc38 ; [0xc38] = 0x1234
        0x00000118:    58005941    AY.X    LDR      x1,{pc}+0xb28 ; 0xc40 ; [0xc40] = 
        0x0000011c:    b9000020     ...    STR      w0,[x1,#0]
        0x00000120:    180058c0    .X..    LDR      w0,{pc}+0xb18 ; 0xc38 ; [0xc38] = 0x1234
        0x00000124:    58005921    !Y.X    LDR      x1,{pc}+0xb24 ; 0xc48 ; [0xc48] = 
        0x00000128:    b9000020     ...    STR      w0,[x1,#0]
        0x0000012c:    18005920     Y..    LDR      w0,{pc}+0xb24 ; 0xc50 ; [0xc50] = 0xa
        0x00000130:    58005941    AY.X    LDR      x1,{pc}+0xb28 ; 0xc58 ; [0xc58] = 
        0x00000134:    b9000020     ...    STR      w0,[x1,#0]
        0x00000138:    180058c0    .X..    LDR      w0,{pc}+0xb18 ; 0xc50 ; [0xc50] = 0xa
        0x0000013c:    58005921    !Y.X    LDR      x1,{pc}+0xb24 ; 0xc60 ; [0xc60] = 
        0x00000140:    b9000020     ...    STR      w0,[x1,#0]
        0x00000144:    18005920     Y..    LDR      w0,{pc}+0xb24 ; 0xc68 ; [0xc68] = 0xe030a01
        0x00000148:    58005941    AY.X    LDR      x1,{pc}+0xb28 ; 0xc70 ; [0xc70] = 
        0x0000014c:    b9000020     ...    STR      w0,[x1,#0]
        0x00000150:    180058c0    .X..    LDR      w0,{pc}+0xb18 ; 0xc68 ; [0xc68] = 0xe030a01
        0x00000154:    58005921    !Y.X    LDR      x1,{pc}+0xb24 ; 0xc78 ; [0xc78] = 
        0x00000158:    b9000020     ...    STR      w0,[x1,#0]
        0x0000015c:    18005860    `X..    LDR      w0,{pc}+0xb0c ; 0xc68 ; [0xc68] = 0xe030a01
        0x00000160:    58005901    .Y.X    LDR      x1,{pc}+0xb20 ; 0xc80 ; [0xc80] = 
        0x00000164:    b9000020     ...    STR      w0,[x1,#0]
        0x00000168:    18005800    .X..    LDR      w0,{pc}+0xb00 ; 0xc68 ; [0xc68] = 0xe030a01
        0x0000016c:    580058e1    .X.X    LDR      x1,{pc}+0xb1c ; 0xc88 ; [0xc88] = 
        0x00000170:    b9000020     ...    STR      w0,[x1,#0]
        0x00000174:    180057a0    .W..    LDR      w0,{pc}+0xaf4 ; 0xc68 ; [0xc68] = 0xe030a01
        0x00000178:    580058c1    .X.X    LDR      x1,{pc}+0xb18 ; 0xc90 ; [0xc90] = 
        0x0000017c:    b9000020     ...    STR      w0,[x1,#0]
        0x00000180:    18005740    @W..    LDR      w0,{pc}+0xae8 ; 0xc68 ; [0xc68] = 0xe030a01
        0x00000184:    580058a1    .X.X    LDR      x1,{pc}+0xb14 ; 0xc98 ; [0xc98] = 
        0x00000188:    b9000020     ...    STR      w0,[x1,#0]
        0x0000018c:    180056e0    .V..    LDR      w0,{pc}+0xadc ; 0xc68 ; [0xc68] = 0xe030a01
        0x00000190:    58005881    .X.X    LDR      x1,{pc}+0xb10 ; 0xca0 ; [0xca0] = 
        0x00000194:    b9000020     ...    STR      w0,[x1,#0]
        0x00000198:    18005680    .V..    LDR      w0,{pc}+0xad0 ; 0xc68 ; [0xc68] = 0xe030a01
        0x0000019c:    58005861    aX.X    LDR      x1,{pc}+0xb0c ; 0xca8 ; [0xca8] = 
        0x000001a0:    b9000020     ...    STR      w0,[x1,#0]
        0x000001a4:    18005860    `X..    LDR      w0,{pc}+0xb0c ; 0xcb0 ; [0xcb0] = 0
        0x000001a8:    58005881    .X.X    LDR      x1,{pc}+0xb10 ; 0xcb8 ; [0xcb8] = 
        0x000001ac:    b9000020     ...    STR      w0,[x1,#0]
        0x000001b0:    18005880    .X..    LDR      w0,{pc}+0xb10 ; 0xcc0 ; [0xcc0] = 0x1
        0x000001b4:    580058a1    .X.X    LDR      x1,{pc}+0xb14 ; 0xcc8 ; [0xcc8] = 
        0x000001b8:    b9000020     ...    STR      w0,[x1,#0]
        0x000001bc:    180058a0    .X..    LDR      w0,{pc}+0xb14 ; 0xcd0 ; [0xcd0] = 0x28
        0x000001c0:    580058c1    .X.X    LDR      x1,{pc}+0xb18 ; 0xcd8 ; [0xcd8] = 
        0x000001c4:    b9000020     ...    STR      w0,[x1,#0]
        0x000001c8:    180058c0    .X..    LDR      w0,{pc}+0xb18 ; 0xce0 ; [0xce0] = 0x12
        0x000001cc:    580058e1    .X.X    LDR      x1,{pc}+0xb1c ; 0xce8 ; [0xce8] = 
        0x000001d0:    b9000020     ...    STR      w0,[x1,#0]
        0x000001d4:    180058e0    .X..    LDR      w0,{pc}+0xb1c ; 0xcf0 ; [0xcf0] = 0x27
        0x000001d8:    58005901    .Y.X    LDR      x1,{pc}+0xb20 ; 0xcf8 ; [0xcf8] = 
        0x000001dc:    b9000020     ...    STR      w0,[x1,#0]
        0x000001e0:    18005900    .Y..    LDR      w0,{pc}+0xb20 ; 0xd00 ; [0xd00] = 0x2d0027
        0x000001e4:    58005921    !Y.X    LDR      x1,{pc}+0xb24 ; 0xd08 ; [0xd08] = 
        0x000001e8:    b9000020     ...    STR      w0,[x1,#0]
        0x000001ec:    18005920     Y..    LDR      w0,{pc}+0xb24 ; 0xd10 ; [0xd10] = 0x87
        0x000001f0:    58005941    AY.X    LDR      x1,{pc}+0xb28 ; 0xd18 ; [0xd18] = 
        0x000001f4:    b9000020     ...    STR      w0,[x1,#0]
        0x000001f8:    18005940    @Y..    LDR      w0,{pc}+0xb28 ; 0xd20 ; [0xd20] = 0x5a
        0x000001fc:    58005961    aY.X    LDR      x1,{pc}+0xb2c ; 0xd28 ; [0xd28] = 
        0x00000200:    b9000020     ...    STR      w0,[x1,#0]
        0x00000204:    18005960    `Y..    LDR      w0,{pc}+0xb2c ; 0xd30 ; [0xd30] = 0x100010
        0x00000208:    58005981    .Y.X    LDR      x1,{pc}+0xb30 ; 0xd38 ; [0xd38] = 
        0x0000020c:    b9000020     ...    STR      w0,[x1,#0]
        0x00000210:    18005980    .Y..    LDR      w0,{pc}+0xb30 ; 0xd40 ; [0xd40] = 0x40
        0x00000214:    580059a1    .Y.X    LDR      x1,{pc}+0xb34 ; 0xd48 ; [0xd48] = 
        0x00000218:    b9000020     ...    STR      w0,[x1,#0]
        0x0000021c:    18005020     P..    LDR      w0,{pc}+0xa04 ; 0xc20 ; [0xc20] = 0x10
        0x00000220:    58005981    .Y.X    LDR      x1,{pc}+0xb30 ; 0xd50 ; [0xd50] = 
        0x00000224:    b9000020     ...    STR      w0,[x1,#0]
        0x00000228:    18005980    .Y..    LDR      w0,{pc}+0xb30 ; 0xd58 ; [0xd58] = 0x29
        0x0000022c:    580059a1    .Y.X    LDR      x1,{pc}+0xb34 ; 0xd60 ; [0xd60] = 
        0x00000230:    b9000020     ...    STR      w0,[x1,#0]
        0x00000234:    18005920     Y..    LDR      w0,{pc}+0xb24 ; 0xd58 ; [0xd58] = 0x29
        0x00000238:    58005981    .Y.X    LDR      x1,{pc}+0xb30 ; 0xd68 ; [0xd68] = 
        0x0000023c:    b9000020     ...    STR      w0,[x1,#0]
        0x00000240:    18005980    .Y..    LDR      w0,{pc}+0xb30 ; 0xd70 ; [0xd70] = 0x310031
        0x00000244:    580059a1    .Y.X    LDR      x1,{pc}+0xb34 ; 0xd78 ; [0xd78] = 
        0x00000248:    b9000020     ...    STR      w0,[x1,#0]
        0x0000024c:    180059a0    .Y..    LDR      w0,{pc}+0xb34 ; 0xd80 ; [0xd80] = 0x116
        0x00000250:    580059c1    .Y.X    LDR      x1,{pc}+0xb38 ; 0xd88 ; [0xd88] = 
        0x00000254:    b9000020     ...    STR      w0,[x1,#0]
        0x00000258:    180059c0    .Y..    LDR      w0,{pc}+0xb38 ; 0xd90 ; [0xd90] = 0x130013
        0x0000025c:    580059e1    .Y.X    LDR      x1,{pc}+0xb3c ; 0xd98 ; [0xd98] = 
        0x00000260:    b9000020     ...    STR      w0,[x1,#0]
        0x00000264:    180059e0    .Y..    LDR      w0,{pc}+0xb3c ; 0xda0 ; [0xda0] = 0x200010
        0x00000268:    58005a01    .Z.X    LDR      x1,{pc}+0xb40 ; 0xda8 ; [0xda8] = 
        0x0000026c:    b9000020     ...    STR      w0,[x1,#0]
        0x00000270:    18005a00    .Z..    LDR      w0,{pc}+0xb40 ; 0xdb0 ; [0xdb0] = 0xd400a0e
        0x00000274:    58005a21    !Z.X    LDR      x1,{pc}+0xb44 ; 0xdb8 ; [0xdb8] = 
        0x00000278:    b9000020     ...    STR      w0,[x1,#0]
        0x0000027c:    18005a20     Z..    LDR      w0,{pc}+0xb44 ; 0xdc0 ; [0xdc0] = 0x81e0000
        0x00000280:    58005a41    AZ.X    LDR      x1,{pc}+0xb48 ; 0xdc8 ; [0xdc8] = 
        0x00000284:    b9000020     ...    STR      w0,[x1,#0]
        0x00000288:    18005a40    @Z..    LDR      w0,{pc}+0xb48 ; 0xdd0 ; [0xdd0] = 0x1290129
        0x0000028c:    58005a61    aZ.X    LDR      x1,{pc}+0xb4c ; 0xdd8 ; [0xdd8] = 
        0x00000290:    b9000020     ...    STR      w0,[x1,#0]
        0x00000294:    18005a60    `Z..    LDR      w0,{pc}+0xb4c ; 0xde0 ; [0xde0] = 0x80008
        0x00000298:    58005a81    .Z.X    LDR      x1,{pc}+0xb50 ; 0xde8 ; [0xde8] = 
        0x0000029c:    b9000020     ...    STR      w0,[x1,#0]
        0x000002a0:    18005a80    .Z..    LDR      w0,{pc}+0xb50 ; 0xdf0 ; [0xdf0] = 0x8550040
        0x000002a4:    58005aa1    .Z.X    LDR      x1,{pc}+0xb54 ; 0xdf8 ; [0xdf8] = 
        0x000002a8:    b9000020     ...    STR      w0,[x1,#0]
        0x000002ac:    18005aa0    .Z..    LDR      w0,{pc}+0xb54 ; 0xe00 ; [0xe00] = 0x3
        0x000002b0:    58005ac1    .Z.X    LDR      x1,{pc}+0xb58 ; 0xe08 ; [0xe08] = 
        0x000002b4:    b9000020     ...    STR      w0,[x1,#0]
        0x000002b8:    18005ac0    .Z..    LDR      w0,{pc}+0xb58 ; 0xe10 ; [0xe10] = 0x2
        0x000002bc:    58005ae1    .Z.X    LDR      x1,{pc}+0xb5c ; 0xe18 ; [0xe18] = 
        0x000002c0:    b9000020     ...    STR      w0,[x1,#0]
        0x000002c4:    18005a60    `Z..    LDR      w0,{pc}+0xb4c ; 0xe10 ; [0xe10] = 0x2
        0x000002c8:    58005ac1    .Z.X    LDR      x1,{pc}+0xb58 ; 0xe20 ; [0xe20] = 
        0x000002cc:    b9000020     ...    STR      w0,[x1,#0]
        0x000002d0:    18005ac0    .Z..    LDR      w0,{pc}+0xb58 ; 0xe28 ; [0xe28] = 0x4444
        0x000002d4:    58005ae1    .Z.X    LDR      x1,{pc}+0xb5c ; 0xe30 ; [0xe30] = 
        0x000002d8:    b9000020     ...    STR      w0,[x1,#0]
        0x000002dc:    18005a60    `Z..    LDR      w0,{pc}+0xb4c ; 0xe28 ; [0xe28] = 0x4444
        0x000002e0:    58005ac1    .Z.X    LDR      x1,{pc}+0xb58 ; 0xe38 ; [0xe38] = 
        0x000002e4:    b9000020     ...    STR      w0,[x1,#0]
        0x000002e8:    18005a00    .Z..    LDR      w0,{pc}+0xb40 ; 0xe28 ; [0xe28] = 0x4444
        0x000002ec:    58005aa1    .Z.X    LDR      x1,{pc}+0xb54 ; 0xe40 ; [0xe40] = 
        0x000002f0:    b9000020     ...    STR      w0,[x1,#0]
        0x000002f4:    180059a0    .Y..    LDR      w0,{pc}+0xb34 ; 0xe28 ; [0xe28] = 0x4444
        0x000002f8:    58005a81    .Z.X    LDR      x1,{pc}+0xb50 ; 0xe48 ; [0xe48] = 
        0x000002fc:    b9000020     ...    STR      w0,[x1,#0]
        0x00000300:    18005a80    .Z..    LDR      w0,{pc}+0xb50 ; 0xe50 ; [0xe50] = 0x104214
        0x00000304:    58005aa1    .Z.X    LDR      x1,{pc}+0xb54 ; 0xe58 ; [0xe58] = 
        0x00000308:    b9000020     ...    STR      w0,[x1,#0]
        0x0000030c:    18005aa0    .Z..    LDR      w0,{pc}+0xb54 ; 0xe60 ; [0xe60] = 0x1c4
        0x00000310:    58005ac1    .Z.X    LDR      x1,{pc}+0xb58 ; 0xe68 ; [0xe68] = 
        0x00000314:    b9000020     ...    STR      w0,[x1,#0]
        0x00000318:    18005740    @W..    LDR      w0,{pc}+0xae8 ; 0xe00 ; [0xe00] = 0x3
        0x0000031c:    58005aa1    .Z.X    LDR      x1,{pc}+0xb54 ; 0xe70 ; [0xe70] = 
        0x00000320:    b9000020     ...    STR      w0,[x1,#0]
        0x00000324:    18005aa0    .Z..    LDR      w0,{pc}+0xb54 ; 0xe78 ; [0xe78] = 0xf0037
        0x00000328:    58005ac1    .Z.X    LDR      x1,{pc}+0xb58 ; 0xe80 ; [0xe80] = 
        0x0000032c:    b9000020     ...    STR      w0,[x1,#0]
        0x00000330:    18005ac0    .Z..    LDR      w0,{pc}+0xb58 ; 0xe88 ; [0xe88] = 0x1010
        0x00000334:    58005ae1    .Z.X    LDR      x1,{pc}+0xb5c ; 0xe90 ; [0xe90] = 
        0x00000338:    b9000020     ...    STR      w0,[x1,#0]
        0x0000033c:    18004c20     L..    LDR      w0,{pc}+0x984 ; 0xcc0 ; [0xcc0] = 0x1
        0x00000340:    58005ac1    .Z.X    LDR      x1,{pc}+0xb58 ; 0xe98 ; [0xe98] = 
        0x00000344:    b9000020     ...    STR      w0,[x1,#0]
        0x00000348:    18005ac0    .Z..    LDR      w0,{pc}+0xb58 ; 0xea0 ; [0xea0] = 0xf7311111
        0x0000034c:    58005ae1    .Z.X    LDR      x1,{pc}+0xb5c ; 0xea8 ; [0xea8] = 
        0x00000350:    b9000020     ...    STR      w0,[x1,#0]
        0x00000354:    18005ae0    .Z..    LDR      w0,{pc}+0xb5c ; 0xeb0 ; [0xeb0] = 0x1834
        0x00000358:    58005b01    .[.X    LDR      x1,{pc}+0xb60 ; 0xeb8 ; [0xeb8] = 
        0x0000035c:    b9000020     ...    STR      w0,[x1,#0]
        0x00000360:    18005b00    .[..    LDR      w0,{pc}+0xb60 ; 0xec0 ; [0xec0] = 0xffffffff
        0x00000364:    58005b21    ![.X    LDR      x1,{pc}+0xb64 ; 0xec8 ; [0xec8] = 
        0x00000368:    b9000020     ...    STR      w0,[x1,#0]
        0x0000036c:    18005b20     [..    LDR      w0,{pc}+0xb64 ; 0xed0 ; [0xed0] = 0x480
        0x00000370:    58005b41    A[.X    LDR      x1,{pc}+0xb68 ; 0xed8 ; [0xed8] = 
        0x00000374:    b9000020     ...    STR      w0,[x1,#0]
        0x00000378:    18005b40    @[..    LDR      w0,{pc}+0xb68 ; 0xee0 ; [0xee0] = 0x300
        0x0000037c:    58005b61    a[.X    LDR      x1,{pc}+0xb6c ; 0xee8 ; [0xee8] = 
        0x00000380:    b9000020     ...    STR      w0,[x1,#0]
        0x00000384:    18005b60    `[..    LDR      w0,{pc}+0xb6c ; 0xef0 ; [0xef0] = 0x180
        0x00000388:    58005b81    .[.X    LDR      x1,{pc}+0xb70 ; 0xef8 ; [0xef8] = 
        0x0000038c:    b9000020     ...    STR      w0,[x1,#0]
        0x00000390:    18005b80    .[..    LDR      w0,{pc}+0xb70 ; 0xf00 ; [0xf00] = 0x600
        0x00000394:    58005ba1    .[.X    LDR      x1,{pc}+0xb74 ; 0xf08 ; [0xf08] = 
        0x00000398:    b9000020     ...    STR      w0,[x1,#0]
        0x0000039c:    180059a0    .Y..    LDR      w0,{pc}+0xb34 ; 0xed0 ; [0xed0] = 0x480
        0x000003a0:    58005b81    .[.X    LDR      x1,{pc}+0xb70 ; 0xf10 ; [0xf10] = 
        0x000003a4:    b9000020     ...    STR      w0,[x1,#0]
        0x000003a8:    180059c0    .Y..    LDR      w0,{pc}+0xb38 ; 0xee0 ; [0xee0] = 0x300
        0x000003ac:    58005b61    a[.X    LDR      x1,{pc}+0xb6c ; 0xf18 ; [0xf18] = 
        0x000003b0:    b9000020     ...    STR      w0,[x1,#0]
        0x000003b4:    180059e0    .Y..    LDR      w0,{pc}+0xb3c ; 0xef0 ; [0xef0] = 0x180
        0x000003b8:    58005b41    A[.X    LDR      x1,{pc}+0xb68 ; 0xf20 ; [0xf20] = 
        0x000003bc:    b9000020     ...    STR      w0,[x1,#0]
        0x000003c0:    18005b40    @[..    LDR      w0,{pc}+0xb68 ; 0xf28 ; [0xf28] = 0x400
        0x000003c4:    58005b61    a[.X    LDR      x1,{pc}+0xb6c ; 0xf30 ; [0xf30] = 
        0x000003c8:    b9000020     ...    STR      w0,[x1,#0]
        0x000003cc:    180058a0    .X..    LDR      w0,{pc}+0xb14 ; 0xee0 ; [0xee0] = 0x300
        0x000003d0:    58005b41    A[.X    LDR      x1,{pc}+0xb68 ; 0xf38 ; [0xf38] = 
        0x000003d4:    b9000020     ...    STR      w0,[x1,#0]
        0x000003d8:    18005b40    @[..    LDR      w0,{pc}+0xb68 ; 0xf40 ; [0xf40] = 0x200
        0x000003dc:    58005b61    a[.X    LDR      x1,{pc}+0xb6c ; 0xf48 ; [0xf48] = 
        0x000003e0:    b9000020     ...    STR      w0,[x1,#0]
        0x000003e4:    18005b60    `[..    LDR      w0,{pc}+0xb6c ; 0xf50 ; [0xf50] = 0x100
        0x000003e8:    58005b81    .[.X    LDR      x1,{pc}+0xb70 ; 0xf58 ; [0xf58] = 
        0x000003ec:    b9000020     ...    STR      w0,[x1,#0]
        0x000003f0:    18005780    .W..    LDR      w0,{pc}+0xaf0 ; 0xee0 ; [0xee0] = 0x300
        0x000003f4:    58005b61    a[.X    LDR      x1,{pc}+0xb6c ; 0xf60 ; [0xf60] = 
        0x000003f8:    b9000020     ...    STR      w0,[x1,#0]
        0x000003fc:    18005b60    `[..    LDR      w0,{pc}+0xb6c ; 0xf68 ; [0xf68] = 0x240
        0x00000400:    58005b81    .[.X    LDR      x1,{pc}+0xb70 ; 0xf70 ; [0xf70] = 
        0x00000404:    b9000020     ...    STR      w0,[x1,#0]
        0x00000408:    18005740    @W..    LDR      w0,{pc}+0xae8 ; 0xef0 ; [0xef0] = 0x180
        0x0000040c:    58005b61    a[.X    LDR      x1,{pc}+0xb6c ; 0xf78 ; [0xf78] = 
        0x00000410:    b9000020     ...    STR      w0,[x1,#0]
        0x00000414:    18005b60    `[..    LDR      w0,{pc}+0xb6c ; 0xf80 ; [0xf80] = 0xc0
        0x00000418:    58005b81    .[.X    LDR      x1,{pc}+0xb70 ; 0xf88 ; [0xf88] = 
        0x0000041c:    b9000020     ...    STR      w0,[x1,#0]
        0x00000420:    18005900    .Y..    LDR      w0,{pc}+0xb20 ; 0xf40 ; [0xf40] = 0x200
        0x00000424:    58005b61    a[.X    LDR      x1,{pc}+0xb6c ; 0xf90 ; [0xf90] = 
        0x00000428:    b9000020     ...    STR      w0,[x1,#0]
        0x0000042c:    18005620     V..    LDR      w0,{pc}+0xac4 ; 0xef0 ; [0xef0] = 0x180
        0x00000430:    58005b41    A[.X    LDR      x1,{pc}+0xb68 ; 0xf98 ; [0xf98] = 
        0x00000434:    b9000020     ...    STR      w0,[x1,#0]
        0x00000438:    180058c0    .X..    LDR      w0,{pc}+0xb18 ; 0xf50 ; [0xf50] = 0x100
        0x0000043c:    58005b21    ![.X    LDR      x1,{pc}+0xb64 ; 0xfa0 ; [0xfa0] = 
        0x00000440:    b9000020     ...    STR      w0,[x1,#0]
        0x00000444:    18005b20     [..    LDR      w0,{pc}+0xb64 ; 0xfa8 ; [0xfa8] = 0x80
        0x00000448:    58005b41    A[.X    LDR      x1,{pc}+0xb68 ; 0xfb0 ; [0xfb0] = 
        0x0000044c:    b9000020     ...    STR      w0,[x1,#0]
        0x00000450:    18005800    .X..    LDR      w0,{pc}+0xb00 ; 0xf50 ; [0xf50] = 0x100
        0x00000454:    58005b21    ![.X    LDR      x1,{pc}+0xb64 ; 0xfb8 ; [0xfb8] = 
        0x00000458:    b9000020     ...    STR      w0,[x1,#0]
        0x0000045c:    18005920     Y..    LDR      w0,{pc}+0xb24 ; 0xf80 ; [0xf80] = 0xc0
        0x00000460:    58005b01    .[.X    LDR      x1,{pc}+0xb60 ; 0xfc0 ; [0xfc0] = 
        0x00000464:    b9000020     ...    STR      w0,[x1,#0]
        0x00000468:    18005a00    .Z..    LDR      w0,{pc}+0xb40 ; 0xfa8 ; [0xfa8] = 0x80
        0x0000046c:    58005ae1    .Z.X    LDR      x1,{pc}+0xb5c ; 0xfc8 ; [0xfc8] = 
        0x00000470:    b9000020     ...    STR      w0,[x1,#0]
        0x00000474:    18004660    `F..    LDR      w0,{pc}+0x8cc ; 0xd40 ; [0xd40] = 0x40
        0x00000478:    58005ac1    .Z.X    LDR      x1,{pc}+0xb58 ; 0xfd0 ; [0xfd0] = 
        0x0000047c:    b9000020     ...    STR      w0,[x1,#0]
        0x00000480:    18005ac0    .Z..    LDR      w0,{pc}+0xb58 ; 0xfd8 ; [0xfd8] = 0x220e110a
        0x00000484:    58005ae1    .Z.X    LDR      x1,{pc}+0xb5c ; 0xfe0 ; [0xfe0] = 
        0x00000488:    b9000020     ...    STR      w0,[x1,#0]
        0x0000048c:    18005ae0    .Z..    LDR      w0,{pc}+0xb5c ; 0xfe8 ; [0xfe8] = 0xb0d0a0c
        0x00000490:    58005b01    .[.X    LDR      x1,{pc}+0xb60 ; 0xff0 ; [0xff0] = 
        0x00000494:    b9000020     ...    STR      w0,[x1,#0]
        0x00000498:    18005b00    .[..    LDR      w0,{pc}+0xb60 ; 0xff8 ; [0xff8] = 0x111f1fff
        0x0000049c:    58005b21    ![.X    LDR      x1,{pc}+0xb64 ; 0x1000 ; [0x1000] = 
        0x000004a0:    b9000020     ...    STR      w0,[x1,#0]
        0x000004a4:    180040e0    .@..    LDR      w0,{pc}+0x81c ; 0xcc0 ; [0xcc0] = 0x1
        0x000004a8:    58005b01    .[.X    LDR      x1,{pc}+0xb60 ; 0x1008 ; [0x1008] = 
        0x000004ac:    b9000020     ...    STR      w0,[x1,#0]
        0x000004b0:    18004b00    .K..    LDR      w0,{pc}+0x960 ; 0xe10 ; [0xe10] = 0x2
        0x000004b4:    58005ae1    .Z.X    LDR      x1,{pc}+0xb5c ; 0x1010 ; [0x1010] = 
        0x000004b8:    b9000020     ...    STR      w0,[x1,#0]
        0x000004bc:    18004aa0    .J..    LDR      w0,{pc}+0x954 ; 0xe10 ; [0xe10] = 0x2
        0x000004c0:    58005ac1    .Z.X    LDR      x1,{pc}+0xb58 ; 0x1018 ; [0x1018] = 
        0x000004c4:    b9000020     ...    STR      w0,[x1,#0]
        0x000004c8:    18003fc0    .?..    LDR      w0,{pc}+0x7f8 ; 0xcc0 ; [0xcc0] = 0x1
        0x000004cc:    58005aa1    .Z.X    LDR      x1,{pc}+0xb54 ; 0x1020 ; [0x1020] = 
        0x000004d0:    b9000020     ...    STR      w0,[x1,#0]
        0x000004d4:    18005aa0    .Z..    LDR      w0,{pc}+0xb54 ; 0x1028 ; [0x1028] = 0x41
        0x000004d8:    58005ac1    .Z.X    LDR      x1,{pc}+0xb58 ; 0x1030 ; [0x1030] = 
        0x000004dc:    b9000020     ...    STR      w0,[x1,#0]
        0x000004e0:    18005ac0    .Z..    LDR      w0,{pc}+0xb58 ; 0x1038 ; [0x1038] = 0x11
        0x000004e4:    58005ae1    .Z.X    LDR      x1,{pc}+0xb5c ; 0x1040 ; [0x1040] = 
        0x000004e8:    b9000020     ...    STR      w0,[x1,#0]
        0x000004ec:    18005a60    `Z..    LDR      w0,{pc}+0xb4c ; 0x1038 ; [0x1038] = 0x11
        0x000004f0:    58005ac1    .Z.X    LDR      x1,{pc}+0xb58 ; 0x1048 ; [0x1048] = 
        0x000004f4:    b9000020     ...    STR      w0,[x1,#0]
        0x000004f8:    18005a00    .Z..    LDR      w0,{pc}+0xb40 ; 0x1038 ; [0x1038] = 0x11
        0x000004fc:    58005aa1    .Z.X    LDR      x1,{pc}+0xb54 ; 0x1050 ; [0x1050] = 
        0x00000500:    b9000020     ...    STR      w0,[x1,#0]
        0x00000504:    180059a0    .Y..    LDR      w0,{pc}+0xb34 ; 0x1038 ; [0x1038] = 0x11
        0x00000508:    58005a81    .Z.X    LDR      x1,{pc}+0xb50 ; 0x1058 ; [0x1058] = 
        0x0000050c:    b9000020     ...    STR      w0,[x1,#0]
        0x00000510:    18005a80    .Z..    LDR      w0,{pc}+0xb50 ; 0x1060 ; [0x1060] = 0xcf01
        0x00000514:    58005aa1    .Z.X    LDR      x1,{pc}+0xb54 ; 0x1068 ; [0x1068] = 
        0x00000518:    b9000020     ...    STR      w0,[x1,#0]
        0x0000051c:    18005a20     Z..    LDR      w0,{pc}+0xb44 ; 0x1060 ; [0x1060] = 0xcf01
        0x00000520:    58005a81    .Z.X    LDR      x1,{pc}+0xb50 ; 0x1070 ; [0x1070] = 
        0x00000524:    b9000020     ...    STR      w0,[x1,#0]
        0x00000528:    180059c0    .Y..    LDR      w0,{pc}+0xb38 ; 0x1060 ; [0x1060] = 0xcf01
        0x0000052c:    58005a61    aZ.X    LDR      x1,{pc}+0xb4c ; 0x1078 ; [0x1078] = 
        0x00000530:    b9000020     ...    STR      w0,[x1,#0]
        0x00000534:    18005960    `Y..    LDR      w0,{pc}+0xb2c ; 0x1060 ; [0x1060] = 0xcf01
        0x00000538:    58005a41    AZ.X    LDR      x1,{pc}+0xb48 ; 0x1080 ; [0x1080] = 
        0x0000053c:    b9000020     ...    STR      w0,[x1,#0]
        0x00000540:    18003c06    .<..    LDR      w6,{pc}+0x780 ; 0xcc0 ; [0xcc0] = 0x1
        0x00000544:    58005a20     Z.X    LDR      x0,{pc}+0xb44 ; 0x1088 ; [0x1088] = 
        0x00000548:    b9400007    ..@.    LDR      w7,[x0,#0]
        0x0000054c:    0a0700c7    ....    AND      w7,w6,w7
        0x00000550:    6b0700df    ...k    CMP      w6,w7
        0x00000554:    54ffff81    ...T    B.NE     0x544 ; __ddr_init_bsc + 1188
        0x00000558:    580059c0    .Y.X    LDR      x0,{pc}+0xb38 ; 0x1090 ; [0x1090] = 
        0x0000055c:    b9400007    ..@.    LDR      w7,[x0,#0]
        0x00000560:    0a0700c7    ....    AND      w7,w6,w7
        0x00000564:    6b0700df    ...k    CMP      w6,w7
        0x00000568:    54fffee1    ...T    B.NE     0x544 ; __ddr_init_bsc + 1188
        0x0000056c:    58005960    `Y.X    LDR      x0,{pc}+0xb2c ; 0x1098 ; [0x1098] = 
        0x00000570:    b9400007    ..@.    LDR      w7,[x0,#0]
        0x00000574:    0a0700c7    ....    AND      w7,w6,w7
        0x00000578:    6b0700df    ...k    CMP      w6,w7
        0x0000057c:    54fffe41    A..T    B.NE     0x544 ; __ddr_init_bsc + 1188
        0x00000580:    58005900    .Y.X    LDR      x0,{pc}+0xb20 ; 0x10a0 ; [0x10a0] = 
        0x00000584:    b9400007    ..@.    LDR      w7,[x0,#0]
        0x00000588:    0a0700c7    ....    AND      w7,w6,w7
        0x0000058c:    6b0700df    ...k    CMP      w6,w7
        0x00000590:    54fffda1    ...T    B.NE     0x544 ; __ddr_init_bsc + 1188
        0x00000594:    580053a0    .S.X    LDR      x0,{pc}+0xa74 ; 0x1008 ; [0x1008] = 
        0x00000598:    18005880    .X..    LDR      w0,{pc}+0xb10 ; 0x10a8 ; [0x10a8] = 0x8840000
        0x0000059c:    580058a1    .X.X    LDR      x1,{pc}+0xb14 ; 0x10b0 ; [0x10b0] = 
        0x000005a0:    b9000020     ...    STR      w0,[x1,#0]
        0x000005a4:    180058a0    .X..    LDR      w0,{pc}+0xb14 ; 0x10b8 ; [0x10b8] = 0x8840001
        0x000005a8:    58005841    AX.X    LDR      x1,{pc}+0xb08 ; 0x10b0 ; [0x10b0] = 
        0x000005ac:    b9000020     ...    STR      w0,[x1,#0]
        0x000005b0:    18005860    `X..    LDR      w0,{pc}+0xb0c ; 0x10bc ; [0x10bc] = 0x1840001
        0x000005b4:    580057e1    .W.X    LDR      x1,{pc}+0xafc ; 0x10b0 ; [0x10b0] = 
        0x000005b8:    b9000020     ...    STR      w0,[x1,#0]
        0x000005bc:    18005820     X..    LDR      w0,{pc}+0xb04 ; 0x10c0 ; [0x10c0] = 0xe840aff
        0x000005c0:    58005781    .W.X    LDR      x1,{pc}+0xaf0 ; 0x10b0 ; [0x10b0] = 
        0x000005c4:    b9000020     ...    STR      w0,[x1,#0]
        0x000005c8:    180057e0    .W..    LDR      w0,{pc}+0xafc ; 0x10c4 ; [0x10c4] = 0xe840154
        0x000005cc:    58005721    !W.X    LDR      x1,{pc}+0xae4 ; 0x10b0 ; [0x10b0] = 
        0x000005d0:    b9000020     ...    STR      w0,[x1,#0]
        0x000005d4:    180057a0    .W..    LDR      w0,{pc}+0xaf4 ; 0x10c8 ; [0x10c8] = 0xe84022e
        0x000005d8:    580056c1    .V.X    LDR      x1,{pc}+0xad8 ; 0x10b0 ; [0x10b0] = 
        0x000005dc:    b9000020     ...    STR      w0,[x1,#0]
        0x000005e0:    18005760    `W..    LDR      w0,{pc}+0xaec ; 0x10cc ; [0x10cc] = 0xd84004f
        0x000005e4:    58005661    aV.X    LDR      x1,{pc}+0xacc ; 0x10b0 ; [0x10b0] = 
        0x000005e8:    b9000020     ...    STR      w0,[x1,#0]
        0x000005ec:    18005720     W..    LDR      w0,{pc}+0xae4 ; 0x10d0 ; [0x10d0] = 0xd840051
        0x000005f0:    58005601    .V.X    LDR      x1,{pc}+0xac0 ; 0x10b0 ; [0x10b0] = 
        0x000005f4:    b9000020     ...    STR      w0,[x1,#0]
        0x000005f8:    180056e0    .V..    LDR      w0,{pc}+0xadc ; 0x10d4 ; [0x10d4] = 0x70000100
        0x000005fc:    580056e1    .V.X    LDR      x1,{pc}+0xadc ; 0x10d8 ; [0x10d8] = 
        0x00000600:    b9000020     ...    STR      w0,[x1,#0]
        0x00000604:    180056e0    .V..    LDR      w0,{pc}+0xadc ; 0x10e0 ; [0x10e0] = 0x18010001
        0x00000608:    58005701    .W.X    LDR      x1,{pc}+0xae0 ; 0x10e8 ; [0x10e8] = 
        0x0000060c:    b9000020     ...    STR      w0,[x1,#0]
        0x00000610:    18005700    .W..    LDR      w0,{pc}+0xae0 ; 0x10f0 ; [0x10f0] = 0x81860
        0x00000614:    58005721    !W.X    LDR      x1,{pc}+0xae4 ; 0x10f8 ; [0x10f8] = 
        0x00000618:    b9000020     ...    STR      w0,[x1,#0]
        0x0000061c:    18005720     W..    LDR      w0,{pc}+0xae4 ; 0x1100 ; [0x1100] = 0x10000
        0x00000620:    58005741    AW.X    LDR      x1,{pc}+0xae8 ; 0x1108 ; [0x1108] = 
        0x00000624:    b9000020     ...    STR      w0,[x1,#0]
        0x00000628:    180034c0    .4..    LDR      w0,{pc}+0x698 ; 0xcc0 ; [0xcc0] = 0x1
        0x0000062c:    58005721    !W.X    LDR      x1,{pc}+0xae4 ; 0x1110 ; [0x1110] = 
        0x00000630:    b9000020     ...    STR      w0,[x1,#0]
        0x00000634:    18005720     W..    LDR      w0,{pc}+0xae4 ; 0x1118 ; [0x1118] = 0xa55a
        0x00000638:    58005741    AW.X    LDR      x1,{pc}+0xae8 ; 0x1120 ; [0x1120] = 
        0x0000063c:    b9000020     ...    STR      w0,[x1,#0]
        0x00000640:    180056c0    .V..    LDR      w0,{pc}+0xad8 ; 0x1118 ; [0x1118] = 0xa55a
        0x00000644:    58005721    !W.X    LDR      x1,{pc}+0xae4 ; 0x1128 ; [0x1128] = 
        0x00000648:    b9000020     ...    STR      w0,[x1,#0]
        0x0000064c:    18005660    `V..    LDR      w0,{pc}+0xacc ; 0x1118 ; [0x1118] = 0xa55a
        0x00000650:    58005701    .W.X    LDR      x1,{pc}+0xae0 ; 0x1130 ; [0x1130] = 
        0x00000654:    b9000020     ...    STR      w0,[x1,#0]
        0x00000658:    18005600    .V..    LDR      w0,{pc}+0xac0 ; 0x1118 ; [0x1118] = 0xa55a
        0x0000065c:    580056e1    .V.X    LDR      x1,{pc}+0xadc ; 0x1138 ; [0x1138] = 
        0x00000660:    b9000020     ...    STR      w0,[x1,#0]
        0x00000664:    180032e0    .2..    LDR      w0,{pc}+0x65c ; 0xcc0 ; [0xcc0] = 0x1
        0x00000668:    580056c1    .V.X    LDR      x1,{pc}+0xad8 ; 0x1140 ; [0x1140] = 
        0x0000066c:    b9000020     ...    STR      w0,[x1,#0]
        0x00000670:    18003280    .2..    LDR      w0,{pc}+0x650 ; 0xcc0 ; [0xcc0] = 0x1
        0x00000674:    580056a1    .V.X    LDR      x1,{pc}+0xad4 ; 0x1148 ; [0x1148] = 
        0x00000678:    b9000020     ...    STR      w0,[x1,#0]
        0x0000067c:    180031a0    .1..    LDR      w0,{pc}+0x634 ; 0xcb0 ; [0xcb0] = 0
        0x00000680:    58005681    .V.X    LDR      x1,{pc}+0xad0 ; 0x1150 ; [0x1150] = 
        0x00000684:    b9000020     ...    STR      w0,[x1,#0]
        0x00000688:    18002d80    .-..    LDR      w0,{pc}+0x5b0 ; 0xc38 ; [0xc38] = 0x1234
        0x0000068c:    58005661    aV.X    LDR      x1,{pc}+0xacc ; 0x1158 ; [0x1158] = 
        0x00000690:    b9000020     ...    STR      w0,[x1,#0]
        0x00000694:    18002d20     -..    LDR      w0,{pc}+0x5a4 ; 0xc38 ; [0xc38] = 0x1234
        0x00000698:    58005641    AV.X    LDR      x1,{pc}+0xac8 ; 0x1160 ; [0x1160] = 
        0x0000069c:    b9000020     ...    STR      w0,[x1,#0]
        0x000006a0:    18002d80    .-..    LDR      w0,{pc}+0x5b0 ; 0xc50 ; [0xc50] = 0xa
        0x000006a4:    58005621    !V.X    LDR      x1,{pc}+0xac4 ; 0x1168 ; [0x1168] = 
        0x000006a8:    b9000020     ...    STR      w0,[x1,#0]
        0x000006ac:    18002d20     -..    LDR      w0,{pc}+0x5a4 ; 0xc50 ; [0xc50] = 0xa
        0x000006b0:    58005601    .V.X    LDR      x1,{pc}+0xac0 ; 0x1170 ; [0x1170] = 
        0x000006b4:    b9000020     ...    STR      w0,[x1,#0]
        0x000006b8:    18002d80    .-..    LDR      w0,{pc}+0x5b0 ; 0xc68 ; [0xc68] = 0xe030a01
        0x000006bc:    580055e1    .U.X    LDR      x1,{pc}+0xabc ; 0x1178 ; [0x1178] = 
        0x000006c0:    b9000020     ...    STR      w0,[x1,#0]
        0x000006c4:    18002d20     -..    LDR      w0,{pc}+0x5a4 ; 0xc68 ; [0xc68] = 0xe030a01
        0x000006c8:    580055c1    .U.X    LDR      x1,{pc}+0xab8 ; 0x1180 ; [0x1180] = 
        0x000006cc:    b9000020     ...    STR      w0,[x1,#0]
        0x000006d0:    18002cc0    .,..    LDR      w0,{pc}+0x598 ; 0xc68 ; [0xc68] = 0xe030a01
        0x000006d4:    580055a1    .U.X    LDR      x1,{pc}+0xab4 ; 0x1188 ; [0x1188] = 
        0x000006d8:    b9000020     ...    STR      w0,[x1,#0]
        0x000006dc:    18002c60    `,..    LDR      w0,{pc}+0x58c ; 0xc68 ; [0xc68] = 0xe030a01
        0x000006e0:    58005581    .U.X    LDR      x1,{pc}+0xab0 ; 0x1190 ; [0x1190] = 
        0x000006e4:    b9000020     ...    STR      w0,[x1,#0]
        0x000006e8:    18002c00    .,..    LDR      w0,{pc}+0x580 ; 0xc68 ; [0xc68] = 0xe030a01
        0x000006ec:    58005561    aU.X    LDR      x1,{pc}+0xaac ; 0x1198 ; [0x1198] = 
        0x000006f0:    b9000020     ...    STR      w0,[x1,#0]
        0x000006f4:    18002ba0    .+..    LDR      w0,{pc}+0x574 ; 0xc68 ; [0xc68] = 0xe030a01
        0x000006f8:    58005541    AU.X    LDR      x1,{pc}+0xaa8 ; 0x11a0 ; [0x11a0] = 
        0x000006fc:    b9000020     ...    STR      w0,[x1,#0]
        0x00000700:    18002b40    @+..    LDR      w0,{pc}+0x568 ; 0xc68 ; [0xc68] = 0xe030a01
        0x00000704:    58005521    !U.X    LDR      x1,{pc}+0xaa4 ; 0x11a8 ; [0x11a8] = 
        0x00000708:    b9000020     ...    STR      w0,[x1,#0]
        0x0000070c:    18002ae0    .*..    LDR      w0,{pc}+0x55c ; 0xc68 ; [0xc68] = 0xe030a01
        0x00000710:    58005501    .U.X    LDR      x1,{pc}+0xaa0 ; 0x11b0 ; [0x11b0] = 
        0x00000714:    b9000020     ...    STR      w0,[x1,#0]
        0x00000718:    18002cc0    .,..    LDR      w0,{pc}+0x598 ; 0xcb0 ; [0xcb0] = 0
        0x0000071c:    580054e1    .T.X    LDR      x1,{pc}+0xa9c ; 0x11b8 ; [0x11b8] = 
        0x00000720:    b9000020     ...    STR      w0,[x1,#0]
        0x00000724:    18002ce0    .,..    LDR      w0,{pc}+0x59c ; 0xcc0 ; [0xcc0] = 0x1
        0x00000728:    580054c1    .T.X    LDR      x1,{pc}+0xa98 ; 0x11c0 ; [0x11c0] = 
        0x0000072c:    b9000020     ...    STR      w0,[x1,#0]
        0x00000730:    18002d00    .-..    LDR      w0,{pc}+0x5a0 ; 0xcd0 ; [0xcd0] = 0x28
        0x00000734:    580054a1    .T.X    LDR      x1,{pc}+0xa94 ; 0x11c8 ; [0x11c8] = 
        0x00000738:    b9000020     ...    STR      w0,[x1,#0]
        0x0000073c:    18002d20     -..    LDR      w0,{pc}+0x5a4 ; 0xce0 ; [0xce0] = 0x12
        0x00000740:    58005481    .T.X    LDR      x1,{pc}+0xa90 ; 0x11d0 ; [0x11d0] = 
        0x00000744:    b9000020     ...    STR      w0,[x1,#0]
        0x00000748:    18002d40    @-..    LDR      w0,{pc}+0x5a8 ; 0xcf0 ; [0xcf0] = 0x27
        0x0000074c:    58005461    aT.X    LDR      x1,{pc}+0xa8c ; 0x11d8 ; [0x11d8] = 
        0x00000750:    b9000020     ...    STR      w0,[x1,#0]
        0x00000754:    18002d60    `-..    LDR      w0,{pc}+0x5ac ; 0xd00 ; [0xd00] = 0x2d0027
        0x00000758:    58005441    AT.X    LDR      x1,{pc}+0xa88 ; 0x11e0 ; [0x11e0] = 
        0x0000075c:    b9000020     ...    STR      w0,[x1,#0]
        0x00000760:    18002d80    .-..    LDR      w0,{pc}+0x5b0 ; 0xd10 ; [0xd10] = 0x87
        0x00000764:    58005421    !T.X    LDR      x1,{pc}+0xa84 ; 0x11e8 ; [0x11e8] = 
        0x00000768:    b9000020     ...    STR      w0,[x1,#0]
        0x0000076c:    18002da0    .-..    LDR      w0,{pc}+0x5b4 ; 0xd20 ; [0xd20] = 0x5a
        0x00000770:    58005401    .T.X    LDR      x1,{pc}+0xa80 ; 0x11f0 ; [0x11f0] = 
        0x00000774:    b9000020     ...    STR      w0,[x1,#0]
        0x00000778:    18002dc0    .-..    LDR      w0,{pc}+0x5b8 ; 0xd30 ; [0xd30] = 0x100010
        0x0000077c:    580053e1    .S.X    LDR      x1,{pc}+0xa7c ; 0x11f8 ; [0x11f8] = 
        0x00000780:    b9000020     ...    STR      w0,[x1,#0]
        0x00000784:    18002de0    .-..    LDR      w0,{pc}+0x5bc ; 0xd40 ; [0xd40] = 0x40
        0x00000788:    580053c1    .S.X    LDR      x1,{pc}+0xa78 ; 0x1200 ; [0x1200] = 
        0x0000078c:    b9000020     ...    STR      w0,[x1,#0]
        0x00000790:    18002480    .$..    LDR      w0,{pc}+0x490 ; 0xc20 ; [0xc20] = 0x10
        0x00000794:    580053a1    .S.X    LDR      x1,{pc}+0xa74 ; 0x1208 ; [0x1208] = 
        0x00000798:    b9000020     ...    STR      w0,[x1,#0]
        0x0000079c:    18002de0    .-..    LDR      w0,{pc}+0x5bc ; 0xd58 ; [0xd58] = 0x29
        0x000007a0:    58005381    .S.X    LDR      x1,{pc}+0xa70 ; 0x1210 ; [0x1210] = 
        0x000007a4:    b9000020     ...    STR      w0,[x1,#0]
        0x000007a8:    18002d80    .-..    LDR      w0,{pc}+0x5b0 ; 0xd58 ; [0xd58] = 0x29
        0x000007ac:    58005361    aS.X    LDR      x1,{pc}+0xa6c ; 0x1218 ; [0x1218] = 
        0x000007b0:    b9000020     ...    STR      w0,[x1,#0]
        0x000007b4:    18002de0    .-..    LDR      w0,{pc}+0x5bc ; 0xd70 ; [0xd70] = 0x310031
        0x000007b8:    58005341    AS.X    LDR      x1,{pc}+0xa68 ; 0x1220 ; [0x1220] = 
        0x000007bc:    b9000020     ...    STR      w0,[x1,#0]
        0x000007c0:    18002e00    ....    LDR      w0,{pc}+0x5c0 ; 0xd80 ; [0xd80] = 0x116
        0x000007c4:    58005321    !S.X    LDR      x1,{pc}+0xa64 ; 0x1228 ; [0x1228] = 
        0x000007c8:    b9000020     ...    STR      w0,[x1,#0]
        0x000007cc:    18002e20     ...    LDR      w0,{pc}+0x5c4 ; 0xd90 ; [0xd90] = 0x130013
        0x000007d0:    58005301    .S.X    LDR      x1,{pc}+0xa60 ; 0x1230 ; [0x1230] = 
        0x000007d4:    b9000020     ...    STR      w0,[x1,#0]
        0x000007d8:    18002e40    @...    LDR      w0,{pc}+0x5c8 ; 0xda0 ; [0xda0] = 0x200010
        0x000007dc:    580052e1    .R.X    LDR      x1,{pc}+0xa5c ; 0x1238 ; [0x1238] = 
        0x000007e0:    b9000020     ...    STR      w0,[x1,#0]
        0x000007e4:    18002e60    `...    LDR      w0,{pc}+0x5cc ; 0xdb0 ; [0xdb0] = 0xd400a0e
        0x000007e8:    580052c1    .R.X    LDR      x1,{pc}+0xa58 ; 0x1240 ; [0x1240] = 
        0x000007ec:    b9000020     ...    STR      w0,[x1,#0]
        0x000007f0:    18002e80    ....    LDR      w0,{pc}+0x5d0 ; 0xdc0 ; [0xdc0] = 0x81e0000
        0x000007f4:    580052a1    .R.X    LDR      x1,{pc}+0xa54 ; 0x1248 ; [0x1248] = 
        0x000007f8:    b9000020     ...    STR      w0,[x1,#0]
        0x000007fc:    18002ea0    ....    LDR      w0,{pc}+0x5d4 ; 0xdd0 ; [0xdd0] = 0x1290129
        0x00000800:    58005281    .R.X    LDR      x1,{pc}+0xa50 ; 0x1250 ; [0x1250] = 
        0x00000804:    b9000020     ...    STR      w0,[x1,#0]
        0x00000808:    18002ec0    ....    LDR      w0,{pc}+0x5d8 ; 0xde0 ; [0xde0] = 0x80008
        0x0000080c:    58005261    aR.X    LDR      x1,{pc}+0xa4c ; 0x1258 ; [0x1258] = 
        0x00000810:    b9000020     ...    STR      w0,[x1,#0]
        0x00000814:    18002ee0    ....    LDR      w0,{pc}+0x5dc ; 0xdf0 ; [0xdf0] = 0x8550040
        0x00000818:    58005241    AR.X    LDR      x1,{pc}+0xa48 ; 0x1260 ; [0x1260] = 
        0x0000081c:    b9000020     ...    STR      w0,[x1,#0]
        0x00000820:    18002f00    ./..    LDR      w0,{pc}+0x5e0 ; 0xe00 ; [0xe00] = 0x3
        0x00000824:    58005221    !R.X    LDR      x1,{pc}+0xa44 ; 0x1268 ; [0x1268] = 
        0x00000828:    b9000020     ...    STR      w0,[x1,#0]
        0x0000082c:    18002f20     /..    LDR      w0,{pc}+0x5e4 ; 0xe10 ; [0xe10] = 0x2
        0x00000830:    58005201    .R.X    LDR      x1,{pc}+0xa40 ; 0x1270 ; [0x1270] = 
        0x00000834:    b9000020     ...    STR      w0,[x1,#0]
        0x00000838:    18002ec0    ....    LDR      w0,{pc}+0x5d8 ; 0xe10 ; [0xe10] = 0x2
        0x0000083c:    580051e1    .Q.X    LDR      x1,{pc}+0xa3c ; 0x1278 ; [0x1278] = 
        0x00000840:    b9000020     ...    STR      w0,[x1,#0]
        0x00000844:    18002f20     /..    LDR      w0,{pc}+0x5e4 ; 0xe28 ; [0xe28] = 0x4444
        0x00000848:    580051c1    .Q.X    LDR      x1,{pc}+0xa38 ; 0x1280 ; [0x1280] = 
        0x0000084c:    b9000020     ...    STR      w0,[x1,#0]
        0x00000850:    18002ec0    ....    LDR      w0,{pc}+0x5d8 ; 0xe28 ; [0xe28] = 0x4444
        0x00000854:    580051a1    .Q.X    LDR      x1,{pc}+0xa34 ; 0x1288 ; [0x1288] = 
        0x00000858:    b9000020     ...    STR      w0,[x1,#0]
        0x0000085c:    18002e60    `...    LDR      w0,{pc}+0x5cc ; 0xe28 ; [0xe28] = 0x4444
        0x00000860:    58005181    .Q.X    LDR      x1,{pc}+0xa30 ; 0x1290 ; [0x1290] = 
        0x00000864:    b9000020     ...    STR      w0,[x1,#0]
        0x00000868:    18002e00    ....    LDR      w0,{pc}+0x5c0 ; 0xe28 ; [0xe28] = 0x4444
        0x0000086c:    58005161    aQ.X    LDR      x1,{pc}+0xa2c ; 0x1298 ; [0x1298] = 
        0x00000870:    b9000020     ...    STR      w0,[x1,#0]
        0x00000874:    18002ee0    ....    LDR      w0,{pc}+0x5dc ; 0xe50 ; [0xe50] = 0x104214
        0x00000878:    58005141    AQ.X    LDR      x1,{pc}+0xa28 ; 0x12a0 ; [0x12a0] = 
        0x0000087c:    b9000020     ...    STR      w0,[x1,#0]
        0x00000880:    18002f00    ./..    LDR      w0,{pc}+0x5e0 ; 0xe60 ; [0xe60] = 0x1c4
        0x00000884:    58005121    !Q.X    LDR      x1,{pc}+0xa24 ; 0x12a8 ; [0x12a8] = 
        0x00000888:    b9000020     ...    STR      w0,[x1,#0]
        0x0000088c:    18002ba0    .+..    LDR      w0,{pc}+0x574 ; 0xe00 ; [0xe00] = 0x3
        0x00000890:    58005101    .Q.X    LDR      x1,{pc}+0xa20 ; 0x12b0 ; [0x12b0] = 
        0x00000894:    b9000020     ...    STR      w0,[x1,#0]
        0x00000898:    18002f00    ./..    LDR      w0,{pc}+0x5e0 ; 0xe78 ; [0xe78] = 0xf0037
        0x0000089c:    580050e1    .P.X    LDR      x1,{pc}+0xa1c ; 0x12b8 ; [0x12b8] = 
        0x000008a0:    b9000020     ...    STR      w0,[x1,#0]
        0x000008a4:    18002f20     /..    LDR      w0,{pc}+0x5e4 ; 0xe88 ; [0xe88] = 0x1010
        0x000008a8:    580050c1    .P.X    LDR      x1,{pc}+0xa18 ; 0x12c0 ; [0x12c0] = 
        0x000008ac:    b9000020     ...    STR      w0,[x1,#0]
        0x000008b0:    18002080    . ..    LDR      w0,{pc}+0x410 ; 0xcc0 ; [0xcc0] = 0x1
        0x000008b4:    580050a1    .P.X    LDR      x1,{pc}+0xa14 ; 0x12c8 ; [0x12c8] = 
        0x000008b8:    b9000020     ...    STR      w0,[x1,#0]
        0x000008bc:    18002f20     /..    LDR      w0,{pc}+0x5e4 ; 0xea0 ; [0xea0] = 0xf7311111
        0x000008c0:    58005081    .P.X    LDR      x1,{pc}+0xa10 ; 0x12d0 ; [0x12d0] = 
        0x000008c4:    b9000020     ...    STR      w0,[x1,#0]
        0x000008c8:    18002f40    @/..    LDR      w0,{pc}+0x5e8 ; 0xeb0 ; [0xeb0] = 0x1834
        0x000008cc:    58005061    aP.X    LDR      x1,{pc}+0xa0c ; 0x12d8 ; [0x12d8] = 
        0x000008d0:    b9000020     ...    STR      w0,[x1,#0]
        0x000008d4:    18002f60    `/..    LDR      w0,{pc}+0x5ec ; 0xec0 ; [0xec0] = 0xffffffff
        0x000008d8:    58005041    AP.X    LDR      x1,{pc}+0xa08 ; 0x12e0 ; [0x12e0] = 
        0x000008dc:    b9000020     ...    STR      w0,[x1,#0]
        0x000008e0:    18002f80    ./..    LDR      w0,{pc}+0x5f0 ; 0xed0 ; [0xed0] = 0x480
        0x000008e4:    58005021    !P.X    LDR      x1,{pc}+0xa04 ; 0x12e8 ; [0x12e8] = 
        0x000008e8:    b9000020     ...    STR      w0,[x1,#0]
        0x000008ec:    18002fa0    ./..    LDR      w0,{pc}+0x5f4 ; 0xee0 ; [0xee0] = 0x300
        0x000008f0:    58005001    .P.X    LDR      x1,{pc}+0xa00 ; 0x12f0 ; [0x12f0] = 
        0x000008f4:    b9000020     ...    STR      w0,[x1,#0]
        0x000008f8:    18002fc0    ./..    LDR      w0,{pc}+0x5f8 ; 0xef0 ; [0xef0] = 0x180
        0x000008fc:    58004fe1    .O.X    LDR      x1,{pc}+0x9fc ; 0x12f8 ; [0x12f8] = 
        0x00000900:    b9000020     ...    STR      w0,[x1,#0]
        0x00000904:    18002fe0    ./..    LDR      w0,{pc}+0x5fc ; 0xf00 ; [0xf00] = 0x600
        0x00000908:    58004fc1    .O.X    LDR      x1,{pc}+0x9f8 ; 0x1300 ; [0x1300] = 
        0x0000090c:    b9000020     ...    STR      w0,[x1,#0]
        0x00000910:    18002e00    ....    LDR      w0,{pc}+0x5c0 ; 0xed0 ; [0xed0] = 0x480
        0x00000914:    58004fa1    .O.X    LDR      x1,{pc}+0x9f4 ; 0x1308 ; [0x1308] = 
        0x00000918:    b9000020     ...    STR      w0,[x1,#0]
        0x0000091c:    18002e20     ...    LDR      w0,{pc}+0x5c4 ; 0xee0 ; [0xee0] = 0x300
        0x00000920:    58004f81    .O.X    LDR      x1,{pc}+0x9f0 ; 0x1310 ; [0x1310] = 
        0x00000924:    b9000020     ...    STR      w0,[x1,#0]
        0x00000928:    18002e40    @...    LDR      w0,{pc}+0x5c8 ; 0xef0 ; [0xef0] = 0x180
        0x0000092c:    58004f61    aO.X    LDR      x1,{pc}+0x9ec ; 0x1318 ; [0x1318] = 
        0x00000930:    b9000020     ...    STR      w0,[x1,#0]
        0x00000934:    18002fa0    ./..    LDR      w0,{pc}+0x5f4 ; 0xf28 ; [0xf28] = 0x400
        0x00000938:    58004f41    AO.X    LDR      x1,{pc}+0x9e8 ; 0x1320 ; [0x1320] = 
        0x0000093c:    b9000020     ...    STR      w0,[x1,#0]
        0x00000940:    18002d00    .-..    LDR      w0,{pc}+0x5a0 ; 0xee0 ; [0xee0] = 0x300
        0x00000944:    58004f21    !O.X    LDR      x1,{pc}+0x9e4 ; 0x1328 ; [0x1328] = 
        0x00000948:    b9000020     ...    STR      w0,[x1,#0]
        0x0000094c:    18002fa0    ./..    LDR      w0,{pc}+0x5f4 ; 0xf40 ; [0xf40] = 0x200
        0x00000950:    58004f01    .O.X    LDR      x1,{pc}+0x9e0 ; 0x1330 ; [0x1330] = 
        0x00000954:    b9000020     ...    STR      w0,[x1,#0]
        0x00000958:    18002fc0    ./..    LDR      w0,{pc}+0x5f8 ; 0xf50 ; [0xf50] = 0x100
        0x0000095c:    58004ee1    .N.X    LDR      x1,{pc}+0x9dc ; 0x1338 ; [0x1338] = 
        0x00000960:    b9000020     ...    STR      w0,[x1,#0]
        0x00000964:    18002be0    .+..    LDR      w0,{pc}+0x57c ; 0xee0 ; [0xee0] = 0x300
        0x00000968:    58004ec1    .N.X    LDR      x1,{pc}+0x9d8 ; 0x1340 ; [0x1340] = 
        0x0000096c:    b9000020     ...    STR      w0,[x1,#0]
        0x00000970:    18002fc0    ./..    LDR      w0,{pc}+0x5f8 ; 0xf68 ; [0xf68] = 0x240
        0x00000974:    58004ea1    .N.X    LDR      x1,{pc}+0x9d4 ; 0x1348 ; [0x1348] = 
        0x00000978:    b9000020     ...    STR      w0,[x1,#0]
        0x0000097c:    18002ba0    .+..    LDR      w0,{pc}+0x574 ; 0xef0 ; [0xef0] = 0x180
        0x00000980:    58004e81    .N.X    LDR      x1,{pc}+0x9d0 ; 0x1350 ; [0x1350] = 
        0x00000984:    b9000020     ...    STR      w0,[x1,#0]
        0x00000988:    18002fc0    ./..    LDR      w0,{pc}+0x5f8 ; 0xf80 ; [0xf80] = 0xc0
        0x0000098c:    58004e61    aN.X    LDR      x1,{pc}+0x9cc ; 0x1358 ; [0x1358] = 
        0x00000990:    b9000020     ...    STR      w0,[x1,#0]
        0x00000994:    18002d60    `-..    LDR      w0,{pc}+0x5ac ; 0xf40 ; [0xf40] = 0x200
        0x00000998:    58004e41    AN.X    LDR      x1,{pc}+0x9c8 ; 0x1360 ; [0x1360] = 
        0x0000099c:    b9000020     ...    STR      w0,[x1,#0]
        0x000009a0:    18002a80    .*..    LDR      w0,{pc}+0x550 ; 0xef0 ; [0xef0] = 0x180
        0x000009a4:    58004e21    !N.X    LDR      x1,{pc}+0x9c4 ; 0x1368 ; [0x1368] = 
        0x000009a8:    b9000020     ...    STR      w0,[x1,#0]
        0x000009ac:    18002d20     -..    LDR      w0,{pc}+0x5a4 ; 0xf50 ; [0xf50] = 0x100
        0x000009b0:    58004e01    .N.X    LDR      x1,{pc}+0x9c0 ; 0x1370 ; [0x1370] = 
        0x000009b4:    b9000020     ...    STR      w0,[x1,#0]
        0x000009b8:    18002f80    ./..    LDR      w0,{pc}+0x5f0 ; 0xfa8 ; [0xfa8] = 0x80
        0x000009bc:    58004de1    .M.X    LDR      x1,{pc}+0x9bc ; 0x1378 ; [0x1378] = 
        0x000009c0:    b9000020     ...    STR      w0,[x1,#0]
        0x000009c4:    18002c60    `,..    LDR      w0,{pc}+0x58c ; 0xf50 ; [0xf50] = 0x100
        0x000009c8:    58004dc1    .M.X    LDR      x1,{pc}+0x9b8 ; 0x1380 ; [0x1380] = 
        0x000009cc:    b9000020     ...    STR      w0,[x1,#0]
        0x000009d0:    18002d80    .-..    LDR      w0,{pc}+0x5b0 ; 0xf80 ; [0xf80] = 0xc0
        0x000009d4:    58004da1    .M.X    LDR      x1,{pc}+0x9b4 ; 0x1388 ; [0x1388] = 
        0x000009d8:    b9000020     ...    STR      w0,[x1,#0]
        0x000009dc:    18002e60    `...    LDR      w0,{pc}+0x5cc ; 0xfa8 ; [0xfa8] = 0x80
        0x000009e0:    58004d81    .M.X    LDR      x1,{pc}+0x9b0 ; 0x1390 ; [0x1390] = 
        0x000009e4:    b9000020     ...    STR      w0,[x1,#0]
        0x000009e8:    18001ac0    ....    LDR      w0,{pc}+0x358 ; 0xd40 ; [0xd40] = 0x40
        0x000009ec:    58004d61    aM.X    LDR      x1,{pc}+0x9ac ; 0x1398 ; [0x1398] = 
        0x000009f0:    b9000020     ...    STR      w0,[x1,#0]
        0x000009f4:    18002f20     /..    LDR      w0,{pc}+0x5e4 ; 0xfd8 ; [0xfd8] = 0x220e110a
        0x000009f8:    58004d41    AM.X    LDR      x1,{pc}+0x9a8 ; 0x13a0 ; [0x13a0] = 
        0x000009fc:    b9000020     ...    STR      w0,[x1,#0]
        0x00000a00:    18002f40    @/..    LDR      w0,{pc}+0x5e8 ; 0xfe8 ; [0xfe8] = 0xb0d0a0c
        0x00000a04:    58004d21    !M.X    LDR      x1,{pc}+0x9a4 ; 0x13a8 ; [0x13a8] = 
        0x00000a08:    b9000020     ...    STR      w0,[x1,#0]
        0x00000a0c:    18002f60    `/..    LDR      w0,{pc}+0x5ec ; 0xff8 ; [0xff8] = 0x111f1fff
        0x00000a10:    58004d01    .M.X    LDR      x1,{pc}+0x9a0 ; 0x13b0 ; [0x13b0] = 
        0x00000a14:    b9000020     ...    STR      w0,[x1,#0]
        0x00000a18:    18001540    @...    LDR      w0,{pc}+0x2a8 ; 0xcc0 ; [0xcc0] = 0x1
        0x00000a1c:    58004ce1    .L.X    LDR      x1,{pc}+0x99c ; 0x13b8 ; [0x13b8] = 
        0x00000a20:    b9000020     ...    STR      w0,[x1,#0]
        0x00000a24:    18001f60    `...    LDR      w0,{pc}+0x3ec ; 0xe10 ; [0xe10] = 0x2
        0x00000a28:    58004cc1    .L.X    LDR      x1,{pc}+0x998 ; 0x13c0 ; [0x13c0] = 
        0x00000a2c:    b9000020     ...    STR      w0,[x1,#0]
        0x00000a30:    18001f00    ....    LDR      w0,{pc}+0x3e0 ; 0xe10 ; [0xe10] = 0x2
        0x00000a34:    58004ca1    .L.X    LDR      x1,{pc}+0x994 ; 0x13c8 ; [0x13c8] = 
        0x00000a38:    b9000020     ...    STR      w0,[x1,#0]
        0x00000a3c:    18001420     ...    LDR      w0,{pc}+0x284 ; 0xcc0 ; [0xcc0] = 0x1
        0x00000a40:    58004c81    .L.X    LDR      x1,{pc}+0x990 ; 0x13d0 ; [0x13d0] = 
        0x00000a44:    b9000020     ...    STR      w0,[x1,#0]
        0x00000a48:    18002f00    ./..    LDR      w0,{pc}+0x5e0 ; 0x1028 ; [0x1028] = 0x41
        0x00000a4c:    58004c61    aL.X    LDR      x1,{pc}+0x98c ; 0x13d8 ; [0x13d8] = 
        0x00000a50:    b9000020     ...    STR      w0,[x1,#0]
        0x00000a54:    18002f20     /..    LDR      w0,{pc}+0x5e4 ; 0x1038 ; [0x1038] = 0x11
        0x00000a58:    58004c41    AL.X    LDR      x1,{pc}+0x988 ; 0x13e0 ; [0x13e0] = 
        0x00000a5c:    b9000020     ...    STR      w0,[x1,#0]
        0x00000a60:    18002ec0    ....    LDR      w0,{pc}+0x5d8 ; 0x1038 ; [0x1038] = 0x11
        0x00000a64:    58004c21    !L.X    LDR      x1,{pc}+0x984 ; 0x13e8 ; [0x13e8] = 
        0x00000a68:    b9000020     ...    STR      w0,[x1,#0]
        0x00000a6c:    18002e60    `...    LDR      w0,{pc}+0x5cc ; 0x1038 ; [0x1038] = 0x11
        0x00000a70:    58004c01    .L.X    LDR      x1,{pc}+0x980 ; 0x13f0 ; [0x13f0] = 
        0x00000a74:    b9000020     ...    STR      w0,[x1,#0]
        0x00000a78:    18002e00    ....    LDR      w0,{pc}+0x5c0 ; 0x1038 ; [0x1038] = 0x11
        0x00000a7c:    58004be1    .K.X    LDR      x1,{pc}+0x97c ; 0x13f8 ; [0x13f8] = 
        0x00000a80:    b9000020     ...    STR      w0,[x1,#0]
        0x00000a84:    18002ee0    ....    LDR      w0,{pc}+0x5dc ; 0x1060 ; [0x1060] = 0xcf01
        0x00000a88:    58004bc1    .K.X    LDR      x1,{pc}+0x978 ; 0x1400 ; [0x1400] = 
        0x00000a8c:    b9000020     ...    STR      w0,[x1,#0]
        0x00000a90:    18002e80    ....    LDR      w0,{pc}+0x5d0 ; 0x1060 ; [0x1060] = 0xcf01
        0x00000a94:    58004ba1    .K.X    LDR      x1,{pc}+0x974 ; 0x1408 ; [0x1408] = 
        0x00000a98:    b9000020     ...    STR      w0,[x1,#0]
        0x00000a9c:    18002e20     ...    LDR      w0,{pc}+0x5c4 ; 0x1060 ; [0x1060] = 0xcf01
        0x00000aa0:    58004b81    .K.X    LDR      x1,{pc}+0x970 ; 0x1410 ; [0x1410] = 
        0x00000aa4:    b9000020     ...    STR      w0,[x1,#0]
        0x00000aa8:    18002dc0    .-..    LDR      w0,{pc}+0x5b8 ; 0x1060 ; [0x1060] = 0xcf01
        0x00000aac:    58004b61    aK.X    LDR      x1,{pc}+0x96c ; 0x1418 ; [0x1418] = 
        0x00000ab0:    b9000020     ...    STR      w0,[x1,#0]
        0x00000ab4:    18001066    f...    LDR      w6,{pc}+0x20c ; 0xcc0 ; [0xcc0] = 0x1
        0x00000ab8:    58004b40    @K.X    LDR      x0,{pc}+0x968 ; 0x1420 ; [0x1420] = 
        0x00000abc:    b9400007    ..@.    LDR      w7,[x0,#0]
        0x00000ac0:    0a0700c7    ....    AND      w7,w6,w7
        0x00000ac4:    6b0700df    ...k    CMP      w6,w7
        0x00000ac8:    54ffff81    ...T    B.NE     0xab8 ; __ddr_init_bsc + 2584
        0x00000acc:    58004ae0    .J.X    LDR      x0,{pc}+0x95c ; 0x1428 ; [0x1428] = 
        0x00000ad0:    b9400007    ..@.    LDR      w7,[x0,#0]
        0x00000ad4:    0a0700c7    ....    AND      w7,w6,w7
        0x00000ad8:    6b0700df    ...k    CMP      w6,w7
        0x00000adc:    54fffee1    ...T    B.NE     0xab8 ; __ddr_init_bsc + 2584
        0x00000ae0:    58004a80    .J.X    LDR      x0,{pc}+0x950 ; 0x1430 ; [0x1430] = 
        0x00000ae4:    b9400007    ..@.    LDR      w7,[x0,#0]
        0x00000ae8:    0a0700c7    ....    AND      w7,w6,w7
        0x00000aec:    6b0700df    ...k    CMP      w6,w7
        0x00000af0:    54fffe41    A..T    B.NE     0xab8 ; __ddr_init_bsc + 2584
        0x00000af4:    58004a20     J.X    LDR      x0,{pc}+0x944 ; 0x1438 ; [0x1438] = 
        0x00000af8:    b9400007    ..@.    LDR      w7,[x0,#0]
        0x00000afc:    0a0700c7    ....    AND      w7,w6,w7
        0x00000b00:    6b0700df    ...k    CMP      w6,w7
        0x00000b04:    54fffda1    ...T    B.NE     0xab8 ; __ddr_init_bsc + 2584
        0x00000b08:    58004580    .E.X    LDR      x0,{pc}+0x8b0 ; 0x13b8 ; [0x13b8] = 
        0x00000b0c:    18002ce0    .,..    LDR      w0,{pc}+0x59c ; 0x10a8 ; [0x10a8] = 0x8840000
        0x00000b10:    58004981    .I.X    LDR      x1,{pc}+0x930 ; 0x1440 ; [0x1440] = 
        0x00000b14:    b9000020     ...    STR      w0,[x1,#0]
        0x00000b18:    18002d00    .-..    LDR      w0,{pc}+0x5a0 ; 0x10b8 ; [0x10b8] = 0x8840001
        0x00000b1c:    58004921    !I.X    LDR      x1,{pc}+0x924 ; 0x1440 ; [0x1440] = 
        0x00000b20:    b9000020     ...    STR      w0,[x1,#0]
        0x00000b24:    18002cc0    .,..    LDR      w0,{pc}+0x598 ; 0x10bc ; [0x10bc] = 0x1840001
        0x00000b28:    580048c1    .H.X    LDR      x1,{pc}+0x918 ; 0x1440 ; [0x1440] = 
        0x00000b2c:    b9000020     ...    STR      w0,[x1,#0]
        0x00000b30:    18002c80    .,..    LDR      w0,{pc}+0x590 ; 0x10c0 ; [0x10c0] = 0xe840aff
        0x00000b34:    58004861    aH.X    LDR      x1,{pc}+0x90c ; 0x1440 ; [0x1440] = 
        0x00000b38:    b9000020     ...    STR      w0,[x1,#0]
        0x00000b3c:    18002c40    @,..    LDR      w0,{pc}+0x588 ; 0x10c4 ; [0x10c4] = 0xe840154
        0x00000b40:    58004801    .H.X    LDR      x1,{pc}+0x900 ; 0x1440 ; [0x1440] = 
        0x00000b44:    b9000020     ...    STR      w0,[x1,#0]
        0x00000b48:    18002c00    .,..    LDR      w0,{pc}+0x580 ; 0x10c8 ; [0x10c8] = 0xe84022e
        0x00000b4c:    580047a1    .G.X    LDR      x1,{pc}+0x8f4 ; 0x1440 ; [0x1440] = 
        0x00000b50:    b9000020     ...    STR      w0,[x1,#0]
        0x00000b54:    18002bc0    .+..    LDR      w0,{pc}+0x578 ; 0x10cc ; [0x10cc] = 0xd84004f
        0x00000b58:    58004741    AG.X    LDR      x1,{pc}+0x8e8 ; 0x1440 ; [0x1440] = 
        0x00000b5c:    b9000020     ...    STR      w0,[x1,#0]
        0x00000b60:    18002b80    .+..    LDR      w0,{pc}+0x570 ; 0x10d0 ; [0x10d0] = 0xd840051
        0x00000b64:    580046e1    .F.X    LDR      x1,{pc}+0x8dc ; 0x1440 ; [0x1440] = 
        0x00000b68:    b9000020     ...    STR      w0,[x1,#0]
        0x00000b6c:    18002b40    @+..    LDR      w0,{pc}+0x568 ; 0x10d4 ; [0x10d4] = 0x70000100
        0x00000b70:    580046c1    .F.X    LDR      x1,{pc}+0x8d8 ; 0x1448 ; [0x1448] = 
        0x00000b74:    b9000020     ...    STR      w0,[x1,#0]
        0x00000b78:    18002b40    @+..    LDR      w0,{pc}+0x568 ; 0x10e0 ; [0x10e0] = 0x18010001
        0x00000b7c:    580046a1    .F.X    LDR      x1,{pc}+0x8d4 ; 0x1450 ; [0x1450] = 
        0x00000b80:    b9000020     ...    STR      w0,[x1,#0]
        0x00000b84:    18002b60    `+..    LDR      w0,{pc}+0x56c ; 0x10f0 ; [0x10f0] = 0x81860
        0x00000b88:    58004681    .F.X    LDR      x1,{pc}+0x8d0 ; 0x1458 ; [0x1458] = 
        0x00000b8c:    b9000020     ...    STR      w0,[x1,#0]
        0x00000b90:    18002b80    .+..    LDR      w0,{pc}+0x570 ; 0x1100 ; [0x1100] = 0x10000
        0x00000b94:    58004661    aF.X    LDR      x1,{pc}+0x8cc ; 0x1460 ; [0x1460] = 
        0x00000b98:    b9000020     ...    STR      w0,[x1,#0]
        0x00000b9c:    18000920     ...    LDR      w0,{pc}+0x124 ; 0xcc0 ; [0xcc0] = 0x1
        0x00000ba0:    58004641    AF.X    LDR      x1,{pc}+0x8c8 ; 0x1468 ; [0x1468] = 
        0x00000ba4:    b9000020     ...    STR      w0,[x1,#0]
        0x00000ba8:    18002b80    .+..    LDR      w0,{pc}+0x570 ; 0x1118 ; [0x1118] = 0xa55a
        0x00000bac:    58004621    !F.X    LDR      x1,{pc}+0x8c4 ; 0x1470 ; [0x1470] = 
        0x00000bb0:    b9000020     ...    STR      w0,[x1,#0]
        0x00000bb4:    18002b20     +..    LDR      w0,{pc}+0x564 ; 0x1118 ; [0x1118] = 0xa55a
        0x00000bb8:    58004601    .F.X    LDR      x1,{pc}+0x8c0 ; 0x1478 ; [0x1478] = 
        0x00000bbc:    b9000020     ...    STR      w0,[x1,#0]
        0x00000bc0:    18002ac0    .*..    LDR      w0,{pc}+0x558 ; 0x1118 ; [0x1118] = 0xa55a
        0x00000bc4:    580045e1    .E.X    LDR      x1,{pc}+0x8bc ; 0x1480 ; [0x1480] = 
        0x00000bc8:    b9000020     ...    STR      w0,[x1,#0]
        0x00000bcc:    18002a60    `*..    LDR      w0,{pc}+0x54c ; 0x1118 ; [0x1118] = 0xa55a
        0x00000bd0:    580045c1    .E.X    LDR      x1,{pc}+0x8b8 ; 0x1488 ; [0x1488] = 
        0x00000bd4:    b9000020     ...    STR      w0,[x1,#0]
        0x00000bd8:    18000740    @...    LDR      w0,{pc}+0xe8 ; 0xcc0 ; [0xcc0] = 0x1
        0x00000bdc:    580045a1    .E.X    LDR      x1,{pc}+0x8b4 ; 0x1490 ; [0x1490] = 
        0x00000be0:    b9000020     ...    STR      w0,[x1,#0]
        0x00000be4:    180006e0    ....    LDR      w0,{pc}+0xdc ; 0xcc0 ; [0xcc0] = 0x1
        0x00000be8:    58002b01    .+.X    LDR      x1,{pc}+0x560 ; 0x1148 ; [0x1148] = 
        0x00000bec:    b9000020     ...    STR      w0,[x1,#0]
        0x00000bf0:    18000600    ....    LDR      w0,{pc}+0xc0 ; 0xcb0 ; [0xcb0] = 0
        0x00000bf4:    58002ae1    .*.X    LDR      x1,{pc}+0x55c ; 0x1150 ; [0x1150] = 
        0x00000bf8:    b9000020     ...    STR      w0,[x1,#0]
        0x00000bfc:    14000227    '...    B        $Ven$XX$L$$__ddr_init ; 0x1498
    $d
        0x00000c00:    e6152e10    ....    DCD    3860147728
        0x00000c04:    00000000    ....    DCD    0
        0x00000c08:    ffffffe7    ....    DCD    4294967271
        0x00000c0c:    00000000    ....    DCD    0
        0x00000c10:    e6150000    ....    DCD    3860135936
        0x00000c14:    00000000    ....    DCD    0
        0x00000c18:    e6152d10    .-..    DCD    3860147472
        0x00000c1c:    00000000    ....    DCD    0
        0x00000c20:    00000010    ....    DCD    16
        0x00000c24:    00000000    ....    DCD    0
        0x00000c28:    00003fff    .?..    DCD    16383
        0x00000c2c:    00000000    ....    DCD    0
        0x00000c30:    00008000    ....    DCD    32768
        0x00000c34:    00000000    ....    DCD    0
        0x00000c38:    00001234    4...    DCD    4660
        0x00000c3c:    00000000    ....    DCD    0
        0x00000c40:    e6790100    ..y.    DCD    3866689792
        0x00000c44:    00000000    ....    DCD    0
        0x00000c48:    e6790108    ..y.    DCD    3866689800
        0x00000c4c:    00000000    ....    DCD    0
        0x00000c50:    0000000a    ....    DCD    10
        0x00000c54:    00000000    ....    DCD    0
        0x00000c58:    e6790020     .y.    DCD    3866689568
        0x00000c5c:    00000000    ....    DCD    0
        0x00000c60:    e6790024    $.y.    DCD    3866689572
        0x00000c64:    00000000    ....    DCD    0
        0x00000c68:    0e030a01    ....    DCD    235080193
        0x00000c6c:    00000000    ....    DCD    0
        0x00000c70:    e6790030    0.y.    DCD    3866689584
        0x00000c74:    00000000    ....    DCD    0
        0x00000c78:    e6790070    p.y.    DCD    3866689648
        0x00000c7c:    00000000    ....    DCD    0
        0x00000c80:    e6790034    4.y.    DCD    3866689588
        0x00000c84:    00000000    ....    DCD    0
        0x00000c88:    e6790074    t.y.    DCD    3866689652
        0x00000c8c:    00000000    ....    DCD    0
        0x00000c90:    e6790040    @.y.    DCD    3866689600
        0x00000c94:    00000000    ....    DCD    0
        0x00000c98:    e6790080    ..y.    DCD    3866689664
        0x00000c9c:    00000000    ....    DCD    0
        0x00000ca0:    e6790044    D.y.    DCD    3866689604
        0x00000ca4:    00000000    ....    DCD    0
        0x00000ca8:    e6790084    ..y.    DCD    3866689668
        0x00000cac:    00000000    ....    DCD    0
        0x00000cb0:    00000000    ....    DCD    0
        0x00000cb4:    00000000    ....    DCD    0
        0x00000cb8:    e6790104    ..y.    DCD    3866689796
        0x00000cbc:    00000000    ....    DCD    0
        0x00000cc0:    00000001    ....    DCD    1
        0x00000cc4:    00000000    ....    DCD    0
        0x00000cc8:    e6790010    ..y.    DCD    3866689552
        0x00000ccc:    00000000    ....    DCD    0
        0x00000cd0:    00000028    (...    DCD    40
        0x00000cd4:    00000000    ....    DCD    0
        0x00000cd8:    e6790300    ..y.    DCD    3866690304
        0x00000cdc:    00000000    ....    DCD    0
        0x00000ce0:    00000012    ....    DCD    18
        0x00000ce4:    00000000    ....    DCD    0
        0x00000ce8:    e6790304    ..y.    DCD    3866690308
        0x00000cec:    00000000    ....    DCD    0
        0x00000cf0:    00000027    '...    DCD    39
        0x00000cf4:    00000000    ....    DCD    0
        0x00000cf8:    e679030c    ..y.    DCD    3866690316
        0x00000cfc:    00000000    ....    DCD    0
        0x00000d00:    002d0027    '.-.    DCD    2949159
        0x00000d04:    00000000    ....    DCD    0
        0x00000d08:    e6790310    ..y.    DCD    3866690320
        0x00000d0c:    00000000    ....    DCD    0
        0x00000d10:    00000087    ....    DCD    135
        0x00000d14:    00000000    ....    DCD    0
        0x00000d18:    e6790314    ..y.    DCD    3866690324
        0x00000d1c:    00000000    ....    DCD    0
        0x00000d20:    0000005a    Z...    DCD    90
        0x00000d24:    00000000    ....    DCD    0
        0x00000d28:    e6790318    ..y.    DCD    3866690328
        0x00000d2c:    00000000    ....    DCD    0
        0x00000d30:    00100010    ....    DCD    1048592
        0x00000d34:    00000000    ....    DCD    0
        0x00000d38:    e679031c    ..y.    DCD    3866690332
        0x00000d3c:    00000000    ....    DCD    0
        0x00000d40:    00000040    @...    DCD    64
        0x00000d44:    00000000    ....    DCD    0
        0x00000d48:    e6790320     .y.    DCD    3866690336
        0x00000d4c:    00000000    ....    DCD    0
        0x00000d50:    e6790324    $.y.    DCD    3866690340
        0x00000d54:    00000000    ....    DCD    0
        0x00000d58:    00000029    )...    DCD    41
        0x00000d5c:    00000000    ....    DCD    0
        0x00000d60:    e6790328    (.y.    DCD    3866690344
        0x00000d64:    00000000    ....    DCD    0
        0x00000d68:    e679032c    ,.y.    DCD    3866690348
        0x00000d6c:    00000000    ....    DCD    0
        0x00000d70:    00310031    1.1.    DCD    3211313
        0x00000d74:    00000000    ....    DCD    0
        0x00000d78:    e6790330    0.y.    DCD    3866690352
        0x00000d7c:    00000000    ....    DCD    0
        0x00000d80:    00000116    ....    DCD    278
        0x00000d84:    00000000    ....    DCD    0
        0x00000d88:    e6790334    4.y.    DCD    3866690356
        0x00000d8c:    00000000    ....    DCD    0
        0x00000d90:    00130013    ....    DCD    1245203
        0x00000d94:    00000000    ....    DCD    0
        0x00000d98:    e6790338    8.y.    DCD    3866690360
        0x00000d9c:    00000000    ....    DCD    0
        0x00000da0:    00200010    .. .    DCD    2097168
        0x00000da4:    00000000    ....    DCD    0
        0x00000da8:    e679033c    <.y.    DCD    3866690364
        0x00000dac:    00000000    ....    DCD    0
        0x00000db0:    0d400a0e    ..@.    DCD    222300686
        0x00000db4:    00000000    ....    DCD    0
        0x00000db8:    e6790340    @.y.    DCD    3866690368
        0x00000dbc:    00000000    ....    DCD    0
        0x00000dc0:    081e0000    ....    DCD    136183808
        0x00000dc4:    00000000    ....    DCD    0
        0x00000dc8:    e6790344    D.y.    DCD    3866690372
        0x00000dcc:    00000000    ....    DCD    0
        0x00000dd0:    01290129    ).).    DCD    19464489
        0x00000dd4:    00000000    ....    DCD    0
        0x00000dd8:    e6790350    P.y.    DCD    3866690384
        0x00000ddc:    00000000    ....    DCD    0
        0x00000de0:    00080008    ....    DCD    524296
        0x00000de4:    00000000    ....    DCD    0
        0x00000de8:    e6790354    T.y.    DCD    3866690388
        0x00000dec:    00000000    ....    DCD    0
        0x00000df0:    08550040    @.U.    DCD    139788352
        0x00000df4:    00000000    ....    DCD    0
        0x00000df8:    e6790358    X.y.    DCD    3866690392
        0x00000dfc:    00000000    ....    DCD    0
        0x00000e00:    00000003    ....    DCD    3
        0x00000e04:    00000000    ....    DCD    0
        0x00000e08:    e679035c    \.y.    DCD    3866690396
        0x00000e0c:    00000000    ....    DCD    0
        0x00000e10:    00000002    ....    DCD    2
        0x00000e14:    00000000    ....    DCD    0
        0x00000e18:    e6790400    ..y.    DCD    3866690560
        0x00000e1c:    00000000    ....    DCD    0
        0x00000e20:    e6790404    ..y.    DCD    3866690564
        0x00000e24:    00000000    ....    DCD    0
        0x00000e28:    00004444    DD..    DCD    17476
        0x00000e2c:    00000000    ....    DCD    0
        0x00000e30:    e6790438    8.y.    DCD    3866690616
        0x00000e34:    00000000    ....    DCD    0
        0x00000e38:    e679043c    <.y.    DCD    3866690620
        0x00000e3c:    00000000    ....    DCD    0
        0x00000e40:    e6790440    @.y.    DCD    3866690624
        0x00000e44:    00000000    ....    DCD    0
        0x00000e48:    e6790444    D.y.    DCD    3866690628
        0x00000e4c:    00000000    ....    DCD    0
        0x00000e50:    00104214    .B..    DCD    1065492
        0x00000e54:    00000000    ....    DCD    0
        0x00000e58:    e6790904    ..y.    DCD    3866691844
        0x00000e5c:    00000000    ....    DCD    0
        0x00000e60:    000001c4    ....    DCD    452
        0x00000e64:    00000000    ....    DCD    0
        0x00000e68:    e6790908    ..y.    DCD    3866691848
        0x00000e6c:    00000000    ....    DCD    0
        0x00000e70:    e679090c    ..y.    DCD    3866691852
        0x00000e74:    00000000    ....    DCD    0
        0x00000e78:    000f0037    7...    DCD    983095
        0x00000e7c:    00000000    ....    DCD    0
        0x00000e80:    e6791000    ..y.    DCD    3866693632
        0x00000e84:    00000000    ....    DCD    0
        0x00000e88:    00001010    ....    DCD    4112
        0x00000e8c:    00000000    ....    DCD    0
        0x00000e90:    e6791004    ..y.    DCD    3866693636
        0x00000e94:    00000000    ....    DCD    0
        0x00000e98:    e6791010    ..y.    DCD    3866693648
        0x00000e9c:    00000000    ....    DCD    0
        0x00000ea0:    f7311111    ..1.    DCD    4147187985
        0x00000ea4:    00000000    ....    DCD    0
        0x00000ea8:    e6791020     .y.    DCD    3866693664
        0x00000eac:    00000000    ....    DCD    0
        0x00000eb0:    00001834    4...    DCD    6196
        0x00000eb4:    00000000    ....    DCD    0
        0x00000eb8:    e6791024    $.y.    DCD    3866693668
        0x00000ebc:    00000000    ....    DCD    0
        0x00000ec0:    ffffffff    ....    DCD    4294967295
        0x00000ec4:    00000000    ....    DCD    0
        0x00000ec8:    e6791030    0.y.    DCD    3866693680
        0x00000ecc:    00000000    ....    DCD    0
        0x00000ed0:    00000480    ....    DCD    1152
        0x00000ed4:    00000000    ....    DCD    0
        0x00000ed8:    e6791034    4.y.    DCD    3866693684
        0x00000edc:    00000000    ....    DCD    0
        0x00000ee0:    00000300    ....    DCD    768
        0x00000ee4:    00000000    ....    DCD    0
        0x00000ee8:    e6791038    8.y.    DCD    3866693688
        0x00000eec:    00000000    ....    DCD    0
        0x00000ef0:    00000180    ....    DCD    384
        0x00000ef4:    00000000    ....    DCD    0
        0x00000ef8:    e679103c    <.y.    DCD    3866693692
        0x00000efc:    00000000    ....    DCD    0
        0x00000f00:    00000600    ....    DCD    1536
        0x00000f04:    00000000    ....    DCD    0
        0x00000f08:    e6791070    p.y.    DCD    3866693744
        0x00000f0c:    00000000    ....    DCD    0
        0x00000f10:    e6791074    t.y.    DCD    3866693748
        0x00000f14:    00000000    ....    DCD    0
        0x00000f18:    e6791078    x.y.    DCD    3866693752
        0x00000f1c:    00000000    ....    DCD    0
        0x00000f20:    e679107c    |.y.    DCD    3866693756
        0x00000f24:    00000000    ....    DCD    0
        0x00000f28:    00000400    ....    DCD    1024
        0x00000f2c:    00000000    ....    DCD    0
        0x00000f30:    e67910c0    ..y.    DCD    3866693824
        0x00000f34:    00000000    ....    DCD    0
        0x00000f38:    e67910c4    ..y.    DCD    3866693828
        0x00000f3c:    00000000    ....    DCD    0
        0x00000f40:    00000200    ....    DCD    512
        0x00000f44:    00000000    ....    DCD    0
        0x00000f48:    e67910c8    ..y.    DCD    3866693832
        0x00000f4c:    00000000    ....    DCD    0
        0x00000f50:    00000100    ....    DCD    256
        0x00000f54:    00000000    ....    DCD    0
        0x00000f58:    e67910cc    ..y.    DCD    3866693836
        0x00000f5c:    00000000    ....    DCD    0
        0x00000f60:    e6791100    ..y.    DCD    3866693888
        0x00000f64:    00000000    ....    DCD    0
        0x00000f68:    00000240    @...    DCD    576
        0x00000f6c:    00000000    ....    DCD    0
        0x00000f70:    e6791104    ..y.    DCD    3866693892
        0x00000f74:    00000000    ....    DCD    0
        0x00000f78:    e6791108    ..y.    DCD    3866693896
        0x00000f7c:    00000000    ....    DCD    0
        0x00000f80:    000000c0    ....    DCD    192
        0x00000f84:    00000000    ....    DCD    0
        0x00000f88:    e679110c    ..y.    DCD    3866693900
        0x00000f8c:    00000000    ....    DCD    0
        0x00000f90:    e6791110    ..y.    DCD    3866693904
        0x00000f94:    00000000    ....    DCD    0
        0x00000f98:    e6791114    ..y.    DCD    3866693908
        0x00000f9c:    00000000    ....    DCD    0
        0x00000fa0:    e6791118    ..y.    DCD    3866693912
        0x00000fa4:    00000000    ....    DCD    0
        0x00000fa8:    00000080    ....    DCD    128
        0x00000fac:    00000000    ....    DCD    0
        0x00000fb0:    e679111c    ..y.    DCD    3866693916
        0x00000fb4:    00000000    ....    DCD    0
        0x00000fb8:    e6791120     .y.    DCD    3866693920
        0x00000fbc:    00000000    ....    DCD    0
        0x00000fc0:    e6791124    $.y.    DCD    3866693924
        0x00000fc4:    00000000    ....    DCD    0
        0x00000fc8:    e6791128    (.y.    DCD    3866693928
        0x00000fcc:    00000000    ....    DCD    0
        0x00000fd0:    e679112c    ,.y.    DCD    3866693932
        0x00000fd4:    00000000    ....    DCD    0
        0x00000fd8:    220e110a    ..."    DCD    571347210
        0x00000fdc:    00000000    ....    DCD    0
        0x00000fe0:    e6791700    ..y.    DCD    3866695424
        0x00000fe4:    00000000    ....    DCD    0
        0x00000fe8:    0b0d0a0c    ....    DCD    185403916
        0x00000fec:    00000000    ....    DCD    0
        0x00000ff0:    e6791708    ..y.    DCD    3866695432
        0x00000ff4:    00000000    ....    DCD    0
        0x00000ff8:    111f1fff    ....    DCD    287252479
        0x00000ffc:    00000000    ....    DCD    0
        0x00001000:    e679170c    ..y.    DCD    3866695436
        0x00001004:    00000000    ....    DCD    0
        0x00001008:    e6790000    ..y.    DCD    3866689536
        0x0000100c:    00000000    ....    DCD    0
        0x00001010:    e6790004    ..y.    DCD    3866689540
        0x00001014:    00000000    ....    DCD    0
        0x00001018:    e6790008    ..y.    DCD    3866689544
        0x0000101c:    00000000    ....    DCD    0
        0x00001020:    e679000c    ..y.    DCD    3866689548
        0x00001024:    00000000    ....    DCD    0
        0x00001028:    00000041    A...    DCD    65
        0x0000102c:    00000000    ....    DCD    0
        0x00001030:    e6790014    ..y.    DCD    3866689556
        0x00001034:    00000000    ....    DCD    0
        0x00001038:    00000011    ....    DCD    17
        0x0000103c:    00000000    ....    DCD    0
        0x00001040:    e6790604    ..y.    DCD    3866691076
        0x00001044:    00000000    ....    DCD    0
        0x00001048:    e6790644    D.y.    DCD    3866691140
        0x0000104c:    00000000    ....    DCD    0
        0x00001050:    e6790684    ..y.    DCD    3866691204
        0x00001054:    00000000    ....    DCD    0
        0x00001058:    e67906c4    ..y.    DCD    3866691268
        0x0000105c:    00000000    ....    DCD    0
        0x00001060:    0000cf01    ....    DCD    52993
        0x00001064:    00000000    ....    DCD    0
        0x00001068:    e679061c    ..y.    DCD    3866691100
        0x0000106c:    00000000    ....    DCD    0
        0x00001070:    e679065c    \.y.    DCD    3866691164
        0x00001074:    00000000    ....    DCD    0
        0x00001078:    e679069c    ..y.    DCD    3866691228
        0x0000107c:    00000000    ....    DCD    0
        0x00001080:    e67906dc    ..y.    DCD    3866691292
        0x00001084:    00000000    ....    DCD    0
        0x00001088:    e6790600    ..y.    DCD    3866691072
        0x0000108c:    00000000    ....    DCD    0
        0x00001090:    e6790640    @.y.    DCD    3866691136
        0x00001094:    00000000    ....    DCD    0
        0x00001098:    e6790680    ..y.    DCD    3866691200
        0x0000109c:    00000000    ....    DCD    0
        0x000010a0:    e67906c0    ..y.    DCD    3866691264
        0x000010a4:    00000000    ....    DCD    0
        0x000010a8:    08840000    ....    DCD    142868480
        0x000010ac:    00000000    ....    DCD    0
        0x000010b0:    e6790208    ..y.    DCD    3866690056
        0x000010b4:    00000000    ....    DCD    0
        0x000010b8:    08840001    ....    DCD    142868481
        0x000010bc:    01840001    ....    DCD    25427969
        0x000010c0:    0e840aff    ....    DCD    243534591
        0x000010c4:    0e840154    T...    DCD    243532116
        0x000010c8:    0e84022e    ....    DCD    243532334
        0x000010cc:    0d84004f    O...    DCD    226754639
        0x000010d0:    0d840051    Q...    DCD    226754641
        0x000010d4:    70000100    ...p    DCD    1879048448
        0x000010d8:    e6790804    ..y.    DCD    3866691588
        0x000010dc:    00000000    ....    DCD    0
        0x000010e0:    18010001    ....    DCD    402718721
        0x000010e4:    00000000    ....    DCD    0
        0x000010e8:    e6790800    ..y.    DCD    3866691584
        0x000010ec:    00000000    ....    DCD    0
        0x000010f0:    00081860    `...    DCD    530528
        0x000010f4:    00000000    ....    DCD    0
        0x000010f8:    e6790414    ..y.    DCD    3866690580
        0x000010fc:    00000000    ....    DCD    0
        0x00001100:    00010000    ....    DCD    65536
        0x00001104:    00000000    ....    DCD    0
        0x00001108:    e6790418    ..y.    DCD    3866690584
        0x0000110c:    00000000    ....    DCD    0
        0x00001110:    e6790204    ..y.    DCD    3866690052
        0x00001114:    00000000    ....    DCD    0
        0x00001118:    0000a55a    Z...    DCD    42330
        0x0000111c:    00000000    ....    DCD    0
        0x00001120:    e6790620     .y.    DCD    3866691104
        0x00001124:    00000000    ....    DCD    0
        0x00001128:    e6790660    `.y.    DCD    3866691168
        0x0000112c:    00000000    ....    DCD    0
        0x00001130:    e67906a0    ..y.    DCD    3866691232
        0x00001134:    00000000    ....    DCD    0
        0x00001138:    e67906e0    ..y.    DCD    3866691296
        0x0000113c:    00000000    ....    DCD    0
        0x00001140:    e6790200    ..y.    DCD    3866690048
        0x00001144:    00000000    ....    DCD    0
        0x00001148:    e67f0024    $...    DCD    3867082788
        0x0000114c:    00000000    ....    DCD    0
        0x00001150:    e67f0018    ....    DCD    3867082776
        0x00001154:    00000000    ....    DCD    0
        0x00001158:    e6798100    ..y.    DCD    3866722560
        0x0000115c:    00000000    ....    DCD    0
        0x00001160:    e6798108    ..y.    DCD    3866722568
        0x00001164:    00000000    ....    DCD    0
        0x00001168:    e6798020     .y.    DCD    3866722336
        0x0000116c:    00000000    ....    DCD    0
        0x00001170:    e6798024    $.y.    DCD    3866722340
        0x00001174:    00000000    ....    DCD    0
        0x00001178:    e6798030    0.y.    DCD    3866722352
        0x0000117c:    00000000    ....    DCD    0
        0x00001180:    e6798070    p.y.    DCD    3866722416
        0x00001184:    00000000    ....    DCD    0
        0x00001188:    e6798034    4.y.    DCD    3866722356
        0x0000118c:    00000000    ....    DCD    0
        0x00001190:    e6798074    t.y.    DCD    3866722420
        0x00001194:    00000000    ....    DCD    0
        0x00001198:    e6798040    @.y.    DCD    3866722368
        0x0000119c:    00000000    ....    DCD    0
        0x000011a0:    e6798080    ..y.    DCD    3866722432
        0x000011a4:    00000000    ....    DCD    0
        0x000011a8:    e6798044    D.y.    DCD    3866722372
        0x000011ac:    00000000    ....    DCD    0
        0x000011b0:    e6798084    ..y.    DCD    3866722436
        0x000011b4:    00000000    ....    DCD    0
        0x000011b8:    e6798104    ..y.    DCD    3866722564
        0x000011bc:    00000000    ....    DCD    0
        0x000011c0:    e6798010    ..y.    DCD    3866722320
        0x000011c4:    00000000    ....    DCD    0
        0x000011c8:    e6798300    ..y.    DCD    3866723072
        0x000011cc:    00000000    ....    DCD    0
        0x000011d0:    e6798304    ..y.    DCD    3866723076
        0x000011d4:    00000000    ....    DCD    0
        0x000011d8:    e679830c    ..y.    DCD    3866723084
        0x000011dc:    00000000    ....    DCD    0
        0x000011e0:    e6798310    ..y.    DCD    3866723088
        0x000011e4:    00000000    ....    DCD    0
        0x000011e8:    e6798314    ..y.    DCD    3866723092
        0x000011ec:    00000000    ....    DCD    0
        0x000011f0:    e6798318    ..y.    DCD    3866723096
        0x000011f4:    00000000    ....    DCD    0
        0x000011f8:    e679831c    ..y.    DCD    3866723100
        0x000011fc:    00000000    ....    DCD    0
        0x00001200:    e6798320     .y.    DCD    3866723104
        0x00001204:    00000000    ....    DCD    0
        0x00001208:    e6798324    $.y.    DCD    3866723108
        0x0000120c:    00000000    ....    DCD    0
        0x00001210:    e6798328    (.y.    DCD    3866723112
        0x00001214:    00000000    ....    DCD    0
        0x00001218:    e679832c    ,.y.    DCD    3866723116
        0x0000121c:    00000000    ....    DCD    0
        0x00001220:    e6798330    0.y.    DCD    3866723120
        0x00001224:    00000000    ....    DCD    0
        0x00001228:    e6798334    4.y.    DCD    3866723124
        0x0000122c:    00000000    ....    DCD    0
        0x00001230:    e6798338    8.y.    DCD    3866723128
        0x00001234:    00000000    ....    DCD    0
        0x00001238:    e679833c    <.y.    DCD    3866723132
        0x0000123c:    00000000    ....    DCD    0
        0x00001240:    e6798340    @.y.    DCD    3866723136
        0x00001244:    00000000    ....    DCD    0
        0x00001248:    e6798344    D.y.    DCD    3866723140
        0x0000124c:    00000000    ....    DCD    0
        0x00001250:    e6798350    P.y.    DCD    3866723152
        0x00001254:    00000000    ....    DCD    0
        0x00001258:    e6798354    T.y.    DCD    3866723156
        0x0000125c:    00000000    ....    DCD    0
        0x00001260:    e6798358    X.y.    DCD    3866723160
        0x00001264:    00000000    ....    DCD    0
        0x00001268:    e679835c    \.y.    DCD    3866723164
        0x0000126c:    00000000    ....    DCD    0
        0x00001270:    e6798400    ..y.    DCD    3866723328
        0x00001274:    00000000    ....    DCD    0
        0x00001278:    e6798404    ..y.    DCD    3866723332
        0x0000127c:    00000000    ....    DCD    0
        0x00001280:    e6798438    8.y.    DCD    3866723384
        0x00001284:    00000000    ....    DCD    0
        0x00001288:    e679843c    <.y.    DCD    3866723388
        0x0000128c:    00000000    ....    DCD    0
        0x00001290:    e6798440    @.y.    DCD    3866723392
        0x00001294:    00000000    ....    DCD    0
        0x00001298:    e6798444    D.y.    DCD    3866723396
        0x0000129c:    00000000    ....    DCD    0
        0x000012a0:    e6798904    ..y.    DCD    3866724612
        0x000012a4:    00000000    ....    DCD    0
        0x000012a8:    e6798908    ..y.    DCD    3866724616
        0x000012ac:    00000000    ....    DCD    0
        0x000012b0:    e679890c    ..y.    DCD    3866724620
        0x000012b4:    00000000    ....    DCD    0
        0x000012b8:    e6799000    ..y.    DCD    3866726400
        0x000012bc:    00000000    ....    DCD    0
        0x000012c0:    e6799004    ..y.    DCD    3866726404
        0x000012c4:    00000000    ....    DCD    0
        0x000012c8:    e6799010    ..y.    DCD    3866726416
        0x000012cc:    00000000    ....    DCD    0
        0x000012d0:    e6799020     .y.    DCD    3866726432
        0x000012d4:    00000000    ....    DCD    0
        0x000012d8:    e6799024    $.y.    DCD    3866726436
        0x000012dc:    00000000    ....    DCD    0
        0x000012e0:    e6799030    0.y.    DCD    3866726448
        0x000012e4:    00000000    ....    DCD    0
        0x000012e8:    e6799034    4.y.    DCD    3866726452
        0x000012ec:    00000000    ....    DCD    0
        0x000012f0:    e6799038    8.y.    DCD    3866726456
        0x000012f4:    00000000    ....    DCD    0
        0x000012f8:    e679903c    <.y.    DCD    3866726460
        0x000012fc:    00000000    ....    DCD    0
        0x00001300:    e6799070    p.y.    DCD    3866726512
        0x00001304:    00000000    ....    DCD    0
        0x00001308:    e6799074    t.y.    DCD    3866726516
        0x0000130c:    00000000    ....    DCD    0
        0x00001310:    e6799078    x.y.    DCD    3866726520
        0x00001314:    00000000    ....    DCD    0
        0x00001318:    e679907c    |.y.    DCD    3866726524
        0x0000131c:    00000000    ....    DCD    0
        0x00001320:    e67990c0    ..y.    DCD    3866726592
        0x00001324:    00000000    ....    DCD    0
        0x00001328:    e67990c4    ..y.    DCD    3866726596
        0x0000132c:    00000000    ....    DCD    0
        0x00001330:    e67990c8    ..y.    DCD    3866726600
        0x00001334:    00000000    ....    DCD    0
        0x00001338:    e67990cc    ..y.    DCD    3866726604
        0x0000133c:    00000000    ....    DCD    0
        0x00001340:    e6799100    ..y.    DCD    3866726656
        0x00001344:    00000000    ....    DCD    0
        0x00001348:    e6799104    ..y.    DCD    3866726660
        0x0000134c:    00000000    ....    DCD    0
        0x00001350:    e6799108    ..y.    DCD    3866726664
        0x00001354:    00000000    ....    DCD    0
        0x00001358:    e679910c    ..y.    DCD    3866726668
        0x0000135c:    00000000    ....    DCD    0
        0x00001360:    e6799110    ..y.    DCD    3866726672
        0x00001364:    00000000    ....    DCD    0
        0x00001368:    e6799114    ..y.    DCD    3866726676
        0x0000136c:    00000000    ....    DCD    0
        0x00001370:    e6799118    ..y.    DCD    3866726680
        0x00001374:    00000000    ....    DCD    0
        0x00001378:    e679911c    ..y.    DCD    3866726684
        0x0000137c:    00000000    ....    DCD    0
        0x00001380:    e6799120     .y.    DCD    3866726688
        0x00001384:    00000000    ....    DCD    0
        0x00001388:    e6799124    $.y.    DCD    3866726692
        0x0000138c:    00000000    ....    DCD    0
        0x00001390:    e6799128    (.y.    DCD    3866726696
        0x00001394:    00000000    ....    DCD    0
        0x00001398:    e679912c    ,.y.    DCD    3866726700
        0x0000139c:    00000000    ....    DCD    0
        0x000013a0:    e6799700    ..y.    DCD    3866728192
        0x000013a4:    00000000    ....    DCD    0
        0x000013a8:    e6799708    ..y.    DCD    3866728200
        0x000013ac:    00000000    ....    DCD    0
        0x000013b0:    e679970c    ..y.    DCD    3866728204
        0x000013b4:    00000000    ....    DCD    0
        0x000013b8:    e6798000    ..y.    DCD    3866722304
        0x000013bc:    00000000    ....    DCD    0
        0x000013c0:    e6798004    ..y.    DCD    3866722308
        0x000013c4:    00000000    ....    DCD    0
        0x000013c8:    e6798008    ..y.    DCD    3866722312
        0x000013cc:    00000000    ....    DCD    0
        0x000013d0:    e679800c    ..y.    DCD    3866722316
        0x000013d4:    00000000    ....    DCD    0
        0x000013d8:    e6798014    ..y.    DCD    3866722324
        0x000013dc:    00000000    ....    DCD    0
        0x000013e0:    e6798604    ..y.    DCD    3866723844
        0x000013e4:    00000000    ....    DCD    0
        0x000013e8:    e6798644    D.y.    DCD    3866723908
        0x000013ec:    00000000    ....    DCD    0
        0x000013f0:    e6798684    ..y.    DCD    3866723972
        0x000013f4:    00000000    ....    DCD    0
        0x000013f8:    e67986c4    ..y.    DCD    3866724036
        0x000013fc:    00000000    ....    DCD    0
        0x00001400:    e679861c    ..y.    DCD    3866723868
        0x00001404:    00000000    ....    DCD    0
        0x00001408:    e679865c    \.y.    DCD    3866723932
        0x0000140c:    00000000    ....    DCD    0
        0x00001410:    e679869c    ..y.    DCD    3866723996
        0x00001414:    00000000    ....    DCD    0
        0x00001418:    e67986dc    ..y.    DCD    3866724060
        0x0000141c:    00000000    ....    DCD    0
        0x00001420:    e6798600    ..y.    DCD    3866723840
        0x00001424:    00000000    ....    DCD    0
        0x00001428:    e6798640    @.y.    DCD    3866723904
        0x0000142c:    00000000    ....    DCD    0
        0x00001430:    e6798680    ..y.    DCD    3866723968
        0x00001434:    00000000    ....    DCD    0
        0x00001438:    e67986c0    ..y.    DCD    3866724032
        0x0000143c:    00000000    ....    DCD    0
        0x00001440:    e6798208    ..y.    DCD    3866722824
        0x00001444:    00000000    ....    DCD    0
        0x00001448:    e6798804    ..y.    DCD    3866724356
        0x0000144c:    00000000    ....    DCD    0
        0x00001450:    e6798800    ..y.    DCD    3866724352
        0x00001454:    00000000    ....    DCD    0
        0x00001458:    e6798414    ..y.    DCD    3866723348
        0x0000145c:    00000000    ....    DCD    0
        0x00001460:    e6798418    ..y.    DCD    3866723352
        0x00001464:    00000000    ....    DCD    0
        0x00001468:    e6798204    ..y.    DCD    3866722820
        0x0000146c:    00000000    ....    DCD    0
        0x00001470:    e6798620     .y.    DCD    3866723872
        0x00001474:    00000000    ....    DCD    0
        0x00001478:    e6798660    `.y.    DCD    3866723936
        0x0000147c:    00000000    ....    DCD    0
        0x00001480:    e67986a0    ..y.    DCD    3866724000
        0x00001484:    00000000    ....    DCD    0
        0x00001488:    e67986e0    ..y.    DCD    3866724064
        0x0000148c:    00000000    ....    DCD    0
        0x00001490:    e6798200    ..y.    DCD    3866722816
        0x00001494:    00000000    ....    DCD    0
    $x
    $Ven$XX$L$$__ddr_init
        0x00001498:    58000050    P..X    LDR      x16,{pc}+8 ; 0x14a0 ; [0x14a0] = 
        0x0000149c:    d61f0200    ....    BR       x16
    $d
        0x000014a0:    400012e0    ...@    DCD    1073746656
        0x000014a4:    00000000    ....    DCD    0
    $x
    $Ven$XX$L$$__scatterload
        0x000014a8:    58000050    P..X    LDR      x16,{pc}+8 ; 0x14b0 ; [0x14b0] = 
        0x000014ac:    d61f0200    ....    BR       x16
    $d
        0x000014b0:    400004c0    ...@    DCD    1073743040
        0x000014b4:    00000000    ....    DCD    0
    $x
    $Ven$XX$L$$__rt_lib_init
        0x000014b8:    58000050    P..X    LDR      x16,{pc}+8 ; 0x14c0 ; [0x14c0] = 
        0x000014bc:    d61f0200    ....    BR       x16
    $d
        0x000014c0:    40000440    @..@    DCD    1073742912
        0x000014c4:    00000000    ....    DCD    0
    $x
    $Ven$XX$L$$main
        0x000014c8:    58000050    P..X    LDR      x16,{pc}+8 ; 0x14d0 ; [0x14d0] = 
        0x000014cc:    d61f0200    ....    BR       x16
    $d
        0x000014d0:    40002440    @$.@    DCD    1073751104
        0x000014d4:    00000000    ....    DCD    0
    $x
    $Ven$XX$L$$exit
        0x000014d8:    58000050    P..X    LDR      x16,{pc}+8 ; 0x14e0 ; [0x14e0] = 
        0x000014dc:    d61f0200    ....    BR       x16
    $d
        0x000014e0:    40000490    ...@    DCD    1073742992
        0x000014e4:    00000000    ....    DCD    0
    $d.realdata
    Region$$Table$$Base
        0x000014e8:    40009e28    (..@    DCD    1073782312
        0x000014ec:    00000000    ....    DCD    0
        0x000014f0:    40009e28    (..@    DCD    1073782312
        0x000014f4:    00000000    ....    DCD    0
        0x000014f8:    00000b48    H...    DCD    2888
        0x000014fc:    00000000    ....    DCD    0
        0x00001500:    40000520     ..@    DCD    1073743136
        0x00001504:    00000000    ....    DCD    0
    Region$$Table$$Limit

====================================

** Section #2

    Name        : ER10
    Type        : SHT_PROGBITS (0x00000001)
    Flags       : SHF_ALLOC + SHF_EXECINSTR (0x00000006)
    Addr        : 0x40000000
    File Offset : 5760 (0x1680)
    Size        : 32472 bytes (0x7ed8)
    Link        : SHN_UNDEF
    Info        : 0
    Alignment   : 128
    Entry Size  : 0

    $x
    VECTORS
    __vectors_start
        0x40000000:    14000100    ....    B        0x40000400 ; __vectors_start + 1024
    $d
        0x40000004:    00000000    ....    DCD    0
        0x40000008:    00000000    ....    DCD    0
        0x4000000c:    00000000    ....    DCD    0
        0x40000010:    00000000    ....    DCD    0
        0x40000014:    00000000    ....    DCD    0
        0x40000018:    00000000    ....    DCD    0
        0x4000001c:    00000000    ....    DCD    0
        0x40000020:    00000000    ....    DCD    0
        0x40000024:    00000000    ....    DCD    0
        0x40000028:    00000000    ....    DCD    0
        0x4000002c:    00000000    ....    DCD    0
        0x40000030:    00000000    ....    DCD    0
        0x40000034:    00000000    ....    DCD    0
        0x40000038:    00000000    ....    DCD    0
        0x4000003c:    00000000    ....    DCD    0
        0x40000040:    00000000    ....    DCD    0
        0x40000044:    00000000    ....    DCD    0
        0x40000048:    00000000    ....    DCD    0
        0x4000004c:    00000000    ....    DCD    0
        0x40000050:    00000000    ....    DCD    0
        0x40000054:    00000000    ....    DCD    0
        0x40000058:    00000000    ....    DCD    0
        0x4000005c:    00000000    ....    DCD    0
        0x40000060:    00000000    ....    DCD    0
        0x40000064:    00000000    ....    DCD    0
        0x40000068:    00000000    ....    DCD    0
        0x4000006c:    00000000    ....    DCD    0
        0x40000070:    00000000    ....    DCD    0
        0x40000074:    00000000    ....    DCD    0
        0x40000078:    00000000    ....    DCD    0
        0x4000007c:    00000000    ....    DCD    0
    $x
        0x40000080:    140000e2    ....    B        0x40000408 ; __vectors_start + 1032
    $d
        0x40000084:    00000000    ....    DCD    0
        0x40000088:    00000000    ....    DCD    0
        0x4000008c:    00000000    ....    DCD    0
        0x40000090:    00000000    ....    DCD    0
        0x40000094:    00000000    ....    DCD    0
        0x40000098:    00000000    ....    DCD    0
        0x4000009c:    00000000    ....    DCD    0
        0x400000a0:    00000000    ....    DCD    0
        0x400000a4:    00000000    ....    DCD    0
        0x400000a8:    00000000    ....    DCD    0
        0x400000ac:    00000000    ....    DCD    0
        0x400000b0:    00000000    ....    DCD    0
        0x400000b4:    00000000    ....    DCD    0
        0x400000b8:    00000000    ....    DCD    0
        0x400000bc:    00000000    ....    DCD    0
        0x400000c0:    00000000    ....    DCD    0
        0x400000c4:    00000000    ....    DCD    0
        0x400000c8:    00000000    ....    DCD    0
        0x400000cc:    00000000    ....    DCD    0
        0x400000d0:    00000000    ....    DCD    0
        0x400000d4:    00000000    ....    DCD    0
        0x400000d8:    00000000    ....    DCD    0
        0x400000dc:    00000000    ....    DCD    0
        0x400000e0:    00000000    ....    DCD    0
        0x400000e4:    00000000    ....    DCD    0
        0x400000e8:    00000000    ....    DCD    0
        0x400000ec:    00000000    ....    DCD    0
        0x400000f0:    00000000    ....    DCD    0
        0x400000f4:    00000000    ....    DCD    0
        0x400000f8:    00000000    ....    DCD    0
        0x400000fc:    00000000    ....    DCD    0
    $x
        0x40000100:    140000c4    ....    B        0x40000410 ; __vectors_start + 1040
    $d
        0x40000104:    00000000    ....    DCD    0
        0x40000108:    00000000    ....    DCD    0
        0x4000010c:    00000000    ....    DCD    0
        0x40000110:    00000000    ....    DCD    0
        0x40000114:    00000000    ....    DCD    0
        0x40000118:    00000000    ....    DCD    0
        0x4000011c:    00000000    ....    DCD    0
        0x40000120:    00000000    ....    DCD    0
        0x40000124:    00000000    ....    DCD    0
        0x40000128:    00000000    ....    DCD    0
        0x4000012c:    00000000    ....    DCD    0
        0x40000130:    00000000    ....    DCD    0
        0x40000134:    00000000    ....    DCD    0
        0x40000138:    00000000    ....    DCD    0
        0x4000013c:    00000000    ....    DCD    0
        0x40000140:    00000000    ....    DCD    0
        0x40000144:    00000000    ....    DCD    0
        0x40000148:    00000000    ....    DCD    0
        0x4000014c:    00000000    ....    DCD    0
        0x40000150:    00000000    ....    DCD    0
        0x40000154:    00000000    ....    DCD    0
        0x40000158:    00000000    ....    DCD    0
        0x4000015c:    00000000    ....    DCD    0
        0x40000160:    00000000    ....    DCD    0
        0x40000164:    00000000    ....    DCD    0
        0x40000168:    00000000    ....    DCD    0
        0x4000016c:    00000000    ....    DCD    0
        0x40000170:    00000000    ....    DCD    0
        0x40000174:    00000000    ....    DCD    0
        0x40000178:    00000000    ....    DCD    0
        0x4000017c:    00000000    ....    DCD    0
    $x
        0x40000180:    140000a6    ....    B        0x40000418 ; __vectors_start + 1048
    $d
        0x40000184:    00000000    ....    DCD    0
        0x40000188:    00000000    ....    DCD    0
        0x4000018c:    00000000    ....    DCD    0
        0x40000190:    00000000    ....    DCD    0
        0x40000194:    00000000    ....    DCD    0
        0x40000198:    00000000    ....    DCD    0
        0x4000019c:    00000000    ....    DCD    0
        0x400001a0:    00000000    ....    DCD    0
        0x400001a4:    00000000    ....    DCD    0
        0x400001a8:    00000000    ....    DCD    0
        0x400001ac:    00000000    ....    DCD    0
        0x400001b0:    00000000    ....    DCD    0
        0x400001b4:    00000000    ....    DCD    0
        0x400001b8:    00000000    ....    DCD    0
        0x400001bc:    00000000    ....    DCD    0
        0x400001c0:    00000000    ....    DCD    0
        0x400001c4:    00000000    ....    DCD    0
        0x400001c8:    00000000    ....    DCD    0
        0x400001cc:    00000000    ....    DCD    0
        0x400001d0:    00000000    ....    DCD    0
        0x400001d4:    00000000    ....    DCD    0
        0x400001d8:    00000000    ....    DCD    0
        0x400001dc:    00000000    ....    DCD    0
        0x400001e0:    00000000    ....    DCD    0
        0x400001e4:    00000000    ....    DCD    0
        0x400001e8:    00000000    ....    DCD    0
        0x400001ec:    00000000    ....    DCD    0
        0x400001f0:    00000000    ....    DCD    0
        0x400001f4:    00000000    ....    DCD    0
        0x400001f8:    00000000    ....    DCD    0
        0x400001fc:    00000000    ....    DCD    0
    $x
        0x40000200:    14000088    ....    B        0x40000420 ; __vectors_start + 1056
    $d
        0x40000204:    00000000    ....    DCD    0
        0x40000208:    00000000    ....    DCD    0
        0x4000020c:    00000000    ....    DCD    0
        0x40000210:    00000000    ....    DCD    0
        0x40000214:    00000000    ....    DCD    0
        0x40000218:    00000000    ....    DCD    0
        0x4000021c:    00000000    ....    DCD    0
        0x40000220:    00000000    ....    DCD    0
        0x40000224:    00000000    ....    DCD    0
        0x40000228:    00000000    ....    DCD    0
        0x4000022c:    00000000    ....    DCD    0
        0x40000230:    00000000    ....    DCD    0
        0x40000234:    00000000    ....    DCD    0
        0x40000238:    00000000    ....    DCD    0
        0x4000023c:    00000000    ....    DCD    0
        0x40000240:    00000000    ....    DCD    0
        0x40000244:    00000000    ....    DCD    0
        0x40000248:    00000000    ....    DCD    0
        0x4000024c:    00000000    ....    DCD    0
        0x40000250:    00000000    ....    DCD    0
        0x40000254:    00000000    ....    DCD    0
        0x40000258:    00000000    ....    DCD    0
        0x4000025c:    00000000    ....    DCD    0
        0x40000260:    00000000    ....    DCD    0
        0x40000264:    00000000    ....    DCD    0
        0x40000268:    00000000    ....    DCD    0
        0x4000026c:    00000000    ....    DCD    0
        0x40000270:    00000000    ....    DCD    0
        0x40000274:    00000000    ....    DCD    0
        0x40000278:    00000000    ....    DCD    0
        0x4000027c:    00000000    ....    DCD    0
    $x
        0x40000280:    1400006a    j...    B        0x40000428 ; __vectors_start + 1064
    $d
        0x40000284:    00000000    ....    DCD    0
        0x40000288:    00000000    ....    DCD    0
        0x4000028c:    00000000    ....    DCD    0
        0x40000290:    00000000    ....    DCD    0
        0x40000294:    00000000    ....    DCD    0
        0x40000298:    00000000    ....    DCD    0
        0x4000029c:    00000000    ....    DCD    0
        0x400002a0:    00000000    ....    DCD    0
        0x400002a4:    00000000    ....    DCD    0
        0x400002a8:    00000000    ....    DCD    0
        0x400002ac:    00000000    ....    DCD    0
        0x400002b0:    00000000    ....    DCD    0
        0x400002b4:    00000000    ....    DCD    0
        0x400002b8:    00000000    ....    DCD    0
        0x400002bc:    00000000    ....    DCD    0
        0x400002c0:    00000000    ....    DCD    0
        0x400002c4:    00000000    ....    DCD    0
        0x400002c8:    00000000    ....    DCD    0
        0x400002cc:    00000000    ....    DCD    0
        0x400002d0:    00000000    ....    DCD    0
        0x400002d4:    00000000    ....    DCD    0
        0x400002d8:    00000000    ....    DCD    0
        0x400002dc:    00000000    ....    DCD    0
        0x400002e0:    00000000    ....    DCD    0
        0x400002e4:    00000000    ....    DCD    0
        0x400002e8:    00000000    ....    DCD    0
        0x400002ec:    00000000    ....    DCD    0
        0x400002f0:    00000000    ....    DCD    0
        0x400002f4:    00000000    ....    DCD    0
        0x400002f8:    00000000    ....    DCD    0
        0x400002fc:    00000000    ....    DCD    0
    $x
        0x40000300:    1400004c    L...    B        0x40000430 ; __vectors_start + 1072
    $d
        0x40000304:    00000000    ....    DCD    0
        0x40000308:    00000000    ....    DCD    0
        0x4000030c:    00000000    ....    DCD    0
        0x40000310:    00000000    ....    DCD    0
        0x40000314:    00000000    ....    DCD    0
        0x40000318:    00000000    ....    DCD    0
        0x4000031c:    00000000    ....    DCD    0
        0x40000320:    00000000    ....    DCD    0
        0x40000324:    00000000    ....    DCD    0
        0x40000328:    00000000    ....    DCD    0
        0x4000032c:    00000000    ....    DCD    0
        0x40000330:    00000000    ....    DCD    0
        0x40000334:    00000000    ....    DCD    0
        0x40000338:    00000000    ....    DCD    0
        0x4000033c:    00000000    ....    DCD    0
        0x40000340:    00000000    ....    DCD    0
        0x40000344:    00000000    ....    DCD    0
        0x40000348:    00000000    ....    DCD    0
        0x4000034c:    00000000    ....    DCD    0
        0x40000350:    00000000    ....    DCD    0
        0x40000354:    00000000    ....    DCD    0
        0x40000358:    00000000    ....    DCD    0
        0x4000035c:    00000000    ....    DCD    0
        0x40000360:    00000000    ....    DCD    0
        0x40000364:    00000000    ....    DCD    0
        0x40000368:    00000000    ....    DCD    0
        0x4000036c:    00000000    ....    DCD    0
        0x40000370:    00000000    ....    DCD    0
        0x40000374:    00000000    ....    DCD    0
        0x40000378:    00000000    ....    DCD    0
        0x4000037c:    00000000    ....    DCD    0
    $x
        0x40000380:    1400002e    ....    B        0x40000438 ; __vectors_start + 1080
    $d
        0x40000384:    00000000    ....    DCD    0
        0x40000388:    00000000    ....    DCD    0
        0x4000038c:    00000000    ....    DCD    0
        0x40000390:    00000000    ....    DCD    0
        0x40000394:    00000000    ....    DCD    0
        0x40000398:    00000000    ....    DCD    0
        0x4000039c:    00000000    ....    DCD    0
        0x400003a0:    00000000    ....    DCD    0
        0x400003a4:    00000000    ....    DCD    0
        0x400003a8:    00000000    ....    DCD    0
        0x400003ac:    00000000    ....    DCD    0
        0x400003b0:    00000000    ....    DCD    0
        0x400003b4:    00000000    ....    DCD    0
        0x400003b8:    00000000    ....    DCD    0
        0x400003bc:    00000000    ....    DCD    0
        0x400003c0:    00000000    ....    DCD    0
        0x400003c4:    00000000    ....    DCD    0
        0x400003c8:    00000000    ....    DCD    0
        0x400003cc:    00000000    ....    DCD    0
        0x400003d0:    00000000    ....    DCD    0
        0x400003d4:    00000000    ....    DCD    0
        0x400003d8:    00000000    ....    DCD    0
        0x400003dc:    00000000    ....    DCD    0
        0x400003e0:    00000000    ....    DCD    0
        0x400003e4:    00000000    ....    DCD    0
        0x400003e8:    00000000    ....    DCD    0
        0x400003ec:    00000000    ....    DCD    0
        0x400003f0:    00000000    ....    DCD    0
        0x400003f4:    00000000    ....    DCD    0
        0x400003f8:    00000000    ....    DCD    0
        0x400003fc:    00000000    ....    DCD    0
    $x
        0x40000400:    940003b4    ....    BL       Synchronous_Handler ; 0x400012d0
        0x40000404:    d69f03e0    ....    ERET     
        0x40000408:    9400038e    ....    BL       SError_Handler ; 0x40001240
        0x4000040c:    d69f03e0    ....    ERET     
        0x40000410:    94000378    x...    BL       IRQ_Handler ; 0x400011f0
        0x40000414:    d69f03e0    ....    ERET     
        0x40000418:    14000000    ....    B        0x40000418 ; __vectors_start + 1048
        0x4000041c:    d69f03e0    ....    ERET     
        0x40000420:    940003ac    ....    BL       Synchronous_Handler ; 0x400012d0
        0x40000424:    d69f03e0    ....    ERET     
        0x40000428:    94000386    ....    BL       SError_Handler ; 0x40001240
        0x4000042c:    d69f03e0    ....    ERET     
        0x40000430:    94000370    p...    BL       IRQ_Handler ; 0x400011f0
        0x40000434:    d69f03e0    ....    ERET     
        0x40000438:    14000000    ....    B        0x40000438 ; __vectors_start + 1080
        0x4000043c:    d69f03e0    ....    ERET     
    .ARM.Collect$$libinit$$00000000
    __rt_lib_init
        0x40000440:    a9bf7bf5    .{..    STP      x21,x30,[sp,#-0x10]!
        0x40000444:    a9bf0fe2    ....    STP      x2,x3,[sp,#-0x10]!
        0x40000448:    a9bf07e0    ....    STP      x0,x1,[sp,#-0x10]!
    .ARM.Collect$$libinit$$00000001
    __rt_lib_init_fp_1
        0x4000044c:    9400000c    ....    BL       _fp_init ; 0x4000047c
    .ARM.Collect$$libinit$$00000004
    .ARM.Collect$$libinit$$0000000A
    .ARM.Collect$$libinit$$0000000C
    .ARM.Collect$$libinit$$0000000E
    .ARM.Collect$$libinit$$00000011
    .ARM.Collect$$libinit$$00000013
    .ARM.Collect$$libinit$$00000015
    .ARM.Collect$$libinit$$00000017
    .ARM.Collect$$libinit$$00000019
    .ARM.Collect$$libinit$$0000001B
    .ARM.Collect$$libinit$$0000001D
    .ARM.Collect$$libinit$$0000001F
    .ARM.Collect$$libinit$$00000021
    .ARM.Collect$$libinit$$00000023
    .ARM.Collect$$libinit$$00000025
    .ARM.Collect$$libinit$$0000002C
    .ARM.Collect$$libinit$$0000002E
    .ARM.Collect$$libinit$$00000030
    .ARM.Collect$$libinit$$00000032
    .ARM.Collect$$libinit$$00000033
    __rt_lib_init_alloca_1
    __rt_lib_init_argv_1
    __rt_lib_init_atexit_1
    __rt_lib_init_clock_1
    __rt_lib_init_cpp_1
    __rt_lib_init_exceptions_1
    __rt_lib_init_fp_trap_1
    __rt_lib_init_getenv_1
    __rt_lib_init_heap_1
    __rt_lib_init_lc_collate_1
    __rt_lib_init_lc_ctype_1
    __rt_lib_init_lc_monetary_1
    __rt_lib_init_lc_numeric_1
    __rt_lib_init_lc_time_1
    __rt_lib_init_preinit_1
    __rt_lib_init_rand_1
    __rt_lib_init_return
    __rt_lib_init_signal_1
    __rt_lib_init_stdio_1
    __rt_lib_init_user_alloc_1
        0x40000450:    a8c107e0    ....    LDP      x0,x1,[sp],#0x10
        0x40000454:    a8c10fe2    ....    LDP      x2,x3,[sp],#0x10
        0x40000458:    a8c17bf5    .{..    LDP      x21,x30,[sp],#0x10
        0x4000045c:    d65f03c0    .._.    RET      
    .ARM.Collect$$libshutdown$$00000000
    __rt_lib_shutdown
        0x40000460:    a9bf7bf5    .{..    STP      x21,x30,[sp,#-0x10]!
    .ARM.Collect$$libshutdown$$00000002
    .ARM.Collect$$libshutdown$$00000004
    .ARM.Collect$$libshutdown$$00000007
    .ARM.Collect$$libshutdown$$0000000A
    .ARM.Collect$$libshutdown$$0000000C
    .ARM.Collect$$libshutdown$$0000000F
    .ARM.Collect$$libshutdown$$00000010
    __rt_lib_shutdown_cpp_1
    __rt_lib_shutdown_fp_trap_1
    __rt_lib_shutdown_heap_1
    __rt_lib_shutdown_return
    __rt_lib_shutdown_signal_1
    __rt_lib_shutdown_stdio_1
    __rt_lib_shutdown_user_alloc_1
        0x40000464:    a8c17bf5    .{..    LDP      x21,x30,[sp],#0x10
        0x40000468:    d65f03c0    .._.    RET      
    .ARM.Collect$$rtexit$$00000000
    __rt_exit
        0x4000046c:    a9bf07e0    ....    STP      x0,x1,[sp,#-0x10]!
    .ARM.Collect$$rtexit$$00000002
    .ARM.Collect$$rtexit$$00000003
    __rt_exit_ls
    __rt_exit_prels_1
        0x40000470:    97fffffc    ....    BL       __rt_lib_shutdown ; 0x40000460
    .ARM.Collect$$rtexit$$00000004
    __rt_exit_exit
        0x40000474:    a8c107e0    ....    LDP      x0,x1,[sp],#0x10
        0x40000478:    940003ce    ....    BL       _sys_exit ; 0x400013b0
    .emb_text
    _fp_init
        0x4000047c:    d2a06000    .`..    MOV      x0,#0x3000000
        0x40000480:    d51b4400    .D..    MSR      FPCR,x0
        0x40000484:    d5033fdf    .?..    ISB      
        0x40000488:    d65f03c0    .._.    RET      
    .text
    __semihosting$guard
    __use_no_semihosting_swi
        0x4000048c:    d65f03c0    .._.    RET      
    .text
    exit
        0x40000490:    d10083ff    ....    SUB      sp,sp,#0x20
        0x40000494:    f9000bfe    ....    STR      x30,[sp,#0x10]
        0x40000498:    a90077f3    .w..    STP      x19,x29,[sp,#0]
        0x4000049c:    910023fd    .#..    ADD      x29,sp,#8
        0x400004a0:    2a0003f3    ...*    MOV      w19,w0
        0x400004a4:    d503201f    . ..    NOP      
        0x400004a8:    2a1303e0    ...*    MOV      w0,w19
        0x400004ac:    a94077f3    .w@.    LDP      x19,x29,[sp,#0]
        0x400004b0:    f9400bfe    ..@.    LDR      x30,[sp,#0x10]
        0x400004b4:    910083ff    ....    ADD      sp,sp,#0x20
        0x400004b8:    17ffffed    ....    B        __rt_exit ; 0x4000046c
        0x400004bc:    00000000    ....    DCI      0x00000000 ; ? Undefined
    .text
    __scatterload
    __scatterload_rt2
        0x400004c0:    58000280    ...X    LDR      x0,{pc}+0x50 ; 0x40000510 ; [0x40000510] = 
        0x400004c4:    aa0003f3    ....    MOV      x19,x0
        0x400004c8:    d1000674    t...    SUB      x20,x19,#1
        0x400004cc:    58000275    u..X    LDR      x21,{pc}+0x4c ; 0x40000518 ; [0x40000518] = 
        0x400004d0:    eb15027f    ....    CMP      x19,x21
        0x400004d4:    54000043    C..T    B.CC     0x400004dc ; __scatterload + 28
        0x400004d8:    940019f6    ....    BL       $Ven$XX$L$$__rt_entry ; 0x40006cb0
        0x400004dc:    f9400e63    c.@.    LDR      x3,[x19,#0x18]
        0x400004e0:    92400060    `.@.    AND      x0,x3,#1
        0x400004e4:    f100001f    ....    CMP      x0,#0
        0x400004e8:    54000040    @..T    B.EQ     0x400004f0 ; __scatterload + 48
        0x400004ec:    cb030283    ....    SUB      x3,x20,x3
        0x400004f0:    f9400260    `.@.    LDR      x0,[x19,#0]
        0x400004f4:    f9400661    a.@.    LDR      x1,[x19,#8]
        0x400004f8:    f9400a62    b.@.    LDR      x2,[x19,#0x10]
        0x400004fc:    91008273    s...    ADD      x19,x19,#0x20
        0x40000500:    d63f0060    `.?.    BLR      x3
        0x40000504:    17fffff3    ....    B        0x400004d0 ; __scatterload + 16
    __scatterload_null
        0x40000508:    d65f03c0    .._.    RET      
    $d
        0x4000050c:    00000000    ....    DCD    0
        0x40000510:    000014e8    ....    DCD    5352
        0x40000514:    00000000    ....    DCD    0
        0x40000518:    00001508    ....    DCD    5384
        0x4000051c:    00000000    ....    DCD    0
    $x
    .text
    __scatterload_zeroinit
        0x40000520:    52800000    ...R    MOV      w0,#0
        0x40000524:    14000003    ....    B        0x40000530 ; __scatterload_zeroinit + 16
        0x40000528:    b8004420     D..    STR      w0,[x1],#4
        0x4000052c:    d1001042    B...    SUB      x2,x2,#4
        0x40000530:    f100005f    _...    CMP      x2,#0
        0x40000534:    54ffffa1    ...T    B.NE     0x40000528 ; __scatterload_zeroinit + 8
        0x40000538:    d65f03c0    .._.    RET      
        0x4000053c:    00000000    ....    DCI      0x00000000 ; ? Undefined
    $x.1
    CPG_ClearBit
        0x40000540:    b9400008    ..@.    LDR      w8,[x0,#0]
        0x40000544:    12001c29    )...    AND      w9,w1,#0xff
        0x40000548:    320003ea    ...2    ORR      w10,wzr,#1
        0x4000054c:    1ac92149    I!..    LSL      w9,w10,w9
        0x40000550:    0a290108    ..).    BIC      w8,w8,w9
        0x40000554:    2a2803e9    ..(*    MVN      w9,w8
        0x40000558:    52bcc2aa    ...R    MOV      w10,#0xe6150000
        0x4000055c:    b9000149    I...    STR      w9,[x10,#0]
        0x40000560:    b9000008    ....    STR      w8,[x0,#0]
        0x40000564:    d65f03c0    .._.    RET      
        0x40000568:    00000000    ....    DCI      0x00000000 ; ? Undefined
        0x4000056c:    00000000    ....    DCI      0x00000000 ; ? Undefined
    CPG_SetBit
        0x40000570:    b9400008    ..@.    LDR      w8,[x0,#0]
        0x40000574:    12001c29    )...    AND      w9,w1,#0xff
        0x40000578:    320003ea    ...2    ORR      w10,wzr,#1
        0x4000057c:    1ac92149    I!..    LSL      w9,w10,w9
        0x40000580:    2a090108    ...*    ORR      w8,w8,w9
        0x40000584:    2a2803e9    ..(*    MVN      w9,w8
        0x40000588:    52bcc2aa    ...R    MOV      w10,#0xe6150000
        0x4000058c:    b9000149    I...    STR      w9,[x10,#0]
        0x40000590:    b9000008    ....    STR      w8,[x0,#0]
        0x40000594:    d65f03c0    .._.    RET      
        0x40000598:    00000000    ....    DCI      0x00000000 ; ? Undefined
        0x4000059c:    00000000    ....    DCI      0x00000000 ; ? Undefined
    DMAC_initDescriptorMemory
        0x400005a0:    72001c3f    ?..r    TST      w1,#0xff
        0x400005a4:    54000120     ..T    B.EQ     0x400005c8 ; DMAC_initDescriptorMemory + 40
        0x400005a8:    12001c28    (...    AND      w8,w1,#0xff
        0x400005ac:    91203009    .0 .    ADD      x9,x0,#0x80c
        0x400005b0:    b81f413f    ?A..    STUR     wzr,[x9,#-0xc]
        0x400005b4:    b81f813f    ?...    STUR     wzr,[x9,#-8]
        0x400005b8:    b81fc13f    ?...    STUR     wzr,[x9,#-4]
        0x400005bc:    b801053f    ?...    STR      wzr,[x9],#0x10
        0x400005c0:    f1000508    ....    SUBS     x8,x8,#1
        0x400005c4:    54ffff61    a..T    B.NE     0x400005b0 ; DMAC_initDescriptorMemory + 16
        0x400005c8:    d65f03c0    .._.    RET      
        0x400005cc:    00000000    ....    DCI      0x00000000 ; ? Undefined
    GIC_defaultHandler
        0x400005d0:    14000000    ....    B        GIC_defaultHandler ; 0x400005d0
        0x400005d4:    00000000    ....    DCI      0x00000000 ; ? Undefined
        0x400005d8:    00000000    ....    DCI      0x00000000 ; ? Undefined
        0x400005dc:    00000000    ....    DCI      0x00000000 ; ? Undefined
    GIC_enable
        0x400005e0:    52800000    ...R    MOV      w0,#0
        0x400005e4:    d51b4220     B..    MSR      DAIF,x0
        0x400005e8:    d5033fdf    .?..    ISB      
        0x400005ec:    52be2008    . .R    MOV      w8,#0xf1000000
        0x400005f0:    321c07e9    ...2    ORR      w9,wzr,#0x30
        0x400005f4:    528006ea    ...R    MOV      w10,#0x37
        0x400005f8:    b9000109    ....    STR      w9,[x8,#0]
        0x400005fc:    b900010a    ....    STR      w10,[x8,#0]
        0x40000600:    321c23e9    .#.2    ORR      w9,wzr,#0x1ff0
        0x40000604:    b9002109    .!..    STR      w9,[x8,#0x20]
        0x40000608:    320f07e9    ...2    ORR      w9,wzr,#0x60000
        0x4000060c:    5280002a    *..R    MOV      w10,#1
        0x40000610:    72a0e00a    ...r    MOVK     w10,#0x700,LSL #16
        0x40000614:    b829690a    .i).    STR      w10,[x8,x9]
        0x40000618:    52800288    ...R    MOV      w8,#0x14
        0x4000061c:    72be20c8    . .r    MOVK     w8,#0xf106,LSL #16
        0x40000620:    321f03e9    ...2    ORR      w9,wzr,#2
        0x40000624:    b9001109    ....    STR      w9,[x8,#0x10]
        0x40000628:    b9401109    ..@.    LDR      w9,[x8,#0x10]
        0x4000062c:    3707ffe9    ...7    TBNZ     w9,#0,0x40000628 ; GIC_enable + 72
        0x40000630:    b9400109    ..@.    LDR      w9,[x8,#0]
        0x40000634:    121e7929    )y..    AND      w9,w9,#0xfffffffd
        0x40000638:    b9000109    ....    STR      w9,[x8,#0]
        0x4000063c:    b9400109    ..@.    LDR      w9,[x8,#0]
        0x40000640:    3717ffe9    ...7    TBNZ     w9,#2,0x4000063c ; GIC_enable + 92
        0x40000644:    d28001e0    ....    MOV      x0,#0xf
        0x40000648:    d51ecca0    ....    MSR      S3_6_C12_C12_5,x0
        0x4000064c:    d5033fdf    .?..    ISB      
        0x40000650:    d518cca0    ....    MSR      S3_0_C12_C12_5,x0
        0x40000654:    d5033fdf    .?..    ISB      
        0x40000658:    52800020     ..R    MOV      w0,#1
        0x4000065c:    d518ccc0    ....    MSR      S3_0_C12_C12_6,x0
        0x40000660:    d5033fdf    .?..    ISB      
        0x40000664:    d53ecce0    ..>.    MRS      x0,S3_6_C12_C12_7
        0x40000668:    32000000    ...2    ORR      w0,w0,#1
        0x4000066c:    d51ecce0    ....    MSR      S3_6_C12_C12_7,x0
        0x40000670:    d5033fdf    .?..    ISB      
        0x40000674:    d2801fe0    ....    MOV      x0,#0xff
        0x40000678:    d5184600    .F..    MSR      S3_0_C4_C6_0,x0
        0x4000067c:    d65f03c0    .._.    RET      
    GIC_enableInterrupt
        0x40000680:    52801008    ...R    MOV      w8,#0x80
        0x40000684:    72be2008    . .r    MOVK     w8,#0xf100,LSL #16
        0x40000688:    0b080009    ....    ADD      w9,w0,w8
        0x4000068c:    531d700a    .p.S    LSL      w10,w0,#3
        0x40000690:    528c000b    ...R    MOV      w11,#0x6000
        0x40000694:    72be200b    . .r    MOVK     w11,#0xf100,LSL #16
        0x40000698:    0b0b014b    K...    ADD      w11,w10,w11
        0x4000069c:    f900017f    ....    STR      xzr,[x11,#0]
        0x400006a0:    53037c0b    .|.S    LSR      w11,w0,#3
        0x400006a4:    121e696b    ki..    AND      w11,w11,#0x1ffffffc
        0x400006a8:    1200100c    ....    AND      w12,w0,#0x1f
        0x400006ac:    0b08016b    k...    ADD      w11,w11,w8
        0x400006b0:    320003ed    ...2    ORR      w13,wzr,#1
        0x400006b4:    1acc21ac    .!..    LSL      w12,w13,w12
        0x400006b8:    b940016e    n.@.    LDR      w14,[x11,#0]
        0x400006bc:    2a0c01ce    ...*    ORR      w14,w14,w12
        0x400006c0:    b900016e    n...    STR      w14,[x11,#0]
        0x400006c4:    1132016e    n.2.    ADD      w14,w11,#0xc80
        0x400006c8:    b94001cf    ..@.    LDR      w15,[x14,#0]
        0x400006cc:    0a2c01ef    ..,.    BIC      w15,w15,w12
        0x400006d0:    b90001cf    ....    STR      w15,[x14,#0]
        0x400006d4:    121d054a    J...    AND      w10,w10,#0x18
        0x400006d8:    110e0129    )...    ADD      w9,w9,#0x380
        0x400006dc:    121e7529    )u..    AND      w9,w9,#0xfffffffc
        0x400006e0:    1aca21aa    .!..    LSL      w10,w13,w10
        0x400006e4:    b940012e    ..@.    LDR      w14,[x9,#0]
        0x400006e8:    0a2a01ca    ..*.    BIC      w10,w14,w10
        0x400006ec:    b900012a    *...    STR      w10,[x9,#0]
        0x400006f0:    53027c09    .|.S    LSR      w9,w0,#2
        0x400006f4:    121e6d29    )m..    AND      w9,w9,#0x3ffffffc
        0x400006f8:    531f0c0a    ...S    UBFIZ    w10,w0,#1,#4
        0x400006fc:    0b080128    (...    ADD      w8,w9,w8
        0x40000700:    112e0108    ....    ADD      w8,w8,#0xb80
        0x40000704:    1aca21a9    .!..    LSL      w9,w13,w10
        0x40000708:    b940010a    ..@.    LDR      w10,[x8,#0]
        0x4000070c:    2a090149    I..*    ORR      w9,w10,w9
        0x40000710:    b9000109    ....    STR      w9,[x8,#0]
        0x40000714:    11020168    h...    ADD      w8,w11,#0x80
        0x40000718:    b9400109    ..@.    LDR      w9,[x8,#0]
        0x4000071c:    2a0c0129    )..*    ORR      w9,w9,w12
        0x40000720:    b9000109    ....    STR      w9,[x8,#0]
        0x40000724:    d65f03c0    .._.    RET      
        0x40000728:    00000000    ....    DCI      0x00000000 ; ? Undefined
        0x4000072c:    00000000    ....    DCI      0x00000000 ; ? Undefined
    GIC_endInterrupt
        0x40000730:    d518cc20     ...    MSR      S3_0_C12_C12_1,x0
        0x40000734:    d5033f9f    .?..    DSB      SY
        0x40000738:    d65f03c0    .._.    RET      
        0x4000073c:    00000000    ....    DCI      0x00000000 ; ? Undefined
    GIC_executeInterruptHandler
        0x40000740:    710f201f    . .q    CMP      w0,#0x3c8
        0x40000744:    54000049    I..T    B.LS     0x4000074c ; GIC_executeInterruptHandler + 12
        0x40000748:    d65f03c0    .._.    RET      
        0x4000074c:    f0000028    (...    ADRP     x8,{pc}+0x7000 ; 0x4000774c
        0x40000750:    913b6108    .a;.    ADD      x8,x8,#0xed8
        0x40000754:    f8605900    .Y`.    LDR      x0,[x8,w0,UXTW #3]
        0x40000758:    d61f0000    ....    BR       x0
        0x4000075c:    00000000    ....    DCI      0x00000000 ; ? Undefined
    GIC_getACKID
        0x40000760:    a9bf7bf3    .{..    STP      x19,x30,[sp,#-0x10]!
        0x40000764:    d538cc13    ..8.    MRS      x19,S3_0_C12_C12_0
        0x40000768:    d5033f9f    .?..    DSB      SY
        0x4000076c:    2a1303e0    ...*    MOV      w0,w19
        0x40000770:    97fffff0    ....    BL       GIC_endInterrupt ; 0x40000730
        0x40000774:    2a1303e0    ...*    MOV      w0,w19
        0x40000778:    a8c17bf3    .{..    LDP      x19,x30,[sp],#0x10
        0x4000077c:    d65f03c0    .._.    RET      
    GIC_setInterruptHandler
        0x40000780:    f0000028    (...    ADRP     x8,{pc}+0x7000 ; 0x40007780
        0x40000784:    913b6108    .a;.    ADD      x8,x8,#0xed8
        0x40000788:    f8205901    .Y .    STR      x1,[x8,w0,UXTW #3]
        0x4000078c:    d65f03c0    .._.    RET      
    I2C_configPins
        0x40000790:    52810008    ...R    MOV      w8,#0x800
        0x40000794:    72bcc0a8    ...r    MOVK     w8,#0xe605,LSL #16
        0x40000798:    91040101    ....    ADD      x1,x8,#0x100
        0x4000079c:    52810000    ...R    MOV      w0,#0x800
        0x400007a0:    72bcc0a0    ...r    MOVK     w0,#0xe605,LSL #16
        0x400007a4:    321e37e2    .7.2    ORR      w2,wzr,#0xfffc
        0x400007a8:    1400029e    ....    B        PFC_SetMultipleBit ; 0x40001220
        0x400007ac:    00000000    ....    DCI      0x00000000 ; ? Undefined
    I2C_masterClearInterruptStatus
        0x400007b0:    b9400c08    ..@.    LDR      w8,[x0,#0xc]
        0x400007b4:    0a210108    ..!.    BIC      w8,w8,w1
        0x400007b8:    b9000c08    ....    STR      w8,[x0,#0xc]
        0x400007bc:    d65f03c0    .._.    RET      
    I2C_masterDisable
        0x400007c0:    b9400408    ..@.    LDR      w8,[x0,#4]
        0x400007c4:    121c7908    .y..    AND      w8,w8,#0xfffffff7
        0x400007c8:    b9000408    ....    STR      w8,[x0,#4]
        0x400007cc:    d65f03c0    .._.    RET      
    I2C_masterDisableDMAReceive
        0x400007d0:    b9403c08    .<@.    LDR      w8,[x0,#0x3c]
        0x400007d4:    121e7908    .y..    AND      w8,w8,#0xfffffffd
        0x400007d8:    b9003c08    .<..    STR      w8,[x0,#0x3c]
        0x400007dc:    d65f03c0    .._.    RET      
    I2C_masterDisableDMATransmit
        0x400007e0:    b9403c08    .<@.    LDR      w8,[x0,#0x3c]
        0x400007e4:    121f7908    .y..    AND      w8,w8,#0xfffffffe
        0x400007e8:    b9003c08    .<..    STR      w8,[x0,#0x3c]
        0x400007ec:    d65f03c0    .._.    RET      
    I2C_masterDisableStartByteTransmit
        0x400007f0:    b9400408    ..@.    LDR      w8,[x0,#4]
        0x400007f4:    121d7908    .y..    AND      w8,w8,#0xfffffffb
        0x400007f8:    b9000408    ....    STR      w8,[x0,#4]
        0x400007fc:    d65f03c0    .._.    RET      
    I2C_masterDisableStartGeneration
        0x40000800:    b9400408    ..@.    LDR      w8,[x0,#4]
        0x40000804:    121f7908    .y..    AND      w8,w8,#0xfffffffe
        0x40000808:    b9000408    ....    STR      w8,[x0,#4]
        0x4000080c:    d65f03c0    .._.    RET      
    I2C_masterEnable
        0x40000810:    b9400408    ..@.    LDR      w8,[x0,#4]
        0x40000814:    321d0108    ...2    ORR      w8,w8,#8
        0x40000818:    b9000408    ....    STR      w8,[x0,#4]
        0x4000081c:    d65f03c0    .._.    RET      
    I2C_masterEnableDMAContinuousReceive
        0x40000820:    b9403c08    .<@.    LDR      w8,[x0,#0x3c]
        0x40000824:    321a0108    ...2    ORR      w8,w8,#0x40
        0x40000828:    b9003c08    .<..    STR      w8,[x0,#0x3c]
        0x4000082c:    d65f03c0    .._.    RET      
    I2C_masterEnableDMAReceive
        0x40000830:    b9403c08    .<@.    LDR      w8,[x0,#0x3c]
        0x40000834:    321f0108    ...2    ORR      w8,w8,#2
        0x40000838:    b9003c08    .<..    STR      w8,[x0,#0x3c]
        0x4000083c:    d65f03c0    .._.    RET      
    I2C_masterEnableDMATransmit
        0x40000840:    b9403c08    .<@.    LDR      w8,[x0,#0x3c]
        0x40000844:    32000108    ...2    ORR      w8,w8,#1
        0x40000848:    b9003c08    .<..    STR      w8,[x0,#0x3c]
        0x4000084c:    d65f03c0    .._.    RET      
    I2C_masterEnableInterrupt
        0x40000850:    b9401408    ..@.    LDR      w8,[x0,#0x14]
        0x40000854:    2a010108    ...*    ORR      w8,w8,w1
        0x40000858:    b9001408    ....    STR      w8,[x0,#0x14]
        0x4000085c:    d65f03c0    .._.    RET      
    I2C_masterGetInterruptStatus
        0x40000860:    b9400c08    ..@.    LDR      w8,[x0,#0xc]
        0x40000864:    12001d00    ....    AND      w0,w8,#0xff
        0x40000868:    d65f03c0    .._.    RET      
        0x4000086c:    00000000    ....    DCI      0x00000000 ; ? Undefined
    I2C_masterInit
        0x40000870:    39401028    (.@9    LDRB     w8,[x1,#4]
        0x40000874:    b9400029    ).@.    LDR      w9,[x1,#0]
        0x40000878:    2a080528    (..*    ORR      w8,w9,w8,LSL #1
        0x4000087c:    b9002008    . ..    STR      w8,[x0,#0x20]
        0x40000880:    b9400828    (.@.    LDR      w8,[x1,#8]
        0x40000884:    7100051f    ...q    CMP      w8,#1
        0x40000888:    321903e8    ...2    ORR      w8,wzr,#0x80
        0x4000088c:    52801089    ...R    MOV      w9,#0x84
        0x40000890:    1a880128    (...    CSEL     w8,w9,w8,EQ
        0x40000894:    b9000408    ....    STR      w8,[x0,#4]
        0x40000898:    b9400c28    (.@.    LDR      w8,[x1,#0xc]
        0x4000089c:    7100051f    ...q    CMP      w8,#1
        0x400008a0:    54000200    ...T    B.EQ     0x400008e0 ; I2C_masterInit + 112
        0x400008a4:    350004a8    ...5    CBNZ     w8,0x40000938 ; I2C_masterInit + 200
        0x400008a8:    b9401028    (.@.    LDR      w8,[x1,#0x10]
        0x400008ac:    7100051f    ...q    CMP      w8,#1
        0x400008b0:    54000620     ..T    B.EQ     0x40000974 ; I2C_masterInit + 260
        0x400008b4:    35000428    (..5    CBNZ     w8,0x40000938 ; I2C_masterInit + 200
        0x400008b8:    b9402808    .(@.    LDR      w8,[x0,#0x28]
        0x400008bc:    121d7108    .q..    AND      w8,w8,#0xfffffff8
        0x400008c0:    b9002808    .(..    STR      w8,[x0,#0x28]
        0x400008c4:    b9401428    (.@.    LDR      w8,[x1,#0x14]
        0x400008c8:    7100191f    ...q    CMP      w8,#6
        0x400008cc:    540003c8    ...T    B.HI     0x40000944 ; I2C_masterInit + 212
        0x400008d0:    d0000029    )...    ADRP     x9,{pc}+0x6000 ; 0x400068d0
        0x400008d4:    9135a129    ).5.    ADD      x9,x9,#0xd68
        0x400008d8:    f8687928    (yh.    LDR      x8,[x9,x8,LSL #3]
        0x400008dc:    d61f0100    ....    BR       x8
        0x400008e0:    b9401028    (.@.    LDR      w8,[x1,#0x10]
        0x400008e4:    7100051f    ...q    CMP      w8,#1
        0x400008e8:    54000620     ..T    B.EQ     0x400009ac ; I2C_masterInit + 316
        0x400008ec:    35000268    h..5    CBNZ     w8,0x40000938 ; I2C_masterInit + 200
        0x400008f0:    b9402808    .(@.    LDR      w8,[x0,#0x28]
        0x400008f4:    121d7108    .q..    AND      w8,w8,#0xfffffff8
        0x400008f8:    b9002808    .(..    STR      w8,[x0,#0x28]
        0x400008fc:    b9401428    (.@.    LDR      w8,[x1,#0x14]
        0x40000900:    7100191f    ...q    CMP      w8,#6
        0x40000904:    54000208    ...T    B.HI     0x40000944 ; I2C_masterInit + 212
        0x40000908:    d0000029    )...    ADRP     x9,{pc}+0x6000 ; 0x40006908
        0x4000090c:    9133e129    ).3.    ADD      x9,x9,#0xcf8
        0x40000910:    f8687928    (yh.    LDR      x8,[x9,x8,LSL #3]
        0x40000914:    d61f0100    ....    BR       x8
        0x40000918:    b9401808    ..@.    LDR      w8,[x0,#0x18]
        0x4000091c:    121d7108    .q..    AND      w8,w8,#0xfffffff8
        0x40000920:    321f0508    ...2    ORR      w8,w8,#6
        0x40000924:    b9001808    ....    STR      w8,[x0,#0x18]
        0x40000928:    b9401808    ..@.    LDR      w8,[x0,#0x18]
        0x4000092c:    52800589    ...R    MOV      w9,#0x2c
        0x40000930:    331d1528    (..3    BFI      w8,w9,#3,#6
        0x40000934:    1400000b    ....    B        0x40000960 ; I2C_masterInit + 240
        0x40000938:    b9402808    .(@.    LDR      w8,[x0,#0x28]
        0x4000093c:    121d7108    .q..    AND      w8,w8,#0xfffffff8
        0x40000940:    b9002808    .(..    STR      w8,[x0,#0x28]
        0x40000944:    b9401808    ..@.    LDR      w8,[x0,#0x18]
        0x40000948:    121d7108    .q..    AND      w8,w8,#0xfffffff8
        0x4000094c:    321f0508    ...2    ORR      w8,w8,#6
        0x40000950:    b9001808    ....    STR      w8,[x0,#0x18]
        0x40000954:    b9401808    ..@.    LDR      w8,[x0,#0x18]
        0x40000958:    12176508    .e..    AND      w8,w8,#0xfffffe07
        0x4000095c:    321d0508    ...2    ORR      w8,w8,#0x18
        0x40000960:    b9001808    ....    STR      w8,[x0,#0x18]
        0x40000964:    b9002c1f    .,..    STR      wzr,[x0,#0x2c]
        0x40000968:    b900301f    .0..    STR      wzr,[x0,#0x30]
        0x4000096c:    b900341f    .4..    STR      wzr,[x0,#0x34]
        0x40000970:    d65f03c0    .._.    RET      
        0x40000974:    b9402808    .(@.    LDR      w8,[x0,#0x28]
        0x40000978:    32000908    ...2    ORR      w8,w8,#7
        0x4000097c:    b9002808    .(..    STR      w8,[x0,#0x28]
        0x40000980:    b9403808    .8@.    LDR      w8,[x0,#0x38]
        0x40000984:    121b6908    .i..    AND      w8,w8,#0xffffffe0
        0x40000988:    32000d08    ...2    ORR      w8,w8,#0xf
        0x4000098c:    b9003808    .8..    STR      w8,[x0,#0x38]
        0x40000990:    b9401428    (.@.    LDR      w8,[x1,#0x14]
        0x40000994:    7100191f    ...q    CMP      w8,#6
        0x40000998:    54000428    (..T    B.HI     0x40000a1c ; I2C_masterInit + 428
        0x4000099c:    d0000029    )...    ADRP     x9,{pc}+0x6000 ; 0x4000699c
        0x400009a0:    9134c129    ).4.    ADD      x9,x9,#0xd30
        0x400009a4:    f8687928    (yh.    LDR      x8,[x9,x8,LSL #3]
        0x400009a8:    d61f0100    ....    BR       x8
        0x400009ac:    b9402808    .(@.    LDR      w8,[x0,#0x28]
        0x400009b0:    32000908    ...2    ORR      w8,w8,#7
        0x400009b4:    b9002808    .(..    STR      w8,[x0,#0x28]
        0x400009b8:    b9403808    .8@.    LDR      w8,[x0,#0x38]
        0x400009bc:    121b6908    .i..    AND      w8,w8,#0xffffffe0
        0x400009c0:    32000d08    ...2    ORR      w8,w8,#0xf
        0x400009c4:    b9003808    .8..    STR      w8,[x0,#0x38]
        0x400009c8:    b9401428    (.@.    LDR      w8,[x1,#0x14]
        0x400009cc:    7100191f    ...q    CMP      w8,#6
        0x400009d0:    54000268    h..T    B.HI     0x40000a1c ; I2C_masterInit + 428
        0x400009d4:    d0000029    )...    ADRP     x9,{pc}+0x6000 ; 0x400069d4
        0x400009d8:    91330129    ).3.    ADD      x9,x9,#0xcc0
        0x400009dc:    f8687928    (yh.    LDR      x8,[x9,x8,LSL #3]
        0x400009e0:    d61f0100    ....    BR       x8
        0x400009e4:    b9401808    ..@.    LDR      w8,[x0,#0x18]
        0x400009e8:    121d7108    .q..    AND      w8,w8,#0xfffffff8
        0x400009ec:    321f0508    ...2    ORR      w8,w8,#6
        0x400009f0:    b9001808    ....    STR      w8,[x0,#0x18]
        0x400009f4:    b9401808    ..@.    LDR      w8,[x0,#0x18]
        0x400009f8:    12176508    .e..    AND      w8,w8,#0xfffffe07
        0x400009fc:    b9001808    ....    STR      w8,[x0,#0x18]
        0x40000a00:    321e0be8    ...2    ORR      w8,wzr,#0x1c
        0x40000a04:    5280a029    )..R    MOV      w9,#0x501
        0x40000a08:    b9002c08    .,..    STR      w8,[x0,#0x2c]
        0x40000a0c:    b9003009    .0..    STR      w9,[x0,#0x30]
        0x40000a10:    5280a288    ...R    MOV      w8,#0x514
        0x40000a14:    b9003408    .4..    STR      w8,[x0,#0x34]
        0x40000a18:    d65f03c0    .._.    RET      
        0x40000a1c:    b9401808    ..@.    LDR      w8,[x0,#0x18]
        0x40000a20:    121d7108    .q..    AND      w8,w8,#0xfffffff8
        0x40000a24:    321f0508    ...2    ORR      w8,w8,#6
        0x40000a28:    b9001808    ....    STR      w8,[x0,#0x18]
        0x40000a2c:    b9401808    ..@.    LDR      w8,[x0,#0x18]
        0x40000a30:    12176508    .e..    AND      w8,w8,#0xfffffe07
        0x40000a34:    b9001808    ....    STR      w8,[x0,#0x18]
        0x40000a38:    321e0be8    ...2    ORR      w8,wzr,#0x1c
        0x40000a3c:    52800e69    i..R    MOV      w9,#0x73
        0x40000a40:    b9002c08    .,..    STR      w8,[x0,#0x2c]
        0x40000a44:    b9003009    .0..    STR      w9,[x0,#0x30]
        0x40000a48:    528010a8    ...R    MOV      w8,#0x85
        0x40000a4c:    b9003408    .4..    STR      w8,[x0,#0x34]
        0x40000a50:    d65f03c0    .._.    RET      
        0x40000a54:    b9401808    ..@.    LDR      w8,[x0,#0x18]
        0x40000a58:    121d7108    .q..    AND      w8,w8,#0xfffffff8
        0x40000a5c:    321f0508    ...2    ORR      w8,w8,#6
        0x40000a60:    b9001808    ....    STR      w8,[x0,#0x18]
        0x40000a64:    b9401808    ..@.    LDR      w8,[x0,#0x18]
        0x40000a68:    52800289    ...R    MOV      w9,#0x14
        0x40000a6c:    331d1528    (..3    BFI      w8,w9,#3,#6
        0x40000a70:    17ffffbc    ....    B        0x40000960 ; I2C_masterInit + 240
        0x40000a74:    b9401808    ..@.    LDR      w8,[x0,#0x18]
        0x40000a78:    121d7108    .q..    AND      w8,w8,#0xfffffff8
        0x40000a7c:    321f0508    ...2    ORR      w8,w8,#6
        0x40000a80:    b9001808    ....    STR      w8,[x0,#0x18]
        0x40000a84:    b9401808    ..@.    LDR      w8,[x0,#0x18]
        0x40000a88:    52800129    )..R    MOV      w9,#9
        0x40000a8c:    331d1528    (..3    BFI      w8,w9,#3,#6
        0x40000a90:    17ffffb4    ....    B        0x40000960 ; I2C_masterInit + 240
        0x40000a94:    b9401808    ..@.    LDR      w8,[x0,#0x18]
        0x40000a98:    121d7108    .q..    AND      w8,w8,#0xfffffff8
        0x40000a9c:    321f0508    ...2    ORR      w8,w8,#6
        0x40000aa0:    b9001808    ....    STR      w8,[x0,#0x18]
        0x40000aa4:    b9401808    ..@.    LDR      w8,[x0,#0x18]
        0x40000aa8:    12176508    .e..    AND      w8,w8,#0xfffffe07
        0x40000aac:    321d0908    ...2    ORR      w8,w8,#0x38
        0x40000ab0:    17ffffac    ....    B        0x40000960 ; I2C_masterInit + 240
        0x40000ab4:    b9401808    ..@.    LDR      w8,[x0,#0x18]
        0x40000ab8:    121d7108    .q..    AND      w8,w8,#0xfffffff8
        0x40000abc:    321f0508    ...2    ORR      w8,w8,#6
        0x40000ac0:    b9001808    ....    STR      w8,[x0,#0x18]
        0x40000ac4:    b9401808    ..@.    LDR      w8,[x0,#0x18]
        0x40000ac8:    528000a9    ...R    MOV      w9,#5
        0x40000acc:    331d1528    (..3    BFI      w8,w9,#3,#6
        0x40000ad0:    17ffffa4    ....    B        0x40000960 ; I2C_masterInit + 240
        0x40000ad4:    b9401808    ..@.    LDR      w8,[x0,#0x18]
        0x40000ad8:    121d7108    .q..    AND      w8,w8,#0xfffffff8
        0x40000adc:    321f0508    ...2    ORR      w8,w8,#6
        0x40000ae0:    b9001808    ....    STR      w8,[x0,#0x18]
        0x40000ae4:    b9401808    ..@.    LDR      w8,[x0,#0x18]
        0x40000ae8:    12176508    .e..    AND      w8,w8,#0xfffffe07
        0x40000aec:    321d0508    ...2    ORR      w8,w8,#0x18
        0x40000af0:    b9001808    ....    STR      w8,[x0,#0x18]
        0x40000af4:    b9002c1f    .,..    STR      wzr,[x0,#0x2c]
        0x40000af8:    b900301f    .0..    STR      wzr,[x0,#0x30]
        0x40000afc:    b900341f    .4..    STR      wzr,[x0,#0x34]
        0x40000b00:    14000046    F...    B        0x40000c18 ; I2C_masterInit + 936
        0x40000b04:    b9401808    ..@.    LDR      w8,[x0,#0x18]
        0x40000b08:    121d7108    .q..    AND      w8,w8,#0xfffffff8
        0x40000b0c:    321f0508    ...2    ORR      w8,w8,#6
        0x40000b10:    b9001808    ....    STR      w8,[x0,#0x18]
        0x40000b14:    b9401808    ..@.    LDR      w8,[x0,#0x18]
        0x40000b18:    12176508    .e..    AND      w8,w8,#0xfffffe07
        0x40000b1c:    b9001808    ....    STR      w8,[x0,#0x18]
        0x40000b20:    321e0be8    ...2    ORR      w8,wzr,#0x1c
        0x40000b24:    52804ce9    .L.R    MOV      w9,#0x267
        0x40000b28:    b9002c08    .,..    STR      w8,[x0,#0x2c]
        0x40000b2c:    b9003009    .0..    STR      w9,[x0,#0x30]
        0x40000b30:    52804f28    (O.R    MOV      w8,#0x279
        0x40000b34:    b9003408    .4..    STR      w8,[x0,#0x34]
        0x40000b38:    d65f03c0    .._.    RET      
        0x40000b3c:    b9401808    ..@.    LDR      w8,[x0,#0x18]
        0x40000b40:    121d7108    .q..    AND      w8,w8,#0xfffffff8
        0x40000b44:    321f0508    ...2    ORR      w8,w8,#6
        0x40000b48:    b9001808    ....    STR      w8,[x0,#0x18]
        0x40000b4c:    b9401808    ..@.    LDR      w8,[x0,#0x18]
        0x40000b50:    12176508    .e..    AND      w8,w8,#0xfffffe07
        0x40000b54:    b9001808    ....    STR      w8,[x0,#0x18]
        0x40000b58:    321e0be8    ...2    ORR      w8,wzr,#0x1c
        0x40000b5c:    52802329    )#.R    MOV      w9,#0x119
        0x40000b60:    b9002c08    .,..    STR      w8,[x0,#0x2c]
        0x40000b64:    b9003009    .0..    STR      w9,[x0,#0x30]
        0x40000b68:    52802588    .%.R    MOV      w8,#0x12c
        0x40000b6c:    b9003408    .4..    STR      w8,[x0,#0x34]
        0x40000b70:    d65f03c0    .._.    RET      
        0x40000b74:    b9401808    ..@.    LDR      w8,[x0,#0x18]
        0x40000b78:    121d7108    .q..    AND      w8,w8,#0xfffffff8
        0x40000b7c:    321f0508    ...2    ORR      w8,w8,#6
        0x40000b80:    b9001808    ....    STR      w8,[x0,#0x18]
        0x40000b84:    b9401808    ..@.    LDR      w8,[x0,#0x18]
        0x40000b88:    12176508    .e..    AND      w8,w8,#0xfffffe07
        0x40000b8c:    b9001808    ....    STR      w8,[x0,#0x18]
        0x40000b90:    321e0be8    ...2    ORR      w8,wzr,#0x1c
        0x40000b94:    52801ae9    ...R    MOV      w9,#0xd7
        0x40000b98:    b9002c08    .,..    STR      w8,[x0,#0x2c]
        0x40000b9c:    b9003009    .0..    STR      w9,[x0,#0x30]
        0x40000ba0:    52801d28    (..R    MOV      w8,#0xe9
        0x40000ba4:    b9003408    .4..    STR      w8,[x0,#0x34]
        0x40000ba8:    d65f03c0    .._.    RET      
        0x40000bac:    b9401808    ..@.    LDR      w8,[x0,#0x18]
        0x40000bb0:    121d7108    .q..    AND      w8,w8,#0xfffffff8
        0x40000bb4:    321f0508    ...2    ORR      w8,w8,#6
        0x40000bb8:    b9001808    ....    STR      w8,[x0,#0x18]
        0x40000bbc:    b9401808    ..@.    LDR      w8,[x0,#0x18]
        0x40000bc0:    12176508    .e..    AND      w8,w8,#0xfffffe07
        0x40000bc4:    b9001808    ....    STR      w8,[x0,#0x18]
        0x40000bc8:    321e0be8    ...2    ORR      w8,wzr,#0x1c
        0x40000bcc:    52801549    I..R    MOV      w9,#0xaa
        0x40000bd0:    b9002c08    .,..    STR      w8,[x0,#0x2c]
        0x40000bd4:    b9003009    .0..    STR      w9,[x0,#0x30]
        0x40000bd8:    528017a8    ...R    MOV      w8,#0xbd
        0x40000bdc:    b9003408    .4..    STR      w8,[x0,#0x34]
        0x40000be0:    d65f03c0    .._.    RET      
        0x40000be4:    b9401808    ..@.    LDR      w8,[x0,#0x18]
        0x40000be8:    121d7108    .q..    AND      w8,w8,#0xfffffff8
        0x40000bec:    321f0508    ...2    ORR      w8,w8,#6
        0x40000bf0:    b9001808    ....    STR      w8,[x0,#0x18]
        0x40000bf4:    b9401808    ..@.    LDR      w8,[x0,#0x18]
        0x40000bf8:    12176508    .e..    AND      w8,w8,#0xfffffe07
        0x40000bfc:    b9001808    ....    STR      w8,[x0,#0x18]
        0x40000c00:    52800368    h..R    MOV      w8,#0x1b
        0x40000c04:    b9002c08    .,..    STR      w8,[x0,#0x2c]
        0x40000c08:    321b03e8    ...2    ORR      w8,wzr,#0x20
        0x40000c0c:    b9003008    .0..    STR      w8,[x0,#0x30]
        0x40000c10:    528004e8    ...R    MOV      w8,#0x27
        0x40000c14:    b9003408    .4..    STR      w8,[x0,#0x34]
        0x40000c18:    b9402808    .(@.    LDR      w8,[x0,#0x28]
        0x40000c1c:    32190108    ...2    ORR      w8,w8,#0x80
        0x40000c20:    b9002808    .(..    STR      w8,[x0,#0x28]
        0x40000c24:    d65f03c0    .._.    RET      
        0x40000c28:    00000000    ....    DCI      0x00000000 ; ? Undefined
        0x40000c2c:    00000000    ....    DCI      0x00000000 ; ? Undefined
    I2C_masterReceiveMultipleByteFinish
        0x40000c30:    b9402408    .$@.    LDR      w8,[x0,#0x24]
        0x40000c34:    12001d00    ....    AND      w0,w8,#0xff
        0x40000c38:    d65f03c0    .._.    RET      
        0x40000c3c:    00000000    ....    DCI      0x00000000 ; ? Undefined
    I2C_masterReceiveMultipleByteNext
        0x40000c40:    b9402408    .$@.    LDR      w8,[x0,#0x24]
        0x40000c44:    12001d00    ....    AND      w0,w8,#0xff
        0x40000c48:    d65f03c0    .._.    RET      
        0x40000c4c:    00000000    ....    DCI      0x00000000 ; ? Undefined
    I2C_masterReceiveMultipleByteStop
        0x40000c50:    b9400408    ..@.    LDR      w8,[x0,#4]
        0x40000c54:    321f0108    ...2    ORR      w8,w8,#2
        0x40000c58:    b9000408    ....    STR      w8,[x0,#4]
        0x40000c5c:    b9402408    .$@.    LDR      w8,[x0,#0x24]
        0x40000c60:    12001d00    ....    AND      w0,w8,#0xff
        0x40000c64:    d65f03c0    .._.    RET      
        0x40000c68:    00000000    ....    DCI      0x00000000 ; ? Undefined
        0x40000c6c:    00000000    ....    DCI      0x00000000 ; ? Undefined
    I2C_masterReceiveStart
        0x40000c70:    b9400408    ..@.    LDR      w8,[x0,#4]
        0x40000c74:    32000108    ...2    ORR      w8,w8,#1
        0x40000c78:    b9000408    ....    STR      w8,[x0,#4]
        0x40000c7c:    d65f03c0    .._.    RET      
    I2C_masterRestart
        0x40000c80:    12001c28    (...    AND      w8,w1,#0xff
        0x40000c84:    2a080448    H..*    ORR      w8,w2,w8,LSL #1
        0x40000c88:    b9002008    . ..    STR      w8,[x0,#0x20]
        0x40000c8c:    b9400408    ..@.    LDR      w8,[x0,#4]
        0x40000c90:    32000108    ...2    ORR      w8,w8,#1
        0x40000c94:    b9000408    ....    STR      w8,[x0,#4]
        0x40000c98:    d65f03c0    .._.    RET      
        0x40000c9c:    00000000    ....    DCI      0x00000000 ; ? Undefined
    I2C_masterSendMultipleByteNext
        0x40000ca0:    b9002401    .$..    STR      w1,[x0,#0x24]
        0x40000ca4:    d65f03c0    .._.    RET      
        0x40000ca8:    00000000    ....    DCI      0x00000000 ; ? Undefined
        0x40000cac:    00000000    ....    DCI      0x00000000 ; ? Undefined
    I2C_masterSendMultipleByteStart
        0x40000cb0:    b9002401    .$..    STR      w1,[x0,#0x24]
        0x40000cb4:    b9400408    ..@.    LDR      w8,[x0,#4]
        0x40000cb8:    32000108    ...2    ORR      w8,w8,#1
        0x40000cbc:    b9000408    ....    STR      w8,[x0,#4]
        0x40000cc0:    d65f03c0    .._.    RET      
        0x40000cc4:    00000000    ....    DCI      0x00000000 ; ? Undefined
        0x40000cc8:    00000000    ....    DCI      0x00000000 ; ? Undefined
        0x40000ccc:    00000000    ....    DCI      0x00000000 ; ? Undefined
    I2C_masterSendMultipleByteStop
        0x40000cd0:    b9400408    ..@.    LDR      w8,[x0,#4]
        0x40000cd4:    321f0108    ...2    ORR      w8,w8,#2
        0x40000cd8:    b9000408    ....    STR      w8,[x0,#4]
        0x40000cdc:    d65f03c0    .._.    RET      
    I2C_masterSetDMAContinuousReceiveBlockCount
        0x40000ce0:    12001c28    (...    AND      w8,w1,#0xff
        0x40000ce4:    b9403c09    .<@.    LDR      w9,[x0,#0x3c]
        0x40000ce8:    33101d09    ...3    BFI      w9,w8,#16,#8
        0x40000cec:    b9003c09    .<..    STR      w9,[x0,#0x3c]
        0x40000cf0:    d65f03c0    .._.    RET      
        0x40000cf4:    00000000    ....    DCI      0x00000000 ; ? Undefined
        0x40000cf8:    00000000    ....    DCI      0x00000000 ; ? Undefined
        0x40000cfc:    00000000    ....    DCI      0x00000000 ; ? Undefined
    I2C_masterSetDMAContinuousTransferCount
        0x40000d00:    b9403c08    .<@.    LDR      w8,[x0,#0x3c]
        0x40000d04:    33081c28    (..3    BFI      w8,w1,#24,#8
        0x40000d08:    b9003c08    .<..    STR      w8,[x0,#0x3c]
        0x40000d0c:    d65f03c0    .._.    RET      
    I2C_modelConnect
        0x40000d10:    d65f03c0    .._.    RET      
        0x40000d14:    00000000    ....    DCI      0x00000000 ; ? Undefined
        0x40000d18:    00000000    ....    DCI      0x00000000 ; ? Undefined
        0x40000d1c:    00000000    ....    DCI      0x00000000 ; ? Undefined
    I2C_modelDisable
        0x40000d20:    d65f03c0    .._.    RET      
        0x40000d24:    00000000    ....    DCI      0x00000000 ; ? Undefined
        0x40000d28:    00000000    ....    DCI      0x00000000 ; ? Undefined
        0x40000d2c:    00000000    ....    DCI      0x00000000 ; ? Undefined
    I2C_releasePins
        0x40000d30:    52810008    ...R    MOV      w8,#0x800
        0x40000d34:    72bcc0a8    ...r    MOVK     w8,#0xe605,LSL #16
        0x40000d38:    91040101    ....    ADD      x1,x8,#0x100
        0x40000d3c:    52810000    ...R    MOV      w0,#0x800
        0x40000d40:    72bcc0a0    ...r    MOVK     w0,#0xe605,LSL #16
        0x40000d44:    321e37e2    .7.2    ORR      w2,wzr,#0xfffc
        0x40000d48:    1400012e    ....    B        PFC_ClearMultipleBit ; 0x40001200
        0x40000d4c:    00000000    ....    DCI      0x00000000 ; ? Undefined
    I2C_slaveClearInterruptStatus
        0x40000d50:    b9400808    ..@.    LDR      w8,[x0,#8]
        0x40000d54:    0a210108    ..!.    BIC      w8,w8,w1
        0x40000d58:    b9000808    ....    STR      w8,[x0,#8]
        0x40000d5c:    d65f03c0    .._.    RET      
    I2C_slaveDisable
        0x40000d60:    b9400008    ..@.    LDR      w8,[x0,#0]
        0x40000d64:    121d7908    .y..    AND      w8,w8,#0xfffffffb
        0x40000d68:    b9000008    ....    STR      w8,[x0,#0]
        0x40000d6c:    d65f03c0    .._.    RET      
    I2C_slaveDisableDMAReceive
        0x40000d70:    b9403c08    .<@.    LDR      w8,[x0,#0x3c]
        0x40000d74:    121c7908    .y..    AND      w8,w8,#0xfffffff7
        0x40000d78:    b9003c08    .<..    STR      w8,[x0,#0x3c]
        0x40000d7c:    d65f03c0    .._.    RET      
    I2C_slaveDisableDMATransmit
        0x40000d80:    b9403c08    .<@.    LDR      w8,[x0,#0x3c]
        0x40000d84:    121d7908    .y..    AND      w8,w8,#0xfffffffb
        0x40000d88:    b9003c08    .<..    STR      w8,[x0,#0x3c]
        0x40000d8c:    d65f03c0    .._.    RET      
    I2C_slaveEnable
        0x40000d90:    b9400008    ..@.    LDR      w8,[x0,#0]
        0x40000d94:    321e0108    ...2    ORR      w8,w8,#4
        0x40000d98:    b9000008    ....    STR      w8,[x0,#0]
        0x40000d9c:    d65f03c0    .._.    RET      
    I2C_slaveEnableDMAReceive
        0x40000da0:    b9403c08    .<@.    LDR      w8,[x0,#0x3c]
        0x40000da4:    321d0108    ...2    ORR      w8,w8,#8
        0x40000da8:    b9003c08    .<..    STR      w8,[x0,#0x3c]
        0x40000dac:    d65f03c0    .._.    RET      
    I2C_slaveEnableDMATransmit
        0x40000db0:    b9403c08    .<@.    LDR      w8,[x0,#0x3c]
        0x40000db4:    321e0108    ...2    ORR      w8,w8,#4
        0x40000db8:    b9003c08    .<..    STR      w8,[x0,#0x3c]
        0x40000dbc:    d65f03c0    .._.    RET      
    I2C_slaveEnableInterrupt
        0x40000dc0:    b9401008    ..@.    LDR      w8,[x0,#0x10]
        0x40000dc4:    2a010108    ...*    ORR      w8,w8,w1
        0x40000dc8:    b9001008    ....    STR      w8,[x0,#0x10]
        0x40000dcc:    d65f03c0    .._.    RET      
    I2C_slaveGetInterruptStatus
        0x40000dd0:    b9400808    ..@.    LDR      w8,[x0,#8]
        0x40000dd4:    12001d00    ....    AND      w0,w8,#0xff
        0x40000dd8:    d65f03c0    .._.    RET      
        0x40000ddc:    00000000    ....    DCI      0x00000000 ; ? Undefined
    I2C_slaveInit
        0x40000de0:    39400028    (.@9    LDRB     w8,[x1,#0]
        0x40000de4:    b9001c08    ....    STR      w8,[x0,#0x1c]
        0x40000de8:    2940a428    (.@)    LDP      w8,w9,[x1,#4]
        0x40000dec:    7100051f    ...q    CMP      w8,#1
        0x40000df0:    321d03e8    ...2    ORR      w8,wzr,#8
        0x40000df4:    321d07ea    ...2    ORR      w10,wzr,#0x18
        0x40000df8:    1a880148    H...    CSEL     w8,w10,w8,EQ
        0x40000dfc:    321f010a    ...2    ORR      w10,w8,#2
        0x40000e00:    7100053f    ?..q    CMP      w9,#1
        0x40000e04:    1a880148    H...    CSEL     w8,w10,w8,EQ
        0x40000e08:    b9000008    ....    STR      w8,[x0,#0]
        0x40000e0c:    b9400c28    (.@.    LDR      w8,[x1,#0xc]
        0x40000e10:    7100051f    ...q    CMP      w8,#1
        0x40000e14:    54000200    ...T    B.EQ     0x40000e54 ; I2C_slaveInit + 116
        0x40000e18:    350004a8    ...5    CBNZ     w8,0x40000eac ; I2C_slaveInit + 204
        0x40000e1c:    b9401028    (.@.    LDR      w8,[x1,#0x10]
        0x40000e20:    7100051f    ...q    CMP      w8,#1
        0x40000e24:    54000620     ..T    B.EQ     0x40000ee8 ; I2C_slaveInit + 264
        0x40000e28:    35000428    (..5    CBNZ     w8,0x40000eac ; I2C_slaveInit + 204
        0x40000e2c:    b9402808    .(@.    LDR      w8,[x0,#0x28]
        0x40000e30:    121d7108    .q..    AND      w8,w8,#0xfffffff8
        0x40000e34:    b9002808    .(..    STR      w8,[x0,#0x28]
        0x40000e38:    b9401428    (.@.    LDR      w8,[x1,#0x14]
        0x40000e3c:    7100191f    ...q    CMP      w8,#6
        0x40000e40:    540003c8    ...T    B.HI     0x40000eb8 ; I2C_slaveInit + 216
        0x40000e44:    d0000029    )...    ADRP     x9,{pc}+0x6000 ; 0x40006e44
        0x40000e48:    91392129    )!9.    ADD      x9,x9,#0xe48
        0x40000e4c:    f8687928    (yh.    LDR      x8,[x9,x8,LSL #3]
        0x40000e50:    d61f0100    ....    BR       x8
        0x40000e54:    b9401028    (.@.    LDR      w8,[x1,#0x10]
        0x40000e58:    7100051f    ...q    CMP      w8,#1
        0x40000e5c:    54000620     ..T    B.EQ     0x40000f20 ; I2C_slaveInit + 320
        0x40000e60:    35000268    h..5    CBNZ     w8,0x40000eac ; I2C_slaveInit + 204
        0x40000e64:    b9402808    .(@.    LDR      w8,[x0,#0x28]
        0x40000e68:    121d7108    .q..    AND      w8,w8,#0xfffffff8
        0x40000e6c:    b9002808    .(..    STR      w8,[x0,#0x28]
        0x40000e70:    b9401428    (.@.    LDR      w8,[x1,#0x14]
        0x40000e74:    7100191f    ...q    CMP      w8,#6
        0x40000e78:    54000208    ...T    B.HI     0x40000eb8 ; I2C_slaveInit + 216
        0x40000e7c:    d0000029    )...    ADRP     x9,{pc}+0x6000 ; 0x40006e7c
        0x40000e80:    91376129    )a7.    ADD      x9,x9,#0xdd8
        0x40000e84:    f8687928    (yh.    LDR      x8,[x9,x8,LSL #3]
        0x40000e88:    d61f0100    ....    BR       x8
        0x40000e8c:    b9401808    ..@.    LDR      w8,[x0,#0x18]
        0x40000e90:    121d7108    .q..    AND      w8,w8,#0xfffffff8
        0x40000e94:    321f0508    ...2    ORR      w8,w8,#6
        0x40000e98:    b9001808    ....    STR      w8,[x0,#0x18]
        0x40000e9c:    b9401808    ..@.    LDR      w8,[x0,#0x18]
        0x40000ea0:    52800589    ...R    MOV      w9,#0x2c
        0x40000ea4:    331d1528    (..3    BFI      w8,w9,#3,#6
        0x40000ea8:    1400000b    ....    B        0x40000ed4 ; I2C_slaveInit + 244
        0x40000eac:    b9402808    .(@.    LDR      w8,[x0,#0x28]
        0x40000eb0:    121d7108    .q..    AND      w8,w8,#0xfffffff8
        0x40000eb4:    b9002808    .(..    STR      w8,[x0,#0x28]
        0x40000eb8:    b9401808    ..@.    LDR      w8,[x0,#0x18]
        0x40000ebc:    121d7108    .q..    AND      w8,w8,#0xfffffff8
        0x40000ec0:    321f0508    ...2    ORR      w8,w8,#6
        0x40000ec4:    b9001808    ....    STR      w8,[x0,#0x18]
        0x40000ec8:    b9401808    ..@.    LDR      w8,[x0,#0x18]
        0x40000ecc:    12176508    .e..    AND      w8,w8,#0xfffffe07
        0x40000ed0:    321d0508    ...2    ORR      w8,w8,#0x18
        0x40000ed4:    b9001808    ....    STR      w8,[x0,#0x18]
        0x40000ed8:    b9002c1f    .,..    STR      wzr,[x0,#0x2c]
        0x40000edc:    b900301f    .0..    STR      wzr,[x0,#0x30]
        0x40000ee0:    b900341f    .4..    STR      wzr,[x0,#0x34]
        0x40000ee4:    d65f03c0    .._.    RET      
        0x40000ee8:    b9402808    .(@.    LDR      w8,[x0,#0x28]
        0x40000eec:    32000908    ...2    ORR      w8,w8,#7
        0x40000ef0:    b9002808    .(..    STR      w8,[x0,#0x28]
        0x40000ef4:    b9403808    .8@.    LDR      w8,[x0,#0x38]
        0x40000ef8:    121b6908    .i..    AND      w8,w8,#0xffffffe0
        0x40000efc:    32000d08    ...2    ORR      w8,w8,#0xf
        0x40000f00:    b9003808    .8..    STR      w8,[x0,#0x38]
        0x40000f04:    b9401428    (.@.    LDR      w8,[x1,#0x14]
        0x40000f08:    7100191f    ...q    CMP      w8,#6
        0x40000f0c:    54000428    (..T    B.HI     0x40000f90 ; I2C_slaveInit + 432
        0x40000f10:    d0000029    )...    ADRP     x9,{pc}+0x6000 ; 0x40006f10
        0x40000f14:    91384129    )A8.    ADD      x9,x9,#0xe10
        0x40000f18:    f8687928    (yh.    LDR      x8,[x9,x8,LSL #3]
        0x40000f1c:    d61f0100    ....    BR       x8
        0x40000f20:    b9402808    .(@.    LDR      w8,[x0,#0x28]
        0x40000f24:    32000908    ...2    ORR      w8,w8,#7
        0x40000f28:    b9002808    .(..    STR      w8,[x0,#0x28]
        0x40000f2c:    b9403808    .8@.    LDR      w8,[x0,#0x38]
        0x40000f30:    121b6908    .i..    AND      w8,w8,#0xffffffe0
        0x40000f34:    32000d08    ...2    ORR      w8,w8,#0xf
        0x40000f38:    b9003808    .8..    STR      w8,[x0,#0x38]
        0x40000f3c:    b9401428    (.@.    LDR      w8,[x1,#0x14]
        0x40000f40:    7100191f    ...q    CMP      w8,#6
        0x40000f44:    54000268    h..T    B.HI     0x40000f90 ; I2C_slaveInit + 432
        0x40000f48:    d0000029    )...    ADRP     x9,{pc}+0x6000 ; 0x40006f48
        0x40000f4c:    91368129    ).6.    ADD      x9,x9,#0xda0
        0x40000f50:    f8687928    (yh.    LDR      x8,[x9,x8,LSL #3]
        0x40000f54:    d61f0100    ....    BR       x8
        0x40000f58:    b9401808    ..@.    LDR      w8,[x0,#0x18]
        0x40000f5c:    121d7108    .q..    AND      w8,w8,#0xfffffff8
        0x40000f60:    321f0508    ...2    ORR      w8,w8,#6
        0x40000f64:    b9001808    ....    STR      w8,[x0,#0x18]
        0x40000f68:    b9401808    ..@.    LDR      w8,[x0,#0x18]
        0x40000f6c:    12176508    .e..    AND      w8,w8,#0xfffffe07
        0x40000f70:    b9001808    ....    STR      w8,[x0,#0x18]
        0x40000f74:    321e0be8    ...2    ORR      w8,wzr,#0x1c
        0x40000f78:    5280a029    )..R    MOV      w9,#0x501
        0x40000f7c:    b9002c08    .,..    STR      w8,[x0,#0x2c]
        0x40000f80:    b9003009    .0..    STR      w9,[x0,#0x30]
        0x40000f84:    5280a288    ...R    MOV      w8,#0x514
        0x40000f88:    b9003408    .4..    STR      w8,[x0,#0x34]
        0x40000f8c:    d65f03c0    .._.    RET      
        0x40000f90:    b9401808    ..@.    LDR      w8,[x0,#0x18]
        0x40000f94:    121d7108    .q..    AND      w8,w8,#0xfffffff8
        0x40000f98:    321f0508    ...2    ORR      w8,w8,#6
        0x40000f9c:    b9001808    ....    STR      w8,[x0,#0x18]
        0x40000fa0:    b9401808    ..@.    LDR      w8,[x0,#0x18]
        0x40000fa4:    12176508    .e..    AND      w8,w8,#0xfffffe07
        0x40000fa8:    b9001808    ....    STR      w8,[x0,#0x18]
        0x40000fac:    321e0be8    ...2    ORR      w8,wzr,#0x1c
        0x40000fb0:    52800e69    i..R    MOV      w9,#0x73
        0x40000fb4:    b9002c08    .,..    STR      w8,[x0,#0x2c]
        0x40000fb8:    b9003009    .0..    STR      w9,[x0,#0x30]
        0x40000fbc:    528010a8    ...R    MOV      w8,#0x85
        0x40000fc0:    b9003408    .4..    STR      w8,[x0,#0x34]
        0x40000fc4:    d65f03c0    .._.    RET      
        0x40000fc8:    b9401808    ..@.    LDR      w8,[x0,#0x18]
        0x40000fcc:    121d7108    .q..    AND      w8,w8,#0xfffffff8
        0x40000fd0:    321f0508    ...2    ORR      w8,w8,#6
        0x40000fd4:    b9001808    ....    STR      w8,[x0,#0x18]
        0x40000fd8:    b9401808    ..@.    LDR      w8,[x0,#0x18]
        0x40000fdc:    52800289    ...R    MOV      w9,#0x14
        0x40000fe0:    331d1528    (..3    BFI      w8,w9,#3,#6
        0x40000fe4:    17ffffbc    ....    B        0x40000ed4 ; I2C_slaveInit + 244
        0x40000fe8:    b9401808    ..@.    LDR      w8,[x0,#0x18]
        0x40000fec:    121d7108    .q..    AND      w8,w8,#0xfffffff8
        0x40000ff0:    321f0508    ...2    ORR      w8,w8,#6
        0x40000ff4:    b9001808    ....    STR      w8,[x0,#0x18]
        0x40000ff8:    b9401808    ..@.    LDR      w8,[x0,#0x18]
        0x40000ffc:    52800129    )..R    MOV      w9,#9
        0x40001000:    331d1528    (..3    BFI      w8,w9,#3,#6
        0x40001004:    17ffffb4    ....    B        0x40000ed4 ; I2C_slaveInit + 244
        0x40001008:    b9401808    ..@.    LDR      w8,[x0,#0x18]
        0x4000100c:    121d7108    .q..    AND      w8,w8,#0xfffffff8
        0x40001010:    321f0508    ...2    ORR      w8,w8,#6
        0x40001014:    b9001808    ....    STR      w8,[x0,#0x18]
        0x40001018:    b9401808    ..@.    LDR      w8,[x0,#0x18]
        0x4000101c:    12176508    .e..    AND      w8,w8,#0xfffffe07
        0x40001020:    321d0908    ...2    ORR      w8,w8,#0x38
        0x40001024:    17ffffac    ....    B        0x40000ed4 ; I2C_slaveInit + 244
        0x40001028:    b9401808    ..@.    LDR      w8,[x0,#0x18]
        0x4000102c:    121d7108    .q..    AND      w8,w8,#0xfffffff8
        0x40001030:    321f0508    ...2    ORR      w8,w8,#6
        0x40001034:    b9001808    ....    STR      w8,[x0,#0x18]
        0x40001038:    b9401808    ..@.    LDR      w8,[x0,#0x18]
        0x4000103c:    528000a9    ...R    MOV      w9,#5
        0x40001040:    331d1528    (..3    BFI      w8,w9,#3,#6
        0x40001044:    17ffffa4    ....    B        0x40000ed4 ; I2C_slaveInit + 244
        0x40001048:    b9401808    ..@.    LDR      w8,[x0,#0x18]
        0x4000104c:    121d7108    .q..    AND      w8,w8,#0xfffffff8
        0x40001050:    321f0508    ...2    ORR      w8,w8,#6
        0x40001054:    b9001808    ....    STR      w8,[x0,#0x18]
        0x40001058:    b9401808    ..@.    LDR      w8,[x0,#0x18]
        0x4000105c:    12176508    .e..    AND      w8,w8,#0xfffffe07
        0x40001060:    321d0508    ...2    ORR      w8,w8,#0x18
        0x40001064:    b9001808    ....    STR      w8,[x0,#0x18]
        0x40001068:    b9002c1f    .,..    STR      wzr,[x0,#0x2c]
        0x4000106c:    b900301f    .0..    STR      wzr,[x0,#0x30]
        0x40001070:    b900341f    .4..    STR      wzr,[x0,#0x34]
        0x40001074:    14000046    F...    B        0x4000118c ; I2C_slaveInit + 940
        0x40001078:    b9401808    ..@.    LDR      w8,[x0,#0x18]
        0x4000107c:    121d7108    .q..    AND      w8,w8,#0xfffffff8
        0x40001080:    321f0508    ...2    ORR      w8,w8,#6
        0x40001084:    b9001808    ....    STR      w8,[x0,#0x18]
        0x40001088:    b9401808    ..@.    LDR      w8,[x0,#0x18]
        0x4000108c:    12176508    .e..    AND      w8,w8,#0xfffffe07
        0x40001090:    b9001808    ....    STR      w8,[x0,#0x18]
        0x40001094:    321e0be8    ...2    ORR      w8,wzr,#0x1c
        0x40001098:    52804ce9    .L.R    MOV      w9,#0x267
        0x4000109c:    b9002c08    .,..    STR      w8,[x0,#0x2c]
        0x400010a0:    b9003009    .0..    STR      w9,[x0,#0x30]
        0x400010a4:    52804f28    (O.R    MOV      w8,#0x279
        0x400010a8:    b9003408    .4..    STR      w8,[x0,#0x34]
        0x400010ac:    d65f03c0    .._.    RET      
        0x400010b0:    b9401808    ..@.    LDR      w8,[x0,#0x18]
        0x400010b4:    121d7108    .q..    AND      w8,w8,#0xfffffff8
        0x400010b8:    321f0508    ...2    ORR      w8,w8,#6
        0x400010bc:    b9001808    ....    STR      w8,[x0,#0x18]
        0x400010c0:    b9401808    ..@.    LDR      w8,[x0,#0x18]
        0x400010c4:    12176508    .e..    AND      w8,w8,#0xfffffe07
        0x400010c8:    b9001808    ....    STR      w8,[x0,#0x18]
        0x400010cc:    321e0be8    ...2    ORR      w8,wzr,#0x1c
        0x400010d0:    52802329    )#.R    MOV      w9,#0x119
        0x400010d4:    b9002c08    .,..    STR      w8,[x0,#0x2c]
        0x400010d8:    b9003009    .0..    STR      w9,[x0,#0x30]
        0x400010dc:    52802588    .%.R    MOV      w8,#0x12c
        0x400010e0:    b9003408    .4..    STR      w8,[x0,#0x34]
        0x400010e4:    d65f03c0    .._.    RET      
        0x400010e8:    b9401808    ..@.    LDR      w8,[x0,#0x18]
        0x400010ec:    121d7108    .q..    AND      w8,w8,#0xfffffff8
        0x400010f0:    321f0508    ...2    ORR      w8,w8,#6
        0x400010f4:    b9001808    ....    STR      w8,[x0,#0x18]
        0x400010f8:    b9401808    ..@.    LDR      w8,[x0,#0x18]
        0x400010fc:    12176508    .e..    AND      w8,w8,#0xfffffe07
        0x40001100:    b9001808    ....    STR      w8,[x0,#0x18]
        0x40001104:    321e0be8    ...2    ORR      w8,wzr,#0x1c
        0x40001108:    52801ae9    ...R    MOV      w9,#0xd7
        0x4000110c:    b9002c08    .,..    STR      w8,[x0,#0x2c]
        0x40001110:    b9003009    .0..    STR      w9,[x0,#0x30]
        0x40001114:    52801d28    (..R    MOV      w8,#0xe9
        0x40001118:    b9003408    .4..    STR      w8,[x0,#0x34]
        0x4000111c:    d65f03c0    .._.    RET      
        0x40001120:    b9401808    ..@.    LDR      w8,[x0,#0x18]
        0x40001124:    121d7108    .q..    AND      w8,w8,#0xfffffff8
        0x40001128:    321f0508    ...2    ORR      w8,w8,#6
        0x4000112c:    b9001808    ....    STR      w8,[x0,#0x18]
        0x40001130:    b9401808    ..@.    LDR      w8,[x0,#0x18]
        0x40001134:    12176508    .e..    AND      w8,w8,#0xfffffe07
        0x40001138:    b9001808    ....    STR      w8,[x0,#0x18]
        0x4000113c:    321e0be8    ...2    ORR      w8,wzr,#0x1c
        0x40001140:    52801549    I..R    MOV      w9,#0xaa
        0x40001144:    b9002c08    .,..    STR      w8,[x0,#0x2c]
        0x40001148:    b9003009    .0..    STR      w9,[x0,#0x30]
        0x4000114c:    528017a8    ...R    MOV      w8,#0xbd
        0x40001150:    b9003408    .4..    STR      w8,[x0,#0x34]
        0x40001154:    d65f03c0    .._.    RET      
        0x40001158:    b9401808    ..@.    LDR      w8,[x0,#0x18]
        0x4000115c:    121d7108    .q..    AND      w8,w8,#0xfffffff8
        0x40001160:    321f0508    ...2    ORR      w8,w8,#6
        0x40001164:    b9001808    ....    STR      w8,[x0,#0x18]
        0x40001168:    b9401808    ..@.    LDR      w8,[x0,#0x18]
        0x4000116c:    12176508    .e..    AND      w8,w8,#0xfffffe07
        0x40001170:    b9001808    ....    STR      w8,[x0,#0x18]
        0x40001174:    52800368    h..R    MOV      w8,#0x1b
        0x40001178:    b9002c08    .,..    STR      w8,[x0,#0x2c]
        0x4000117c:    321b03e8    ...2    ORR      w8,wzr,#0x20
        0x40001180:    b9003008    .0..    STR      w8,[x0,#0x30]
        0x40001184:    528004e8    ...R    MOV      w8,#0x27
        0x40001188:    b9003408    .4..    STR      w8,[x0,#0x34]
        0x4000118c:    b9402808    .(@.    LDR      w8,[x0,#0x28]
        0x40001190:    32190108    ...2    ORR      w8,w8,#0x80
        0x40001194:    b9002808    .(..    STR      w8,[x0,#0x28]
        0x40001198:    d65f03c0    .._.    RET      
        0x4000119c:    00000000    ....    DCI      0x00000000 ; ? Undefined
    I2C_slaveReceiveMultipleByteFinish
        0x400011a0:    b9402408    .$@.    LDR      w8,[x0,#0x24]
        0x400011a4:    12001d00    ....    AND      w0,w8,#0xff
        0x400011a8:    d65f03c0    .._.    RET      
        0x400011ac:    00000000    ....    DCI      0x00000000 ; ? Undefined
    I2C_slaveReceiveMultipleByteNext
        0x400011b0:    b9402408    .$@.    LDR      w8,[x0,#0x24]
        0x400011b4:    12001d00    ....    AND      w0,w8,#0xff
        0x400011b8:    d65f03c0    .._.    RET      
        0x400011bc:    00000000    ....    DCI      0x00000000 ; ? Undefined
    I2C_slaveReceiveMultipleByteStop
        0x400011c0:    b9400008    ..@.    LDR      w8,[x0,#0]
        0x400011c4:    32000108    ...2    ORR      w8,w8,#1
        0x400011c8:    b9000008    ....    STR      w8,[x0,#0]
        0x400011cc:    b9402408    .$@.    LDR      w8,[x0,#0x24]
        0x400011d0:    12001d00    ....    AND      w0,w8,#0xff
        0x400011d4:    d65f03c0    .._.    RET      
        0x400011d8:    00000000    ....    DCI      0x00000000 ; ? Undefined
        0x400011dc:    00000000    ....    DCI      0x00000000 ; ? Undefined
    I2C_slaveSetData
        0x400011e0:    12001c28    (...    AND      w8,w1,#0xff
        0x400011e4:    b9002408    .$..    STR      w8,[x0,#0x24]
        0x400011e8:    d65f03c0    .._.    RET      
        0x400011ec:    00000000    ....    DCI      0x00000000 ; ? Undefined
    IRQ_Handler
        0x400011f0:    f81f0ffe    ....    STR      x30,[sp,#-0x10]!
        0x400011f4:    97fffd5b    [...    BL       GIC_getACKID ; 0x40000760
        0x400011f8:    f84107fe    ..A.    LDR      x30,[sp],#0x10
        0x400011fc:    17fffd51    Q...    B        GIC_executeInterruptHandler ; 0x40000740
    PFC_ClearMultipleBit
        0x40001200:    b9400028    (.@.    LDR      w8,[x1,#0]
        0x40001204:    0a220108    ..".    BIC      w8,w8,w2
        0x40001208:    2a2803e9    ..(*    MVN      w9,w8
        0x4000120c:    b9000009    ....    STR      w9,[x0,#0]
        0x40001210:    b9000028    (...    STR      w8,[x1,#0]
        0x40001214:    d65f03c0    .._.    RET      
        0x40001218:    00000000    ....    DCI      0x00000000 ; ? Undefined
        0x4000121c:    00000000    ....    DCI      0x00000000 ; ? Undefined
    PFC_SetMultipleBit
        0x40001220:    b9400028    (.@.    LDR      w8,[x1,#0]
        0x40001224:    2a020108    ...*    ORR      w8,w8,w2
        0x40001228:    2a2803e9    ..(*    MVN      w9,w8
        0x4000122c:    b9000009    ....    STR      w9,[x0,#0]
        0x40001230:    b9000028    (...    STR      w8,[x1,#0]
        0x40001234:    d65f03c0    .._.    RET      
        0x40001238:    00000000    ....    DCI      0x00000000 ; ? Undefined
        0x4000123c:    00000000    ....    DCI      0x00000000 ; ? Undefined
    SError_Handler
        0x40001240:    f81f0ffe    ....    STR      x30,[sp,#-0x10]!
        0x40001244:    9400001f    ....    BL       Sim_Stop ; 0x400012c0
        0x40001248:    14000000    ....    B        0x40001248 ; SError_Handler + 8
        0x4000124c:    00000000    ....    DCI      0x00000000 ; ? Undefined
    Sim_Delay
        0x40001250:    34000060    `..4    CBZ      w0,0x4000125c ; Sim_Delay + 12
        0x40001254:    71000400    ...q    SUBS     w0,w0,#1
        0x40001258:    54ffffe1    ...T    B.NE     0x40001254 ; Sim_Delay + 4
        0x4000125c:    d65f03c0    .._.    RET      
    Sim_Dump
        0x40001260:    90000048    H...    ADRP     x8,{pc}+0x8000 ; 0x40009260
        0x40001264:    b94e2909    .)N.    LDR      w9,[x8,#0xe28]
        0x40001268:    d37ef529    ).~.    LSL      x9,x9,#2
        0x4000126c:    320603ea    ...2    ORR      w10,wzr,#0x4000000
        0x40001270:    b82a6920     i*.    STR      w0,[x9,x10]
        0x40001274:    b94e2909    .)N.    LDR      w9,[x8,#0xe28]
        0x40001278:    11000529    )...    ADD      w9,w9,#1
        0x4000127c:    b90e2909    .)..    STR      w9,[x8,#0xe28]
        0x40001280:    d65f03c0    .._.    RET      
        0x40001284:    00000000    ....    DCI      0x00000000 ; ? Undefined
        0x40001288:    00000000    ....    DCI      0x00000000 ; ? Undefined
        0x4000128c:    00000000    ....    DCI      0x00000000 ; ? Undefined
    Sim_Judge
        0x40001290:    7100041f    ...q    CMP      w0,#1
        0x40001294:    540000a0    ...T    B.EQ     0x400012a8 ; Sim_Judge + 24
        0x40001298:    35000080    ...5    CBNZ     w0,0x400012a8 ; Sim_Judge + 24
        0x4000129c:    529d77c0    .w.R    MOV      w0,#0xebbe
        0x400012a0:    72bd77c0    .w.r    MOVK     w0,#0xebbe,LSL #16
        0x400012a4:    17ffffef    ....    B        Sim_Dump ; 0x40001260
        0x400012a8:    5295bbc0    ...R    MOV      w0,#0xadde
        0x400012ac:    72b5bbc0    ...r    MOVK     w0,#0xadde,LSL #16
        0x400012b0:    17ffffec    ....    B        Sim_Dump ; 0x40001260
        0x400012b4:    00000000    ....    DCI      0x00000000 ; ? Undefined
        0x400012b8:    00000000    ....    DCI      0x00000000 ; ? Undefined
        0x400012bc:    00000000    ....    DCI      0x00000000 ; ? Undefined
    Sim_Stop
        0x400012c0:    320c1be8    ...2    ORR      w8,wzr,#0x7f00000
        0x400012c4:    b900011f    ....    STR      wzr,[x8,#0]
        0x400012c8:    d65f03c0    .._.    RET      
        0x400012cc:    00000000    ....    DCI      0x00000000 ; ? Undefined
    Synchronous_Handler
        0x400012d0:    f81f0ffe    ....    STR      x30,[sp,#-0x10]!
        0x400012d4:    97fffffb    ....    BL       Sim_Stop ; 0x400012c0
        0x400012d8:    14000000    ....    B        0x400012d8 ; Synchronous_Handler + 8
        0x400012dc:    00000000    ....    DCI      0x00000000 ; ? Undefined
    __ddr_init
        0x400012e0:    52800c08    ...R    MOV      w8,#0x60
        0x400012e4:    72bce6a8    ...r    MOVK     w8,#0xe735,LSL #16
        0x400012e8:    52800189    ...R    MOV      w9,#0xc
        0x400012ec:    72bce609    ...r    MOVK     w9,#0xe730,LSL #16
        0x400012f0:    f0dfffea    ....    ADRP     x10,{pc}-0x40001000 ; 0x2f0
        0x400012f4:    9102814a    J...    ADD      x10,x10,#0xa0
        0x400012f8:    b81f412a    *A..    STUR     w10,[x9,#-0xc]
        0x400012fc:    9000004a    J...    ADRP     x10,{pc}+0x8000 ; 0x400092fc
        0x40001300:    f946914b    K.F.    LDR      x11,[x10,#0xd20]
        0x40001304:    b81f812b    +...    STUR     w11,[x9,#-8]
        0x40001308:    b85fc12b    +._.    LDUR     w11,[x9,#-4]
        0x4000130c:    12081d6b    k...    AND      w11,w11,#0xff000000
        0x40001310:    3200016b    k..2    ORR      w11,w11,#1
        0x40001314:    b81fc12b    +...    STUR     w11,[x9,#-4]
        0x40001318:    b940012b    +.@.    LDR      w11,[x9,#0]
        0x4000131c:    1210756b    ku..    AND      w11,w11,#0xffff3fff
        0x40001320:    3212016b    k..2    ORR      w11,w11,#0x4000
        0x40001324:    b900012b    +...    STR      w11,[x9,#0]
        0x40001328:    b940012b    +.@.    LDR      w11,[x9,#0]
        0x4000132c:    1212756b    ku..    AND      w11,w11,#0xffffcfff
        0x40001330:    3214016b    k..2    ORR      w11,w11,#0x1000
        0x40001334:    b900012b    +...    STR      w11,[x9,#0]
        0x40001338:    b940012b    +.@.    LDR      w11,[x9,#0]
        0x4000133c:    12146d6b    km..    AND      w11,w11,#0xfffff0ff
        0x40001340:    3216016b    k..2    ORR      w11,w11,#0x400
        0x40001344:    b900012b    +...    STR      w11,[x9,#0]
        0x40001348:    b940012b    +.@.    LDR      w11,[x9,#0]
        0x4000134c:    121b756b    ku..    AND      w11,w11,#0xffffffe7
        0x40001350:    321d016b    k..2    ORR      w11,w11,#8
        0x40001354:    b900012b    +...    STR      w11,[x9,#0]
        0x40001358:    b940012b    +.@.    LDR      w11,[x9,#0]
        0x4000135c:    120a756b    ku..    AND      w11,w11,#0xffcfffff
        0x40001360:    320c016b    k..2    ORR      w11,w11,#0x100000
        0x40001364:    b900012b    +...    STR      w11,[x9,#0]
        0x40001368:    b940012b    +.@.    LDR      w11,[x9,#0]
        0x4000136c:    3200016b    k..2    ORR      w11,w11,#1
        0x40001370:    b900012b    +...    STR      w11,[x9,#0]
        0x40001374:    320003eb    ...2    ORR      w11,wzr,#1
        0x40001378:    b900010b    ....    STR      w11,[x8,#0]
        0x4000137c:    b940012b    +.@.    LDR      w11,[x9,#0]
        0x40001380:    360fffeb    ...6    TBZ      w11,#1,0x4000137c ; __ddr_init + 156
        0x40001384:    b940012b    +.@.    LDR      w11,[x9,#0]
        0x40001388:    121f796b    ky..    AND      w11,w11,#0xfffffffe
        0x4000138c:    b900012b    +...    STR      w11,[x9,#0]
        0x40001390:    b940012b    +.@.    LDR      w11,[x9,#0]
        0x40001394:    121e796b    ky..    AND      w11,w11,#0xfffffffd
        0x40001398:    b900012b    +...    STR      w11,[x9,#0]
        0x4000139c:    b900011f    ....    STR      wzr,[x8,#0]
        0x400013a0:    f9469140    @.F.    LDR      x0,[x10,#0xd20]
        0x400013a4:    d61f0000    ....    BR       x0
        0x400013a8:    00000000    ....    DCI      0x00000000 ; ? Undefined
        0x400013ac:    00000000    ....    DCI      0x00000000 ; ? Undefined
    _sys_exit
        0x400013b0:    14000000    ....    B        _sys_exit ; 0x400013b0
        0x400013b4:    00000000    ....    DCI      0x00000000 ; ? Undefined
        0x400013b8:    00000000    ....    DCI      0x00000000 ; ? Undefined
        0x400013bc:    00000000    ....    DCI      0x00000000 ; ? Undefined
    checkReg
        0x400013c0:    12800008    ....    MOV      w8,#0xffffffff
        0x400013c4:    b9000048    H...    STR      w8,[x2,#0]
        0x400013c8:    b9400048    H.@.    LDR      w8,[x2,#0]
        0x400013cc:    2a0003e9    ...*    MOV      w9,w0
        0x400013d0:    b000004a    J...    ADRP     x10,{pc}+0x9000 ; 0x4000a3d0
        0x400013d4:    9113214a    J!..    ADD      x10,x10,#0x4c8
        0x400013d8:    8b091d49    I...    ADD      x9,x10,x9,LSL #7
        0x400013dc:    8b214d29    )M!.    ADD      x9,x9,w1,UXTW #3
        0x400013e0:    b9000128    (...    STR      w8,[x9,#0]
        0x400013e4:    b900005f    _...    STR      wzr,[x2,#0]
        0x400013e8:    b9400048    H.@.    LDR      w8,[x2,#0]
        0x400013ec:    b9000528    (...    STR      w8,[x9,#4]
        0x400013f0:    d65f03c0    .._.    RET      
        0x400013f4:    00000000    ....    DCI      0x00000000 ; ? Undefined
        0x400013f8:    00000000    ....    DCI      0x00000000 ; ? Undefined
        0x400013fc:    00000000    ....    DCI      0x00000000 ; ? Undefined
    checkReg
        0x40001400:    12800008    ....    MOV      w8,#0xffffffff
        0x40001404:    b9000028    (...    STR      w8,[x1,#0]
        0x40001408:    b0000048    H...    ADRP     x8,{pc}+0x9000 ; 0x4000a408
        0x4000140c:    911b2108    .!..    ADD      x8,x8,#0x6c8
        0x40001410:    b9400029    ).@.    LDR      w9,[x1,#0]
        0x40001414:    8b204d08    .M .    ADD      x8,x8,w0,UXTW #3
        0x40001418:    b9000109    ....    STR      w9,[x8,#0]
        0x4000141c:    b900003f    ?...    STR      wzr,[x1,#0]
        0x40001420:    b9400029    ).@.    LDR      w9,[x1,#0]
        0x40001424:    b9000509    ....    STR      w9,[x8,#4]
        0x40001428:    d65f03c0    .._.    RET      
        0x4000142c:    00000000    ....    DCI      0x00000000 ; ? Undefined
    checkReg
        0x40001430:    12800008    ....    MOV      w8,#0xffffffff
        0x40001434:    b9000048    H...    STR      w8,[x2,#0]
        0x40001438:    b9400048    H.@.    LDR      w8,[x2,#0]
        0x4000143c:    2a0003e9    ...*    MOV      w9,w0
        0x40001440:    b000004a    J...    ADRP     x10,{pc}+0x9000 ; 0x4000a440
        0x40001444:    911d214a    J!..    ADD      x10,x10,#0x748
        0x40001448:    8b091d49    I...    ADD      x9,x10,x9,LSL #7
        0x4000144c:    8b214d29    )M!.    ADD      x9,x9,w1,UXTW #3
        0x40001450:    b9000128    (...    STR      w8,[x9,#0]
        0x40001454:    b900005f    _...    STR      wzr,[x2,#0]
        0x40001458:    b9400048    H.@.    LDR      w8,[x2,#0]
        0x4000145c:    b9000528    (...    STR      w8,[x9,#4]
        0x40001460:    d65f03c0    .._.    RET      
        0x40001464:    00000000    ....    DCI      0x00000000 ; ? Undefined
        0x40001468:    00000000    ....    DCI      0x00000000 ; ? Undefined
        0x4000146c:    00000000    ....    DCI      0x00000000 ; ? Undefined
    i2c0InterruptHandler
        0x40001470:    a9bf7bf3    .{..    STP      x19,x30,[sp,#-0x10]!
        0x40001474:    52bcca00    ...R    MOV      w0,#0xe6500000
        0x40001478:    97fffcfa    ....    BL       I2C_masterGetInterruptStatus ; 0x40000860
        0x4000147c:    2a0003f3    ...*    MOV      w19,w0
        0x40001480:    370001b3    ...7    TBNZ     w19,#0,0x400014b4 ; i2c0InterruptHandler + 68
        0x40001484:    361801d3    ...6    TBZ      w19,#3,0x400014bc ; i2c0InterruptHandler + 76
        0x40001488:    b0000048    H...    ADRP     x8,{pc}+0x9000 ; 0x4000a488
        0x4000148c:    b9494909    .II.    LDR      w9,[x8,#0x948]
        0x40001490:    1100052a    *...    ADD      w10,w9,#1
        0x40001494:    d000002b    +...    ADRP     x11,{pc}+0x6000 ; 0x40007494
        0x40001498:    9117416b    kA..    ADD      x11,x11,#0x5d0
        0x4000149c:    b909490a    .I..    STR      w10,[x8,#0x948]
        0x400014a0:    b8697961    ayi.    LDR      w1,[x11,x9,LSL #2]
        0x400014a4:    52bcca00    ...R    MOV      w0,#0xe6500000
        0x400014a8:    97fffdfe    ....    BL       I2C_masterSendMultipleByteNext ; 0x40000ca0
        0x400014ac:    372000b3    .. 7    TBNZ     w19,#4,0x400014c0 ; i2c0InterruptHandler + 80
        0x400014b0:    14000007    ....    B        0x400014cc ; i2c0InterruptHandler + 92
        0x400014b4:    52bcca00    ...R    MOV      w0,#0xe6500000
        0x400014b8:    97fffcd2    ....    BL       I2C_masterDisableStartGeneration ; 0x40000800
        0x400014bc:    36200093    .. 6    TBZ      w19,#4,0x400014cc ; i2c0InterruptHandler + 92
        0x400014c0:    90000048    H...    ADRP     x8,{pc}+0x8000 ; 0x400094c0
        0x400014c4:    320003e9    ...2    ORR      w9,wzr,#1
        0x400014c8:    39394109    .A99    STRB     w9,[x8,#0xe50]
        0x400014cc:    52bcca00    ...R    MOV      w0,#0xe6500000
        0x400014d0:    2a1303e1    ...*    MOV      w1,w19
        0x400014d4:    a8c17bf3    .{..    LDP      x19,x30,[sp],#0x10
        0x400014d8:    17fffcb6    ....    B        I2C_masterClearInterruptStatus ; 0x400007b0
        0x400014dc:    00000000    ....    DCI      0x00000000 ; ? Undefined
    i2c0InterruptHandler
        0x400014e0:    f81e0ff4    ....    STR      x20,[sp,#-0x20]!
        0x400014e4:    a9017bf3    .{..    STP      x19,x30,[sp,#0x10]
        0x400014e8:    52bcca14    ...R    MOV      w20,#0xe6500000
        0x400014ec:    52bcca00    ...R    MOV      w0,#0xe6500000
        0x400014f0:    97fffcdc    ....    BL       I2C_masterGetInterruptStatus ; 0x40000860
        0x400014f4:    2a0003f3    ...*    MOV      w19,w0
        0x400014f8:    37000133    3..7    TBNZ     w19,#0,0x4000151c ; i2c0InterruptHandler + 60
        0x400014fc:    36180153    S..6    TBZ      w19,#3,0x40001524 ; i2c0InterruptHandler + 68
        0x40001500:    90000048    H...    ADRP     x8,{pc}+0x8000 ; 0x40009500
        0x40001504:    3978d108    ..x9    LDRB     w8,[x8,#0xe34]
        0x40001508:    34000208    ...4    CBZ      w8,0x40001548 ; i2c0InterruptHandler + 104
        0x4000150c:    52bcca00    ...R    MOV      w0,#0xe6500000
        0x40001510:    97fffdf0    ....    BL       I2C_masterSendMultipleByteStop ; 0x40000cd0
        0x40001514:    372000b3    .. 7    TBNZ     w19,#4,0x40001528 ; i2c0InterruptHandler + 72
        0x40001518:    14000007    ....    B        0x40001534 ; i2c0InterruptHandler + 84
        0x4000151c:    52bcca00    ...R    MOV      w0,#0xe6500000
        0x40001520:    97fffcb8    ....    BL       I2C_masterDisableStartGeneration ; 0x40000800
        0x40001524:    36200093    .. 6    TBZ      w19,#4,0x40001534 ; i2c0InterruptHandler + 84
        0x40001528:    90000048    H...    ADRP     x8,{pc}+0x8000 ; 0x40009528
        0x4000152c:    320003e9    ...2    ORR      w9,wzr,#1
        0x40001530:    39395109    .Q99    STRB     w9,[x8,#0xe54]
        0x40001534:    52bcca00    ...R    MOV      w0,#0xe6500000
        0x40001538:    2a1303e1    ...*    MOV      w1,w19
        0x4000153c:    a9417bf3    .{A.    LDP      x19,x30,[sp,#0x10]
        0x40001540:    f84207f4    ..B.    LDR      x20,[sp],#0x20
        0x40001544:    17fffc9b    ....    B        I2C_masterClearInterruptStatus ; 0x400007b0
        0x40001548:    52800c08    ...R    MOV      w8,#0x60
        0x4000154c:    72bce6a8    ...r    MOVK     w8,#0xe735,LSL #16
        0x40001550:    320003e9    ...2    ORR      w9,wzr,#1
        0x40001554:    b9000109    ....    STR      w9,[x8,#0]
        0x40001558:    91402280    ."@.    ADD      x0,x20,#8,LSL #12
        0x4000155c:    97fffe11    ....    BL       I2C_slaveEnableDMAReceive ; 0x40000da0
        0x40001560:    52bcca00    ...R    MOV      w0,#0xe6500000
        0x40001564:    97fffcb7    ....    BL       I2C_masterEnableDMATransmit ; 0x40000840
        0x40001568:    3727fe13    ..'7    TBNZ     w19,#4,0x40001528 ; i2c0InterruptHandler + 72
        0x4000156c:    17fffff2    ....    B        0x40001534 ; i2c0InterruptHandler + 84
    i2c0InterruptHandler
        0x40001570:    f81f0ffe    ....    STR      x30,[sp,#-0x10]!
        0x40001574:    52bcca00    ...R    MOV      w0,#0xe6500000
        0x40001578:    97fffe16    ....    BL       I2C_slaveGetInterruptStatus ; 0x40000dd0
        0x4000157c:    2a0003e1    ...*    MOV      w1,w0
        0x40001580:    52bcca00    ...R    MOV      w0,#0xe6500000
        0x40001584:    f84107fe    ..A.    LDR      x30,[sp],#0x10
        0x40001588:    17fffdf2    ....    B        I2C_slaveClearInterruptStatus ; 0x40000d50
        0x4000158c:    00000000    ....    DCI      0x00000000 ; ? Undefined
    i2c0InterruptHandler
        0x40001590:    a9bf7bf3    .{..    STP      x19,x30,[sp,#-0x10]!
        0x40001594:    52bcca00    ...R    MOV      w0,#0xe6500000
        0x40001598:    97fffcb2    ....    BL       I2C_masterGetInterruptStatus ; 0x40000860
        0x4000159c:    2a0003f3    ...*    MOV      w19,w0
        0x400015a0:    36000073    s..6    TBZ      w19,#0,0x400015ac ; i2c0InterruptHandler + 28
        0x400015a4:    52bcca00    ...R    MOV      w0,#0xe6500000
        0x400015a8:    97fffc96    ....    BL       I2C_masterDisableStartGeneration ; 0x40000800
        0x400015ac:    36200093    .. 6    TBZ      w19,#4,0x400015bc ; i2c0InterruptHandler + 44
        0x400015b0:    90000048    H...    ADRP     x8,{pc}+0x8000 ; 0x400095b0
        0x400015b4:    320003e9    ...2    ORR      w9,wzr,#1
        0x400015b8:    39397109    .q99    STRB     w9,[x8,#0xe5c]
        0x400015bc:    52bcca00    ...R    MOV      w0,#0xe6500000
        0x400015c0:    2a1303e1    ...*    MOV      w1,w19
        0x400015c4:    a8c17bf3    .{..    LDP      x19,x30,[sp],#0x10
        0x400015c8:    17fffc7a    z...    B        I2C_masterClearInterruptStatus ; 0x400007b0
        0x400015cc:    00000000    ....    DCI      0x00000000 ; ? Undefined
    i2c0InterruptHandler
        0x400015d0:    a9bf7bf3    .{..    STP      x19,x30,[sp,#-0x10]!
        0x400015d4:    52bcca00    ...R    MOV      w0,#0xe6500000
        0x400015d8:    97fffca2    ....    BL       I2C_masterGetInterruptStatus ; 0x40000860
        0x400015dc:    2a0003f3    ...*    MOV      w19,w0
        0x400015e0:    370001b3    ...7    TBNZ     w19,#0,0x40001614 ; i2c0InterruptHandler + 68
        0x400015e4:    36180213    ...6    TBZ      w19,#3,0x40001624 ; i2c0InterruptHandler + 84
        0x400015e8:    b0000048    H...    ADRP     x8,{pc}+0x9000 ; 0x4000a5e8
        0x400015ec:    b9494d09    .MI.    LDR      w9,[x8,#0x94c]
        0x400015f0:    1100052a    *...    ADD      w10,w9,#1
        0x400015f4:    d000002b    +...    ADRP     x11,{pc}+0x6000 ; 0x400075f4
        0x400015f8:    911e916b    k...    ADD      x11,x11,#0x7a4
        0x400015fc:    b9094d0a    .M..    STR      w10,[x8,#0x94c]
        0x40001600:    b8697961    ayi.    LDR      w1,[x11,x9,LSL #2]
        0x40001604:    52bcca00    ...R    MOV      w0,#0xe6500000
        0x40001608:    97fffda6    ....    BL       I2C_masterSendMultipleByteNext ; 0x40000ca0
        0x4000160c:    372000f3    .. 7    TBNZ     w19,#4,0x40001628 ; i2c0InterruptHandler + 88
        0x40001610:    14000009    ....    B        0x40001634 ; i2c0InterruptHandler + 100
        0x40001614:    52bcca00    ...R    MOV      w0,#0xe6500000
        0x40001618:    97fffc7a    z...    BL       I2C_masterDisableStartGeneration ; 0x40000800
        0x4000161c:    52bcca00    ...R    MOV      w0,#0xe6500000
        0x40001620:    97fffc74    t...    BL       I2C_masterDisableStartByteTransmit ; 0x400007f0
        0x40001624:    36200093    .. 6    TBZ      w19,#4,0x40001634 ; i2c0InterruptHandler + 100
        0x40001628:    90000048    H...    ADRP     x8,{pc}+0x8000 ; 0x40009628
        0x4000162c:    320003e9    ...2    ORR      w9,wzr,#1
        0x40001630:    39398109    ..99    STRB     w9,[x8,#0xe60]
        0x40001634:    52bcca00    ...R    MOV      w0,#0xe6500000
        0x40001638:    2a1303e1    ...*    MOV      w1,w19
        0x4000163c:    a8c17bf3    .{..    LDP      x19,x30,[sp],#0x10
        0x40001640:    17fffc5c    \...    B        I2C_masterClearInterruptStatus ; 0x400007b0
        0x40001644:    00000000    ....    DCI      0x00000000 ; ? Undefined
        0x40001648:    00000000    ....    DCI      0x00000000 ; ? Undefined
        0x4000164c:    00000000    ....    DCI      0x00000000 ; ? Undefined
    i2c0InterruptHandler
        0x40001650:    a9bf7bf3    .{..    STP      x19,x30,[sp,#-0x10]!
        0x40001654:    52bcca00    ...R    MOV      w0,#0xe6500000
        0x40001658:    97fffc82    ....    BL       I2C_masterGetInterruptStatus ; 0x40000860
        0x4000165c:    2a0003f3    ...*    MOV      w19,w0
        0x40001660:    370001b3    ...7    TBNZ     w19,#0,0x40001694 ; i2c0InterruptHandler + 68
        0x40001664:    361801d3    ...6    TBZ      w19,#3,0x4000169c ; i2c0InterruptHandler + 76
        0x40001668:    b0000048    H...    ADRP     x8,{pc}+0x9000 ; 0x4000a668
        0x4000166c:    b9495109    .QI.    LDR      w9,[x8,#0x950]
        0x40001670:    1100052a    *...    ADD      w10,w9,#1
        0x40001674:    d000002b    +...    ADRP     x11,{pc}+0x6000 ; 0x40007674
        0x40001678:    911f616b    ka..    ADD      x11,x11,#0x7d8
        0x4000167c:    b909510a    .Q..    STR      w10,[x8,#0x950]
        0x40001680:    b8697961    ayi.    LDR      w1,[x11,x9,LSL #2]
        0x40001684:    52bcca00    ...R    MOV      w0,#0xe6500000
        0x40001688:    97fffd86    ....    BL       I2C_masterSendMultipleByteNext ; 0x40000ca0
        0x4000168c:    372000b3    .. 7    TBNZ     w19,#4,0x400016a0 ; i2c0InterruptHandler + 80
        0x40001690:    14000007    ....    B        0x400016ac ; i2c0InterruptHandler + 92
        0x40001694:    52bcca00    ...R    MOV      w0,#0xe6500000
        0x40001698:    97fffc5a    Z...    BL       I2C_masterDisableStartGeneration ; 0x40000800
        0x4000169c:    36200093    .. 6    TBZ      w19,#4,0x400016ac ; i2c0InterruptHandler + 92
        0x400016a0:    90000048    H...    ADRP     x8,{pc}+0x8000 ; 0x400096a0
        0x400016a4:    320003e9    ...2    ORR      w9,wzr,#1
        0x400016a8:    39399109    ..99    STRB     w9,[x8,#0xe64]
        0x400016ac:    52bcca00    ...R    MOV      w0,#0xe6500000
        0x400016b0:    2a1303e1    ...*    MOV      w1,w19
        0x400016b4:    a8c17bf3    .{..    LDP      x19,x30,[sp],#0x10
        0x400016b8:    17fffc3e    >...    B        I2C_masterClearInterruptStatus ; 0x400007b0
        0x400016bc:    00000000    ....    DCI      0x00000000 ; ? Undefined
    i2c0InterruptHandler
        0x400016c0:    a9bf7bf3    .{..    STP      x19,x30,[sp,#-0x10]!
        0x400016c4:    52bcca00    ...R    MOV      w0,#0xe6500000
        0x400016c8:    97fffc66    f...    BL       I2C_masterGetInterruptStatus ; 0x40000860
        0x400016cc:    2a0003f3    ...*    MOV      w19,w0
        0x400016d0:    370001b3    ...7    TBNZ     w19,#0,0x40001704 ; i2c0InterruptHandler + 68
        0x400016d4:    361801d3    ...6    TBZ      w19,#3,0x4000170c ; i2c0InterruptHandler + 76
        0x400016d8:    b0000048    H...    ADRP     x8,{pc}+0x9000 ; 0x4000a6d8
        0x400016dc:    b9495509    .UI.    LDR      w9,[x8,#0x954]
        0x400016e0:    1100052a    *...    ADD      w10,w9,#1
        0x400016e4:    d000002b    +...    ADRP     x11,{pc}+0x6000 ; 0x400076e4
        0x400016e8:    9120316b    k1 .    ADD      x11,x11,#0x80c
        0x400016ec:    b909550a    .U..    STR      w10,[x8,#0x954]
        0x400016f0:    b8697961    ayi.    LDR      w1,[x11,x9,LSL #2]
        0x400016f4:    52bcca00    ...R    MOV      w0,#0xe6500000
        0x400016f8:    97fffd6a    j...    BL       I2C_masterSendMultipleByteNext ; 0x40000ca0
        0x400016fc:    372000b3    .. 7    TBNZ     w19,#4,0x40001710 ; i2c0InterruptHandler + 80
        0x40001700:    14000007    ....    B        0x4000171c ; i2c0InterruptHandler + 92
        0x40001704:    52bcca00    ...R    MOV      w0,#0xe6500000
        0x40001708:    97fffc3e    >...    BL       I2C_masterDisableStartGeneration ; 0x40000800
        0x4000170c:    36200093    .. 6    TBZ      w19,#4,0x4000171c ; i2c0InterruptHandler + 92
        0x40001710:    90000048    H...    ADRP     x8,{pc}+0x8000 ; 0x40009710
        0x40001714:    320003e9    ...2    ORR      w9,wzr,#1
        0x40001718:    3939a109    ..99    STRB     w9,[x8,#0xe68]
        0x4000171c:    52bcca00    ...R    MOV      w0,#0xe6500000
        0x40001720:    2a1303e1    ...*    MOV      w1,w19
        0x40001724:    a8c17bf3    .{..    LDP      x19,x30,[sp],#0x10
        0x40001728:    17fffc22    "...    B        I2C_masterClearInterruptStatus ; 0x400007b0
        0x4000172c:    00000000    ....    DCI      0x00000000 ; ? Undefined
    i2c0InterruptHandler
        0x40001730:    f81e0ff4    ....    STR      x20,[sp,#-0x20]!
        0x40001734:    a9017bf3    .{..    STP      x19,x30,[sp,#0x10]
        0x40001738:    52bcca14    ...R    MOV      w20,#0xe6500000
        0x4000173c:    52bcca00    ...R    MOV      w0,#0xe6500000
        0x40001740:    97fffc48    H...    BL       I2C_masterGetInterruptStatus ; 0x40000860
        0x40001744:    2a0003f3    ...*    MOV      w19,w0
        0x40001748:    52800128    (..R    MOV      w8,#9
        0x4000174c:    0a080268    h...    AND      w8,w19,w8
        0x40001750:    7100211f    .!.q    CMP      w8,#8
        0x40001754:    540000e1    ...T    B.NE     0x40001770 ; i2c0InterruptHandler + 64
        0x40001758:    52800c08    ...R    MOV      w8,#0x60
        0x4000175c:    72bce6a8    ...r    MOVK     w8,#0xe735,LSL #16
        0x40001760:    320003e9    ...2    ORR      w9,wzr,#1
        0x40001764:    b9000109    ....    STR      w9,[x8,#0]
        0x40001768:    91402280    ."@.    ADD      x0,x20,#8,LSL #12
        0x4000176c:    97fffd8d    ....    BL       I2C_slaveEnableDMAReceive ; 0x40000da0
        0x40001770:    362000b3    .. 6    TBZ      w19,#4,0x40001784 ; i2c0InterruptHandler + 84
        0x40001774:    90000048    H...    ADRP     x8,{pc}+0x8000 ; 0x40009774
        0x40001778:    39790108    ..y9    LDRB     w8,[x8,#0xe40]
        0x4000177c:    90000049    I...    ADRP     x9,{pc}+0x8000 ; 0x4000977c
        0x40001780:    3939b128    (.99    STRB     w8,[x9,#0xe6c]
        0x40001784:    52bcca00    ...R    MOV      w0,#0xe6500000
        0x40001788:    2a1303e1    ...*    MOV      w1,w19
        0x4000178c:    a9417bf3    .{A.    LDP      x19,x30,[sp,#0x10]
        0x40001790:    f84207f4    ..B.    LDR      x20,[sp],#0x20
        0x40001794:    17fffc07    ....    B        I2C_masterClearInterruptStatus ; 0x400007b0
        0x40001798:    00000000    ....    DCI      0x00000000 ; ? Undefined
        0x4000179c:    00000000    ....    DCI      0x00000000 ; ? Undefined
    i2c0InterruptHandler
        0x400017a0:    a9bf7bf3    .{..    STP      x19,x30,[sp,#-0x10]!
        0x400017a4:    52bcca00    ...R    MOV      w0,#0xe6500000
        0x400017a8:    97fffc2e    ....    BL       I2C_masterGetInterruptStatus ; 0x40000860
        0x400017ac:    2a0003f3    ...*    MOV      w19,w0
        0x400017b0:    370001b3    ...7    TBNZ     w19,#0,0x400017e4 ; i2c0InterruptHandler + 68
        0x400017b4:    361801d3    ...6    TBZ      w19,#3,0x400017ec ; i2c0InterruptHandler + 76
        0x400017b8:    b0000048    H...    ADRP     x8,{pc}+0x9000 ; 0x4000a7b8
        0x400017bc:    b9495909    .YI.    LDR      w9,[x8,#0x958]
        0x400017c0:    1100052a    *...    ADD      w10,w9,#1
        0x400017c4:    d000002b    +...    ADRP     x11,{pc}+0x6000 ; 0x400077c4
        0x400017c8:    9122a16b    k.".    ADD      x11,x11,#0x8a8
        0x400017cc:    b909590a    .Y..    STR      w10,[x8,#0x958]
        0x400017d0:    b8697961    ayi.    LDR      w1,[x11,x9,LSL #2]
        0x400017d4:    52bcca00    ...R    MOV      w0,#0xe6500000
        0x400017d8:    97fffd32    2...    BL       I2C_masterSendMultipleByteNext ; 0x40000ca0
        0x400017dc:    372000b3    .. 7    TBNZ     w19,#4,0x400017f0 ; i2c0InterruptHandler + 80
        0x400017e0:    14000007    ....    B        0x400017fc ; i2c0InterruptHandler + 92
        0x400017e4:    52bcca00    ...R    MOV      w0,#0xe6500000
        0x400017e8:    97fffc06    ....    BL       I2C_masterDisableStartGeneration ; 0x40000800
        0x400017ec:    36200093    .. 6    TBZ      w19,#4,0x400017fc ; i2c0InterruptHandler + 92
        0x400017f0:    90000048    H...    ADRP     x8,{pc}+0x8000 ; 0x400097f0
        0x400017f4:    320003e9    ...2    ORR      w9,wzr,#1
        0x400017f8:    3939c109    ..99    STRB     w9,[x8,#0xe70]
        0x400017fc:    52bcca00    ...R    MOV      w0,#0xe6500000
        0x40001800:    2a1303e1    ...*    MOV      w1,w19
        0x40001804:    a8c17bf3    .{..    LDP      x19,x30,[sp],#0x10
        0x40001808:    17fffbea    ....    B        I2C_masterClearInterruptStatus ; 0x400007b0
        0x4000180c:    00000000    ....    DCI      0x00000000 ; ? Undefined
    i2c0InterruptHandler
        0x40001810:    f81e0ff4    ....    STR      x20,[sp,#-0x20]!
        0x40001814:    a9017bf3    .{..    STP      x19,x30,[sp,#0x10]
        0x40001818:    90000053    S...    ADRP     x19,{pc}+0x8000 ; 0x40009818
        0x4000181c:    39793268    h2y9    LDRB     w8,[x19,#0xe4c]
        0x40001820:    34000188    ...4    CBZ      w8,0x40001850 ; i2c0InterruptHandler + 64
        0x40001824:    52bcca00    ...R    MOV      w0,#0xe6500000
        0x40001828:    97fffd6a    j...    BL       I2C_slaveGetInterruptStatus ; 0x40000dd0
        0x4000182c:    2a0003f3    ...*    MOV      w19,w0
        0x40001830:    36080493    ...6    TBZ      w19,#1,0x400018c0 ; i2c0InterruptHandler + 176
        0x40001834:    b0000054    T...    ADRP     x20,{pc}+0x9000 ; 0x4000a834
        0x40001838:    b944ba88    ..D.    LDR      w8,[x20,#0x4b8]
        0x4000183c:    7100291f    .).q    CMP      w8,#0xa
        0x40001840:    540001e8    ...T    B.HI     0x4000187c ; i2c0InterruptHandler + 108
        0x40001844:    52bcca00    ...R    MOV      w0,#0xe6500000
        0x40001848:    97fffe5a    Z...    BL       I2C_slaveReceiveMultipleByteNext ; 0x400011b0
        0x4000184c:    14000017    ....    B        0x400018a8 ; i2c0InterruptHandler + 152
        0x40001850:    52bcca00    ...R    MOV      w0,#0xe6500000
        0x40001854:    97fffc03    ....    BL       I2C_masterGetInterruptStatus ; 0x40000860
        0x40001858:    2a0003e8    ...*    MOV      w8,w0
        0x4000185c:    36280068    h.(6    TBZ      w8,#5,0x40001868 ; i2c0InterruptHandler + 88
        0x40001860:    320003e9    ...2    ORR      w9,wzr,#1
        0x40001864:    39393269    i299    STRB     w9,[x19,#0xe4c]
        0x40001868:    52bcca00    ...R    MOV      w0,#0xe6500000
        0x4000186c:    2a0803e1    ...*    MOV      w1,w8
        0x40001870:    a9417bf3    .{A.    LDP      x19,x30,[sp,#0x10]
        0x40001874:    f84207f4    ..B.    LDR      x20,[sp],#0x20
        0x40001878:    17fffbce    ....    B        I2C_masterClearInterruptStatus ; 0x400007b0
        0x4000187c:    b944ba88    ..D.    LDR      w8,[x20,#0x4b8]
        0x40001880:    71002d1f    .-.q    CMP      w8,#0xb
        0x40001884:    54000081    ...T    B.NE     0x40001894 ; i2c0InterruptHandler + 132
        0x40001888:    52bcca00    ...R    MOV      w0,#0xe6500000
        0x4000188c:    97fffe4d    M...    BL       I2C_slaveReceiveMultipleByteStop ; 0x400011c0
        0x40001890:    14000006    ....    B        0x400018a8 ; i2c0InterruptHandler + 152
        0x40001894:    b944ba88    ..D.    LDR      w8,[x20,#0x4b8]
        0x40001898:    7100311f    .1.q    CMP      w8,#0xc
        0x4000189c:    54000121    !..T    B.NE     0x400018c0 ; i2c0InterruptHandler + 176
        0x400018a0:    52bcca00    ...R    MOV      w0,#0xe6500000
        0x400018a4:    97fffe3f    ?...    BL       I2C_slaveReceiveMultipleByteFinish ; 0x400011a0
        0x400018a8:    b944ba88    ..D.    LDR      w8,[x20,#0x4b8]
        0x400018ac:    11000509    ....    ADD      w9,w8,#1
        0x400018b0:    b000004a    J...    ADRP     x10,{pc}+0x9000 ; 0x4000a8b0
        0x400018b4:    9108014a    J...    ADD      x10,x10,#0x200
        0x400018b8:    b904ba89    ....    STR      w9,[x20,#0x4b8]
        0x400018bc:    b8287940    @y(.    STR      w0,[x10,x8,LSL #2]
        0x400018c0:    52bcca00    ...R    MOV      w0,#0xe6500000
        0x400018c4:    2a1303e1    ...*    MOV      w1,w19
        0x400018c8:    a9417bf3    .{A.    LDP      x19,x30,[sp,#0x10]
        0x400018cc:    f84207f4    ..B.    LDR      x20,[sp],#0x20
        0x400018d0:    17fffd20     ...    B        I2C_slaveClearInterruptStatus ; 0x40000d50
        0x400018d4:    00000000    ....    DCI      0x00000000 ; ? Undefined
        0x400018d8:    00000000    ....    DCI      0x00000000 ; ? Undefined
        0x400018dc:    00000000    ....    DCI      0x00000000 ; ? Undefined
    i2c0InterruptHandler
        0x400018e0:    f81e0ff4    ....    STR      x20,[sp,#-0x20]!
        0x400018e4:    a9017bf3    .{..    STP      x19,x30,[sp,#0x10]
        0x400018e8:    52bcca00    ...R    MOV      w0,#0xe6500000
        0x400018ec:    97fffbdd    ....    BL       I2C_masterGetInterruptStatus ; 0x40000860
        0x400018f0:    2a0003f3    ...*    MOV      w19,w0
        0x400018f4:    37000133    3..7    TBNZ     w19,#0,0x40001918 ; i2c0InterruptHandler + 56
        0x400018f8:    360803b3    ...6    TBZ      w19,#1,0x4000196c ; i2c0InterruptHandler + 140
        0x400018fc:    b0000054    T...    ADRP     x20,{pc}+0x9000 ; 0x4000a8fc
        0x40001900:    b944be88    ..D.    LDR      w8,[x20,#0x4bc]
        0x40001904:    7100291f    .).q    CMP      w8,#0xa
        0x40001908:    54000108    ...T    B.HI     0x40001928 ; i2c0InterruptHandler + 72
        0x4000190c:    52bcca00    ...R    MOV      w0,#0xe6500000
        0x40001910:    97fffccc    ....    BL       I2C_masterReceiveMultipleByteNext ; 0x40000c40
        0x40001914:    14000010    ....    B        0x40001954 ; i2c0InterruptHandler + 116
        0x40001918:    52bcca00    ...R    MOV      w0,#0xe6500000
        0x4000191c:    97fffbb9    ....    BL       I2C_masterDisableStartGeneration ; 0x40000800
        0x40001920:    37180293    ...7    TBNZ     w19,#3,0x40001970 ; i2c0InterruptHandler + 144
        0x40001924:    14000017    ....    B        0x40001980 ; i2c0InterruptHandler + 160
        0x40001928:    b944be88    ..D.    LDR      w8,[x20,#0x4bc]
        0x4000192c:    71002d1f    .-.q    CMP      w8,#0xb
        0x40001930:    54000081    ...T    B.NE     0x40001940 ; i2c0InterruptHandler + 96
        0x40001934:    52bcca00    ...R    MOV      w0,#0xe6500000
        0x40001938:    97fffcc6    ....    BL       I2C_masterReceiveMultipleByteStop ; 0x40000c50
        0x4000193c:    14000006    ....    B        0x40001954 ; i2c0InterruptHandler + 116
        0x40001940:    b944be88    ..D.    LDR      w8,[x20,#0x4bc]
        0x40001944:    7100311f    .1.q    CMP      w8,#0xc
        0x40001948:    54000121    !..T    B.NE     0x4000196c ; i2c0InterruptHandler + 140
        0x4000194c:    52bcca00    ...R    MOV      w0,#0xe6500000
        0x40001950:    97fffcb8    ....    BL       I2C_masterReceiveMultipleByteFinish ; 0x40000c30
        0x40001954:    b944be88    ..D.    LDR      w8,[x20,#0x4bc]
        0x40001958:    11000509    ....    ADD      w9,w8,#1
        0x4000195c:    b000004a    J...    ADRP     x10,{pc}+0x9000 ; 0x4000a95c
        0x40001960:    9108d14a    J...    ADD      x10,x10,#0x234
        0x40001964:    b904be89    ....    STR      w9,[x20,#0x4bc]
        0x40001968:    b8287940    @y(.    STR      w0,[x10,x8,LSL #2]
        0x4000196c:    361800b3    ...6    TBZ      w19,#3,0x40001980 ; i2c0InterruptHandler + 160
        0x40001970:    52bcca00    ...R    MOV      w0,#0xe6500000
        0x40001974:    52800a21    !..R    MOV      w1,#0x51
        0x40001978:    320003e2    ...2    ORR      w2,wzr,#1
        0x4000197c:    97fffcc1    ....    BL       I2C_masterRestart ; 0x40000c80
        0x40001980:    36200093    .. 6    TBZ      w19,#4,0x40001990 ; i2c0InterruptHandler + 176
        0x40001984:    90000048    H...    ADRP     x8,{pc}+0x8000 ; 0x40009984
        0x40001988:    320003e9    ...2    ORR      w9,wzr,#1
        0x4000198c:    3939e109    ..99    STRB     w9,[x8,#0xe78]
        0x40001990:    52bcca00    ...R    MOV      w0,#0xe6500000
        0x40001994:    2a1303e1    ...*    MOV      w1,w19
        0x40001998:    a9417bf3    .{A.    LDP      x19,x30,[sp,#0x10]
        0x4000199c:    f84207f4    ..B.    LDR      x20,[sp],#0x20
        0x400019a0:    17fffb84    ....    B        I2C_masterClearInterruptStatus ; 0x400007b0
        0x400019a4:    00000000    ....    DCI      0x00000000 ; ? Undefined
        0x400019a8:    00000000    ....    DCI      0x00000000 ; ? Undefined
        0x400019ac:    00000000    ....    DCI      0x00000000 ; ? Undefined
    i2c0InterruptHandler
        0x400019b0:    a9bf7bf3    .{..    STP      x19,x30,[sp,#-0x10]!
        0x400019b4:    52bcca00    ...R    MOV      w0,#0xe6500000
        0x400019b8:    97fffbaa    ....    BL       I2C_masterGetInterruptStatus ; 0x40000860
        0x400019bc:    2a0003f3    ...*    MOV      w19,w0
        0x400019c0:    37000213    ...7    TBNZ     w19,#0,0x40001a00 ; i2c0InterruptHandler + 80
        0x400019c4:    36180233    3..6    TBZ      w19,#3,0x40001a08 ; i2c0InterruptHandler + 88
        0x400019c8:    b0000048    H...    ADRP     x8,{pc}+0x9000 ; 0x4000a9c8
        0x400019cc:    b9496509    .eI.    LDR      w9,[x8,#0x964]
        0x400019d0:    7100313f    ?1.q    CMP      w9,#0xc
        0x400019d4:    540002a8    ...T    B.HI     0x40001a28 ; i2c0InterruptHandler + 120
        0x400019d8:    b9496509    .eI.    LDR      w9,[x8,#0x964]
        0x400019dc:    1100052a    *...    ADD      w10,w9,#1
        0x400019e0:    d000002b    +...    ADRP     x11,{pc}+0x6000 ; 0x400079e0
        0x400019e4:    9126b16b    k.&.    ADD      x11,x11,#0x9ac
        0x400019e8:    b909650a    .e..    STR      w10,[x8,#0x964]
        0x400019ec:    b8697961    ayi.    LDR      w1,[x11,x9,LSL #2]
        0x400019f0:    52bcca00    ...R    MOV      w0,#0xe6500000
        0x400019f4:    97fffcab    ....    BL       I2C_masterSendMultipleByteNext ; 0x40000ca0
        0x400019f8:    372000b3    .. 7    TBNZ     w19,#4,0x40001a0c ; i2c0InterruptHandler + 92
        0x400019fc:    14000007    ....    B        0x40001a18 ; i2c0InterruptHandler + 104
        0x40001a00:    52bcca00    ...R    MOV      w0,#0xe6500000
        0x40001a04:    97fffb7f    ....    BL       I2C_masterDisableStartGeneration ; 0x40000800
        0x40001a08:    36200093    .. 6    TBZ      w19,#4,0x40001a18 ; i2c0InterruptHandler + 104
        0x40001a0c:    90000048    H...    ADRP     x8,{pc}+0x8000 ; 0x40009a0c
        0x40001a10:    320003e9    ...2    ORR      w9,wzr,#1
        0x40001a14:    3939f109    ..99    STRB     w9,[x8,#0xe7c]
        0x40001a18:    52bcca00    ...R    MOV      w0,#0xe6500000
        0x40001a1c:    2a1303e1    ...*    MOV      w1,w19
        0x40001a20:    a8c17bf3    .{..    LDP      x19,x30,[sp],#0x10
        0x40001a24:    17fffb63    c...    B        I2C_masterClearInterruptStatus ; 0x400007b0
        0x40001a28:    52bcca00    ...R    MOV      w0,#0xe6500000
        0x40001a2c:    97fffca9    ....    BL       I2C_masterSendMultipleByteStop ; 0x40000cd0
        0x40001a30:    3727fef3    ..'7    TBNZ     w19,#4,0x40001a0c ; i2c0InterruptHandler + 92
        0x40001a34:    17fffff9    ....    B        0x40001a18 ; i2c0InterruptHandler + 104
        0x40001a38:    00000000    ....    DCI      0x00000000 ; ? Undefined
        0x40001a3c:    00000000    ....    DCI      0x00000000 ; ? Undefined
    i2c0InterruptHandler
        0x40001a40:    f81e0ff4    ....    STR      x20,[sp,#-0x20]!
        0x40001a44:    a9017bf3    .{..    STP      x19,x30,[sp,#0x10]
        0x40001a48:    52bcca14    ...R    MOV      w20,#0xe6500000
        0x40001a4c:    52bcca00    ...R    MOV      w0,#0xe6500000
        0x40001a50:    97fffce0    ....    BL       I2C_slaveGetInterruptStatus ; 0x40000dd0
        0x40001a54:    2a0003f3    ...*    MOV      w19,w0
        0x40001a58:    361801f3    ...6    TBZ      w19,#3,0x40001a94 ; i2c0InterruptHandler + 84
        0x40001a5c:    90000048    H...    ADRP     x8,{pc}+0x8000 ; 0x40009a5c
        0x40001a60:    39791108    ..y9    LDRB     w8,[x8,#0xe44]
        0x40001a64:    34000088    ...4    CBZ      w8,0x40001a74 ; i2c0InterruptHandler + 52
        0x40001a68:    91402280    ."@.    ADD      x0,x20,#8,LSL #12
        0x40001a6c:    97fffc99    ....    BL       I2C_masterSendMultipleByteStop ; 0x40000cd0
        0x40001a70:    14000009    ....    B        0x40001a94 ; i2c0InterruptHandler + 84
        0x40001a74:    52800c08    ...R    MOV      w8,#0x60
        0x40001a78:    72bce6a8    ...r    MOVK     w8,#0xe735,LSL #16
        0x40001a7c:    320003e9    ...2    ORR      w9,wzr,#1
        0x40001a80:    b9000109    ....    STR      w9,[x8,#0]
        0x40001a84:    91402280    ."@.    ADD      x0,x20,#8,LSL #12
        0x40001a88:    97fffb6a    j...    BL       I2C_masterEnableDMAReceive ; 0x40000830
        0x40001a8c:    52bcca00    ...R    MOV      w0,#0xe6500000
        0x40001a90:    97fffcc8    ....    BL       I2C_slaveEnableDMATransmit ; 0x40000db0
        0x40001a94:    52bcca00    ...R    MOV      w0,#0xe6500000
        0x40001a98:    2a1303e1    ...*    MOV      w1,w19
        0x40001a9c:    a9417bf3    .{A.    LDP      x19,x30,[sp,#0x10]
        0x40001aa0:    f84207f4    ..B.    LDR      x20,[sp],#0x20
        0x40001aa4:    17fffcab    ....    B        I2C_slaveClearInterruptStatus ; 0x40000d50
        0x40001aa8:    00000000    ....    DCI      0x00000000 ; ? Undefined
        0x40001aac:    00000000    ....    DCI      0x00000000 ; ? Undefined
    i2c0InterruptHandler
        0x40001ab0:    f81e0ff4    ....    STR      x20,[sp,#-0x20]!
        0x40001ab4:    a9017bf3    .{..    STP      x19,x30,[sp,#0x10]
        0x40001ab8:    52bcca14    ...R    MOV      w20,#0xe6500000
        0x40001abc:    52bcca00    ...R    MOV      w0,#0xe6500000
        0x40001ac0:    97fffb68    h...    BL       I2C_masterGetInterruptStatus ; 0x40000860
        0x40001ac4:    2a0003f3    ...*    MOV      w19,w0
        0x40001ac8:    12000668    h...    AND      w8,w19,#3
        0x40001acc:    7100091f    ...q    CMP      w8,#2
        0x40001ad0:    540000e1    ...T    B.NE     0x40001aec ; i2c0InterruptHandler + 60
        0x40001ad4:    52800c08    ...R    MOV      w8,#0x60
        0x40001ad8:    72bce6a8    ...r    MOVK     w8,#0xe735,LSL #16
        0x40001adc:    320003e9    ...2    ORR      w9,wzr,#1
        0x40001ae0:    b9000109    ....    STR      w9,[x8,#0]
        0x40001ae4:    91402280    ."@.    ADD      x0,x20,#8,LSL #12
        0x40001ae8:    97fffcb2    ....    BL       I2C_slaveEnableDMATransmit ; 0x40000db0
        0x40001aec:    362000b3    .. 6    TBZ      w19,#4,0x40001b00 ; i2c0InterruptHandler + 80
        0x40001af0:    90000048    H...    ADRP     x8,{pc}+0x8000 ; 0x40009af0
        0x40001af4:    39792108    .!y9    LDRB     w8,[x8,#0xe48]
        0x40001af8:    90000049    I...    ADRP     x9,{pc}+0x8000 ; 0x40009af8
        0x40001afc:    393a1128    (.:9    STRB     w8,[x9,#0xe84]
        0x40001b00:    52bcca00    ...R    MOV      w0,#0xe6500000
        0x40001b04:    2a1303e1    ...*    MOV      w1,w19
        0x40001b08:    a9417bf3    .{A.    LDP      x19,x30,[sp,#0x10]
        0x40001b0c:    f84207f4    ..B.    LDR      x20,[sp],#0x20
        0x40001b10:    17fffb28    (...    B        I2C_masterClearInterruptStatus ; 0x400007b0
        0x40001b14:    00000000    ....    DCI      0x00000000 ; ? Undefined
        0x40001b18:    00000000    ....    DCI      0x00000000 ; ? Undefined
        0x40001b1c:    00000000    ....    DCI      0x00000000 ; ? Undefined
    i2c0InterruptHandler
        0x40001b20:    f81e0ff4    ....    STR      x20,[sp,#-0x20]!
        0x40001b24:    a9017bf3    .{..    STP      x19,x30,[sp,#0x10]
        0x40001b28:    52bcca00    ...R    MOV      w0,#0xe6500000
        0x40001b2c:    97fffb4d    M...    BL       I2C_masterGetInterruptStatus ; 0x40000860
        0x40001b30:    2a0003f3    ...*    MOV      w19,w0
        0x40001b34:    37000133    3..7    TBNZ     w19,#0,0x40001b58 ; i2c0InterruptHandler + 56
        0x40001b38:    360803b3    ...6    TBZ      w19,#1,0x40001bac ; i2c0InterruptHandler + 140
        0x40001b3c:    b0000054    T...    ADRP     x20,{pc}+0x9000 ; 0x4000ab3c
        0x40001b40:    b944c688    ..D.    LDR      w8,[x20,#0x4c4]
        0x40001b44:    7100291f    .).q    CMP      w8,#0xa
        0x40001b48:    54000108    ...T    B.HI     0x40001b68 ; i2c0InterruptHandler + 72
        0x40001b4c:    52bcca00    ...R    MOV      w0,#0xe6500000
        0x40001b50:    97fffc3c    <...    BL       I2C_masterReceiveMultipleByteNext ; 0x40000c40
        0x40001b54:    14000010    ....    B        0x40001b94 ; i2c0InterruptHandler + 116
        0x40001b58:    52bcca00    ...R    MOV      w0,#0xe6500000
        0x40001b5c:    97fffb29    )...    BL       I2C_masterDisableStartGeneration ; 0x40000800
        0x40001b60:    37200293    .. 7    TBNZ     w19,#4,0x40001bb0 ; i2c0InterruptHandler + 144
        0x40001b64:    14000016    ....    B        0x40001bbc ; i2c0InterruptHandler + 156
        0x40001b68:    b944c688    ..D.    LDR      w8,[x20,#0x4c4]
        0x40001b6c:    71002d1f    .-.q    CMP      w8,#0xb
        0x40001b70:    54000081    ...T    B.NE     0x40001b80 ; i2c0InterruptHandler + 96
        0x40001b74:    52bcca00    ...R    MOV      w0,#0xe6500000
        0x40001b78:    97fffc36    6...    BL       I2C_masterReceiveMultipleByteStop ; 0x40000c50
        0x40001b7c:    14000006    ....    B        0x40001b94 ; i2c0InterruptHandler + 116
        0x40001b80:    b944c688    ..D.    LDR      w8,[x20,#0x4c4]
        0x40001b84:    7100311f    .1.q    CMP      w8,#0xc
        0x40001b88:    54000121    !..T    B.NE     0x40001bac ; i2c0InterruptHandler + 140
        0x40001b8c:    52bcca00    ...R    MOV      w0,#0xe6500000
        0x40001b90:    97fffc28    (...    BL       I2C_masterReceiveMultipleByteFinish ; 0x40000c30
        0x40001b94:    b944c688    ..D.    LDR      w8,[x20,#0x4c4]
        0x40001b98:    11000509    ....    ADD      w9,w8,#1
        0x40001b9c:    b000004a    J...    ADRP     x10,{pc}+0x9000 ; 0x4000ab9c
        0x40001ba0:    9111c14a    J...    ADD      x10,x10,#0x470
        0x40001ba4:    b904c689    ....    STR      w9,[x20,#0x4c4]
        0x40001ba8:    b8287940    @y(.    STR      w0,[x10,x8,LSL #2]
        0x40001bac:    36200093    .. 6    TBZ      w19,#4,0x40001bbc ; i2c0InterruptHandler + 156
        0x40001bb0:    90000048    H...    ADRP     x8,{pc}+0x8000 ; 0x40009bb0
        0x40001bb4:    320003e9    ...2    ORR      w9,wzr,#1
        0x40001bb8:    393a2109    .!:9    STRB     w9,[x8,#0xe88]
        0x40001bbc:    52bcca00    ...R    MOV      w0,#0xe6500000
        0x40001bc0:    2a1303e1    ...*    MOV      w1,w19
        0x40001bc4:    a9417bf3    .{A.    LDP      x19,x30,[sp,#0x10]
        0x40001bc8:    f84207f4    ..B.    LDR      x20,[sp],#0x20
        0x40001bcc:    17fffaf9    ....    B        I2C_masterClearInterruptStatus ; 0x400007b0
    i2c1InterruptHandler
        0x40001bd0:    f81e0ff4    ....    STR      x20,[sp,#-0x20]!
        0x40001bd4:    a9017bf3    .{..    STP      x19,x30,[sp,#0x10]
        0x40001bd8:    52900000    ...R    MOV      w0,#0x8000
        0x40001bdc:    72bcca00    ...r    MOVK     w0,#0xe650,LSL #16
        0x40001be0:    97fffc7c    |...    BL       I2C_slaveGetInterruptStatus ; 0x40000dd0
        0x40001be4:    2a0003f3    ...*    MOV      w19,w0
        0x40001be8:    36080393    ...6    TBZ      w19,#1,0x40001c58 ; i2c1InterruptHandler + 136
        0x40001bec:    b0000054    T...    ADRP     x20,{pc}+0x9000 ; 0x4000abec
        0x40001bf0:    b944a688    ..D.    LDR      w8,[x20,#0x4a4]
        0x40001bf4:    7100291f    .).q    CMP      w8,#0xa
        0x40001bf8:    540000a8    ...T    B.HI     0x40001c0c ; i2c1InterruptHandler + 60
        0x40001bfc:    52900000    ...R    MOV      w0,#0x8000
        0x40001c00:    72bcca00    ...r    MOVK     w0,#0xe650,LSL #16
        0x40001c04:    97fffd6b    k...    BL       I2C_slaveReceiveMultipleByteNext ; 0x400011b0
        0x40001c08:    1400000e    ....    B        0x40001c40 ; i2c1InterruptHandler + 112
        0x40001c0c:    b944a688    ..D.    LDR      w8,[x20,#0x4a4]
        0x40001c10:    71002d1f    .-.q    CMP      w8,#0xb
        0x40001c14:    540000a1    ...T    B.NE     0x40001c28 ; i2c1InterruptHandler + 88
        0x40001c18:    52900000    ...R    MOV      w0,#0x8000
        0x40001c1c:    72bcca00    ...r    MOVK     w0,#0xe650,LSL #16
        0x40001c20:    97fffd68    h...    BL       I2C_slaveReceiveMultipleByteStop ; 0x400011c0
        0x40001c24:    14000007    ....    B        0x40001c40 ; i2c1InterruptHandler + 112
        0x40001c28:    b944a688    ..D.    LDR      w8,[x20,#0x4a4]
        0x40001c2c:    7100311f    .1.q    CMP      w8,#0xc
        0x40001c30:    54000141    A..T    B.NE     0x40001c58 ; i2c1InterruptHandler + 136
        0x40001c34:    52900000    ...R    MOV      w0,#0x8000
        0x40001c38:    72bcca00    ...r    MOVK     w0,#0xe650,LSL #16
        0x40001c3c:    97fffd59    Y...    BL       I2C_slaveReceiveMultipleByteFinish ; 0x400011a0
        0x40001c40:    b944a688    ..D.    LDR      w8,[x20,#0x4a4]
        0x40001c44:    11000509    ....    ADD      w9,w8,#1
        0x40001c48:    9000004a    J...    ADRP     x10,{pc}+0x8000 ; 0x40009c48
        0x40001c4c:    913a314a    J1:.    ADD      x10,x10,#0xe8c
        0x40001c50:    b904a689    ....    STR      w9,[x20,#0x4a4]
        0x40001c54:    b8287940    @y(.    STR      w0,[x10,x8,LSL #2]
        0x40001c58:    52900000    ...R    MOV      w0,#0x8000
        0x40001c5c:    72bcca00    ...r    MOVK     w0,#0xe650,LSL #16
        0x40001c60:    2a1303e1    ...*    MOV      w1,w19
        0x40001c64:    a9417bf3    .{A.    LDP      x19,x30,[sp,#0x10]
        0x40001c68:    f84207f4    ..B.    LDR      x20,[sp],#0x20
        0x40001c6c:    17fffc39    9...    B        I2C_slaveClearInterruptStatus ; 0x40000d50
    i2c1InterruptHandler
        0x40001c70:    f81f0ffe    ....    STR      x30,[sp,#-0x10]!
        0x40001c74:    52900000    ...R    MOV      w0,#0x8000
        0x40001c78:    72bcca00    ...r    MOVK     w0,#0xe650,LSL #16
        0x40001c7c:    97fffc55    U...    BL       I2C_slaveGetInterruptStatus ; 0x40000dd0
        0x40001c80:    2a0003e1    ...*    MOV      w1,w0
        0x40001c84:    52900000    ...R    MOV      w0,#0x8000
        0x40001c88:    72bcca00    ...r    MOVK     w0,#0xe650,LSL #16
        0x40001c8c:    f84107fe    ..A.    LDR      x30,[sp],#0x10
        0x40001c90:    17fffc30    0...    B        I2C_slaveClearInterruptStatus ; 0x40000d50
        0x40001c94:    00000000    ....    DCI      0x00000000 ; ? Undefined
        0x40001c98:    00000000    ....    DCI      0x00000000 ; ? Undefined
        0x40001c9c:    00000000    ....    DCI      0x00000000 ; ? Undefined
    i2c1InterruptHandler
        0x40001ca0:    f81e0ff4    ....    STR      x20,[sp,#-0x20]!
        0x40001ca4:    a9017bf3    .{..    STP      x19,x30,[sp,#0x10]
        0x40001ca8:    52900014    ...R    MOV      w20,#0x8000
        0x40001cac:    72bcca14    ...r    MOVK     w20,#0xe650,LSL #16
        0x40001cb0:    52900000    ...R    MOV      w0,#0x8000
        0x40001cb4:    72bcca00    ...r    MOVK     w0,#0xe650,LSL #16
        0x40001cb8:    97fffaea    ....    BL       I2C_masterGetInterruptStatus ; 0x40000860
        0x40001cbc:    2a0003f3    ...*    MOV      w19,w0
        0x40001cc0:    37000153    S..7    TBNZ     w19,#0,0x40001ce8 ; i2c1InterruptHandler + 72
        0x40001cc4:    36180193    ...6    TBZ      w19,#3,0x40001cf4 ; i2c1InterruptHandler + 84
        0x40001cc8:    90000048    H...    ADRP     x8,{pc}+0x8000 ; 0x40009cc8
        0x40001ccc:    3978e108    ..x9    LDRB     w8,[x8,#0xe38]
        0x40001cd0:    34000268    h..4    CBZ      w8,0x40001d1c ; i2c1InterruptHandler + 124
        0x40001cd4:    52900000    ...R    MOV      w0,#0x8000
        0x40001cd8:    72bcca00    ...r    MOVK     w0,#0xe650,LSL #16
        0x40001cdc:    97fffbfd    ....    BL       I2C_masterSendMultipleByteStop ; 0x40000cd0
        0x40001ce0:    372000d3    .. 7    TBNZ     w19,#4,0x40001cf8 ; i2c1InterruptHandler + 88
        0x40001ce4:    14000008    ....    B        0x40001d04 ; i2c1InterruptHandler + 100
        0x40001ce8:    52900000    ...R    MOV      w0,#0x8000
        0x40001cec:    72bcca00    ...r    MOVK     w0,#0xe650,LSL #16
        0x40001cf0:    97fffac4    ....    BL       I2C_masterDisableStartGeneration ; 0x40000800
        0x40001cf4:    36200093    .. 6    TBZ      w19,#4,0x40001d04 ; i2c1InterruptHandler + 100
        0x40001cf8:    90000048    H...    ADRP     x8,{pc}+0x8000 ; 0x40009cf8
        0x40001cfc:    320003e9    ...2    ORR      w9,wzr,#1
        0x40001d00:    39396109    .a99    STRB     w9,[x8,#0xe58]
        0x40001d04:    52900000    ...R    MOV      w0,#0x8000
        0x40001d08:    72bcca00    ...r    MOVK     w0,#0xe650,LSL #16
        0x40001d0c:    2a1303e1    ...*    MOV      w1,w19
        0x40001d10:    a9417bf3    .{A.    LDP      x19,x30,[sp,#0x10]
        0x40001d14:    f84207f4    ..B.    LDR      x20,[sp],#0x20
        0x40001d18:    17fffaa6    ....    B        I2C_masterClearInterruptStatus ; 0x400007b0
        0x40001d1c:    52800c08    ...R    MOV      w8,#0x60
        0x40001d20:    72bce6a8    ...r    MOVK     w8,#0xe735,LSL #16
        0x40001d24:    320003e9    ...2    ORR      w9,wzr,#1
        0x40001d28:    b9000109    ....    STR      w9,[x8,#0]
        0x40001d2c:    d1402280    ."@.    SUB      x0,x20,#8,LSL #12
        0x40001d30:    97fffc1c    ....    BL       I2C_slaveEnableDMAReceive ; 0x40000da0
        0x40001d34:    52900000    ...R    MOV      w0,#0x8000
        0x40001d38:    72bcca00    ...r    MOVK     w0,#0xe650,LSL #16
        0x40001d3c:    97fffac1    ....    BL       I2C_masterEnableDMATransmit ; 0x40000840
        0x40001d40:    3727fdd3    ..'7    TBNZ     w19,#4,0x40001cf8 ; i2c1InterruptHandler + 88
        0x40001d44:    17fffff0    ....    B        0x40001d04 ; i2c1InterruptHandler + 100
        0x40001d48:    00000000    ....    DCI      0x00000000 ; ? Undefined
        0x40001d4c:    00000000    ....    DCI      0x00000000 ; ? Undefined
    i2c1InterruptHandler
        0x40001d50:    f81e0ff4    ....    STR      x20,[sp,#-0x20]!
        0x40001d54:    a9017bf3    .{..    STP      x19,x30,[sp,#0x10]
        0x40001d58:    52900014    ...R    MOV      w20,#0x8000
        0x40001d5c:    72bcca14    ...r    MOVK     w20,#0xe650,LSL #16
        0x40001d60:    52900000    ...R    MOV      w0,#0x8000
        0x40001d64:    72bcca00    ...r    MOVK     w0,#0xe650,LSL #16
        0x40001d68:    97fffc1a    ....    BL       I2C_slaveGetInterruptStatus ; 0x40000dd0
        0x40001d6c:    2a0003f3    ...*    MOV      w19,w0
        0x40001d70:    36180213    ...6    TBZ      w19,#3,0x40001db0 ; i2c1InterruptHandler + 96
        0x40001d74:    90000048    H...    ADRP     x8,{pc}+0x8000 ; 0x40009d74
        0x40001d78:    3978f108    ..x9    LDRB     w8,[x8,#0xe3c]
        0x40001d7c:    34000088    ...4    CBZ      w8,0x40001d8c ; i2c1InterruptHandler + 60
        0x40001d80:    d1402280    ."@.    SUB      x0,x20,#8,LSL #12
        0x40001d84:    97fffbd3    ....    BL       I2C_masterSendMultipleByteStop ; 0x40000cd0
        0x40001d88:    1400000a    ....    B        0x40001db0 ; i2c1InterruptHandler + 96
        0x40001d8c:    52800c08    ...R    MOV      w8,#0x60
        0x40001d90:    72bce6a8    ...r    MOVK     w8,#0xe735,LSL #16
        0x40001d94:    320003e9    ...2    ORR      w9,wzr,#1
        0x40001d98:    b9000109    ....    STR      w9,[x8,#0]
        0x40001d9c:    d1402280    ."@.    SUB      x0,x20,#8,LSL #12
        0x40001da0:    97fffaa4    ....    BL       I2C_masterEnableDMAReceive ; 0x40000830
        0x40001da4:    52900000    ...R    MOV      w0,#0x8000
        0x40001da8:    72bcca00    ...r    MOVK     w0,#0xe650,LSL #16
        0x40001dac:    97fffc01    ....    BL       I2C_slaveEnableDMATransmit ; 0x40000db0
        0x40001db0:    52900000    ...R    MOV      w0,#0x8000
        0x40001db4:    72bcca00    ...r    MOVK     w0,#0xe650,LSL #16
        0x40001db8:    2a1303e1    ...*    MOV      w1,w19
        0x40001dbc:    a9417bf3    .{A.    LDP      x19,x30,[sp,#0x10]
        0x40001dc0:    f84207f4    ..B.    LDR      x20,[sp],#0x20
        0x40001dc4:    17fffbe3    ....    B        I2C_slaveClearInterruptStatus ; 0x40000d50
        0x40001dc8:    00000000    ....    DCI      0x00000000 ; ? Undefined
        0x40001dcc:    00000000    ....    DCI      0x00000000 ; ? Undefined
    i2c1InterruptHandler
        0x40001dd0:    f81e0ff4    ....    STR      x20,[sp,#-0x20]!
        0x40001dd4:    a9017bf3    .{..    STP      x19,x30,[sp,#0x10]
        0x40001dd8:    52900000    ...R    MOV      w0,#0x8000
        0x40001ddc:    72bcca00    ...r    MOVK     w0,#0xe650,LSL #16
        0x40001de0:    97fffbfc    ....    BL       I2C_slaveGetInterruptStatus ; 0x40000dd0
        0x40001de4:    2a0003f3    ...*    MOV      w19,w0
        0x40001de8:    36080393    ...6    TBZ      w19,#1,0x40001e58 ; i2c1InterruptHandler + 136
        0x40001dec:    b0000054    T...    ADRP     x20,{pc}+0x9000 ; 0x4000adec
        0x40001df0:    b944aa88    ..D.    LDR      w8,[x20,#0x4a8]
        0x40001df4:    7100291f    .).q    CMP      w8,#0xa
        0x40001df8:    540000a8    ...T    B.HI     0x40001e0c ; i2c1InterruptHandler + 60
        0x40001dfc:    52900000    ...R    MOV      w0,#0x8000
        0x40001e00:    72bcca00    ...r    MOVK     w0,#0xe650,LSL #16
        0x40001e04:    97fffceb    ....    BL       I2C_slaveReceiveMultipleByteNext ; 0x400011b0
        0x40001e08:    1400000e    ....    B        0x40001e40 ; i2c1InterruptHandler + 112
        0x40001e0c:    b944aa88    ..D.    LDR      w8,[x20,#0x4a8]
        0x40001e10:    71002d1f    .-.q    CMP      w8,#0xb
        0x40001e14:    540000a1    ...T    B.NE     0x40001e28 ; i2c1InterruptHandler + 88
        0x40001e18:    52900000    ...R    MOV      w0,#0x8000
        0x40001e1c:    72bcca00    ...r    MOVK     w0,#0xe650,LSL #16
        0x40001e20:    97fffce8    ....    BL       I2C_slaveReceiveMultipleByteStop ; 0x400011c0
        0x40001e24:    14000007    ....    B        0x40001e40 ; i2c1InterruptHandler + 112
        0x40001e28:    b944aa88    ..D.    LDR      w8,[x20,#0x4a8]
        0x40001e2c:    7100311f    .1.q    CMP      w8,#0xc
        0x40001e30:    54000141    A..T    B.NE     0x40001e58 ; i2c1InterruptHandler + 136
        0x40001e34:    52900000    ...R    MOV      w0,#0x8000
        0x40001e38:    72bcca00    ...r    MOVK     w0,#0xe650,LSL #16
        0x40001e3c:    97fffcd9    ....    BL       I2C_slaveReceiveMultipleByteFinish ; 0x400011a0
        0x40001e40:    b944aa88    ..D.    LDR      w8,[x20,#0x4a8]
        0x40001e44:    11000509    ....    ADD      w9,w8,#1
        0x40001e48:    b000004a    J...    ADRP     x10,{pc}+0x9000 ; 0x4000ae48
        0x40001e4c:    9101814a    J...    ADD      x10,x10,#0x60
        0x40001e50:    b904aa89    ....    STR      w9,[x20,#0x4a8]
        0x40001e54:    b8287940    @y(.    STR      w0,[x10,x8,LSL #2]
        0x40001e58:    52900000    ...R    MOV      w0,#0x8000
        0x40001e5c:    72bcca00    ...r    MOVK     w0,#0xe650,LSL #16
        0x40001e60:    2a1303e1    ...*    MOV      w1,w19
        0x40001e64:    a9417bf3    .{A.    LDP      x19,x30,[sp,#0x10]
        0x40001e68:    f84207f4    ..B.    LDR      x20,[sp],#0x20
        0x40001e6c:    17fffbb9    ....    B        I2C_slaveClearInterruptStatus ; 0x40000d50
    i2c1InterruptHandler
        0x40001e70:    f81e0ff4    ....    STR      x20,[sp,#-0x20]!
        0x40001e74:    a9017bf3    .{..    STP      x19,x30,[sp,#0x10]
        0x40001e78:    52900000    ...R    MOV      w0,#0x8000
        0x40001e7c:    72bcca00    ...r    MOVK     w0,#0xe650,LSL #16
        0x40001e80:    97fffbd4    ....    BL       I2C_slaveGetInterruptStatus ; 0x40000dd0
        0x40001e84:    2a0003f3    ...*    MOV      w19,w0
        0x40001e88:    36080393    ...6    TBZ      w19,#1,0x40001ef8 ; i2c1InterruptHandler + 136
        0x40001e8c:    b0000054    T...    ADRP     x20,{pc}+0x9000 ; 0x4000ae8c
        0x40001e90:    b944ae88    ..D.    LDR      w8,[x20,#0x4ac]
        0x40001e94:    7100291f    .).q    CMP      w8,#0xa
        0x40001e98:    540000a8    ...T    B.HI     0x40001eac ; i2c1InterruptHandler + 60
        0x40001e9c:    52900000    ...R    MOV      w0,#0x8000
        0x40001ea0:    72bcca00    ...r    MOVK     w0,#0xe650,LSL #16
        0x40001ea4:    97fffcc3    ....    BL       I2C_slaveReceiveMultipleByteNext ; 0x400011b0
        0x40001ea8:    1400000e    ....    B        0x40001ee0 ; i2c1InterruptHandler + 112
        0x40001eac:    b944ae88    ..D.    LDR      w8,[x20,#0x4ac]
        0x40001eb0:    71002d1f    .-.q    CMP      w8,#0xb
        0x40001eb4:    540000a1    ...T    B.NE     0x40001ec8 ; i2c1InterruptHandler + 88
        0x40001eb8:    52900000    ...R    MOV      w0,#0x8000
        0x40001ebc:    72bcca00    ...r    MOVK     w0,#0xe650,LSL #16
        0x40001ec0:    97fffcc0    ....    BL       I2C_slaveReceiveMultipleByteStop ; 0x400011c0
        0x40001ec4:    14000007    ....    B        0x40001ee0 ; i2c1InterruptHandler + 112
        0x40001ec8:    b944ae88    ..D.    LDR      w8,[x20,#0x4ac]
        0x40001ecc:    7100311f    .1.q    CMP      w8,#0xc
        0x40001ed0:    54000141    A..T    B.NE     0x40001ef8 ; i2c1InterruptHandler + 136
        0x40001ed4:    52900000    ...R    MOV      w0,#0x8000
        0x40001ed8:    72bcca00    ...r    MOVK     w0,#0xe650,LSL #16
        0x40001edc:    97fffcb1    ....    BL       I2C_slaveReceiveMultipleByteFinish ; 0x400011a0
        0x40001ee0:    b944ae88    ..D.    LDR      w8,[x20,#0x4ac]
        0x40001ee4:    11000509    ....    ADD      w9,w8,#1
        0x40001ee8:    b000004a    J...    ADRP     x10,{pc}+0x9000 ; 0x4000aee8
        0x40001eec:    9102514a    JQ..    ADD      x10,x10,#0x94
        0x40001ef0:    b904ae89    ....    STR      w9,[x20,#0x4ac]
        0x40001ef4:    b8287940    @y(.    STR      w0,[x10,x8,LSL #2]
        0x40001ef8:    52900000    ...R    MOV      w0,#0x8000
        0x40001efc:    72bcca00    ...r    MOVK     w0,#0xe650,LSL #16
        0x40001f00:    2a1303e1    ...*    MOV      w1,w19
        0x40001f04:    a9417bf3    .{A.    LDP      x19,x30,[sp,#0x10]
        0x40001f08:    f84207f4    ..B.    LDR      x20,[sp],#0x20
        0x40001f0c:    17fffb91    ....    B        I2C_slaveClearInterruptStatus ; 0x40000d50
    i2c1InterruptHandler
        0x40001f10:    f81e0ff4    ....    STR      x20,[sp,#-0x20]!
        0x40001f14:    a9017bf3    .{..    STP      x19,x30,[sp,#0x10]
        0x40001f18:    52900000    ...R    MOV      w0,#0x8000
        0x40001f1c:    72bcca00    ...r    MOVK     w0,#0xe650,LSL #16
        0x40001f20:    97fffbac    ....    BL       I2C_slaveGetInterruptStatus ; 0x40000dd0
        0x40001f24:    2a0003f3    ...*    MOV      w19,w0
        0x40001f28:    36080393    ...6    TBZ      w19,#1,0x40001f98 ; i2c1InterruptHandler + 136
        0x40001f2c:    b0000054    T...    ADRP     x20,{pc}+0x9000 ; 0x4000af2c
        0x40001f30:    b944b288    ..D.    LDR      w8,[x20,#0x4b0]
        0x40001f34:    7100291f    .).q    CMP      w8,#0xa
        0x40001f38:    540000a8    ...T    B.HI     0x40001f4c ; i2c1InterruptHandler + 60
        0x40001f3c:    52900000    ...R    MOV      w0,#0x8000
        0x40001f40:    72bcca00    ...r    MOVK     w0,#0xe650,LSL #16
        0x40001f44:    97fffc9b    ....    BL       I2C_slaveReceiveMultipleByteNext ; 0x400011b0
        0x40001f48:    1400000e    ....    B        0x40001f80 ; i2c1InterruptHandler + 112
        0x40001f4c:    b944b288    ..D.    LDR      w8,[x20,#0x4b0]
        0x40001f50:    71002d1f    .-.q    CMP      w8,#0xb
        0x40001f54:    540000a1    ...T    B.NE     0x40001f68 ; i2c1InterruptHandler + 88
        0x40001f58:    52900000    ...R    MOV      w0,#0x8000
        0x40001f5c:    72bcca00    ...r    MOVK     w0,#0xe650,LSL #16
        0x40001f60:    97fffc98    ....    BL       I2C_slaveReceiveMultipleByteStop ; 0x400011c0
        0x40001f64:    14000007    ....    B        0x40001f80 ; i2c1InterruptHandler + 112
        0x40001f68:    b944b288    ..D.    LDR      w8,[x20,#0x4b0]
        0x40001f6c:    7100311f    .1.q    CMP      w8,#0xc
        0x40001f70:    54000141    A..T    B.NE     0x40001f98 ; i2c1InterruptHandler + 136
        0x40001f74:    52900000    ...R    MOV      w0,#0x8000
        0x40001f78:    72bcca00    ...r    MOVK     w0,#0xe650,LSL #16
        0x40001f7c:    97fffc89    ....    BL       I2C_slaveReceiveMultipleByteFinish ; 0x400011a0
        0x40001f80:    b944b288    ..D.    LDR      w8,[x20,#0x4b0]
        0x40001f84:    11000509    ....    ADD      w9,w8,#1
        0x40001f88:    b000004a    J...    ADRP     x10,{pc}+0x9000 ; 0x4000af88
        0x40001f8c:    9103214a    J!..    ADD      x10,x10,#0xc8
        0x40001f90:    b904b289    ....    STR      w9,[x20,#0x4b0]
        0x40001f94:    b8287940    @y(.    STR      w0,[x10,x8,LSL #2]
        0x40001f98:    52900000    ...R    MOV      w0,#0x8000
        0x40001f9c:    72bcca00    ...r    MOVK     w0,#0xe650,LSL #16
        0x40001fa0:    2a1303e1    ...*    MOV      w1,w19
        0x40001fa4:    a9417bf3    .{A.    LDP      x19,x30,[sp,#0x10]
        0x40001fa8:    f84207f4    ..B.    LDR      x20,[sp],#0x20
        0x40001fac:    17fffb69    i...    B        I2C_slaveClearInterruptStatus ; 0x40000d50
    i2c1InterruptHandler
        0x40001fb0:    f81f0ffe    ....    STR      x30,[sp,#-0x10]!
        0x40001fb4:    52900000    ...R    MOV      w0,#0x8000
        0x40001fb8:    72bcca00    ...r    MOVK     w0,#0xe650,LSL #16
        0x40001fbc:    97fffb85    ....    BL       I2C_slaveGetInterruptStatus ; 0x40000dd0
        0x40001fc0:    2a0003e1    ...*    MOV      w1,w0
        0x40001fc4:    52900000    ...R    MOV      w0,#0x8000
        0x40001fc8:    72bcca00    ...r    MOVK     w0,#0xe650,LSL #16
        0x40001fcc:    f84107fe    ..A.    LDR      x30,[sp],#0x10
        0x40001fd0:    17fffb60    `...    B        I2C_slaveClearInterruptStatus ; 0x40000d50
        0x40001fd4:    00000000    ....    DCI      0x00000000 ; ? Undefined
        0x40001fd8:    00000000    ....    DCI      0x00000000 ; ? Undefined
        0x40001fdc:    00000000    ....    DCI      0x00000000 ; ? Undefined
    i2c1InterruptHandler
        0x40001fe0:    f81e0ff4    ....    STR      x20,[sp,#-0x20]!
        0x40001fe4:    a9017bf3    .{..    STP      x19,x30,[sp,#0x10]
        0x40001fe8:    52900000    ...R    MOV      w0,#0x8000
        0x40001fec:    72bcca00    ...r    MOVK     w0,#0xe650,LSL #16
        0x40001ff0:    97fffb78    x...    BL       I2C_slaveGetInterruptStatus ; 0x40000dd0
        0x40001ff4:    2a0003f3    ...*    MOV      w19,w0
        0x40001ff8:    36080393    ...6    TBZ      w19,#1,0x40002068 ; i2c1InterruptHandler + 136
        0x40001ffc:    b0000054    T...    ADRP     x20,{pc}+0x9000 ; 0x4000affc
        0x40002000:    b944b688    ..D.    LDR      w8,[x20,#0x4b4]
        0x40002004:    7100291f    .).q    CMP      w8,#0xa
        0x40002008:    540000a8    ...T    B.HI     0x4000201c ; i2c1InterruptHandler + 60
        0x4000200c:    52900000    ...R    MOV      w0,#0x8000
        0x40002010:    72bcca00    ...r    MOVK     w0,#0xe650,LSL #16
        0x40002014:    97fffc67    g...    BL       I2C_slaveReceiveMultipleByteNext ; 0x400011b0
        0x40002018:    1400000e    ....    B        0x40002050 ; i2c1InterruptHandler + 112
        0x4000201c:    b944b688    ..D.    LDR      w8,[x20,#0x4b4]
        0x40002020:    71002d1f    .-.q    CMP      w8,#0xb
        0x40002024:    540000a1    ...T    B.NE     0x40002038 ; i2c1InterruptHandler + 88
        0x40002028:    52900000    ...R    MOV      w0,#0x8000
        0x4000202c:    72bcca00    ...r    MOVK     w0,#0xe650,LSL #16
        0x40002030:    97fffc64    d...    BL       I2C_slaveReceiveMultipleByteStop ; 0x400011c0
        0x40002034:    14000007    ....    B        0x40002050 ; i2c1InterruptHandler + 112
        0x40002038:    b944b688    ..D.    LDR      w8,[x20,#0x4b4]
        0x4000203c:    7100311f    .1.q    CMP      w8,#0xc
        0x40002040:    54000141    A..T    B.NE     0x40002068 ; i2c1InterruptHandler + 136
        0x40002044:    52900000    ...R    MOV      w0,#0x8000
        0x40002048:    72bcca00    ...r    MOVK     w0,#0xe650,LSL #16
        0x4000204c:    97fffc55    U...    BL       I2C_slaveReceiveMultipleByteFinish ; 0x400011a0
        0x40002050:    b944b688    ..D.    LDR      w8,[x20,#0x4b4]
        0x40002054:    11000509    ....    ADD      w9,w8,#1
        0x40002058:    9000004a    J...    ADRP     x10,{pc}+0x8000 ; 0x4000a058
        0x4000205c:    9105914a    J...    ADD      x10,x10,#0x164
        0x40002060:    b904b689    ....    STR      w9,[x20,#0x4b4]
        0x40002064:    b8287940    @y(.    STR      w0,[x10,x8,LSL #2]
        0x40002068:    52900000    ...R    MOV      w0,#0x8000
        0x4000206c:    72bcca00    ...r    MOVK     w0,#0xe650,LSL #16
        0x40002070:    2a1303e1    ...*    MOV      w1,w19
        0x40002074:    a9417bf3    .{A.    LDP      x19,x30,[sp,#0x10]
        0x40002078:    f84207f4    ..B.    LDR      x20,[sp],#0x20
        0x4000207c:    17fffb35    5...    B        I2C_slaveClearInterruptStatus ; 0x40000d50
    i2c1InterruptHandler
        0x40002080:    a9bf7bf3    .{..    STP      x19,x30,[sp,#-0x10]!
        0x40002084:    52900000    ...R    MOV      w0,#0x8000
        0x40002088:    72bcca00    ...r    MOVK     w0,#0xe650,LSL #16
        0x4000208c:    97fff9f5    ....    BL       I2C_masterGetInterruptStatus ; 0x40000860
        0x40002090:    2a0003f3    ...*    MOV      w19,w0
        0x40002094:    370001d3    ...7    TBNZ     w19,#0,0x400020cc ; i2c1InterruptHandler + 76
        0x40002098:    36180213    ...6    TBZ      w19,#3,0x400020d8 ; i2c1InterruptHandler + 88
        0x4000209c:    90000048    H...    ADRP     x8,{pc}+0x8000 ; 0x4000a09c
        0x400020a0:    b9495d09    .]I.    LDR      w9,[x8,#0x95c]
        0x400020a4:    1100052a    *...    ADD      w10,w9,#1
        0x400020a8:    b000002b    +...    ADRP     x11,{pc}+0x5000 ; 0x400070a8
        0x400020ac:    9125116b    k.%.    ADD      x11,x11,#0x944
        0x400020b0:    b9095d0a    .]..    STR      w10,[x8,#0x95c]
        0x400020b4:    b8697961    ayi.    LDR      w1,[x11,x9,LSL #2]
        0x400020b8:    52900000    ...R    MOV      w0,#0x8000
        0x400020bc:    72bcca00    ...r    MOVK     w0,#0xe650,LSL #16
        0x400020c0:    97fffaf8    ....    BL       I2C_masterSendMultipleByteNext ; 0x40000ca0
        0x400020c4:    372000d3    .. 7    TBNZ     w19,#4,0x400020dc ; i2c1InterruptHandler + 92
        0x400020c8:    14000008    ....    B        0x400020e8 ; i2c1InterruptHandler + 104
        0x400020cc:    52900000    ...R    MOV      w0,#0x8000
        0x400020d0:    72bcca00    ...r    MOVK     w0,#0xe650,LSL #16
        0x400020d4:    97fff9cb    ....    BL       I2C_masterDisableStartGeneration ; 0x40000800
        0x400020d8:    36200093    .. 6    TBZ      w19,#4,0x400020e8 ; i2c1InterruptHandler + 104
        0x400020dc:    f0000028    (...    ADRP     x8,{pc}+0x7000 ; 0x400090dc
        0x400020e0:    320003e9    ...2    ORR      w9,wzr,#1
        0x400020e4:    3939d109    ..99    STRB     w9,[x8,#0xe74]
        0x400020e8:    52900000    ...R    MOV      w0,#0x8000
        0x400020ec:    72bcca00    ...r    MOVK     w0,#0xe650,LSL #16
        0x400020f0:    2a1303e1    ...*    MOV      w1,w19
        0x400020f4:    a8c17bf3    .{..    LDP      x19,x30,[sp],#0x10
        0x400020f8:    17fff9ae    ....    B        I2C_masterClearInterruptStatus ; 0x400007b0
        0x400020fc:    00000000    ....    DCI      0x00000000 ; ? Undefined
    i2c1InterruptHandler
        0x40002100:    a9bf7bf3    .{..    STP      x19,x30,[sp,#-0x10]!
        0x40002104:    52900000    ...R    MOV      w0,#0x8000
        0x40002108:    72bcca00    ...r    MOVK     w0,#0xe650,LSL #16
        0x4000210c:    97fffb31    1...    BL       I2C_slaveGetInterruptStatus ; 0x40000dd0
        0x40002110:    2a0003f3    ...*    MOV      w19,w0
        0x40002114:    360802b3    ...6    TBZ      w19,#1,0x40002168 ; i2c1InterruptHandler + 104
        0x40002118:    52900000    ...R    MOV      w0,#0x8000
        0x4000211c:    72bcca00    ...r    MOVK     w0,#0xe650,LSL #16
        0x40002120:    97fffc24    $...    BL       I2C_slaveReceiveMultipleByteNext ; 0x400011b0
        0x40002124:    90000048    H...    ADRP     x8,{pc}+0x8000 ; 0x4000a124
        0x40002128:    b944bd09    ..D.    LDR      w9,[x8,#0x4bc]
        0x4000212c:    1100052a    *...    ADD      w10,w9,#1
        0x40002130:    9000004b    K...    ADRP     x11,{pc}+0x8000 ; 0x4000a130
        0x40002134:    9108d16b    k...    ADD      x11,x11,#0x234
        0x40002138:    b904bd0a    ....    STR      w10,[x8,#0x4bc]
        0x4000213c:    b8297960    `y).    STR      w0,[x11,x9,LSL #2]
        0x40002140:    90000048    H...    ADRP     x8,{pc}+0x8000 ; 0x4000a140
        0x40002144:    b9496109    .aI.    LDR      w9,[x8,#0x960]
        0x40002148:    1100052a    *...    ADD      w10,w9,#1
        0x4000214c:    b000002b    +...    ADRP     x11,{pc}+0x5000 ; 0x4000714c
        0x40002150:    9125e16b    k.%.    ADD      x11,x11,#0x978
        0x40002154:    b909610a    .a..    STR      w10,[x8,#0x960]
        0x40002158:    b8697961    ayi.    LDR      w1,[x11,x9,LSL #2]
        0x4000215c:    52900000    ...R    MOV      w0,#0x8000
        0x40002160:    72bcca00    ...r    MOVK     w0,#0xe650,LSL #16
        0x40002164:    97fffc1f    ....    BL       I2C_slaveSetData ; 0x400011e0
        0x40002168:    36180173    s..6    TBZ      w19,#3,0x40002194 ; i2c1InterruptHandler + 148
        0x4000216c:    90000048    H...    ADRP     x8,{pc}+0x8000 ; 0x4000a16c
        0x40002170:    b9496109    .aI.    LDR      w9,[x8,#0x960]
        0x40002174:    1100052a    *...    ADD      w10,w9,#1
        0x40002178:    b000002b    +...    ADRP     x11,{pc}+0x5000 ; 0x40007178
        0x4000217c:    9125e16b    k.%.    ADD      x11,x11,#0x978
        0x40002180:    b909610a    .a..    STR      w10,[x8,#0x960]
        0x40002184:    b8697961    ayi.    LDR      w1,[x11,x9,LSL #2]
        0x40002188:    52900000    ...R    MOV      w0,#0x8000
        0x4000218c:    72bcca00    ...r    MOVK     w0,#0xe650,LSL #16
        0x40002190:    97fffc14    ....    BL       I2C_slaveSetData ; 0x400011e0
        0x40002194:    52900000    ...R    MOV      w0,#0x8000
        0x40002198:    72bcca00    ...r    MOVK     w0,#0xe650,LSL #16
        0x4000219c:    2a1303e1    ...*    MOV      w1,w19
        0x400021a0:    a8c17bf3    .{..    LDP      x19,x30,[sp],#0x10
        0x400021a4:    17fffaeb    ....    B        I2C_slaveClearInterruptStatus ; 0x40000d50
        0x400021a8:    00000000    ....    DCI      0x00000000 ; ? Undefined
        0x400021ac:    00000000    ....    DCI      0x00000000 ; ? Undefined
    i2c1InterruptHandler
        0x400021b0:    a9bf7bf3    .{..    STP      x19,x30,[sp,#-0x10]!
        0x400021b4:    52900000    ...R    MOV      w0,#0x8000
        0x400021b8:    72bcca00    ...r    MOVK     w0,#0xe650,LSL #16
        0x400021bc:    97fffb05    ....    BL       I2C_slaveGetInterruptStatus ; 0x40000dd0
        0x400021c0:    2a0003f3    ...*    MOV      w19,w0
        0x400021c4:    36080173    s..6    TBZ      w19,#1,0x400021f0 ; i2c1InterruptHandler + 64
        0x400021c8:    52900000    ...R    MOV      w0,#0x8000
        0x400021cc:    72bcca00    ...r    MOVK     w0,#0xe650,LSL #16
        0x400021d0:    97fffbf8    ....    BL       I2C_slaveReceiveMultipleByteNext ; 0x400011b0
        0x400021d4:    90000048    H...    ADRP     x8,{pc}+0x8000 ; 0x4000a1d4
        0x400021d8:    b944c109    ..D.    LDR      w9,[x8,#0x4c0]
        0x400021dc:    1100052a    *...    ADD      w10,w9,#1
        0x400021e0:    9000004b    K...    ADRP     x11,{pc}+0x8000 ; 0x4000a1e0
        0x400021e4:    9109a16b    k...    ADD      x11,x11,#0x268
        0x400021e8:    b904c10a    ....    STR      w10,[x8,#0x4c0]
        0x400021ec:    b8297960    `y).    STR      w0,[x11,x9,LSL #2]
        0x400021f0:    52900000    ...R    MOV      w0,#0x8000
        0x400021f4:    72bcca00    ...r    MOVK     w0,#0xe650,LSL #16
        0x400021f8:    2a1303e1    ...*    MOV      w1,w19
        0x400021fc:    a8c17bf3    .{..    LDP      x19,x30,[sp],#0x10
        0x40002200:    17fffad4    ....    B        I2C_slaveClearInterruptStatus ; 0x40000d50
        0x40002204:    00000000    ....    DCI      0x00000000 ; ? Undefined
        0x40002208:    00000000    ....    DCI      0x00000000 ; ? Undefined
        0x4000220c:    00000000    ....    DCI      0x00000000 ; ? Undefined
    i2c1InterruptHandler
        0x40002210:    a9bf7bf3    .{..    STP      x19,x30,[sp,#-0x10]!
        0x40002214:    52900000    ...R    MOV      w0,#0x8000
        0x40002218:    72bcca00    ...r    MOVK     w0,#0xe650,LSL #16
        0x4000221c:    97fff991    ....    BL       I2C_masterGetInterruptStatus ; 0x40000860
        0x40002220:    2a0003f3    ...*    MOV      w19,w0
        0x40002224:    36000093    ...6    TBZ      w19,#0,0x40002234 ; i2c1InterruptHandler + 36
        0x40002228:    52900000    ...R    MOV      w0,#0x8000
        0x4000222c:    72bcca00    ...r    MOVK     w0,#0xe650,LSL #16
        0x40002230:    97fff974    t...    BL       I2C_masterDisableStartGeneration ; 0x40000800
        0x40002234:    36200093    .. 6    TBZ      w19,#4,0x40002244 ; i2c1InterruptHandler + 52
        0x40002238:    f0000028    (...    ADRP     x8,{pc}+0x7000 ; 0x40009238
        0x4000223c:    320003e9    ...2    ORR      w9,wzr,#1
        0x40002240:    393a0109    ..:9    STRB     w9,[x8,#0xe80]
        0x40002244:    52900000    ...R    MOV      w0,#0x8000
        0x40002248:    72bcca00    ...r    MOVK     w0,#0xe650,LSL #16
        0x4000224c:    2a1303e1    ...*    MOV      w1,w19
        0x40002250:    a8c17bf3    .{..    LDP      x19,x30,[sp],#0x10
        0x40002254:    17fff957    W...    B        I2C_masterClearInterruptStatus ; 0x400007b0
        0x40002258:    00000000    ....    DCI      0x00000000 ; ? Undefined
        0x4000225c:    00000000    ....    DCI      0x00000000 ; ? Undefined
    i2c1InterruptHandler
        0x40002260:    a9bf7bf3    .{..    STP      x19,x30,[sp,#-0x10]!
        0x40002264:    52900000    ...R    MOV      w0,#0x8000
        0x40002268:    72bcca00    ...r    MOVK     w0,#0xe650,LSL #16
        0x4000226c:    97fffad9    ....    BL       I2C_slaveGetInterruptStatus ; 0x40000dd0
        0x40002270:    2a0003f3    ...*    MOV      w19,w0
        0x40002274:    36200173    s. 6    TBZ      w19,#4,0x400022a0 ; i2c1InterruptHandler + 64
        0x40002278:    f0000028    (...    ADRP     x8,{pc}+0x7000 ; 0x40009278
        0x4000227c:    b94e3108    .1N.    LDR      w8,[x8,#0xe30]
        0x40002280:    52800689    ...R    MOV      w9,#0x34
        0x40002284:    b000002a    *...    ADRP     x10,{pc}+0x5000 ; 0x40007284
        0x40002288:    9129f14a    J.).    ADD      x10,x10,#0xa7c
        0x4000228c:    9b097d08    .}..    MUL      x8,x8,x9
        0x40002290:    b8686941    Aih.    LDR      w1,[x10,x8]
        0x40002294:    52900000    ...R    MOV      w0,#0x8000
        0x40002298:    72bcca00    ...r    MOVK     w0,#0xe650,LSL #16
        0x4000229c:    97fffbd1    ....    BL       I2C_slaveSetData ; 0x400011e0
        0x400022a0:    52900000    ...R    MOV      w0,#0x8000
        0x400022a4:    72bcca00    ...r    MOVK     w0,#0xe650,LSL #16
        0x400022a8:    2a1303e1    ...*    MOV      w1,w19
        0x400022ac:    a8c17bf3    .{..    LDP      x19,x30,[sp],#0x10
        0x400022b0:    17fffaa8    ....    B        I2C_slaveClearInterruptStatus ; 0x40000d50
        0x400022b4:    00000000    ....    DCI      0x00000000 ; ? Undefined
        0x400022b8:    00000000    ....    DCI      0x00000000 ; ? Undefined
        0x400022bc:    00000000    ....    DCI      0x00000000 ; ? Undefined
    i2c1InterruptHandler
        0x400022c0:    a9bf7bf3    .{..    STP      x19,x30,[sp,#-0x10]!
        0x400022c4:    52900000    ...R    MOV      w0,#0x8000
        0x400022c8:    72bcca00    ...r    MOVK     w0,#0xe650,LSL #16
        0x400022cc:    97fffac1    ....    BL       I2C_slaveGetInterruptStatus ; 0x40000dd0
        0x400022d0:    2a0003f3    ...*    MOV      w19,w0
        0x400022d4:    36180173    s..6    TBZ      w19,#3,0x40002300 ; i2c1InterruptHandler + 64
        0x400022d8:    90000048    H...    ADRP     x8,{pc}+0x8000 ; 0x4000a2d8
        0x400022dc:    b9496d09    .mI.    LDR      w9,[x8,#0x96c]
        0x400022e0:    1100052a    *...    ADD      w10,w9,#1
        0x400022e4:    b000002b    +...    ADRP     x11,{pc}+0x5000 ; 0x400072e4
        0x400022e8:    912fa16b    k./.    ADD      x11,x11,#0xbe8
        0x400022ec:    b9096d0a    .m..    STR      w10,[x8,#0x96c]
        0x400022f0:    b8697961    ayi.    LDR      w1,[x11,x9,LSL #2]
        0x400022f4:    52900000    ...R    MOV      w0,#0x8000
        0x400022f8:    72bcca00    ...r    MOVK     w0,#0xe650,LSL #16
        0x400022fc:    97fffbb9    ....    BL       I2C_slaveSetData ; 0x400011e0
        0x40002300:    52900000    ...R    MOV      w0,#0x8000
        0x40002304:    72bcca00    ...r    MOVK     w0,#0xe650,LSL #16
        0x40002308:    2a1303e1    ...*    MOV      w1,w19
        0x4000230c:    a8c17bf3    .{..    LDP      x19,x30,[sp],#0x10
        0x40002310:    17fffa90    ....    B        I2C_slaveClearInterruptStatus ; 0x40000d50
        0x40002314:    00000000    ....    DCI      0x00000000 ; ? Undefined
        0x40002318:    00000000    ....    DCI      0x00000000 ; ? Undefined
        0x4000231c:    00000000    ....    DCI      0x00000000 ; ? Undefined
    interrupt_check
        0x40002320:    a9bf7bf3    .{..    STP      x19,x30,[sp,#-0x10]!
        0x40002324:    b0000021    !...    ADRP     x1,{pc}+0x5000 ; 0x40007324
        0x40002328:    910fc021    !...    ADD      x1,x1,#0x3f0
        0x4000232c:    52bcca13    ...R    MOV      w19,#0xe6500000
        0x40002330:    52bcca00    ...R    MOV      w0,#0xe6500000
        0x40002334:    97fff94f    O...    BL       I2C_masterInit ; 0x40000870
        0x40002338:    52bcca00    ...R    MOV      w0,#0xe6500000
        0x4000233c:    12800001    ....    MOV      w1,#0xffffffff
        0x40002340:    97fff91c    ....    BL       I2C_masterClearInterruptStatus ; 0x400007b0
        0x40002344:    52bcca00    ...R    MOV      w0,#0xe6500000
        0x40002348:    12800001    ....    MOV      w1,#0xffffffff
        0x4000234c:    97fff941    A...    BL       I2C_masterEnableInterrupt ; 0x40000850
        0x40002350:    52bcca00    ...R    MOV      w0,#0xe6500000
        0x40002354:    97fff92f    /...    BL       I2C_masterEnable ; 0x40000810
        0x40002358:    91402273    s"@.    ADD      x19,x19,#8,LSL #12
        0x4000235c:    b0000021    !...    ADRP     x1,{pc}+0x5000 ; 0x4000735c
        0x40002360:    91343021    !04.    ADD      x1,x1,#0xd0c
        0x40002364:    aa1303e0    ....    MOV      x0,x19
        0x40002368:    97fffa9e    ....    BL       I2C_slaveInit ; 0x40000de0
        0x4000236c:    12800001    ....    MOV      w1,#0xffffffff
        0x40002370:    aa1303e0    ....    MOV      x0,x19
        0x40002374:    97fffa77    w...    BL       I2C_slaveClearInterruptStatus ; 0x40000d50
        0x40002378:    12800001    ....    MOV      w1,#0xffffffff
        0x4000237c:    aa1303e0    ....    MOV      x0,x19
        0x40002380:    97fffa90    ....    BL       I2C_slaveEnableInterrupt ; 0x40000dc0
        0x40002384:    aa1303e0    ....    MOV      x0,x19
        0x40002388:    97fffa82    ....    BL       I2C_slaveEnable ; 0x40000d90
        0x4000238c:    97fff895    ....    BL       GIC_enable ; 0x400005e0
        0x40002390:    f0ffffe1    ....    ADRP     x1,{pc}-0x1000 ; 0x40001390
        0x40002394:    91194021    !@..    ADD      x1,x1,#0x650
        0x40002398:    528021c0    .!.R    MOV      w0,#0x10e
        0x4000239c:    97fff8f9    ....    BL       GIC_setInterruptHandler ; 0x40000780
        0x400023a0:    f0ffffe1    ....    ADRP     x1,{pc}-0x1000 ; 0x400013a0
        0x400023a4:    9139c021    !.9.    ADD      x1,x1,#0xe70
        0x400023a8:    528021e0    .!.R    MOV      w0,#0x10f
        0x400023ac:    97fff8f5    ....    BL       GIC_setInterruptHandler ; 0x40000780
        0x400023b0:    528021c0    .!.R    MOV      w0,#0x10e
        0x400023b4:    97fff8b3    ....    BL       GIC_enableInterrupt ; 0x40000680
        0x400023b8:    528021e0    .!.R    MOV      w0,#0x10f
        0x400023bc:    97fff8b1    ....    BL       GIC_enableInterrupt ; 0x40000680
        0x400023c0:    90000048    H...    ADRP     x8,{pc}+0x8000 ; 0x4000a3c0
        0x400023c4:    b9495109    .QI.    LDR      w9,[x8,#0x950]
        0x400023c8:    1100052a    *...    ADD      w10,w9,#1
        0x400023cc:    b0000033    3...    ADRP     x19,{pc}+0x5000 ; 0x400073cc
        0x400023d0:    911f6273    sb..    ADD      x19,x19,#0x7d8
        0x400023d4:    b909510a    .Q..    STR      w10,[x8,#0x950]
        0x400023d8:    b8697a61    azi.    LDR      w1,[x19,x9,LSL #2]
        0x400023dc:    52bcca00    ...R    MOV      w0,#0xe6500000
        0x400023e0:    97fffa34    4...    BL       I2C_masterSendMultipleByteStart ; 0x40000cb0
        0x400023e4:    f0000028    (...    ADRP     x8,{pc}+0x7000 ; 0x400093e4
        0x400023e8:    39799109    ..y9    LDRB     w9,[x8,#0xe64]
        0x400023ec:    34ffffe9    ...4    CBZ      w9,0x400023e8 ; interrupt_check + 200
        0x400023f0:    aa1f03e8    ....    MOV      x8,xzr
        0x400023f4:    90000049    I...    ADRP     x9,{pc}+0x8000 ; 0x4000a3f4
        0x400023f8:    91025129    )Q..    ADD      x9,x9,#0x94
        0x400023fc:    d37ef50a    ..~.    LSL      x10,x8,#2
        0x40002400:    b86a692b    +ij.    LDR      w11,[x9,x10]
        0x40002404:    b86a6a6a    jjj.    LDR      w10,[x19,x10]
        0x40002408:    6b0a017f    ...k    CMP      w11,w10
        0x4000240c:    540000e1    ...T    B.NE     0x40002428 ; interrupt_check + 264
        0x40002410:    91000508    ....    ADD      x8,x8,#1
        0x40002414:    7100311f    .1.q    CMP      w8,#0xc
        0x40002418:    54ffff29    )..T    B.LS     0x400023fc ; interrupt_check + 220
        0x4000241c:    2a1f03e0    ...*    MOV      w0,wzr
        0x40002420:    a8c17bf3    .{..    LDP      x19,x30,[sp],#0x10
        0x40002424:    d65f03c0    .._.    RET      
        0x40002428:    320003e0    ...2    ORR      w0,wzr,#1
        0x4000242c:    a8c17bf3    .{..    LDP      x19,x30,[sp],#0x10
        0x40002430:    d65f03c0    .._.    RET      
        0x40002434:    00000000    ....    DCI      0x00000000 ; ? Undefined
        0x40002438:    00000000    ....    DCI      0x00000000 ; ? Undefined
        0x4000243c:    00000000    ....    DCI      0x00000000 ; ? Undefined
    main
        0x40002440:    d10283ff    ....    SUB      sp,sp,#0xa0
        0x40002444:    a90853f5    .S..    STP      x21,x20,[sp,#0x80]
        0x40002448:    a9097bf3    .{..    STP      x19,x30,[sp,#0x90]
        0x4000244c:    97fff8d1    ....    BL       I2C_configPins ; 0x40000790
        0x40002450:    320003e1    ...2    ORR      w1,wzr,#1
        0x40002454:    2a1f03e0    ...*    MOV      w0,wzr
        0x40002458:    97fffa2e    ....    BL       I2C_modelConnect ; 0x40000d10
        0x4000245c:    aa1f03f3    ....    MOV      x19,xzr
        0x40002460:    910003f4    ....    MOV      x20,sp
        0x40002464:    f0000035    5...    ADRP     x21,{pc}+0x7000 ; 0x40009464
        0x40002468:    9134a2b5    ..4.    ADD      x21,x21,#0xd28
        0x4000246c:    f8737aa8    .zs.    LDR      x8,[x21,x19,LSL #3]
        0x40002470:    d63f0100    ..?.    BLR      x8
        0x40002474:    b8337a80    .z3.    STR      w0,[x20,x19,LSL #2]
        0x40002478:    7100041f    ...q    CMP      w0,#1
        0x4000247c:    540000c0    ...T    B.EQ     0x40002494 ; main + 84
        0x40002480:    91000673    s...    ADD      x19,x19,#1
        0x40002484:    f1007e7f    .~..    CMP      x19,#0x1f
        0x40002488:    54ffff29    )..T    B.LS     0x4000246c ; main + 44
        0x4000248c:    2a1f03f3    ...*    MOV      w19,wzr
        0x40002490:    14000002    ....    B        0x40002498 ; main + 88
        0x40002494:    320003f3    ...2    ORR      w19,wzr,#1
        0x40002498:    97fffa22    "...    BL       I2C_modelDisable ; 0x40000d20
        0x4000249c:    97fffa25    %...    BL       I2C_releasePins ; 0x40000d30
        0x400024a0:    34000113    ...4    CBZ      w19,0x400024c0 ; main + 128
        0x400024a4:    aa1f03f4    ....    MOV      x20,xzr
        0x400024a8:    910003f5    ....    MOV      x21,sp
        0x400024ac:    b8746aa0    .jt.    LDR      w0,[x21,x20]
        0x400024b0:    97fffb6c    l...    BL       Sim_Dump ; 0x40001260
        0x400024b4:    91001294    ....    ADD      x20,x20,#4
        0x400024b8:    f102029f    ....    CMP      x20,#0x80
        0x400024bc:    54ffff81    ...T    B.NE     0x400024ac ; main + 108
        0x400024c0:    2a1303e0    ...*    MOV      w0,w19
        0x400024c4:    97fffb73    s...    BL       Sim_Judge ; 0x40001290
        0x400024c8:    97fffb7e    ~...    BL       Sim_Stop ; 0x400012c0
        0x400024cc:    14000000    ....    B        0x400024cc ; main + 140
    master_arbitration_lost
        0x400024d0:    f81e0ff4    ....    STR      x20,[sp,#-0x20]!
        0x400024d4:    a9017bf3    .{..    STP      x19,x30,[sp,#0x10]
        0x400024d8:    52bcca14    ...R    MOV      w20,#0xe6500000
        0x400024dc:    b0000021    !...    ADRP     x1,{pc}+0x5000 ; 0x400074dc
        0x400024e0:    91168021    !...    ADD      x1,x1,#0x5a0
        0x400024e4:    52bcca00    ...R    MOV      w0,#0xe6500000
        0x400024e8:    97fff8e2    ....    BL       I2C_masterInit ; 0x40000870
        0x400024ec:    52bcca00    ...R    MOV      w0,#0xe6500000
        0x400024f0:    12800001    ....    MOV      w1,#0xffffffff
        0x400024f4:    97fff8af    ....    BL       I2C_masterClearInterruptStatus ; 0x400007b0
        0x400024f8:    52bcca00    ...R    MOV      w0,#0xe6500000
        0x400024fc:    12800001    ....    MOV      w1,#0xffffffff
        0x40002500:    97fff8d4    ....    BL       I2C_masterEnableInterrupt ; 0x40000850
        0x40002504:    52bcca00    ...R    MOV      w0,#0xe6500000
        0x40002508:    97fff8c2    ....    BL       I2C_masterEnable ; 0x40000810
        0x4000250c:    b0000021    !...    ADRP     x1,{pc}+0x5000 ; 0x4000750c
        0x40002510:    913af021    !.:.    ADD      x1,x1,#0xebc
        0x40002514:    52bcca00    ...R    MOV      w0,#0xe6500000
        0x40002518:    97fffa32    2...    BL       I2C_slaveInit ; 0x40000de0
        0x4000251c:    52bcca00    ...R    MOV      w0,#0xe6500000
        0x40002520:    12800001    ....    MOV      w1,#0xffffffff
        0x40002524:    97fffa0b    ....    BL       I2C_slaveClearInterruptStatus ; 0x40000d50
        0x40002528:    52bcca00    ...R    MOV      w0,#0xe6500000
        0x4000252c:    12800001    ....    MOV      w1,#0xffffffff
        0x40002530:    97fffa24    $...    BL       I2C_slaveEnableInterrupt ; 0x40000dc0
        0x40002534:    52bcca00    ...R    MOV      w0,#0xe6500000
        0x40002538:    97fffa16    ....    BL       I2C_slaveEnable ; 0x40000d90
        0x4000253c:    91402293    ."@.    ADD      x19,x20,#8,LSL #12
        0x40002540:    b0000021    !...    ADRP     x1,{pc}+0x5000 ; 0x40007540
        0x40002544:    9116e021    !...    ADD      x1,x1,#0x5b8
        0x40002548:    aa1303e0    ....    MOV      x0,x19
        0x4000254c:    97fff8c9    ....    BL       I2C_masterInit ; 0x40000870
        0x40002550:    12800001    ....    MOV      w1,#0xffffffff
        0x40002554:    aa1303e0    ....    MOV      x0,x19
        0x40002558:    97fff896    ....    BL       I2C_masterClearInterruptStatus ; 0x400007b0
        0x4000255c:    aa1303e0    ....    MOV      x0,x19
        0x40002560:    97fff8ac    ....    BL       I2C_masterEnable ; 0x40000810
        0x40002564:    97fff81f    ....    BL       GIC_enable ; 0x400005e0
        0x40002568:    f0ffffe1    ....    ADRP     x1,{pc}-0x1000 ; 0x40001568
        0x4000256c:    91204021    !@ .    ADD      x1,x1,#0x810
        0x40002570:    528021c0    .!.R    MOV      w0,#0x10e
        0x40002574:    97fff883    ....    BL       GIC_setInterruptHandler ; 0x40000780
        0x40002578:    90000001    ....    ADRP     x1,{pc} ; 0x40002578
        0x4000257c:    91020021    !...    ADD      x1,x1,#0x80
        0x40002580:    528021e0    .!.R    MOV      w0,#0x10f
        0x40002584:    97fff87f    ....    BL       GIC_setInterruptHandler ; 0x40000780
        0x40002588:    528021c0    .!.R    MOV      w0,#0x10e
        0x4000258c:    97fff83d    =...    BL       GIC_enableInterrupt ; 0x40000680
        0x40002590:    528021e0    .!.R    MOV      w0,#0x10f
        0x40002594:    97fff83b    ;...    BL       GIC_enableInterrupt ; 0x40000680
        0x40002598:    52800901    ...R    MOV      w1,#0x48
        0x4000259c:    aa1303e0    ....    MOV      x0,x19
        0x400025a0:    97fff9c4    ....    BL       I2C_masterSendMultipleByteStart ; 0x40000cb0
        0x400025a4:    90000048    H...    ADRP     x8,{pc}+0x8000 ; 0x4000a5a4
        0x400025a8:    b9495d09    .]I.    LDR      w9,[x8,#0x95c]
        0x400025ac:    1100052a    *...    ADD      w10,w9,#1
        0x400025b0:    b0000033    3...    ADRP     x19,{pc}+0x5000 ; 0x400075b0
        0x400025b4:    91251273    s.%.    ADD      x19,x19,#0x944
        0x400025b8:    b9095d0a    .]..    STR      w10,[x8,#0x95c]
        0x400025bc:    b8697a61    azi.    LDR      w1,[x19,x9,LSL #2]
        0x400025c0:    52bcca00    ...R    MOV      w0,#0xe6500000
        0x400025c4:    97fff9bb    ....    BL       I2C_masterSendMultipleByteStart ; 0x40000cb0
        0x400025c8:    f0000028    (...    ADRP     x8,{pc}+0x7000 ; 0x400095c8
        0x400025cc:    3979d109    ..y9    LDRB     w9,[x8,#0xe74]
        0x400025d0:    34ffffe9    ...4    CBZ      w9,0x400025cc ; master_arbitration_lost + 252
        0x400025d4:    52bcca00    ...R    MOV      w0,#0xe6500000
        0x400025d8:    97fff87a    z...    BL       I2C_masterDisable ; 0x400007c0
        0x400025dc:    52bcca00    ...R    MOV      w0,#0xe6500000
        0x400025e0:    97fff9e0    ....    BL       I2C_slaveDisable ; 0x40000d60
        0x400025e4:    91402280    ."@.    ADD      x0,x20,#8,LSL #12
        0x400025e8:    97fff876    v...    BL       I2C_masterDisable ; 0x400007c0
        0x400025ec:    aa1f03e8    ....    MOV      x8,xzr
        0x400025f0:    90000049    I...    ADRP     x9,{pc}+0x8000 ; 0x4000a5f0
        0x400025f4:    91080129    )...    ADD      x9,x9,#0x200
        0x400025f8:    d37ef50a    ..~.    LSL      x10,x8,#2
        0x400025fc:    b86a692b    +ij.    LDR      w11,[x9,x10]
        0x40002600:    b86a6a6a    jjj.    LDR      w10,[x19,x10]
        0x40002604:    6b0a017f    ...k    CMP      w11,w10
        0x40002608:    540000c1    ...T    B.NE     0x40002620 ; master_arbitration_lost + 336
        0x4000260c:    91000508    ....    ADD      x8,x8,#1
        0x40002610:    7100311f    .1.q    CMP      w8,#0xc
        0x40002614:    54ffff29    )..T    B.LS     0x400025f8 ; master_arbitration_lost + 296
        0x40002618:    2a1f03e0    ...*    MOV      w0,wzr
        0x4000261c:    14000002    ....    B        0x40002624 ; master_arbitration_lost + 340
        0x40002620:    320003e0    ...2    ORR      w0,wzr,#1
        0x40002624:    a9417bf3    .{A.    LDP      x19,x30,[sp,#0x10]
        0x40002628:    f84207f4    ..B.    LDR      x20,[sp],#0x20
        0x4000262c:    d65f03c0    .._.    RET      
    master_general_call
        0x40002630:    a9bf7bf3    .{..    STP      x19,x30,[sp,#-0x10]!
        0x40002634:    b0000021    !...    ADRP     x1,{pc}+0x5000 ; 0x40007634
        0x40002638:    910c0021    !...    ADD      x1,x1,#0x300
        0x4000263c:    52bcca13    ...R    MOV      w19,#0xe6500000
        0x40002640:    52bcca00    ...R    MOV      w0,#0xe6500000
        0x40002644:    97fff88b    ....    BL       I2C_masterInit ; 0x40000870
        0x40002648:    52bcca00    ...R    MOV      w0,#0xe6500000
        0x4000264c:    12800001    ....    MOV      w1,#0xffffffff
        0x40002650:    97fff858    X...    BL       I2C_masterClearInterruptStatus ; 0x400007b0
        0x40002654:    52bcca00    ...R    MOV      w0,#0xe6500000
        0x40002658:    12800001    ....    MOV      w1,#0xffffffff
        0x4000265c:    97fff87d    }...    BL       I2C_masterEnableInterrupt ; 0x40000850
        0x40002660:    52bcca00    ...R    MOV      w0,#0xe6500000
        0x40002664:    97fff86b    k...    BL       I2C_masterEnable ; 0x40000810
        0x40002668:    91402273    s"@.    ADD      x19,x19,#8,LSL #12
        0x4000266c:    b0000021    !...    ADRP     x1,{pc}+0x5000 ; 0x4000766c
        0x40002670:    91307021    !p0.    ADD      x1,x1,#0xc1c
        0x40002674:    aa1303e0    ....    MOV      x0,x19
        0x40002678:    97fff9da    ....    BL       I2C_slaveInit ; 0x40000de0
        0x4000267c:    12800001    ....    MOV      w1,#0xffffffff
        0x40002680:    aa1303e0    ....    MOV      x0,x19
        0x40002684:    97fff9b3    ....    BL       I2C_slaveClearInterruptStatus ; 0x40000d50
        0x40002688:    12800001    ....    MOV      w1,#0xffffffff
        0x4000268c:    aa1303e0    ....    MOV      x0,x19
        0x40002690:    97fff9cc    ....    BL       I2C_slaveEnableInterrupt ; 0x40000dc0
        0x40002694:    aa1303e0    ....    MOV      x0,x19
        0x40002698:    97fff9be    ....    BL       I2C_slaveEnable ; 0x40000d90
        0x4000269c:    97fff7d1    ....    BL       GIC_enable ; 0x400005e0
        0x400026a0:    f0ffffe1    ....    ADRP     x1,{pc}-0x1000 ; 0x400016a0
        0x400026a4:    9111c021    !...    ADD      x1,x1,#0x470
        0x400026a8:    528021c0    .!.R    MOV      w0,#0x10e
        0x400026ac:    97fff835    5...    BL       GIC_setInterruptHandler ; 0x40000780
        0x400026b0:    f0ffffe1    ....    ADRP     x1,{pc}-0x1000 ; 0x400016b0
        0x400026b4:    912f4021    !@/.    ADD      x1,x1,#0xbd0
        0x400026b8:    528021e0    .!.R    MOV      w0,#0x10f
        0x400026bc:    97fff831    1...    BL       GIC_setInterruptHandler ; 0x40000780
        0x400026c0:    528021c0    .!.R    MOV      w0,#0x10e
        0x400026c4:    97fff7ef    ....    BL       GIC_enableInterrupt ; 0x40000680
        0x400026c8:    528021e0    .!.R    MOV      w0,#0x10f
        0x400026cc:    97fff7ed    ....    BL       GIC_enableInterrupt ; 0x40000680
        0x400026d0:    90000048    H...    ADRP     x8,{pc}+0x8000 ; 0x4000a6d0
        0x400026d4:    b9494909    .II.    LDR      w9,[x8,#0x948]
        0x400026d8:    1100052a    *...    ADD      w10,w9,#1
        0x400026dc:    b0000033    3...    ADRP     x19,{pc}+0x5000 ; 0x400076dc
        0x400026e0:    91174273    sB..    ADD      x19,x19,#0x5d0
        0x400026e4:    b909490a    .I..    STR      w10,[x8,#0x948]
        0x400026e8:    b8697a61    azi.    LDR      w1,[x19,x9,LSL #2]
        0x400026ec:    52bcca00    ...R    MOV      w0,#0xe6500000
        0x400026f0:    97fff970    p...    BL       I2C_masterSendMultipleByteStart ; 0x40000cb0
        0x400026f4:    f0000028    (...    ADRP     x8,{pc}+0x7000 ; 0x400096f4
        0x400026f8:    39794109    .Ay9    LDRB     w9,[x8,#0xe50]
        0x400026fc:    34ffffe9    ...4    CBZ      w9,0x400026f8 ; master_general_call + 200
        0x40002700:    aa1f03e8    ....    MOV      x8,xzr
        0x40002704:    f0000029    )...    ADRP     x9,{pc}+0x7000 ; 0x40009704
        0x40002708:    913a3129    )1:.    ADD      x9,x9,#0xe8c
        0x4000270c:    d37ef50a    ..~.    LSL      x10,x8,#2
        0x40002710:    b86a692b    +ij.    LDR      w11,[x9,x10]
        0x40002714:    b86a6a6a    jjj.    LDR      w10,[x19,x10]
        0x40002718:    6b0a017f    ...k    CMP      w11,w10
        0x4000271c:    540000e1    ...T    B.NE     0x40002738 ; master_general_call + 264
        0x40002720:    91000508    ....    ADD      x8,x8,#1
        0x40002724:    7100311f    .1.q    CMP      w8,#0xc
        0x40002728:    54ffff29    )..T    B.LS     0x4000270c ; master_general_call + 220
        0x4000272c:    2a1f03e0    ...*    MOV      w0,wzr
        0x40002730:    a8c17bf3    .{..    LDP      x19,x30,[sp],#0x10
        0x40002734:    d65f03c0    .._.    RET      
        0x40002738:    320003e0    ...2    ORR      w0,wzr,#1
        0x4000273c:    a8c17bf3    .{..    LDP      x19,x30,[sp],#0x10
        0x40002740:    d65f03c0    .._.    RET      
        0x40002744:    00000000    ....    DCI      0x00000000 ; ? Undefined
        0x40002748:    00000000    ....    DCI      0x00000000 ; ? Undefined
        0x4000274c:    00000000    ....    DCI      0x00000000 ; ? Undefined
    master_rx
        0x40002750:    f81e0ff4    ....    STR      x20,[sp,#-0x20]!
        0x40002754:    a9017bf3    .{..    STP      x19,x30,[sp,#0x10]
        0x40002758:    b0000021    !...    ADRP     x1,{pc}+0x5000 ; 0x40007758
        0x4000275c:    91162021    ! ..    ADD      x1,x1,#0x588
        0x40002760:    52bcca13    ...R    MOV      w19,#0xe6500000
        0x40002764:    52bcca00    ...R    MOV      w0,#0xe6500000
        0x40002768:    97fff842    B...    BL       I2C_masterInit ; 0x40000870
        0x4000276c:    52bcca00    ...R    MOV      w0,#0xe6500000
        0x40002770:    12800001    ....    MOV      w1,#0xffffffff
        0x40002774:    97fff80f    ....    BL       I2C_masterClearInterruptStatus ; 0x400007b0
        0x40002778:    52bcca00    ...R    MOV      w0,#0xe6500000
        0x4000277c:    12800001    ....    MOV      w1,#0xffffffff
        0x40002780:    97fff834    4...    BL       I2C_masterEnableInterrupt ; 0x40000850
        0x40002784:    52bcca00    ...R    MOV      w0,#0xe6500000
        0x40002788:    97fff822    "...    BL       I2C_masterEnable ; 0x40000810
        0x4000278c:    91402273    s"@.    ADD      x19,x19,#8,LSL #12
        0x40002790:    b0000021    !...    ADRP     x1,{pc}+0x5000 ; 0x40007790
        0x40002794:    913a9021    !.:.    ADD      x1,x1,#0xea4
        0x40002798:    aa1303e0    ....    MOV      x0,x19
        0x4000279c:    97fff991    ....    BL       I2C_slaveInit ; 0x40000de0
        0x400027a0:    12800001    ....    MOV      w1,#0xffffffff
        0x400027a4:    aa1303e0    ....    MOV      x0,x19
        0x400027a8:    97fff96a    j...    BL       I2C_slaveClearInterruptStatus ; 0x40000d50
        0x400027ac:    12800001    ....    MOV      w1,#0xffffffff
        0x400027b0:    aa1303e0    ....    MOV      x0,x19
        0x400027b4:    97fff983    ....    BL       I2C_slaveEnableInterrupt ; 0x40000dc0
        0x400027b8:    aa1303e0    ....    MOV      x0,x19
        0x400027bc:    97fff975    u...    BL       I2C_slaveEnable ; 0x40000d90
        0x400027c0:    90000048    H...    ADRP     x8,{pc}+0x8000 ; 0x4000a7c0
        0x400027c4:    b9496d09    .mI.    LDR      w9,[x8,#0x96c]
        0x400027c8:    1100052a    *...    ADD      w10,w9,#1
        0x400027cc:    b0000034    4...    ADRP     x20,{pc}+0x5000 ; 0x400077cc
        0x400027d0:    912fa294    ../.    ADD      x20,x20,#0xbe8
        0x400027d4:    b9096d0a    .m..    STR      w10,[x8,#0x96c]
        0x400027d8:    b8697a81    .zi.    LDR      w1,[x20,x9,LSL #2]
        0x400027dc:    aa1303e0    ....    MOV      x0,x19
        0x400027e0:    97fffa80    ....    BL       I2C_slaveSetData ; 0x400011e0
        0x400027e4:    97fff77f    ....    BL       GIC_enable ; 0x400005e0
        0x400027e8:    f0ffffe1    ....    ADRP     x1,{pc}-0x1000 ; 0x400017e8
        0x400027ec:    912c8021    !.,.    ADD      x1,x1,#0xb20
        0x400027f0:    528021c0    .!.R    MOV      w0,#0x10e
        0x400027f4:    97fff7e3    ....    BL       GIC_setInterruptHandler ; 0x40000780
        0x400027f8:    90000001    ....    ADRP     x1,{pc} ; 0x400027f8
        0x400027fc:    910b0021    !...    ADD      x1,x1,#0x2c0
        0x40002800:    528021e0    .!.R    MOV      w0,#0x10f
        0x40002804:    97fff7df    ....    BL       GIC_setInterruptHandler ; 0x40000780
        0x40002808:    528021c0    .!.R    MOV      w0,#0x10e
        0x4000280c:    97fff79d    ....    BL       GIC_enableInterrupt ; 0x40000680
        0x40002810:    528021e0    .!.R    MOV      w0,#0x10f
        0x40002814:    97fff79b    ....    BL       GIC_enableInterrupt ; 0x40000680
        0x40002818:    52bcca00    ...R    MOV      w0,#0xe6500000
        0x4000281c:    97fff915    ....    BL       I2C_masterReceiveStart ; 0x40000c70
        0x40002820:    f0000028    (...    ADRP     x8,{pc}+0x7000 ; 0x40009820
        0x40002824:    397a2109    .!z9    LDRB     w9,[x8,#0xe88]
        0x40002828:    34ffffe9    ...4    CBZ      w9,0x40002824 ; master_rx + 212
        0x4000282c:    aa1f03e8    ....    MOV      x8,xzr
        0x40002830:    90000049    I...    ADRP     x9,{pc}+0x8000 ; 0x4000a830
        0x40002834:    9111c129    )...    ADD      x9,x9,#0x470
        0x40002838:    d37ef50a    ..~.    LSL      x10,x8,#2
        0x4000283c:    b86a692b    +ij.    LDR      w11,[x9,x10]
        0x40002840:    b86a6a8a    .jj.    LDR      w10,[x20,x10]
        0x40002844:    6b0a017f    ...k    CMP      w11,w10
        0x40002848:    540000c1    ...T    B.NE     0x40002860 ; master_rx + 272
        0x4000284c:    91000508    ....    ADD      x8,x8,#1
        0x40002850:    7100311f    .1.q    CMP      w8,#0xc
        0x40002854:    54ffff29    )..T    B.LS     0x40002838 ; master_rx + 232
        0x40002858:    2a1f03e0    ...*    MOV      w0,wzr
        0x4000285c:    14000002    ....    B        0x40002864 ; master_rx + 276
        0x40002860:    320003e0    ...2    ORR      w0,wzr,#1
        0x40002864:    a9417bf3    .{A.    LDP      x19,x30,[sp,#0x10]
        0x40002868:    f84207f4    ..B.    LDR      x20,[sp],#0x20
        0x4000286c:    d65f03c0    .._.    RET      
    master_rx_dma
        0x40002870:    a9bd5bf7    .[..    STP      x23,x22,[sp,#-0x30]!
        0x40002874:    a90153f5    .S..    STP      x21,x20,[sp,#0x10]
        0x40002878:    a9027bf3    .{..    STP      x19,x30,[sp,#0x20]
        0x4000287c:    52bcca15    ...R    MOV      w21,#0xe6500000
        0x40002880:    52858393    ...R    MOV      w19,#0x2c1c
        0x40002884:    72bcc2b3    ...r    MOVK     w19,#0xe615,LSL #16
        0x40002888:    52858380    ...R    MOV      w0,#0x2c1c
        0x4000288c:    72bcc2a0    ...r    MOVK     w0,#0xe615,LSL #16
        0x40002890:    52800121    !..R    MOV      w1,#9
        0x40002894:    97fff737    7...    BL       CPG_SetBit ; 0x40000570
        0x40002898:    91020260    `...    ADD      x0,x19,#0x80
        0x4000289c:    52800121    !..R    MOV      w1,#9
        0x400028a0:    97fff734    4...    BL       CPG_SetBit ; 0x40000570
        0x400028a4:    320b0be8    ...2    ORR      w8,wzr,#0xe00000
        0x400028a8:    52800493    ...R    MOV      w19,#0x24
        0x400028ac:    72bcca13    ...r    MOVK     w19,#0xe650,LSL #16
        0x400028b0:    b8286ab3    .j(.    STR      w19,[x21,x8]
        0x400028b4:    90000054    T...    ADRP     x20,{pc}+0x8000 ; 0x4000a8b4
        0x400028b8:    9100b294    ....    ADD      x20,x20,#0x2c
        0x400028bc:    52800197    ...R    MOV      w23,#0xc
        0x400028c0:    72bce617    ...r    MOVK     w23,#0xe730,LSL #16
        0x400028c4:    b81f82f4    ....    STUR     w20,[x23,#-8]
        0x400028c8:    b85fc2e8    .._.    LDUR     w8,[x23,#-4]
        0x400028cc:    528001a9    ...R    MOV      w9,#0xd
        0x400028d0:    33005d28    (].3    BFXIL    w8,w9,#0,#24
        0x400028d4:    b81fc2e8    ....    STUR     w8,[x23,#-4]
        0x400028d8:    b94002e8    ..@.    LDR      w8,[x23,#0]
        0x400028dc:    12107508    .u..    AND      w8,w8,#0xffff3fff
        0x400028e0:    32120108    ...2    ORR      w8,w8,#0x4000
        0x400028e4:    b90002e8    ....    STR      w8,[x23,#0]
        0x400028e8:    b94002e8    ..@.    LDR      w8,[x23,#0]
        0x400028ec:    12127508    .u..    AND      w8,w8,#0xffffcfff
        0x400028f0:    b90002e8    ....    STR      w8,[x23,#0]
        0x400028f4:    b94002e8    ..@.    LDR      w8,[x23,#0]
        0x400028f8:    12146d08    .m..    AND      w8,w8,#0xfffff0ff
        0x400028fc:    32150108    ...2    ORR      w8,w8,#0x800
        0x40002900:    b90002e8    ....    STR      w8,[x23,#0]
        0x40002904:    b94002e8    ..@.    LDR      w8,[x23,#0]
        0x40002908:    120a7508    .u..    AND      w8,w8,#0xffcfffff
        0x4000290c:    b90002e8    ....    STR      w8,[x23,#0]
        0x40002910:    b94002e8    ..@.    LDR      w8,[x23,#0]
        0x40002914:    121b7508    .u..    AND      w8,w8,#0xffffffe7
        0x40002918:    321c0108    ...2    ORR      w8,w8,#0x10
        0x4000291c:    b90002e8    ....    STR      w8,[x23,#0]
        0x40002920:    52801208    ...R    MOV      w8,#0x90
        0x40002924:    79006ae8    .j.y    STRH     w8,[x23,#0x34]
        0x40002928:    b94002e8    ..@.    LDR      w8,[x23,#0]
        0x4000292c:    321e0108    ...2    ORR      w8,w8,#4
        0x40002930:    b90002e8    ....    STR      w8,[x23,#0]
        0x40002934:    b94002e8    ..@.    LDR      w8,[x23,#0]
        0x40002938:    32000108    ...2    ORR      w8,w8,#1
        0x4000293c:    b90002e8    ....    STR      w8,[x23,#0]
        0x40002940:    b0000021    !...    ADRP     x1,{pc}+0x5000 ; 0x40007940
        0x40002944:    910f0021    !...    ADD      x1,x1,#0x3c0
        0x40002948:    52bcca00    ...R    MOV      w0,#0xe6500000
        0x4000294c:    97fff7c9    ....    BL       I2C_masterInit ; 0x40000870
        0x40002950:    52bcca00    ...R    MOV      w0,#0xe6500000
        0x40002954:    12800001    ....    MOV      w1,#0xffffffff
        0x40002958:    97fff796    ....    BL       I2C_masterClearInterruptStatus ; 0x400007b0
        0x4000295c:    52bcca00    ...R    MOV      w0,#0xe6500000
        0x40002960:    12800001    ....    MOV      w1,#0xffffffff
        0x40002964:    97fff7bb    ....    BL       I2C_masterEnableInterrupt ; 0x40000850
        0x40002968:    52bcca00    ...R    MOV      w0,#0xe6500000
        0x4000296c:    97fff7a9    ....    BL       I2C_masterEnable ; 0x40000810
        0x40002970:    b0000036    6...    ADRP     x22,{pc}+0x5000 ; 0x40007970
        0x40002974:    911dc2d6    ....    ADD      x22,x22,#0x770
        0x40002978:    110012c8    ....    ADD      w8,w22,#4
        0x4000297c:    b90ff6e8    ....    STR      w8,[x23,#0xff4]
        0x40002980:    11402268    h"@.    ADD      w8,w19,#8,LSL #12
        0x40002984:    b90ffae8    ....    STR      w8,[x23,#0xff8]
        0x40002988:    52820188    ...R    MOV      w8,#0x100c
        0x4000298c:    72bce608    ...r    MOVK     w8,#0xe730,LSL #16
        0x40002990:    b85fc109    .._.    LDUR     w9,[x8,#-4]
        0x40002994:    12081d29    )...    AND      w9,w9,#0xff000000
        0x40002998:    321e0529    )..2    ORR      w9,w9,#0xc
        0x4000299c:    b81fc109    ....    STUR     w9,[x8,#-4]
        0x400029a0:    b9400109    ..@.    LDR      w9,[x8,#0]
        0x400029a4:    12107529    )u..    AND      w9,w9,#0xffff3fff
        0x400029a8:    b9000109    ....    STR      w9,[x8,#0]
        0x400029ac:    b9400109    ..@.    LDR      w9,[x8,#0]
        0x400029b0:    12127529    )u..    AND      w9,w9,#0xffffcfff
        0x400029b4:    32140129    )..2    ORR      w9,w9,#0x1000
        0x400029b8:    b9000109    ....    STR      w9,[x8,#0]
        0x400029bc:    b9400109    ..@.    LDR      w9,[x8,#0]
        0x400029c0:    12146d29    )m..    AND      w9,w9,#0xfffff0ff
        0x400029c4:    32150129    )..2    ORR      w9,w9,#0x800
        0x400029c8:    b9000109    ....    STR      w9,[x8,#0]
        0x400029cc:    b9400109    ..@.    LDR      w9,[x8,#0]
        0x400029d0:    120a7529    )u..    AND      w9,w9,#0xffcfffff
        0x400029d4:    b9000109    ....    STR      w9,[x8,#0]
        0x400029d8:    b9400109    ..@.    LDR      w9,[x8,#0]
        0x400029dc:    121b7529    )u..    AND      w9,w9,#0xffffffe7
        0x400029e0:    321c0129    )..2    ORR      w9,w9,#0x10
        0x400029e4:    b9000109    ....    STR      w9,[x8,#0]
        0x400029e8:    52801469    i..R    MOV      w9,#0xa3
        0x400029ec:    79006909    .i.y    STRH     w9,[x8,#0x34]
        0x400029f0:    b9400109    ..@.    LDR      w9,[x8,#0]
        0x400029f4:    321e0129    )..2    ORR      w9,w9,#4
        0x400029f8:    b9000109    ....    STR      w9,[x8,#0]
        0x400029fc:    b9400109    ..@.    LDR      w9,[x8,#0]
        0x40002a00:    32000129    )..2    ORR      w9,w9,#1
        0x40002a04:    b9000109    ....    STR      w9,[x8,#0]
        0x40002a08:    914022b3    ."@.    ADD      x19,x21,#8,LSL #12
        0x40002a0c:    b0000021    !...    ADRP     x1,{pc}+0x5000 ; 0x40007a0c
        0x40002a10:    91337021    !p3.    ADD      x1,x1,#0xcdc
        0x40002a14:    aa1303e0    ....    MOV      x0,x19
        0x40002a18:    97fff8f2    ....    BL       I2C_slaveInit ; 0x40000de0
        0x40002a1c:    12800001    ....    MOV      w1,#0xffffffff
        0x40002a20:    aa1303e0    ....    MOV      x0,x19
        0x40002a24:    97fff8cb    ....    BL       I2C_slaveClearInterruptStatus ; 0x40000d50
        0x40002a28:    12800001    ....    MOV      w1,#0xffffffff
        0x40002a2c:    aa1303e0    ....    MOV      x0,x19
        0x40002a30:    97fff8e4    ....    BL       I2C_slaveEnableInterrupt ; 0x40000dc0
        0x40002a34:    52800901    ...R    MOV      w1,#0x48
        0x40002a38:    aa1303e0    ....    MOV      x0,x19
        0x40002a3c:    97fff9e9    ....    BL       I2C_slaveSetData ; 0x400011e0
        0x40002a40:    aa1303e0    ....    MOV      x0,x19
        0x40002a44:    97fff8d3    ....    BL       I2C_slaveEnable ; 0x40000d90
        0x40002a48:    97fff6e6    ....    BL       GIC_enable ; 0x400005e0
        0x40002a4c:    f0ffffe1    ....    ADRP     x1,{pc}-0x1000 ; 0x40001a4c
        0x40002a50:    91354021    !@5.    ADD      x1,x1,#0xd50
        0x40002a54:    528021e0    .!.R    MOV      w0,#0x10f
        0x40002a58:    97fff74a    J...    BL       GIC_setInterruptHandler ; 0x40000780
        0x40002a5c:    f0ffffe1    ....    ADRP     x1,{pc}-0x1000 ; 0x40001a5c
        0x40002a60:    91164021    !@..    ADD      x1,x1,#0x590
        0x40002a64:    528021c0    .!.R    MOV      w0,#0x10e
        0x40002a68:    97fff746    F...    BL       GIC_setInterruptHandler ; 0x40000780
        0x40002a6c:    f0000001    ....    ADRP     x1,{pc}+0x3000 ; 0x40005a6c
        0x40002a70:    910a0021    !...    ADD      x1,x1,#0x280
        0x40002a74:    321a03e0    ...2    ORR      w0,wzr,#0x40
        0x40002a78:    97fff742    B...    BL       GIC_setInterruptHandler ; 0x40000780
        0x40002a7c:    f0000001    ....    ADRP     x1,{pc}+0x3000 ; 0x40005a7c
        0x40002a80:    91128021    !...    ADD      x1,x1,#0x4a0
        0x40002a84:    52800820     ..R    MOV      w0,#0x41
        0x40002a88:    97fff73e    >...    BL       GIC_setInterruptHandler ; 0x40000780
        0x40002a8c:    528021e0    .!.R    MOV      w0,#0x10f
        0x40002a90:    97fff6fc    ....    BL       GIC_enableInterrupt ; 0x40000680
        0x40002a94:    528021c0    .!.R    MOV      w0,#0x10e
        0x40002a98:    97fff6fa    ....    BL       GIC_enableInterrupt ; 0x40000680
        0x40002a9c:    321a03e0    ...2    ORR      w0,wzr,#0x40
        0x40002aa0:    97fff6f8    ....    BL       GIC_enableInterrupt ; 0x40000680
        0x40002aa4:    52800820     ..R    MOV      w0,#0x41
        0x40002aa8:    97fff6f6    ....    BL       GIC_enableInterrupt ; 0x40000680
        0x40002aac:    52bcca00    ...R    MOV      w0,#0xe6500000
        0x40002ab0:    97fff870    p...    BL       I2C_masterReceiveStart ; 0x40000c70
        0x40002ab4:    f0000028    (...    ADRP     x8,{pc}+0x7000 ; 0x40009ab4
        0x40002ab8:    39797109    .qy9    LDRB     w9,[x8,#0xe5c]
        0x40002abc:    34ffffe9    ...4    CBZ      w9,0x40002ab8 ; master_rx_dma + 584
        0x40002ac0:    52bcca00    ...R    MOV      w0,#0xe6500000
        0x40002ac4:    97fff73f    ?...    BL       I2C_masterDisable ; 0x400007c0
        0x40002ac8:    914022a0    ."@.    ADD      x0,x21,#8,LSL #12
        0x40002acc:    97fff8a5    ....    BL       I2C_slaveDisable ; 0x40000d60
        0x40002ad0:    aa1f03e8    ....    MOV      x8,xzr
        0x40002ad4:    d37ef509    ..~.    LSL      x9,x8,#2
        0x40002ad8:    b8696a8a    .ji.    LDR      w10,[x20,x9]
        0x40002adc:    b8696ac9    .ji.    LDR      w9,[x22,x9]
        0x40002ae0:    6b09015f    _..k    CMP      w10,w9
        0x40002ae4:    540000c1    ...T    B.NE     0x40002afc ; master_rx_dma + 652
        0x40002ae8:    91000508    ....    ADD      x8,x8,#1
        0x40002aec:    7100311f    .1.q    CMP      w8,#0xc
        0x40002af0:    54ffff29    )..T    B.LS     0x40002ad4 ; master_rx_dma + 612
        0x40002af4:    2a1f03e0    ...*    MOV      w0,wzr
        0x40002af8:    14000002    ....    B        0x40002b00 ; master_rx_dma + 656
        0x40002afc:    320003e0    ...2    ORR      w0,wzr,#1
        0x40002b00:    a9427bf3    .{B.    LDP      x19,x30,[sp,#0x20]
        0x40002b04:    a94153f5    .SA.    LDP      x21,x20,[sp,#0x10]
        0x40002b08:    a8c35bf7    .[..    LDP      x23,x22,[sp],#0x30
        0x40002b0c:    d65f03c0    .._.    RET      
    master_rx_dma_continuous
        0x40002b10:    a9bc63f9    .c..    STP      x25,x24,[sp,#-0x40]!
        0x40002b14:    a9015bf7    .[..    STP      x23,x22,[sp,#0x10]
        0x40002b18:    a90253f5    .S..    STP      x21,x20,[sp,#0x20]
        0x40002b1c:    a9037bf3    .{..    STP      x19,x30,[sp,#0x30]
        0x40002b20:    52800493    ...R    MOV      w19,#0x24
        0x40002b24:    72bcca13    ...r    MOVK     w19,#0xe650,LSL #16
        0x40002b28:    52858394    ...R    MOV      w20,#0x2c1c
        0x40002b2c:    72bcc2b4    ...r    MOVK     w20,#0xe615,LSL #16
        0x40002b30:    52858380    ...R    MOV      w0,#0x2c1c
        0x40002b34:    72bcc2a0    ...r    MOVK     w0,#0xe615,LSL #16
        0x40002b38:    52800121    !..R    MOV      w1,#9
        0x40002b3c:    97fff68d    ....    BL       CPG_SetBit ; 0x40000570
        0x40002b40:    91020280    ....    ADD      x0,x20,#0x80
        0x40002b44:    52800121    !..R    MOV      w1,#9
        0x40002b48:    97fff68a    ....    BL       CPG_SetBit ; 0x40000570
        0x40002b4c:    52bce6b4    ...R    MOV      w20,#0xe7350000
        0x40002b50:    52bce6a0    ...R    MOV      w0,#0xe7350000
        0x40002b54:    321f03e1    ...2    ORR      w1,wzr,#2
        0x40002b58:    97fff692    ....    BL       DMAC_initDescriptorMemory ; 0x400005a0
        0x40002b5c:    aa1f03e8    ....    MOV      x8,xzr
        0x40002b60:    91203289    .2 .    ADD      x9,x20,#0x80c
        0x40002b64:    528001aa    ...R    MOV      w10,#0xd
        0x40002b68:    5280120b    ...R    MOV      w11,#0x90
        0x40002b6c:    9000004c    L...    ADRP     x12,{pc}+0x8000 ; 0x4000ab6c
        0x40002b70:    910c118c    ....    ADD      x12,x12,#0x304
        0x40002b74:    0b08018d    ....    ADD      w13,w12,w8
        0x40002b78:    b81f4133    3A..    STUR     w19,[x9,#-0xc]
        0x40002b7c:    b81f812d    -...    STUR     w13,[x9,#-8]
        0x40002b80:    b85fc12d    -._.    LDUR     w13,[x9,#-4]
        0x40002b84:    33005d4d    M].3    BFXIL    w13,w10,#0,#24
        0x40002b88:    b81fc12d    -...    STUR     w13,[x9,#-4]
        0x40002b8c:    b940012d    -.@.    LDR      w13,[x9,#0]
        0x40002b90:    121475ad    .u..    AND      w13,w13,#0xfffff3ff
        0x40002b94:    321601ad    ...2    ORR      w13,w13,#0x400
        0x40002b98:    b900012d    -...    STR      w13,[x9,#0]
        0x40002b9c:    b940012d    -.@.    LDR      w13,[x9,#0]
        0x40002ba0:    121675ad    .u..    AND      w13,w13,#0xfffffcff
        0x40002ba4:    b900012d    -...    STR      w13,[x9,#0]
        0x40002ba8:    b940012d    -.@.    LDR      w13,[x9,#0]
        0x40002bac:    121875ad    .u..    AND      w13,w13,#0xffffff3f
        0x40002bb0:    b900012d    -...    STR      w13,[x9,#0]
        0x40002bb4:    b940012d    -.@.    LDR      w13,[x9,#0]
        0x40002bb8:    121c6dad    .m..    AND      w13,w13,#0xfffffff0
        0x40002bbc:    321f01ad    ...2    ORR      w13,w13,#2
        0x40002bc0:    b900012d    -...    STR      w13,[x9,#0]
        0x40002bc4:    b940012d    -.@.    LDR      w13,[x9,#0]
        0x40002bc8:    33101d6d    m..3    BFI      w13,w11,#16,#8
        0x40002bcc:    b801052d    -...    STR      w13,[x9],#0x10
        0x40002bd0:    9100d108    ....    ADD      x8,x8,#0x34
        0x40002bd4:    f101a11f    ....    CMP      x8,#0x68
        0x40002bd8:    54fffce1    ...T    B.NE     0x40002b74 ; master_rx_dma_continuous + 100
        0x40002bdc:    52820195    ...R    MOV      w21,#0x100c
        0x40002be0:    72bce615    ...r    MOVK     w21,#0xe730,LSL #16
        0x40002be4:    b274cfe8    ..t.    ORR      x8,xzr,#0xfffffffffffff000
        0x40002be8:    b8686aa9    .jh.    LDR      w9,[x21,x8]
        0x40002bec:    12027529    )u..    AND      w9,w9,#0xcfffffff
        0x40002bf0:    32040129    )..2    ORR      w9,w9,#0x10000000
        0x40002bf4:    b8286aa9    .j(.    STR      w9,[x21,x8]
        0x40002bf8:    b8686aa9    .jh.    LDR      w9,[x21,x8]
        0x40002bfc:    32080d29    )..2    ORR      w9,w9,#0xf000000
        0x40002c00:    b8286aa9    .j(.    STR      w9,[x21,x8]
        0x40002c04:    b8686aa9    .jh.    LDR      w9,[x21,x8]
        0x40002c08:    320a0129    )..2    ORR      w9,w9,#0x400000
        0x40002c0c:    b8286aa9    .j(.    STR      w9,[x21,x8]
        0x40002c10:    d13fc2a9    ..?.    SUB      x9,x21,#0xff0
        0x40002c14:    b940012a    *.@.    LDR      w10,[x9,#0]
        0x40002c18:    320803eb    ...2    ORR      w11,wzr,#0x1000000
        0x40002c1c:    33005d4b    K].3    BFXIL    w11,w10,#0,#24
        0x40002c20:    b900012b    +...    STR      w11,[x9,#0]
        0x40002c24:    b940012a    *.@.    LDR      w10,[x9,#0]
        0x40002c28:    3211014a    J..2    ORR      w10,w10,#0x8000
        0x40002c2c:    b900012a    *...    STR      w10,[x9,#0]
        0x40002c30:    b8686aa9    .jh.    LDR      w9,[x21,x8]
        0x40002c34:    321e0129    )..2    ORR      w9,w9,#4
        0x40002c38:    b8286aa9    .j(.    STR      w9,[x21,x8]
        0x40002c3c:    52bcca14    ...R    MOV      w20,#0xe6500000
        0x40002c40:    b8686aa9    .jh.    LDR      w9,[x21,x8]
        0x40002c44:    32000129    )..2    ORR      w9,w9,#1
        0x40002c48:    b8286aa9    .j(.    STR      w9,[x21,x8]
        0x40002c4c:    b0000021    !...    ADRP     x1,{pc}+0x5000 ; 0x40007c4c
        0x40002c50:    9113e021    !...    ADD      x1,x1,#0x4f8
        0x40002c54:    52bcca00    ...R    MOV      w0,#0xe6500000
        0x40002c58:    97fff706    ....    BL       I2C_masterInit ; 0x40000870
        0x40002c5c:    52bcca00    ...R    MOV      w0,#0xe6500000
        0x40002c60:    320003e1    ...2    ORR      w1,wzr,#1
        0x40002c64:    97fff827    '...    BL       I2C_masterSetDMAContinuousTransferCount ; 0x40000d00
        0x40002c68:    528001b6    ...R    MOV      w22,#0xd
        0x40002c6c:    52bcca00    ...R    MOV      w0,#0xe6500000
        0x40002c70:    528001a1    ...R    MOV      w1,#0xd
        0x40002c74:    97fff81b    ....    BL       I2C_masterSetDMAContinuousReceiveBlockCount ; 0x40000ce0
        0x40002c78:    52bcca00    ...R    MOV      w0,#0xe6500000
        0x40002c7c:    97fff6e9    ....    BL       I2C_masterEnableDMAContinuousReceive ; 0x40000820
        0x40002c80:    52bcca00    ...R    MOV      w0,#0xe6500000
        0x40002c84:    97fff6eb    ....    BL       I2C_masterEnableDMAReceive ; 0x40000830
        0x40002c88:    52bcca00    ...R    MOV      w0,#0xe6500000
        0x40002c8c:    12800001    ....    MOV      w1,#0xffffffff
        0x40002c90:    97fff6c8    ....    BL       I2C_masterClearInterruptStatus ; 0x400007b0
        0x40002c94:    52bcca00    ...R    MOV      w0,#0xe6500000
        0x40002c98:    12800001    ....    MOV      w1,#0xffffffff
        0x40002c9c:    97fff6ed    ....    BL       I2C_masterEnableInterrupt ; 0x40000850
        0x40002ca0:    52bcca00    ...R    MOV      w0,#0xe6500000
        0x40002ca4:    97fff6db    ....    BL       I2C_masterEnable ; 0x40000810
        0x40002ca8:    f0000037    7...    ADRP     x23,{pc}+0x7000 ; 0x40009ca8
        0x40002cac:    b94e32e8    .2N.    LDR      w8,[x23,#0xe30]
        0x40002cb0:    52800698    ...R    MOV      w24,#0x34
        0x40002cb4:    b0000039    9...    ADRP     x25,{pc}+0x5000 ; 0x40007cb4
        0x40002cb8:    9129f339    9.).    ADD      x25,x25,#0xa7c
        0x40002cbc:    1b186508    .e..    MADD     w8,w8,w24,w25
        0x40002cc0:    11001108    ....    ADD      w8,w8,#4
        0x40002cc4:    b81f42a8    .B..    STUR     w8,[x21,#-0xc]
        0x40002cc8:    11402268    h"@.    ADD      w8,w19,#8,LSL #12
        0x40002ccc:    b81f82a8    ....    STUR     w8,[x21,#-8]
        0x40002cd0:    b85fc2a8    .._.    LDUR     w8,[x21,#-4]
        0x40002cd4:    33005ec8    .^.3    BFXIL    w8,w22,#0,#24
        0x40002cd8:    b81fc2a8    ....    STUR     w8,[x21,#-4]
        0x40002cdc:    b94002a8    ..@.    LDR      w8,[x21,#0]
        0x40002ce0:    12107508    .u..    AND      w8,w8,#0xffff3fff
        0x40002ce4:    b90002a8    ....    STR      w8,[x21,#0]
        0x40002ce8:    b94002a8    ..@.    LDR      w8,[x21,#0]
        0x40002cec:    12127508    .u..    AND      w8,w8,#0xffffcfff
        0x40002cf0:    32140108    ...2    ORR      w8,w8,#0x1000
        0x40002cf4:    b90002a8    ....    STR      w8,[x21,#0]
        0x40002cf8:    b94002a8    ..@.    LDR      w8,[x21,#0]
        0x40002cfc:    12146d08    .m..    AND      w8,w8,#0xfffff0ff
        0x40002d00:    32150108    ...2    ORR      w8,w8,#0x800
        0x40002d04:    b90002a8    ....    STR      w8,[x21,#0]
        0x40002d08:    b94002a8    ..@.    LDR      w8,[x21,#0]
        0x40002d0c:    120a7508    .u..    AND      w8,w8,#0xffcfffff
        0x40002d10:    b90002a8    ....    STR      w8,[x21,#0]
        0x40002d14:    b94002a8    ..@.    LDR      w8,[x21,#0]
        0x40002d18:    121b7508    .u..    AND      w8,w8,#0xffffffe7
        0x40002d1c:    321c0108    ...2    ORR      w8,w8,#0x10
        0x40002d20:    b90002a8    ....    STR      w8,[x21,#0]
        0x40002d24:    52820808    ...R    MOV      w8,#0x1040
        0x40002d28:    72bce608    ...r    MOVK     w8,#0xe730,LSL #16
        0x40002d2c:    52801469    i..R    MOV      w9,#0xa3
        0x40002d30:    79000109    ...y    STRH     w9,[x8,#0]
        0x40002d34:    b94002a8    ..@.    LDR      w8,[x21,#0]
        0x40002d38:    321e0108    ...2    ORR      w8,w8,#4
        0x40002d3c:    b90002a8    ....    STR      w8,[x21,#0]
        0x40002d40:    b94002a8    ..@.    LDR      w8,[x21,#0]
        0x40002d44:    32000108    ...2    ORR      w8,w8,#1
        0x40002d48:    b90002a8    ....    STR      w8,[x21,#0]
        0x40002d4c:    91402293    ."@.    ADD      x19,x20,#8,LSL #12
        0x40002d50:    b0000021    !...    ADRP     x1,{pc}+0x5000 ; 0x40007d50
        0x40002d54:    91385021    !P8.    ADD      x1,x1,#0xe14
        0x40002d58:    aa1303e0    ....    MOV      x0,x19
        0x40002d5c:    97fff821    !...    BL       I2C_slaveInit ; 0x40000de0
        0x40002d60:    12800001    ....    MOV      w1,#0xffffffff
        0x40002d64:    aa1303e0    ....    MOV      x0,x19
        0x40002d68:    97fff7fa    ....    BL       I2C_slaveClearInterruptStatus ; 0x40000d50
        0x40002d6c:    12800001    ....    MOV      w1,#0xffffffff
        0x40002d70:    aa1303e0    ....    MOV      x0,x19
        0x40002d74:    97fff813    ....    BL       I2C_slaveEnableInterrupt ; 0x40000dc0
        0x40002d78:    b94e32e8    .2N.    LDR      w8,[x23,#0xe30]
        0x40002d7c:    9b187d08    .}..    MUL      x8,x8,x24
        0x40002d80:    b8686b21    !kh.    LDR      w1,[x25,x8]
        0x40002d84:    aa1303e0    ....    MOV      x0,x19
        0x40002d88:    97fff916    ....    BL       I2C_slaveSetData ; 0x400011e0
        0x40002d8c:    aa1303e0    ....    MOV      x0,x19
        0x40002d90:    97fff800    ....    BL       I2C_slaveEnable ; 0x40000d90
        0x40002d94:    97fff613    ....    BL       GIC_enable ; 0x400005e0
        0x40002d98:    f0ffffe1    ....    ADRP     x1,{pc}-0x1000 ; 0x40001d98
        0x40002d9c:    912ac021    !.*.    ADD      x1,x1,#0xab0
        0x40002da0:    528021c0    .!.R    MOV      w0,#0x10e
        0x40002da4:    97fff677    w...    BL       GIC_setInterruptHandler ; 0x40000780
        0x40002da8:    90000001    ....    ADRP     x1,{pc} ; 0x40002da8
        0x40002dac:    91098021    !...    ADD      x1,x1,#0x260
        0x40002db0:    528021e0    .!.R    MOV      w0,#0x10f
        0x40002db4:    97fff673    s...    BL       GIC_setInterruptHandler ; 0x40000780
        0x40002db8:    f0000001    ....    ADRP     x1,{pc}+0x3000 ; 0x40005db8
        0x40002dbc:    910e0021    !...    ADD      x1,x1,#0x380
        0x40002dc0:    321a03e0    ...2    ORR      w0,wzr,#0x40
        0x40002dc4:    97fff66f    o...    BL       GIC_setInterruptHandler ; 0x40000780
        0x40002dc8:    f0000001    ....    ADRP     x1,{pc}+0x3000 ; 0x40005dc8
        0x40002dcc:    91174021    !@..    ADD      x1,x1,#0x5d0
        0x40002dd0:    52800820     ..R    MOV      w0,#0x41
        0x40002dd4:    97fff66b    k...    BL       GIC_setInterruptHandler ; 0x40000780
        0x40002dd8:    528021c0    .!.R    MOV      w0,#0x10e
        0x40002ddc:    97fff629    )...    BL       GIC_enableInterrupt ; 0x40000680
        0x40002de0:    528021e0    .!.R    MOV      w0,#0x10f
        0x40002de4:    97fff627    '...    BL       GIC_enableInterrupt ; 0x40000680
        0x40002de8:    321a03e0    ...2    ORR      w0,wzr,#0x40
        0x40002dec:    97fff625    %...    BL       GIC_enableInterrupt ; 0x40000680
        0x40002df0:    52800820     ..R    MOV      w0,#0x41
        0x40002df4:    97fff623    #...    BL       GIC_enableInterrupt ; 0x40000680
        0x40002df8:    52bcca00    ...R    MOV      w0,#0xe6500000
        0x40002dfc:    97fff79d    ....    BL       I2C_masterReceiveStart ; 0x40000c70
        0x40002e00:    f0000028    (...    ADRP     x8,{pc}+0x7000 ; 0x40009e00
        0x40002e04:    397a1109    ..z9    LDRB     w9,[x8,#0xe84]
        0x40002e08:    34ffffe9    ...4    CBZ      w9,0x40002e04 ; master_rx_dma_continuous + 756
        0x40002e0c:    52bcca00    ...R    MOV      w0,#0xe6500000
        0x40002e10:    97fff66c    l...    BL       I2C_masterDisable ; 0x400007c0
        0x40002e14:    91402280    ."@.    ADD      x0,x20,#8,LSL #12
        0x40002e18:    97fff7d2    ....    BL       I2C_slaveDisable ; 0x40000d60
        0x40002e1c:    aa1f03e8    ....    MOV      x8,xzr
        0x40002e20:    b0000029    )...    ADRP     x9,{pc}+0x5000 ; 0x40007e20
        0x40002e24:    9129f129    ).).    ADD      x9,x9,#0xa7c
        0x40002e28:    9000004a    J...    ADRP     x10,{pc}+0x8000 ; 0x4000ae28
        0x40002e2c:    910c114a    J...    ADD      x10,x10,#0x304
        0x40002e30:    aa1f03eb    ....    MOV      x11,xzr
        0x40002e34:    d37ef56c    l.~.    LSL      x12,x11,#2
        0x40002e38:    b86c694d    Mil.    LDR      w13,[x10,x12]
        0x40002e3c:    b86c692c    ,il.    LDR      w12,[x9,x12]
        0x40002e40:    6b0c01bf    ...k    CMP      w13,w12
        0x40002e44:    54000161    a..T    B.NE     0x40002e70 ; master_rx_dma_continuous + 864
        0x40002e48:    9100056b    k...    ADD      x11,x11,#1
        0x40002e4c:    7100317f    .1.q    CMP      w11,#0xc
        0x40002e50:    54ffff29    )..T    B.LS     0x40002e34 ; master_rx_dma_continuous + 804
        0x40002e54:    91000508    ....    ADD      x8,x8,#1
        0x40002e58:    9100d129    )...    ADD      x9,x9,#0x34
        0x40002e5c:    9100d14a    J...    ADD      x10,x10,#0x34
        0x40002e60:    f100091f    ....    CMP      x8,#2
        0x40002e64:    54fffe63    c..T    B.CC     0x40002e30 ; master_rx_dma_continuous + 800
        0x40002e68:    2a1f03e0    ...*    MOV      w0,wzr
        0x40002e6c:    14000002    ....    B        0x40002e74 ; master_rx_dma_continuous + 868
        0x40002e70:    320003e0    ...2    ORR      w0,wzr,#1
        0x40002e74:    a9437bf3    .{C.    LDP      x19,x30,[sp,#0x30]
        0x40002e78:    a94253f5    .SB.    LDP      x21,x20,[sp,#0x20]
        0x40002e7c:    a9415bf7    .[A.    LDP      x23,x22,[sp,#0x10]
        0x40002e80:    a8c463f9    .c..    LDP      x25,x24,[sp],#0x40
        0x40002e84:    d65f03c0    .._.    RET      
        0x40002e88:    00000000    ....    DCI      0x00000000 ; ? Undefined
        0x40002e8c:    00000000    ....    DCI      0x00000000 ; ? Undefined
    master_send_start_byte
        0x40002e90:    a9bf7bf3    .{..    STP      x19,x30,[sp,#-0x10]!
        0x40002e94:    b0000021    !...    ADRP     x1,{pc}+0x5000 ; 0x40007e94
        0x40002e98:    910f6021    !`..    ADD      x1,x1,#0x3d8
        0x40002e9c:    52bcca13    ...R    MOV      w19,#0xe6500000
        0x40002ea0:    52bcca00    ...R    MOV      w0,#0xe6500000
        0x40002ea4:    97fff673    s...    BL       I2C_masterInit ; 0x40000870
        0x40002ea8:    52bcca00    ...R    MOV      w0,#0xe6500000
        0x40002eac:    12800001    ....    MOV      w1,#0xffffffff
        0x40002eb0:    97fff640    @...    BL       I2C_masterClearInterruptStatus ; 0x400007b0
        0x40002eb4:    52bcca00    ...R    MOV      w0,#0xe6500000
        0x40002eb8:    12800001    ....    MOV      w1,#0xffffffff
        0x40002ebc:    97fff665    e...    BL       I2C_masterEnableInterrupt ; 0x40000850
        0x40002ec0:    52bcca00    ...R    MOV      w0,#0xe6500000
        0x40002ec4:    97fff653    S...    BL       I2C_masterEnable ; 0x40000810
        0x40002ec8:    91402273    s"@.    ADD      x19,x19,#8,LSL #12
        0x40002ecc:    b0000021    !...    ADRP     x1,{pc}+0x5000 ; 0x40007ecc
        0x40002ed0:    9133d021    !.3.    ADD      x1,x1,#0xcf4
        0x40002ed4:    aa1303e0    ....    MOV      x0,x19
        0x40002ed8:    97fff7c2    ....    BL       I2C_slaveInit ; 0x40000de0
        0x40002edc:    12800001    ....    MOV      w1,#0xffffffff
        0x40002ee0:    aa1303e0    ....    MOV      x0,x19
        0x40002ee4:    97fff79b    ....    BL       I2C_slaveClearInterruptStatus ; 0x40000d50
        0x40002ee8:    12800001    ....    MOV      w1,#0xffffffff
        0x40002eec:    aa1303e0    ....    MOV      x0,x19
        0x40002ef0:    97fff7b4    ....    BL       I2C_slaveEnableInterrupt ; 0x40000dc0
        0x40002ef4:    aa1303e0    ....    MOV      x0,x19
        0x40002ef8:    97fff7a6    ....    BL       I2C_slaveEnable ; 0x40000d90
        0x40002efc:    97fff5b9    ....    BL       GIC_enable ; 0x400005e0
        0x40002f00:    f0ffffe1    ....    ADRP     x1,{pc}-0x1000 ; 0x40001f00
        0x40002f04:    91174021    !@..    ADD      x1,x1,#0x5d0
        0x40002f08:    528021c0    .!.R    MOV      w0,#0x10e
        0x40002f0c:    97fff61d    ....    BL       GIC_setInterruptHandler ; 0x40000780
        0x40002f10:    f0ffffe1    ....    ADRP     x1,{pc}-0x1000 ; 0x40001f10
        0x40002f14:    91374021    !@7.    ADD      x1,x1,#0xdd0
        0x40002f18:    528021e0    .!.R    MOV      w0,#0x10f
        0x40002f1c:    97fff619    ....    BL       GIC_setInterruptHandler ; 0x40000780
        0x40002f20:    528021c0    .!.R    MOV      w0,#0x10e
        0x40002f24:    97fff5d7    ....    BL       GIC_enableInterrupt ; 0x40000680
        0x40002f28:    528021e0    .!.R    MOV      w0,#0x10f
        0x40002f2c:    97fff5d5    ....    BL       GIC_enableInterrupt ; 0x40000680
        0x40002f30:    90000048    H...    ADRP     x8,{pc}+0x8000 ; 0x4000af30
        0x40002f34:    b9494d09    .MI.    LDR      w9,[x8,#0x94c]
        0x40002f38:    1100052a    *...    ADD      w10,w9,#1
        0x40002f3c:    b0000033    3...    ADRP     x19,{pc}+0x5000 ; 0x40007f3c
        0x40002f40:    911e9273    s...    ADD      x19,x19,#0x7a4
        0x40002f44:    b9094d0a    .M..    STR      w10,[x8,#0x94c]
        0x40002f48:    b8697a61    azi.    LDR      w1,[x19,x9,LSL #2]
        0x40002f4c:    52bcca00    ...R    MOV      w0,#0xe6500000
        0x40002f50:    97fff758    X...    BL       I2C_masterSendMultipleByteStart ; 0x40000cb0
        0x40002f54:    f0000028    (...    ADRP     x8,{pc}+0x7000 ; 0x40009f54
        0x40002f58:    39798109    ..y9    LDRB     w9,[x8,#0xe60]
        0x40002f5c:    34ffffe9    ...4    CBZ      w9,0x40002f58 ; master_send_start_byte + 200
        0x40002f60:    aa1f03e8    ....    MOV      x8,xzr
        0x40002f64:    90000049    I...    ADRP     x9,{pc}+0x8000 ; 0x4000af64
        0x40002f68:    91018129    )...    ADD      x9,x9,#0x60
        0x40002f6c:    d37ef50a    ..~.    LSL      x10,x8,#2
        0x40002f70:    b86a692b    +ij.    LDR      w11,[x9,x10]
        0x40002f74:    b86a6a6a    jjj.    LDR      w10,[x19,x10]
        0x40002f78:    6b0a017f    ...k    CMP      w11,w10
        0x40002f7c:    540000e1    ...T    B.NE     0x40002f98 ; master_send_start_byte + 264
        0x40002f80:    91000508    ....    ADD      x8,x8,#1
        0x40002f84:    7100311f    .1.q    CMP      w8,#0xc
        0x40002f88:    54ffff29    )..T    B.LS     0x40002f6c ; master_send_start_byte + 220
        0x40002f8c:    2a1f03e0    ...*    MOV      w0,wzr
        0x40002f90:    a8c17bf3    .{..    LDP      x19,x30,[sp],#0x10
        0x40002f94:    d65f03c0    .._.    RET      
        0x40002f98:    320003e0    ...2    ORR      w0,wzr,#1
        0x40002f9c:    a8c17bf3    .{..    LDP      x19,x30,[sp],#0x10
        0x40002fa0:    d65f03c0    .._.    RET      
        0x40002fa4:    00000000    ....    DCI      0x00000000 ; ? Undefined
        0x40002fa8:    00000000    ....    DCI      0x00000000 ; ? Undefined
        0x40002fac:    00000000    ....    DCI      0x00000000 ; ? Undefined
    master_tx
        0x40002fb0:    a9bf7bf3    .{..    STP      x19,x30,[sp,#-0x10]!
        0x40002fb4:    b0000021    !...    ADRP     x1,{pc}+0x5000 ; 0x40007fb4
        0x40002fb8:    91102021    ! ..    ADD      x1,x1,#0x408
        0x40002fbc:    52bcca13    ...R    MOV      w19,#0xe6500000
        0x40002fc0:    52bcca00    ...R    MOV      w0,#0xe6500000
        0x40002fc4:    97fff62b    +...    BL       I2C_masterInit ; 0x40000870
        0x40002fc8:    52bcca00    ...R    MOV      w0,#0xe6500000
        0x40002fcc:    12800001    ....    MOV      w1,#0xffffffff
        0x40002fd0:    97fff5f8    ....    BL       I2C_masterClearInterruptStatus ; 0x400007b0
        0x40002fd4:    52bcca00    ...R    MOV      w0,#0xe6500000
        0x40002fd8:    12800001    ....    MOV      w1,#0xffffffff
        0x40002fdc:    97fff61d    ....    BL       I2C_masterEnableInterrupt ; 0x40000850
        0x40002fe0:    52bcca00    ...R    MOV      w0,#0xe6500000
        0x40002fe4:    97fff60b    ....    BL       I2C_masterEnable ; 0x40000810
        0x40002fe8:    91402273    s"@.    ADD      x19,x19,#8,LSL #12
        0x40002fec:    b0000021    !...    ADRP     x1,{pc}+0x5000 ; 0x40007fec
        0x40002ff0:    91349021    !.4.    ADD      x1,x1,#0xd24
        0x40002ff4:    aa1303e0    ....    MOV      x0,x19
        0x40002ff8:    97fff77a    z...    BL       I2C_slaveInit ; 0x40000de0
        0x40002ffc:    12800001    ....    MOV      w1,#0xffffffff
        0x40003000:    aa1303e0    ....    MOV      x0,x19
        0x40003004:    97fff753    S...    BL       I2C_slaveClearInterruptStatus ; 0x40000d50
        0x40003008:    12800001    ....    MOV      w1,#0xffffffff
        0x4000300c:    aa1303e0    ....    MOV      x0,x19
        0x40003010:    97fff76c    l...    BL       I2C_slaveEnableInterrupt ; 0x40000dc0
        0x40003014:    aa1303e0    ....    MOV      x0,x19
        0x40003018:    97fff75e    ^...    BL       I2C_slaveEnable ; 0x40000d90
        0x4000301c:    97fff571    q...    BL       GIC_enable ; 0x400005e0
        0x40003020:    d0ffffe1    ....    ADRP     x1,{pc}-0x2000 ; 0x40001020
        0x40003024:    911b0021    !...    ADD      x1,x1,#0x6c0
        0x40003028:    528021c0    .!.R    MOV      w0,#0x10e
        0x4000302c:    97fff5d5    ....    BL       GIC_setInterruptHandler ; 0x40000780
        0x40003030:    d0ffffe1    ....    ADRP     x1,{pc}-0x2000 ; 0x40001030
        0x40003034:    913c4021    !@<.    ADD      x1,x1,#0xf10
        0x40003038:    528021e0    .!.R    MOV      w0,#0x10f
        0x4000303c:    97fff5d1    ....    BL       GIC_setInterruptHandler ; 0x40000780
        0x40003040:    528021c0    .!.R    MOV      w0,#0x10e
        0x40003044:    97fff58f    ....    BL       GIC_enableInterrupt ; 0x40000680
        0x40003048:    528021e0    .!.R    MOV      w0,#0x10f
        0x4000304c:    97fff58d    ....    BL       GIC_enableInterrupt ; 0x40000680
        0x40003050:    f0000028    (...    ADRP     x8,{pc}+0x7000 ; 0x4000a050
        0x40003054:    b9495509    .UI.    LDR      w9,[x8,#0x954]
        0x40003058:    1100052a    *...    ADD      w10,w9,#1
        0x4000305c:    90000033    3...    ADRP     x19,{pc}+0x4000 ; 0x4000705c
        0x40003060:    91203273    s2 .    ADD      x19,x19,#0x80c
        0x40003064:    b909550a    .U..    STR      w10,[x8,#0x954]
        0x40003068:    b8697a61    azi.    LDR      w1,[x19,x9,LSL #2]
        0x4000306c:    52bcca00    ...R    MOV      w0,#0xe6500000
        0x40003070:    97fff710    ....    BL       I2C_masterSendMultipleByteStart ; 0x40000cb0
        0x40003074:    d0000028    (...    ADRP     x8,{pc}+0x6000 ; 0x40009074
        0x40003078:    3979a109    ..y9    LDRB     w9,[x8,#0xe68]
        0x4000307c:    34ffffe9    ...4    CBZ      w9,0x40003078 ; master_tx + 200
        0x40003080:    aa1f03e8    ....    MOV      x8,xzr
        0x40003084:    f0000029    )...    ADRP     x9,{pc}+0x7000 ; 0x4000a084
        0x40003088:    91032129    )!..    ADD      x9,x9,#0xc8
        0x4000308c:    d37ef50a    ..~.    LSL      x10,x8,#2
        0x40003090:    b86a692b    +ij.    LDR      w11,[x9,x10]
        0x40003094:    b86a6a6a    jjj.    LDR      w10,[x19,x10]
        0x40003098:    6b0a017f    ...k    CMP      w11,w10
        0x4000309c:    540000e1    ...T    B.NE     0x400030b8 ; master_tx + 264
        0x400030a0:    91000508    ....    ADD      x8,x8,#1
        0x400030a4:    7100311f    .1.q    CMP      w8,#0xc
        0x400030a8:    54ffff29    )..T    B.LS     0x4000308c ; master_tx + 220
        0x400030ac:    2a1f03e0    ...*    MOV      w0,wzr
        0x400030b0:    a8c17bf3    .{..    LDP      x19,x30,[sp],#0x10
        0x400030b4:    d65f03c0    .._.    RET      
        0x400030b8:    320003e0    ...2    ORR      w0,wzr,#1
        0x400030bc:    a8c17bf3    .{..    LDP      x19,x30,[sp],#0x10
        0x400030c0:    d65f03c0    .._.    RET      
        0x400030c4:    00000000    ....    DCI      0x00000000 ; ? Undefined
        0x400030c8:    00000000    ....    DCI      0x00000000 ; ? Undefined
        0x400030cc:    00000000    ....    DCI      0x00000000 ; ? Undefined
    master_tx_dma
        0x400030d0:    f81d0ff6    ....    STR      x22,[sp,#-0x30]!
        0x400030d4:    a90153f5    .S..    STP      x21,x20,[sp,#0x10]
        0x400030d8:    a9027bf3    .{..    STP      x19,x30,[sp,#0x20]
        0x400030dc:    52bcca15    ...R    MOV      w21,#0xe6500000
        0x400030e0:    52858393    ...R    MOV      w19,#0x2c1c
        0x400030e4:    72bcc2b3    ...r    MOVK     w19,#0xe615,LSL #16
        0x400030e8:    52858380    ...R    MOV      w0,#0x2c1c
        0x400030ec:    72bcc2a0    ...r    MOVK     w0,#0xe615,LSL #16
        0x400030f0:    52800121    !..R    MOV      w1,#9
        0x400030f4:    97fff51f    ....    BL       CPG_SetBit ; 0x40000570
        0x400030f8:    91020260    `...    ADD      x0,x19,#0x80
        0x400030fc:    52800121    !..R    MOV      w1,#9
        0x40003100:    97fff51c    ....    BL       CPG_SetBit ; 0x40000570
        0x40003104:    90000034    4...    ADRP     x20,{pc}+0x4000 ; 0x40007104
        0x40003108:    9118e294    ....    ADD      x20,x20,#0x638
        0x4000310c:    11001288    ....    ADD      w8,w20,#4
        0x40003110:    320b0be9    ...2    ORR      w9,wzr,#0xe00000
        0x40003114:    b8296aa8    .j).    STR      w8,[x21,x9]
        0x40003118:    52800193    ...R    MOV      w19,#0xc
        0x4000311c:    72bce613    ...r    MOVK     w19,#0xe730,LSL #16
        0x40003120:    52800496    ...R    MOV      w22,#0x24
        0x40003124:    72bcca16    ...r    MOVK     w22,#0xe650,LSL #16
        0x40003128:    b81f8276    v...    STUR     w22,[x19,#-8]
        0x4000312c:    b85fc268    h._.    LDUR     w8,[x19,#-4]
        0x40003130:    12081d08    ....    AND      w8,w8,#0xff000000
        0x40003134:    321e0508    ...2    ORR      w8,w8,#0xc
        0x40003138:    b81fc268    h...    STUR     w8,[x19,#-4]
        0x4000313c:    b9400268    h.@.    LDR      w8,[x19,#0]
        0x40003140:    12107508    .u..    AND      w8,w8,#0xffff3fff
        0x40003144:    b9000268    h...    STR      w8,[x19,#0]
        0x40003148:    b9400268    h.@.    LDR      w8,[x19,#0]
        0x4000314c:    12127508    .u..    AND      w8,w8,#0xffffcfff
        0x40003150:    32140108    ...2    ORR      w8,w8,#0x1000
        0x40003154:    b9000268    h...    STR      w8,[x19,#0]
        0x40003158:    b9400268    h.@.    LDR      w8,[x19,#0]
        0x4000315c:    12146d08    .m..    AND      w8,w8,#0xfffff0ff
        0x40003160:    32150108    ...2    ORR      w8,w8,#0x800
        0x40003164:    b9000268    h...    STR      w8,[x19,#0]
        0x40003168:    b9400268    h.@.    LDR      w8,[x19,#0]
        0x4000316c:    120a7508    .u..    AND      w8,w8,#0xffcfffff
        0x40003170:    b9000268    h...    STR      w8,[x19,#0]
        0x40003174:    b9400268    h.@.    LDR      w8,[x19,#0]
        0x40003178:    121b7508    .u..    AND      w8,w8,#0xffffffe7
        0x4000317c:    321c0108    ...2    ORR      w8,w8,#0x10
        0x40003180:    b9000268    h...    STR      w8,[x19,#0]
        0x40003184:    52801228    (..R    MOV      w8,#0x91
        0x40003188:    79006a68    hj.y    STRH     w8,[x19,#0x34]
        0x4000318c:    b9400268    h.@.    LDR      w8,[x19,#0]
        0x40003190:    321e0108    ...2    ORR      w8,w8,#4
        0x40003194:    b9000268    h...    STR      w8,[x19,#0]
        0x40003198:    b9400268    h.@.    LDR      w8,[x19,#0]
        0x4000319c:    32000108    ...2    ORR      w8,w8,#1
        0x400031a0:    b9000268    h...    STR      w8,[x19,#0]
        0x400031a4:    90000021    !...    ADRP     x1,{pc}+0x4000 ; 0x400071a4
        0x400031a8:    910cc021    !...    ADD      x1,x1,#0x330
        0x400031ac:    52bcca00    ...R    MOV      w0,#0xe6500000
        0x400031b0:    97fff5b0    ....    BL       I2C_masterInit ; 0x40000870
        0x400031b4:    52bcca00    ...R    MOV      w0,#0xe6500000
        0x400031b8:    12800001    ....    MOV      w1,#0xffffffff
        0x400031bc:    97fff57d    }...    BL       I2C_masterClearInterruptStatus ; 0x400007b0
        0x400031c0:    52bcca00    ...R    MOV      w0,#0xe6500000
        0x400031c4:    12800001    ....    MOV      w1,#0xffffffff
        0x400031c8:    97fff5a2    ....    BL       I2C_masterEnableInterrupt ; 0x40000850
        0x400031cc:    52bcca00    ...R    MOV      w0,#0xe6500000
        0x400031d0:    97fff590    ....    BL       I2C_masterEnable ; 0x40000810
        0x400031d4:    114022c8    ."@.    ADD      w8,w22,#8,LSL #12
        0x400031d8:    b90ff668    h...    STR      w8,[x19,#0xff4]
        0x400031dc:    d0000036    6...    ADRP     x22,{pc}+0x6000 ; 0x400091dc
        0x400031e0:    913bd2d6    ..;.    ADD      x22,x22,#0xef4
        0x400031e4:    b90ffa76    v...    STR      w22,[x19,#0xff8]
        0x400031e8:    52820188    ...R    MOV      w8,#0x100c
        0x400031ec:    72bce608    ...r    MOVK     w8,#0xe730,LSL #16
        0x400031f0:    b85fc109    .._.    LDUR     w9,[x8,#-4]
        0x400031f4:    528001aa    ...R    MOV      w10,#0xd
        0x400031f8:    33005d49    I].3    BFXIL    w9,w10,#0,#24
        0x400031fc:    b81fc109    ....    STUR     w9,[x8,#-4]
        0x40003200:    b9400109    ..@.    LDR      w9,[x8,#0]
        0x40003204:    12107529    )u..    AND      w9,w9,#0xffff3fff
        0x40003208:    32120129    )..2    ORR      w9,w9,#0x4000
        0x4000320c:    b9000109    ....    STR      w9,[x8,#0]
        0x40003210:    b9400109    ..@.    LDR      w9,[x8,#0]
        0x40003214:    12127529    )u..    AND      w9,w9,#0xffffcfff
        0x40003218:    b9000109    ....    STR      w9,[x8,#0]
        0x4000321c:    b9400109    ..@.    LDR      w9,[x8,#0]
        0x40003220:    12146d29    )m..    AND      w9,w9,#0xfffff0ff
        0x40003224:    32150129    )..2    ORR      w9,w9,#0x800
        0x40003228:    b9000109    ....    STR      w9,[x8,#0]
        0x4000322c:    b9400109    ..@.    LDR      w9,[x8,#0]
        0x40003230:    120a7529    )u..    AND      w9,w9,#0xffcfffff
        0x40003234:    b9000109    ....    STR      w9,[x8,#0]
        0x40003238:    b9400109    ..@.    LDR      w9,[x8,#0]
        0x4000323c:    121b7529    )u..    AND      w9,w9,#0xffffffe7
        0x40003240:    321c0129    )..2    ORR      w9,w9,#0x10
        0x40003244:    b9000109    ....    STR      w9,[x8,#0]
        0x40003248:    52801449    I..R    MOV      w9,#0xa2
        0x4000324c:    79006909    .i.y    STRH     w9,[x8,#0x34]
        0x40003250:    b9400109    ..@.    LDR      w9,[x8,#0]
        0x40003254:    321e0129    )..2    ORR      w9,w9,#4
        0x40003258:    b9000109    ....    STR      w9,[x8,#0]
        0x4000325c:    b9400109    ..@.    LDR      w9,[x8,#0]
        0x40003260:    32000129    )..2    ORR      w9,w9,#1
        0x40003264:    b9000109    ....    STR      w9,[x8,#0]
        0x40003268:    914022b3    ."@.    ADD      x19,x21,#8,LSL #12
        0x4000326c:    90000021    !...    ADRP     x1,{pc}+0x4000 ; 0x4000726c
        0x40003270:    91313021    !01.    ADD      x1,x1,#0xc4c
        0x40003274:    aa1303e0    ....    MOV      x0,x19
        0x40003278:    97fff6da    ....    BL       I2C_slaveInit ; 0x40000de0
        0x4000327c:    12800001    ....    MOV      w1,#0xffffffff
        0x40003280:    aa1303e0    ....    MOV      x0,x19
        0x40003284:    97fff6b3    ....    BL       I2C_slaveClearInterruptStatus ; 0x40000d50
        0x40003288:    12800001    ....    MOV      w1,#0xffffffff
        0x4000328c:    aa1303e0    ....    MOV      x0,x19
        0x40003290:    97fff6cc    ....    BL       I2C_slaveEnableInterrupt ; 0x40000dc0
        0x40003294:    aa1303e0    ....    MOV      x0,x19
        0x40003298:    97fff6be    ....    BL       I2C_slaveEnable ; 0x40000d90
        0x4000329c:    97fff4d1    ....    BL       GIC_enable ; 0x400005e0
        0x400032a0:    d0ffffe1    ....    ADRP     x1,{pc}-0x2000 ; 0x400012a0
        0x400032a4:    9131c021    !.1.    ADD      x1,x1,#0xc70
        0x400032a8:    528021e0    .!.R    MOV      w0,#0x10f
        0x400032ac:    97fff535    5...    BL       GIC_setInterruptHandler ; 0x40000780
        0x400032b0:    d0ffffe1    ....    ADRP     x1,{pc}-0x2000 ; 0x400012b0
        0x400032b4:    91138021    !...    ADD      x1,x1,#0x4e0
        0x400032b8:    528021c0    .!.R    MOV      w0,#0x10e
        0x400032bc:    97fff531    1...    BL       GIC_setInterruptHandler ; 0x40000780
        0x400032c0:    d0000001    ....    ADRP     x1,{pc}+0x2000 ; 0x400052c0
        0x400032c4:    9107c021    !...    ADD      x1,x1,#0x1f0
        0x400032c8:    321a03e0    ...2    ORR      w0,wzr,#0x40
        0x400032cc:    97fff52d    -...    BL       GIC_setInterruptHandler ; 0x40000780
        0x400032d0:    d0000001    ....    ADRP     x1,{pc}+0x2000 ; 0x400052d0
        0x400032d4:    910f4021    !@..    ADD      x1,x1,#0x3d0
        0x400032d8:    52800820     ..R    MOV      w0,#0x41
        0x400032dc:    97fff529    )...    BL       GIC_setInterruptHandler ; 0x40000780
        0x400032e0:    528021e0    .!.R    MOV      w0,#0x10f
        0x400032e4:    97fff4e7    ....    BL       GIC_enableInterrupt ; 0x40000680
        0x400032e8:    528021c0    .!.R    MOV      w0,#0x10e
        0x400032ec:    97fff4e5    ....    BL       GIC_enableInterrupt ; 0x40000680
        0x400032f0:    321a03e0    ...2    ORR      w0,wzr,#0x40
        0x400032f4:    97fff4e3    ....    BL       GIC_enableInterrupt ; 0x40000680
        0x400032f8:    52800820     ..R    MOV      w0,#0x41
        0x400032fc:    97fff4e1    ....    BL       GIC_enableInterrupt ; 0x40000680
        0x40003300:    52bcca00    ...R    MOV      w0,#0xe6500000
        0x40003304:    52800901    ...R    MOV      w1,#0x48
        0x40003308:    97fff66a    j...    BL       I2C_masterSendMultipleByteStart ; 0x40000cb0
        0x4000330c:    d0000028    (...    ADRP     x8,{pc}+0x6000 ; 0x4000930c
        0x40003310:    39795109    .Qy9    LDRB     w9,[x8,#0xe54]
        0x40003314:    34ffffe9    ...4    CBZ      w9,0x40003310 ; master_tx_dma + 576
        0x40003318:    52bcca00    ...R    MOV      w0,#0xe6500000
        0x4000331c:    97fff529    )...    BL       I2C_masterDisable ; 0x400007c0
        0x40003320:    914022a0    ."@.    ADD      x0,x21,#8,LSL #12
        0x40003324:    97fff68f    ....    BL       I2C_slaveDisable ; 0x40000d60
        0x40003328:    aa1f03e8    ....    MOV      x8,xzr
        0x4000332c:    d37ef509    ..~.    LSL      x9,x8,#2
        0x40003330:    b8696aca    .ji.    LDR      w10,[x22,x9]
        0x40003334:    b8696a89    .ji.    LDR      w9,[x20,x9]
        0x40003338:    6b09015f    _..k    CMP      w10,w9
        0x4000333c:    540000c1    ...T    B.NE     0x40003354 ; master_tx_dma + 644
        0x40003340:    91000508    ....    ADD      x8,x8,#1
        0x40003344:    7100311f    .1.q    CMP      w8,#0xc
        0x40003348:    54ffff29    )..T    B.LS     0x4000332c ; master_tx_dma + 604
        0x4000334c:    2a1f03e0    ...*    MOV      w0,wzr
        0x40003350:    14000002    ....    B        0x40003358 ; master_tx_dma + 648
        0x40003354:    320003e0    ...2    ORR      w0,wzr,#1
        0x40003358:    a9427bf3    .{B.    LDP      x19,x30,[sp,#0x20]
        0x4000335c:    a94153f5    .SA.    LDP      x21,x20,[sp,#0x10]
        0x40003360:    f84307f6    ..C.    LDR      x22,[sp],#0x30
        0x40003364:    d65f03c0    .._.    RET      
        0x40003368:    00000000    ....    DCI      0x00000000 ; ? Undefined
        0x4000336c:    00000000    ....    DCI      0x00000000 ; ? Undefined
    master_tx_dma_continuous
        0x40003370:    a9bc63f9    .c..    STP      x25,x24,[sp,#-0x40]!
        0x40003374:    a9015bf7    .[..    STP      x23,x22,[sp,#0x10]
        0x40003378:    a90253f5    .S..    STP      x21,x20,[sp,#0x20]
        0x4000337c:    a9037bf3    .{..    STP      x19,x30,[sp,#0x30]
        0x40003380:    52810016    ...R    MOV      w22,#0x800
        0x40003384:    72bce6b6    ...r    MOVK     w22,#0xe735,LSL #16
        0x40003388:    52800493    ...R    MOV      w19,#0x24
        0x4000338c:    72bcca13    ...r    MOVK     w19,#0xe650,LSL #16
        0x40003390:    52858394    ...R    MOV      w20,#0x2c1c
        0x40003394:    72bcc2b4    ...r    MOVK     w20,#0xe615,LSL #16
        0x40003398:    52858380    ...R    MOV      w0,#0x2c1c
        0x4000339c:    72bcc2a0    ...r    MOVK     w0,#0xe615,LSL #16
        0x400033a0:    52800121    !..R    MOV      w1,#9
        0x400033a4:    97fff473    s...    BL       CPG_SetBit ; 0x40000570
        0x400033a8:    91020280    ....    ADD      x0,x20,#0x80
        0x400033ac:    52800121    !..R    MOV      w1,#9
        0x400033b0:    97fff470    p...    BL       CPG_SetBit ; 0x40000570
        0x400033b4:    d12002c0    .. .    SUB      x0,x22,#0x800
        0x400033b8:    321f03e1    ...2    ORR      w1,wzr,#2
        0x400033bc:    97fff479    y...    BL       DMAC_initDescriptorMemory ; 0x400005a0
        0x400033c0:    aa1f03e8    ....    MOV      x8,xzr
        0x400033c4:    d0000034    4...    ADRP     x20,{pc}+0x6000 ; 0x400093c4
        0x400033c8:    52800689    ...R    MOV      w9,#0x34
        0x400033cc:    528001aa    ...R    MOV      w10,#0xd
        0x400033d0:    5280122b    +..R    MOV      w11,#0x91
        0x400033d4:    90000035    5...    ADRP     x21,{pc}+0x4000 ; 0x400073d4
        0x400033d8:    912102b5    ..!.    ADD      x21,x21,#0x840
        0x400033dc:    b94e2e8c    ..N.    LDR      w12,[x20,#0xe2c]
        0x400033e0:    1b09558c    .U..    MADD     w12,w12,w9,w21
        0x400033e4:    8b0802cd    ....    ADD      x13,x22,x8
        0x400033e8:    1100118c    ....    ADD      w12,w12,#4
        0x400033ec:    b90001ac    ....    STR      w12,[x13,#0]
        0x400033f0:    b90005b3    ....    STR      w19,[x13,#4]
        0x400033f4:    b94009ac    ..@.    LDR      w12,[x13,#8]
        0x400033f8:    33005d4c    L].3    BFXIL    w12,w10,#0,#24
        0x400033fc:    b90009ac    ....    STR      w12,[x13,#8]
        0x40003400:    b9400dac    ..@.    LDR      w12,[x13,#0xc]
        0x40003404:    1214758c    .u..    AND      w12,w12,#0xfffff3ff
        0x40003408:    b9000dac    ....    STR      w12,[x13,#0xc]
        0x4000340c:    b9400dac    ..@.    LDR      w12,[x13,#0xc]
        0x40003410:    1216758c    .u..    AND      w12,w12,#0xfffffcff
        0x40003414:    3218018c    ...2    ORR      w12,w12,#0x100
        0x40003418:    b9000dac    ....    STR      w12,[x13,#0xc]
        0x4000341c:    b9400dac    ..@.    LDR      w12,[x13,#0xc]
        0x40003420:    1218758c    .u..    AND      w12,w12,#0xffffff3f
        0x40003424:    b9000dac    ....    STR      w12,[x13,#0xc]
        0x40003428:    b9400dac    ..@.    LDR      w12,[x13,#0xc]
        0x4000342c:    121c6d8c    .m..    AND      w12,w12,#0xfffffff0
        0x40003430:    321f018c    ...2    ORR      w12,w12,#2
        0x40003434:    b9000dac    ....    STR      w12,[x13,#0xc]
        0x40003438:    b9400dac    ..@.    LDR      w12,[x13,#0xc]
        0x4000343c:    33101d6c    l..3    BFI      w12,w11,#16,#8
        0x40003440:    91004108    .A..    ADD      x8,x8,#0x10
        0x40003444:    f100811f    ....    CMP      x8,#0x20
        0x40003448:    b9000dac    ....    STR      w12,[x13,#0xc]
        0x4000344c:    54fffc81    ...T    B.NE     0x400033dc ; master_tx_dma_continuous + 108
        0x40003450:    52820197    ...R    MOV      w23,#0x100c
        0x40003454:    72bce617    ...r    MOVK     w23,#0xe730,LSL #16
        0x40003458:    b274cfe8    ..t.    ORR      x8,xzr,#0xfffffffffffff000
        0x4000345c:    b8686ae9    .jh.    LDR      w9,[x23,x8]
        0x40003460:    12027529    )u..    AND      w9,w9,#0xcfffffff
        0x40003464:    32040129    )..2    ORR      w9,w9,#0x10000000
        0x40003468:    b8286ae9    .j(.    STR      w9,[x23,x8]
        0x4000346c:    b8686ae9    .jh.    LDR      w9,[x23,x8]
        0x40003470:    32080d29    )..2    ORR      w9,w9,#0xf000000
        0x40003474:    b8286ae9    .j(.    STR      w9,[x23,x8]
        0x40003478:    b8686ae9    .jh.    LDR      w9,[x23,x8]
        0x4000347c:    320a0129    )..2    ORR      w9,w9,#0x400000
        0x40003480:    b8286ae9    .j(.    STR      w9,[x23,x8]
        0x40003484:    d13fc2e9    ..?.    SUB      x9,x23,#0xff0
        0x40003488:    b940012a    *.@.    LDR      w10,[x9,#0]
        0x4000348c:    320803eb    ...2    ORR      w11,wzr,#0x1000000
        0x40003490:    33005d4b    K].3    BFXIL    w11,w10,#0,#24
        0x40003494:    b900012b    +...    STR      w11,[x9,#0]
        0x40003498:    b940012a    *.@.    LDR      w10,[x9,#0]
        0x4000349c:    3211014a    J..2    ORR      w10,w10,#0x8000
        0x400034a0:    b900012a    *...    STR      w10,[x9,#0]
        0x400034a4:    b8686ae9    .jh.    LDR      w9,[x23,x8]
        0x400034a8:    321e0129    )..2    ORR      w9,w9,#4
        0x400034ac:    b8286ae9    .j(.    STR      w9,[x23,x8]
        0x400034b0:    52bcca16    ...R    MOV      w22,#0xe6500000
        0x400034b4:    b8686ae9    .jh.    LDR      w9,[x23,x8]
        0x400034b8:    32000129    )..2    ORR      w9,w9,#1
        0x400034bc:    b8286ae9    .j(.    STR      w9,[x23,x8]
        0x400034c0:    90000021    !...    ADRP     x1,{pc}+0x4000 ; 0x400074c0
        0x400034c4:    91108021    !...    ADD      x1,x1,#0x420
        0x400034c8:    52bcca00    ...R    MOV      w0,#0xe6500000
        0x400034cc:    97fff4e9    ....    BL       I2C_masterInit ; 0x40000870
        0x400034d0:    52bcca00    ...R    MOV      w0,#0xe6500000
        0x400034d4:    320003e1    ...2    ORR      w1,wzr,#1
        0x400034d8:    97fff60a    ....    BL       I2C_masterSetDMAContinuousTransferCount ; 0x40000d00
        0x400034dc:    528001b9    ...R    MOV      w25,#0xd
        0x400034e0:    52bcca00    ...R    MOV      w0,#0xe6500000
        0x400034e4:    528001a1    ...R    MOV      w1,#0xd
        0x400034e8:    97fff5fe    ....    BL       I2C_masterSetDMAContinuousReceiveBlockCount ; 0x40000ce0
        0x400034ec:    52bcca00    ...R    MOV      w0,#0xe6500000
        0x400034f0:    97fff4cc    ....    BL       I2C_masterEnableDMAContinuousReceive ; 0x40000820
        0x400034f4:    52bcca00    ...R    MOV      w0,#0xe6500000
        0x400034f8:    97fff4ce    ....    BL       I2C_masterEnableDMAReceive ; 0x40000830
        0x400034fc:    52bcca00    ...R    MOV      w0,#0xe6500000
        0x40003500:    12800001    ....    MOV      w1,#0xffffffff
        0x40003504:    97fff4ab    ....    BL       I2C_masterClearInterruptStatus ; 0x400007b0
        0x40003508:    52bcca00    ...R    MOV      w0,#0xe6500000
        0x4000350c:    12800001    ....    MOV      w1,#0xffffffff
        0x40003510:    97fff4d0    ....    BL       I2C_masterEnableInterrupt ; 0x40000850
        0x40003514:    52bcca00    ...R    MOV      w0,#0xe6500000
        0x40003518:    97fff4be    ....    BL       I2C_masterEnable ; 0x40000810
        0x4000351c:    11402268    h"@.    ADD      w8,w19,#8,LSL #12
        0x40003520:    b81f42e8    .B..    STUR     w8,[x23,#-0xc]
        0x40003524:    b94e2e88    ..N.    LDR      w8,[x20,#0xe2c]
        0x40003528:    52800698    ...R    MOV      w24,#0x34
        0x4000352c:    f0000029    )...    ADRP     x9,{pc}+0x7000 ; 0x4000a52c
        0x40003530:    9103f129    )...    ADD      x9,x9,#0xfc
        0x40003534:    1b182508    .%..    MADD     w8,w8,w24,w9
        0x40003538:    b81f82e8    ....    STUR     w8,[x23,#-8]
        0x4000353c:    b85fc2e8    .._.    LDUR     w8,[x23,#-4]
        0x40003540:    33005f28    (_.3    BFXIL    w8,w25,#0,#24
        0x40003544:    b81fc2e8    ....    STUR     w8,[x23,#-4]
        0x40003548:    b94002e8    ..@.    LDR      w8,[x23,#0]
        0x4000354c:    12107508    .u..    AND      w8,w8,#0xffff3fff
        0x40003550:    32120108    ...2    ORR      w8,w8,#0x4000
        0x40003554:    b90002e8    ....    STR      w8,[x23,#0]
        0x40003558:    b94002e8    ..@.    LDR      w8,[x23,#0]
        0x4000355c:    12127508    .u..    AND      w8,w8,#0xffffcfff
        0x40003560:    b90002e8    ....    STR      w8,[x23,#0]
        0x40003564:    b94002e8    ..@.    LDR      w8,[x23,#0]
        0x40003568:    12146d08    .m..    AND      w8,w8,#0xfffff0ff
        0x4000356c:    32150108    ...2    ORR      w8,w8,#0x800
        0x40003570:    b90002e8    ....    STR      w8,[x23,#0]
        0x40003574:    b94002e8    ..@.    LDR      w8,[x23,#0]
        0x40003578:    120a7508    .u..    AND      w8,w8,#0xffcfffff
        0x4000357c:    b90002e8    ....    STR      w8,[x23,#0]
        0x40003580:    b94002e8    ..@.    LDR      w8,[x23,#0]
        0x40003584:    121b7508    .u..    AND      w8,w8,#0xffffffe7
        0x40003588:    321c0108    ...2    ORR      w8,w8,#0x10
        0x4000358c:    b90002e8    ....    STR      w8,[x23,#0]
        0x40003590:    52820808    ...R    MOV      w8,#0x1040
        0x40003594:    72bce608    ...r    MOVK     w8,#0xe730,LSL #16
        0x40003598:    52801449    I..R    MOV      w9,#0xa2
        0x4000359c:    79000109    ...y    STRH     w9,[x8,#0]
        0x400035a0:    b94002e8    ..@.    LDR      w8,[x23,#0]
        0x400035a4:    321e0108    ...2    ORR      w8,w8,#4
        0x400035a8:    b90002e8    ....    STR      w8,[x23,#0]
        0x400035ac:    b94002e8    ..@.    LDR      w8,[x23,#0]
        0x400035b0:    32000108    ...2    ORR      w8,w8,#1
        0x400035b4:    b90002e8    ....    STR      w8,[x23,#0]
        0x400035b8:    914022d3    ."@.    ADD      x19,x22,#8,LSL #12
        0x400035bc:    90000021    !...    ADRP     x1,{pc}+0x4000 ; 0x400075bc
        0x400035c0:    9134f021    !.4.    ADD      x1,x1,#0xd3c
        0x400035c4:    aa1303e0    ....    MOV      x0,x19
        0x400035c8:    97fff606    ....    BL       I2C_slaveInit ; 0x40000de0
        0x400035cc:    12800001    ....    MOV      w1,#0xffffffff
        0x400035d0:    aa1303e0    ....    MOV      x0,x19
        0x400035d4:    97fff5df    ....    BL       I2C_slaveClearInterruptStatus ; 0x40000d50
        0x400035d8:    12800001    ....    MOV      w1,#0xffffffff
        0x400035dc:    aa1303e0    ....    MOV      x0,x19
        0x400035e0:    97fff5f8    ....    BL       I2C_slaveEnableInterrupt ; 0x40000dc0
        0x400035e4:    aa1303e0    ....    MOV      x0,x19
        0x400035e8:    97fff5ea    ....    BL       I2C_slaveEnable ; 0x40000d90
        0x400035ec:    97fff3fd    ....    BL       GIC_enable ; 0x400005e0
        0x400035f0:    d0ffffe1    ....    ADRP     x1,{pc}-0x2000 ; 0x400015f0
        0x400035f4:    911cc021    !...    ADD      x1,x1,#0x730
        0x400035f8:    528021c0    .!.R    MOV      w0,#0x10e
        0x400035fc:    97fff461    a...    BL       GIC_setInterruptHandler ; 0x40000780
        0x40003600:    d0ffffe1    ....    ADRP     x1,{pc}-0x2000 ; 0x40001600
        0x40003604:    913ec021    !.>.    ADD      x1,x1,#0xfb0
        0x40003608:    528021e0    .!.R    MOV      w0,#0x10f
        0x4000360c:    97fff45d    ]...    BL       GIC_setInterruptHandler ; 0x40000780
        0x40003610:    d0000001    ....    ADRP     x1,{pc}+0x2000 ; 0x40005610
        0x40003614:    910b8021    !...    ADD      x1,x1,#0x2e0
        0x40003618:    321a03e0    ...2    ORR      w0,wzr,#0x40
        0x4000361c:    97fff459    Y...    BL       GIC_setInterruptHandler ; 0x40000780
        0x40003620:    d0000001    ....    ADRP     x1,{pc}+0x2000 ; 0x40005620
        0x40003624:    91138021    !...    ADD      x1,x1,#0x4e0
        0x40003628:    52800820     ..R    MOV      w0,#0x41
        0x4000362c:    97fff455    U...    BL       GIC_setInterruptHandler ; 0x40000780
        0x40003630:    528021c0    .!.R    MOV      w0,#0x10e
        0x40003634:    97fff413    ....    BL       GIC_enableInterrupt ; 0x40000680
        0x40003638:    528021e0    .!.R    MOV      w0,#0x10f
        0x4000363c:    97fff411    ....    BL       GIC_enableInterrupt ; 0x40000680
        0x40003640:    321a03e0    ...2    ORR      w0,wzr,#0x40
        0x40003644:    97fff40f    ....    BL       GIC_enableInterrupt ; 0x40000680
        0x40003648:    52800820     ..R    MOV      w0,#0x41
        0x4000364c:    97fff40d    ....    BL       GIC_enableInterrupt ; 0x40000680
        0x40003650:    b94e2e88    ..N.    LDR      w8,[x20,#0xe2c]
        0x40003654:    9b187d08    .}..    MUL      x8,x8,x24
        0x40003658:    b8686aa1    .jh.    LDR      w1,[x21,x8]
        0x4000365c:    52bcca00    ...R    MOV      w0,#0xe6500000
        0x40003660:    97fff594    ....    BL       I2C_masterSendMultipleByteStart ; 0x40000cb0
        0x40003664:    d0000028    (...    ADRP     x8,{pc}+0x6000 ; 0x40009664
        0x40003668:    3979b109    ..y9    LDRB     w9,[x8,#0xe6c]
        0x4000366c:    34ffffe9    ...4    CBZ      w9,0x40003668 ; master_tx_dma_continuous + 760
        0x40003670:    52bcca00    ...R    MOV      w0,#0xe6500000
        0x40003674:    97fff453    S...    BL       I2C_masterDisable ; 0x400007c0
        0x40003678:    914022c0    ."@.    ADD      x0,x22,#8,LSL #12
        0x4000367c:    97fff5b9    ....    BL       I2C_slaveDisable ; 0x40000d60
        0x40003680:    aa1f03e8    ....    MOV      x8,xzr
        0x40003684:    90000029    )...    ADRP     x9,{pc}+0x4000 ; 0x40007684
        0x40003688:    91210129    ).!.    ADD      x9,x9,#0x840
        0x4000368c:    f000002a    *...    ADRP     x10,{pc}+0x7000 ; 0x4000a68c
        0x40003690:    9103f14a    J...    ADD      x10,x10,#0xfc
        0x40003694:    aa1f03eb    ....    MOV      x11,xzr
        0x40003698:    d37ef56c    l.~.    LSL      x12,x11,#2
        0x4000369c:    b86c694d    Mil.    LDR      w13,[x10,x12]
        0x400036a0:    b86c692c    ,il.    LDR      w12,[x9,x12]
        0x400036a4:    6b0c01bf    ...k    CMP      w13,w12
        0x400036a8:    54000161    a..T    B.NE     0x400036d4 ; master_tx_dma_continuous + 868
        0x400036ac:    9100056b    k...    ADD      x11,x11,#1
        0x400036b0:    7100317f    .1.q    CMP      w11,#0xc
        0x400036b4:    54ffff29    )..T    B.LS     0x40003698 ; master_tx_dma_continuous + 808
        0x400036b8:    91000508    ....    ADD      x8,x8,#1
        0x400036bc:    9100d129    )...    ADD      x9,x9,#0x34
        0x400036c0:    9100d14a    J...    ADD      x10,x10,#0x34
        0x400036c4:    f100091f    ....    CMP      x8,#2
        0x400036c8:    54fffe63    c..T    B.CC     0x40003694 ; master_tx_dma_continuous + 804
        0x400036cc:    2a1f03e0    ...*    MOV      w0,wzr
        0x400036d0:    14000002    ....    B        0x400036d8 ; master_tx_dma_continuous + 872
        0x400036d4:    320003e0    ...2    ORR      w0,wzr,#1
        0x400036d8:    a9437bf3    .{C.    LDP      x19,x30,[sp,#0x30]
        0x400036dc:    a94253f5    .SB.    LDP      x21,x20,[sp,#0x20]
        0x400036e0:    a9415bf7    .[A.    LDP      x23,x22,[sp,#0x10]
        0x400036e4:    a8c463f9    .c..    LDP      x25,x24,[sp],#0x40
        0x400036e8:    d65f03c0    .._.    RET      
        0x400036ec:    00000000    ....    DCI      0x00000000 ; ? Undefined
    master_tx_fsb
        0x400036f0:    a9bf7bf3    .{..    STP      x19,x30,[sp,#-0x10]!
        0x400036f4:    90000021    !...    ADRP     x1,{pc}+0x4000 ; 0x400076f4
        0x400036f8:    91126021    !`..    ADD      x1,x1,#0x498
        0x400036fc:    52bcca13    ...R    MOV      w19,#0xe6500000
        0x40003700:    52bcca00    ...R    MOV      w0,#0xe6500000
        0x40003704:    97fff45b    [...    BL       I2C_masterInit ; 0x40000870
        0x40003708:    52bcca00    ...R    MOV      w0,#0xe6500000
        0x4000370c:    12800001    ....    MOV      w1,#0xffffffff
        0x40003710:    97fff428    (...    BL       I2C_masterClearInterruptStatus ; 0x400007b0
        0x40003714:    52bcca00    ...R    MOV      w0,#0xe6500000
        0x40003718:    12800001    ....    MOV      w1,#0xffffffff
        0x4000371c:    97fff44d    M...    BL       I2C_masterEnableInterrupt ; 0x40000850
        0x40003720:    52bcca00    ...R    MOV      w0,#0xe6500000
        0x40003724:    97fff43b    ;...    BL       I2C_masterEnable ; 0x40000810
        0x40003728:    91402273    s"@.    ADD      x19,x19,#8,LSL #12
        0x4000372c:    90000021    !...    ADRP     x1,{pc}+0x4000 ; 0x4000772c
        0x40003730:    9136d021    !.6.    ADD      x1,x1,#0xdb4
        0x40003734:    aa1303e0    ....    MOV      x0,x19
        0x40003738:    97fff5aa    ....    BL       I2C_slaveInit ; 0x40000de0
        0x4000373c:    12800001    ....    MOV      w1,#0xffffffff
        0x40003740:    aa1303e0    ....    MOV      x0,x19
        0x40003744:    97fff583    ....    BL       I2C_slaveClearInterruptStatus ; 0x40000d50
        0x40003748:    12800001    ....    MOV      w1,#0xffffffff
        0x4000374c:    aa1303e0    ....    MOV      x0,x19
        0x40003750:    97fff59c    ....    BL       I2C_slaveEnableInterrupt ; 0x40000dc0
        0x40003754:    aa1303e0    ....    MOV      x0,x19
        0x40003758:    97fff58e    ....    BL       I2C_slaveEnable ; 0x40000d90
        0x4000375c:    97fff3a1    ....    BL       GIC_enable ; 0x400005e0
        0x40003760:    d0ffffe1    ....    ADRP     x1,{pc}-0x2000 ; 0x40001760
        0x40003764:    9126c021    !.&.    ADD      x1,x1,#0x9b0
        0x40003768:    528021c0    .!.R    MOV      w0,#0x10e
        0x4000376c:    97fff405    ....    BL       GIC_setInterruptHandler ; 0x40000780
        0x40003770:    f0ffffe1    ....    ADRP     x1,{pc}-0x1000 ; 0x40002770
        0x40003774:    9106c021    !...    ADD      x1,x1,#0x1b0
        0x40003778:    528021e0    .!.R    MOV      w0,#0x10f
        0x4000377c:    97fff401    ....    BL       GIC_setInterruptHandler ; 0x40000780
        0x40003780:    528021c0    .!.R    MOV      w0,#0x10e
        0x40003784:    97fff3bf    ....    BL       GIC_enableInterrupt ; 0x40000680
        0x40003788:    528021e0    .!.R    MOV      w0,#0x10f
        0x4000378c:    97fff3bd    ....    BL       GIC_enableInterrupt ; 0x40000680
        0x40003790:    f0000028    (...    ADRP     x8,{pc}+0x7000 ; 0x4000a790
        0x40003794:    b9496509    .eI.    LDR      w9,[x8,#0x964]
        0x40003798:    1100052a    *...    ADD      w10,w9,#1
        0x4000379c:    90000033    3...    ADRP     x19,{pc}+0x4000 ; 0x4000779c
        0x400037a0:    9126b273    s.&.    ADD      x19,x19,#0x9ac
        0x400037a4:    b909650a    .e..    STR      w10,[x8,#0x964]
        0x400037a8:    b8697a61    azi.    LDR      w1,[x19,x9,LSL #2]
        0x400037ac:    52bcca00    ...R    MOV      w0,#0xe6500000
        0x400037b0:    97fff540    @...    BL       I2C_masterSendMultipleByteStart ; 0x40000cb0
        0x400037b4:    d0000028    (...    ADRP     x8,{pc}+0x6000 ; 0x400097b4
        0x400037b8:    3979f109    ..y9    LDRB     w9,[x8,#0xe7c]
        0x400037bc:    34ffffe9    ...4    CBZ      w9,0x400037b8 ; master_tx_fsb + 200
        0x400037c0:    aa1f03e8    ....    MOV      x8,xzr
        0x400037c4:    f0000029    )...    ADRP     x9,{pc}+0x7000 ; 0x4000a7c4
        0x400037c8:    9109a129    )...    ADD      x9,x9,#0x268
        0x400037cc:    d37ef50a    ..~.    LSL      x10,x8,#2
        0x400037d0:    b86a692b    +ij.    LDR      w11,[x9,x10]
        0x400037d4:    b86a6a6a    jjj.    LDR      w10,[x19,x10]
        0x400037d8:    6b0a017f    ...k    CMP      w11,w10
        0x400037dc:    540000e1    ...T    B.NE     0x400037f8 ; master_tx_fsb + 264
        0x400037e0:    91000508    ....    ADD      x8,x8,#1
        0x400037e4:    7100311f    .1.q    CMP      w8,#0xc
        0x400037e8:    54ffff29    )..T    B.LS     0x400037cc ; master_tx_fsb + 220
        0x400037ec:    2a1f03e0    ...*    MOV      w0,wzr
        0x400037f0:    a8c17bf3    .{..    LDP      x19,x30,[sp],#0x10
        0x400037f4:    d65f03c0    .._.    RET      
        0x400037f8:    320003e0    ...2    ORR      w0,wzr,#1
        0x400037fc:    a8c17bf3    .{..    LDP      x19,x30,[sp],#0x10
        0x40003800:    d65f03c0    .._.    RET      
        0x40003804:    00000000    ....    DCI      0x00000000 ; ? Undefined
        0x40003808:    00000000    ....    DCI      0x00000000 ; ? Undefined
        0x4000380c:    00000000    ....    DCI      0x00000000 ; ? Undefined
    master_tx_rpt_master_rx
        0x40003810:    a9bf7bf3    .{..    STP      x19,x30,[sp,#-0x10]!
        0x40003814:    90000021    !...    ADRP     x1,{pc}+0x4000 ; 0x40007814
        0x40003818:    91120021    !...    ADD      x1,x1,#0x480
        0x4000381c:    52bcca13    ...R    MOV      w19,#0xe6500000
        0x40003820:    52bcca00    ...R    MOV      w0,#0xe6500000
        0x40003824:    97fff413    ....    BL       I2C_masterInit ; 0x40000870
        0x40003828:    52bcca00    ...R    MOV      w0,#0xe6500000
        0x4000382c:    12800001    ....    MOV      w1,#0xffffffff
        0x40003830:    97fff3e0    ....    BL       I2C_masterClearInterruptStatus ; 0x400007b0
        0x40003834:    52bcca00    ...R    MOV      w0,#0xe6500000
        0x40003838:    12800001    ....    MOV      w1,#0xffffffff
        0x4000383c:    97fff405    ....    BL       I2C_masterEnableInterrupt ; 0x40000850
        0x40003840:    52bcca00    ...R    MOV      w0,#0xe6500000
        0x40003844:    97fff3f3    ....    BL       I2C_masterEnable ; 0x40000810
        0x40003848:    91402273    s"@.    ADD      x19,x19,#8,LSL #12
        0x4000384c:    90000021    !...    ADRP     x1,{pc}+0x4000 ; 0x4000784c
        0x40003850:    91367021    !p6.    ADD      x1,x1,#0xd9c
        0x40003854:    aa1303e0    ....    MOV      x0,x19
        0x40003858:    97fff562    b...    BL       I2C_slaveInit ; 0x40000de0
        0x4000385c:    12800001    ....    MOV      w1,#0xffffffff
        0x40003860:    aa1303e0    ....    MOV      x0,x19
        0x40003864:    97fff53b    ;...    BL       I2C_slaveClearInterruptStatus ; 0x40000d50
        0x40003868:    12800001    ....    MOV      w1,#0xffffffff
        0x4000386c:    aa1303e0    ....    MOV      x0,x19
        0x40003870:    97fff554    T...    BL       I2C_slaveEnableInterrupt ; 0x40000dc0
        0x40003874:    aa1303e0    ....    MOV      x0,x19
        0x40003878:    97fff546    F...    BL       I2C_slaveEnable ; 0x40000d90
        0x4000387c:    97fff359    Y...    BL       GIC_enable ; 0x400005e0
        0x40003880:    d0ffffe1    ....    ADRP     x1,{pc}-0x2000 ; 0x40001880
        0x40003884:    91238021    !.#.    ADD      x1,x1,#0x8e0
        0x40003888:    528021c0    .!.R    MOV      w0,#0x10e
        0x4000388c:    97fff3bd    ....    BL       GIC_setInterruptHandler ; 0x40000780
        0x40003890:    f0ffffe1    ....    ADRP     x1,{pc}-0x1000 ; 0x40002890
        0x40003894:    91040021    !...    ADD      x1,x1,#0x100
        0x40003898:    528021e0    .!.R    MOV      w0,#0x10f
        0x4000389c:    97fff3b9    ....    BL       GIC_setInterruptHandler ; 0x40000780
        0x400038a0:    528021c0    .!.R    MOV      w0,#0x10e
        0x400038a4:    97fff377    w...    BL       GIC_enableInterrupt ; 0x40000680
        0x400038a8:    528021e0    .!.R    MOV      w0,#0x10f
        0x400038ac:    97fff375    u...    BL       GIC_enableInterrupt ; 0x40000680
        0x400038b0:    f0000028    (...    ADRP     x8,{pc}+0x7000 ; 0x4000a8b0
        0x400038b4:    b9496109    .aI.    LDR      w9,[x8,#0x960]
        0x400038b8:    1100052a    *...    ADD      w10,w9,#1
        0x400038bc:    90000033    3...    ADRP     x19,{pc}+0x4000 ; 0x400078bc
        0x400038c0:    9125e273    s.%.    ADD      x19,x19,#0x978
        0x400038c4:    b909610a    .a..    STR      w10,[x8,#0x960]
        0x400038c8:    b8697a61    azi.    LDR      w1,[x19,x9,LSL #2]
        0x400038cc:    52bcca00    ...R    MOV      w0,#0xe6500000
        0x400038d0:    97fff4f8    ....    BL       I2C_masterSendMultipleByteStart ; 0x40000cb0
        0x400038d4:    d0000028    (...    ADRP     x8,{pc}+0x6000 ; 0x400098d4
        0x400038d8:    3979e109    ..y9    LDRB     w9,[x8,#0xe78]
        0x400038dc:    34ffffe9    ...4    CBZ      w9,0x400038d8 ; master_tx_rpt_master_rx + 200
        0x400038e0:    aa1f03e8    ....    MOV      x8,xzr
        0x400038e4:    f0000029    )...    ADRP     x9,{pc}+0x7000 ; 0x4000a8e4
        0x400038e8:    9108d129    )...    ADD      x9,x9,#0x234
        0x400038ec:    d37ef50a    ..~.    LSL      x10,x8,#2
        0x400038f0:    b86a692b    +ij.    LDR      w11,[x9,x10]
        0x400038f4:    b86a6a6a    jjj.    LDR      w10,[x19,x10]
        0x400038f8:    6b0a017f    ...k    CMP      w11,w10
        0x400038fc:    540000e1    ...T    B.NE     0x40003918 ; master_tx_rpt_master_rx + 264
        0x40003900:    91000508    ....    ADD      x8,x8,#1
        0x40003904:    7100311f    .1.q    CMP      w8,#0xc
        0x40003908:    54ffff29    )..T    B.LS     0x400038ec ; master_tx_rpt_master_rx + 220
        0x4000390c:    2a1f03e0    ...*    MOV      w0,wzr
        0x40003910:    a8c17bf3    .{..    LDP      x19,x30,[sp],#0x10
        0x40003914:    d65f03c0    .._.    RET      
        0x40003918:    320003e0    ...2    ORR      w0,wzr,#1
        0x4000391c:    a8c17bf3    .{..    LDP      x19,x30,[sp],#0x10
        0x40003920:    d65f03c0    .._.    RET      
        0x40003924:    00000000    ....    DCI      0x00000000 ; ? Undefined
        0x40003928:    00000000    ....    DCI      0x00000000 ; ? Undefined
        0x4000392c:    00000000    ....    DCI      0x00000000 ; ? Undefined
    mstp_check
        0x40003930:    d10243ff    .C..    SUB      sp,sp,#0x90
        0x40003934:    a9036ffc    .o..    STP      x28,x27,[sp,#0x30]
        0x40003938:    a90467fa    .g..    STP      x26,x25,[sp,#0x40]
        0x4000393c:    a9055ff8    ._..    STP      x24,x23,[sp,#0x50]
        0x40003940:    a90657f6    .W..    STP      x22,x21,[sp,#0x60]
        0x40003944:    a9074ff4    .O..    STP      x20,x19,[sp,#0x70]
        0x40003948:    a9087bfd    .{..    STP      x29,x30,[sp,#0x80]
        0x4000394c:    52bcca17    ...R    MOV      w23,#0xe6500000
        0x40003950:    5285a293    ...R    MOV      w19,#0x2d14
        0x40003954:    72bcc2b3    ...r    MOVK     w19,#0xe615,LSL #16
        0x40003958:    52bcca02    ...R    MOV      w2,#0xe6500000
        0x4000395c:    2a1f03e0    ...*    MOV      w0,wzr
        0x40003960:    2a1f03e1    ...*    MOV      w1,wzr
        0x40003964:    97fff6b3    ....    BL       checkReg ; 0x40001430
        0x40003968:    910012e2    ....    ADD      x2,x23,#4
        0x4000396c:    320003e1    ...2    ORR      w1,wzr,#1
        0x40003970:    2a1f03e0    ...*    MOV      w0,wzr
        0x40003974:    97fff6af    ....    BL       checkReg ; 0x40001430
        0x40003978:    910022e2    ."..    ADD      x2,x23,#8
        0x4000397c:    321f03e1    ...2    ORR      w1,wzr,#2
        0x40003980:    2a1f03e0    ...*    MOV      w0,wzr
        0x40003984:    97fff6ab    ....    BL       checkReg ; 0x40001430
        0x40003988:    910032e2    .2..    ADD      x2,x23,#0xc
        0x4000398c:    320007e1    ...2    ORR      w1,wzr,#3
        0x40003990:    2a1f03e0    ...*    MOV      w0,wzr
        0x40003994:    97fff6a7    ....    BL       checkReg ; 0x40001430
        0x40003998:    910042e2    .B..    ADD      x2,x23,#0x10
        0x4000399c:    321e03e1    ...2    ORR      w1,wzr,#4
        0x400039a0:    2a1f03e0    ...*    MOV      w0,wzr
        0x400039a4:    97fff6a3    ....    BL       checkReg ; 0x40001430
        0x400039a8:    910052e2    .R..    ADD      x2,x23,#0x14
        0x400039ac:    528000a1    ...R    MOV      w1,#5
        0x400039b0:    2a1f03e0    ...*    MOV      w0,wzr
        0x400039b4:    97fff69f    ....    BL       checkReg ; 0x40001430
        0x400039b8:    910062e2    .b..    ADD      x2,x23,#0x18
        0x400039bc:    321f07e1    ...2    ORR      w1,wzr,#6
        0x400039c0:    2a1f03e0    ...*    MOV      w0,wzr
        0x400039c4:    97fff69b    ....    BL       checkReg ; 0x40001430
        0x400039c8:    910072e2    .r..    ADD      x2,x23,#0x1c
        0x400039cc:    32000be1    ...2    ORR      w1,wzr,#7
        0x400039d0:    2a1f03e0    ...*    MOV      w0,wzr
        0x400039d4:    97fff697    ....    BL       checkReg ; 0x40001430
        0x400039d8:    910082e2    ....    ADD      x2,x23,#0x20
        0x400039dc:    321d03e1    ...2    ORR      w1,wzr,#8
        0x400039e0:    2a1f03e0    ...*    MOV      w0,wzr
        0x400039e4:    97fff693    ....    BL       checkReg ; 0x40001430
        0x400039e8:    910092e2    ....    ADD      x2,x23,#0x24
        0x400039ec:    52800121    !..R    MOV      w1,#9
        0x400039f0:    2a1f03e0    ...*    MOV      w0,wzr
        0x400039f4:    97fff68f    ....    BL       checkReg ; 0x40001430
        0x400039f8:    9100a2e2    ....    ADD      x2,x23,#0x28
        0x400039fc:    52800141    A..R    MOV      w1,#0xa
        0x40003a00:    2a1f03e0    ...*    MOV      w0,wzr
        0x40003a04:    97fff68b    ....    BL       checkReg ; 0x40001430
        0x40003a08:    9100b2e2    ....    ADD      x2,x23,#0x2c
        0x40003a0c:    52800161    a..R    MOV      w1,#0xb
        0x40003a10:    2a1f03e0    ...*    MOV      w0,wzr
        0x40003a14:    97fff687    ....    BL       checkReg ; 0x40001430
        0x40003a18:    9100c2e2    ....    ADD      x2,x23,#0x30
        0x40003a1c:    321e07e1    ...2    ORR      w1,wzr,#0xc
        0x40003a20:    2a1f03e0    ...*    MOV      w0,wzr
        0x40003a24:    97fff683    ....    BL       checkReg ; 0x40001430
        0x40003a28:    9100d2e2    ....    ADD      x2,x23,#0x34
        0x40003a2c:    528001a1    ...R    MOV      w1,#0xd
        0x40003a30:    2a1f03e0    ...*    MOV      w0,wzr
        0x40003a34:    97fff67f    ....    BL       checkReg ; 0x40001430
        0x40003a38:    9100e2e2    ....    ADD      x2,x23,#0x38
        0x40003a3c:    321f0be1    ...2    ORR      w1,wzr,#0xe
        0x40003a40:    2a1f03e0    ...*    MOV      w0,wzr
        0x40003a44:    97fff67b    {...    BL       checkReg ; 0x40001430
        0x40003a48:    9100f2e2    ....    ADD      x2,x23,#0x3c
        0x40003a4c:    32000fe1    ...2    ORR      w1,wzr,#0xf
        0x40003a50:    2a1f03e0    ...*    MOV      w0,wzr
        0x40003a54:    97fff677    w...    BL       checkReg ; 0x40001430
        0x40003a58:    12800008    ....    MOV      w8,#0xffffffff
        0x40003a5c:    b90002e8    ....    STR      w8,[x23,#0]
        0x40003a60:    b90006e8    ....    STR      w8,[x23,#4]
        0x40003a64:    b9000ae8    ....    STR      w8,[x23,#8]
        0x40003a68:    b9000ee8    ....    STR      w8,[x23,#0xc]
        0x40003a6c:    b90012e8    ....    STR      w8,[x23,#0x10]
        0x40003a70:    b90016e8    ....    STR      w8,[x23,#0x14]
        0x40003a74:    b9001ae8    ....    STR      w8,[x23,#0x18]
        0x40003a78:    b9001ee8    ....    STR      w8,[x23,#0x1c]
        0x40003a7c:    b90022e8    ."..    STR      w8,[x23,#0x20]
        0x40003a80:    b90026e8    .&..    STR      w8,[x23,#0x24]
        0x40003a84:    b9002ae8    .*..    STR      w8,[x23,#0x28]
        0x40003a88:    b9002ee8    ....    STR      w8,[x23,#0x2c]
        0x40003a8c:    b90032e8    .2..    STR      w8,[x23,#0x30]
        0x40003a90:    b90036e8    .6..    STR      w8,[x23,#0x34]
        0x40003a94:    b9003ae8    .:..    STR      w8,[x23,#0x38]
        0x40003a98:    b9003ee8    .>..    STR      w8,[x23,#0x3c]
        0x40003a9c:    5285a280    ...R    MOV      w0,#0x2d14
        0x40003aa0:    72bcc2a0    ...r    MOVK     w0,#0xe615,LSL #16
        0x40003aa4:    52800241    A..R    MOV      w1,#0x12
        0x40003aa8:    97fff2b2    ....    BL       CPG_SetBit ; 0x40000570
        0x40003aac:    b9410268    h.A.    LDR      w8,[x19,#0x100]
        0x40003ab0:    3697ffe8    ...6    TBZ      w8,#18,0x40003aac ; mstp_check + 380
        0x40003ab4:    320003e0    ...2    ORR      w0,wzr,#1
        0x40003ab8:    52bcca02    ...R    MOV      w2,#0xe6500000
        0x40003abc:    2a1f03e1    ...*    MOV      w1,wzr
        0x40003ac0:    97fff65c    \...    BL       checkReg ; 0x40001430
        0x40003ac4:    910012e2    ....    ADD      x2,x23,#4
        0x40003ac8:    320003e0    ...2    ORR      w0,wzr,#1
        0x40003acc:    320003e1    ...2    ORR      w1,wzr,#1
        0x40003ad0:    97fff658    X...    BL       checkReg ; 0x40001430
        0x40003ad4:    910022e2    ."..    ADD      x2,x23,#8
        0x40003ad8:    320003e0    ...2    ORR      w0,wzr,#1
        0x40003adc:    321f03e1    ...2    ORR      w1,wzr,#2
        0x40003ae0:    97fff654    T...    BL       checkReg ; 0x40001430
        0x40003ae4:    910032e2    .2..    ADD      x2,x23,#0xc
        0x40003ae8:    320003e0    ...2    ORR      w0,wzr,#1
        0x40003aec:    320007e1    ...2    ORR      w1,wzr,#3
        0x40003af0:    97fff650    P...    BL       checkReg ; 0x40001430
        0x40003af4:    910042e2    .B..    ADD      x2,x23,#0x10
        0x40003af8:    320003e0    ...2    ORR      w0,wzr,#1
        0x40003afc:    321e03e1    ...2    ORR      w1,wzr,#4
        0x40003b00:    97fff64c    L...    BL       checkReg ; 0x40001430
        0x40003b04:    910052e2    .R..    ADD      x2,x23,#0x14
        0x40003b08:    320003e0    ...2    ORR      w0,wzr,#1
        0x40003b0c:    528000a1    ...R    MOV      w1,#5
        0x40003b10:    97fff648    H...    BL       checkReg ; 0x40001430
        0x40003b14:    910062e2    .b..    ADD      x2,x23,#0x18
        0x40003b18:    320003e0    ...2    ORR      w0,wzr,#1
        0x40003b1c:    321f07e1    ...2    ORR      w1,wzr,#6
        0x40003b20:    97fff644    D...    BL       checkReg ; 0x40001430
        0x40003b24:    910072e2    .r..    ADD      x2,x23,#0x1c
        0x40003b28:    320003e0    ...2    ORR      w0,wzr,#1
        0x40003b2c:    32000be1    ...2    ORR      w1,wzr,#7
        0x40003b30:    97fff640    @...    BL       checkReg ; 0x40001430
        0x40003b34:    910082e2    ....    ADD      x2,x23,#0x20
        0x40003b38:    320003e0    ...2    ORR      w0,wzr,#1
        0x40003b3c:    321d03e1    ...2    ORR      w1,wzr,#8
        0x40003b40:    97fff63c    <...    BL       checkReg ; 0x40001430
        0x40003b44:    910092e2    ....    ADD      x2,x23,#0x24
        0x40003b48:    320003e0    ...2    ORR      w0,wzr,#1
        0x40003b4c:    52800121    !..R    MOV      w1,#9
        0x40003b50:    97fff638    8...    BL       checkReg ; 0x40001430
        0x40003b54:    9100a2e2    ....    ADD      x2,x23,#0x28
        0x40003b58:    320003e0    ...2    ORR      w0,wzr,#1
        0x40003b5c:    52800141    A..R    MOV      w1,#0xa
        0x40003b60:    97fff634    4...    BL       checkReg ; 0x40001430
        0x40003b64:    9100b2e2    ....    ADD      x2,x23,#0x2c
        0x40003b68:    320003e0    ...2    ORR      w0,wzr,#1
        0x40003b6c:    52800161    a..R    MOV      w1,#0xb
        0x40003b70:    97fff630    0...    BL       checkReg ; 0x40001430
        0x40003b74:    9100c2e2    ....    ADD      x2,x23,#0x30
        0x40003b78:    320003e0    ...2    ORR      w0,wzr,#1
        0x40003b7c:    321e07e1    ...2    ORR      w1,wzr,#0xc
        0x40003b80:    97fff62c    ,...    BL       checkReg ; 0x40001430
        0x40003b84:    9100d2e2    ....    ADD      x2,x23,#0x34
        0x40003b88:    320003e0    ...2    ORR      w0,wzr,#1
        0x40003b8c:    528001a1    ...R    MOV      w1,#0xd
        0x40003b90:    97fff628    (...    BL       checkReg ; 0x40001430
        0x40003b94:    9100e2e2    ....    ADD      x2,x23,#0x38
        0x40003b98:    320003e0    ...2    ORR      w0,wzr,#1
        0x40003b9c:    321f0be1    ...2    ORR      w1,wzr,#0xe
        0x40003ba0:    97fff624    $...    BL       checkReg ; 0x40001430
        0x40003ba4:    9100f2e2    ....    ADD      x2,x23,#0x3c
        0x40003ba8:    320003e0    ...2    ORR      w0,wzr,#1
        0x40003bac:    32000fe1    ...2    ORR      w1,wzr,#0xf
        0x40003bb0:    97fff620     ...    BL       checkReg ; 0x40001430
        0x40003bb4:    5285a280    ...R    MOV      w0,#0x2d14
        0x40003bb8:    72bcc2a0    ...r    MOVK     w0,#0xe615,LSL #16
        0x40003bbc:    52800241    A..R    MOV      w1,#0x12
        0x40003bc0:    97fff260    `...    BL       CPG_ClearBit ; 0x40000540
        0x40003bc4:    b9410268    h.A.    LDR      w8,[x19,#0x100]
        0x40003bc8:    3797ffe8    ...7    TBNZ     w8,#18,0x40003bc4 ; mstp_check + 660
        0x40003bcc:    f0000038    8...    ADRP     x24,{pc}+0x7000 ; 0x4000abcc
        0x40003bd0:    911d2318    .#..    ADD      x24,x24,#0x748
        0x40003bd4:    b94002e8    ..@.    LDR      w8,[x23,#0]
        0x40003bd8:    b9010308    ....    STR      w8,[x24,#0x100]
        0x40003bdc:    52bcca16    ...R    MOV      w22,#0xe6500000
        0x40003be0:    b8404ec8    .N@.    LDR      w8,[x22,#4]!
        0x40003be4:    b9010b08    ....    STR      w8,[x24,#0x108]
        0x40003be8:    52bcca15    ...R    MOV      w21,#0xe6500000
        0x40003bec:    b8408ea8    ..@.    LDR      w8,[x21,#8]!
        0x40003bf0:    b9011308    ....    STR      w8,[x24,#0x110]
        0x40003bf4:    52bcca14    ...R    MOV      w20,#0xe6500000
        0x40003bf8:    b840ce88    ..@.    LDR      w8,[x20,#0xc]!
        0x40003bfc:    b9011b08    ....    STR      w8,[x24,#0x118]
        0x40003c00:    52bcca13    ...R    MOV      w19,#0xe6500000
        0x40003c04:    b8410e68    h.A.    LDR      w8,[x19,#0x10]!
        0x40003c08:    b9012308    .#..    STR      w8,[x24,#0x120]
        0x40003c0c:    52bcca1d    ...R    MOV      w29,#0xe6500000
        0x40003c10:    b8414fa8    .OA.    LDR      w8,[x29,#0x14]!
        0x40003c14:    b9012b08    .+..    STR      w8,[x24,#0x128]
        0x40003c18:    52bcca1c    ...R    MOV      w28,#0xe6500000
        0x40003c1c:    b8418f88    ..A.    LDR      w8,[x28,#0x18]!
        0x40003c20:    b9013308    .3..    STR      w8,[x24,#0x130]
        0x40003c24:    52bcca1b    ...R    MOV      w27,#0xe6500000
        0x40003c28:    b841cf68    h.A.    LDR      w8,[x27,#0x1c]!
        0x40003c2c:    b9013b08    .;..    STR      w8,[x24,#0x138]
        0x40003c30:    52bcca1a    ...R    MOV      w26,#0xe6500000
        0x40003c34:    b8420f48    H.B.    LDR      w8,[x26,#0x20]!
        0x40003c38:    b9014308    .C..    STR      w8,[x24,#0x140]
        0x40003c3c:    52bcca19    ...R    MOV      w25,#0xe6500000
        0x40003c40:    b8424f28    (OB.    LDR      w8,[x25,#0x24]!
        0x40003c44:    b9014b08    .K..    STR      w8,[x24,#0x148]
        0x40003c48:    52bcca09    ...R    MOV      w9,#0xe6500000
        0x40003c4c:    b8428d28    (.B.    LDR      w8,[x9,#0x28]!
        0x40003c50:    aa0903ee    ....    MOV      x14,x9
        0x40003c54:    b9015308    .S..    STR      w8,[x24,#0x150]
        0x40003c58:    52bcca09    ...R    MOV      w9,#0xe6500000
        0x40003c5c:    b842cd28    (.B.    LDR      w8,[x9,#0x2c]!
        0x40003c60:    aa0903ed    ....    MOV      x13,x9
        0x40003c64:    b9015b08    .[..    STR      w8,[x24,#0x158]
        0x40003c68:    52bcca09    ...R    MOV      w9,#0xe6500000
        0x40003c6c:    b8430d28    (.C.    LDR      w8,[x9,#0x30]!
        0x40003c70:    aa0903ec    ....    MOV      x12,x9
        0x40003c74:    b9016308    .c..    STR      w8,[x24,#0x160]
        0x40003c78:    52bcca09    ...R    MOV      w9,#0xe6500000
        0x40003c7c:    b8434d28    (MC.    LDR      w8,[x9,#0x34]!
        0x40003c80:    aa0903eb    ....    MOV      x11,x9
        0x40003c84:    b9016b08    .k..    STR      w8,[x24,#0x168]
        0x40003c88:    52bcca09    ...R    MOV      w9,#0xe6500000
        0x40003c8c:    b8438d28    (.C.    LDR      w8,[x9,#0x38]!
        0x40003c90:    aa0903ea    ....    MOV      x10,x9
        0x40003c94:    b9017308    .s..    STR      w8,[x24,#0x170]
        0x40003c98:    52bcca09    ...R    MOV      w9,#0xe6500000
        0x40003c9c:    b843cd28    (.C.    LDR      w8,[x9,#0x3c]!
        0x40003ca0:    b9017b08    .{..    STR      w8,[x24,#0x178]
        0x40003ca4:    b90002ff    ....    STR      wzr,[x23,#0]
        0x40003ca8:    b90002df    ....    STR      wzr,[x22,#0]
        0x40003cac:    b90002bf    ....    STR      wzr,[x21,#0]
        0x40003cb0:    b900029f    ....    STR      wzr,[x20,#0]
        0x40003cb4:    b900027f    ....    STR      wzr,[x19,#0]
        0x40003cb8:    b90003bf    ....    STR      wzr,[x29,#0]
        0x40003cbc:    b900039f    ....    STR      wzr,[x28,#0]
        0x40003cc0:    b900037f    ....    STR      wzr,[x27,#0]
        0x40003cc4:    b900035f    _...    STR      wzr,[x26,#0]
        0x40003cc8:    b900033f    ?...    STR      wzr,[x25,#0]
        0x40003ccc:    b90001df    ....    STR      wzr,[x14,#0]
        0x40003cd0:    b90001bf    ....    STR      wzr,[x13,#0]
        0x40003cd4:    a900b3ed    ....    STP      x13,x12,[sp,#8]
        0x40003cd8:    b900019f    ....    STR      wzr,[x12,#0]
        0x40003cdc:    b900017f    ....    STR      wzr,[x11,#0]
        0x40003ce0:    a901abeb    ....    STP      x11,x10,[sp,#0x18]
        0x40003ce4:    b900015f    _...    STR      wzr,[x10,#0]
        0x40003ce8:    b900013f    ?...    STR      wzr,[x9,#0]
        0x40003cec:    f90017e9    ....    STR      x9,[sp,#0x28]
        0x40003cf0:    b94002e8    ..@.    LDR      w8,[x23,#0]
        0x40003cf4:    b9010708    ....    STR      w8,[x24,#0x104]
        0x40003cf8:    b94002c8    ..@.    LDR      w8,[x22,#0]
        0x40003cfc:    b9010f08    ....    STR      w8,[x24,#0x10c]
        0x40003d00:    b94002a8    ..@.    LDR      w8,[x21,#0]
        0x40003d04:    b9011708    ....    STR      w8,[x24,#0x114]
        0x40003d08:    b9400288    ..@.    LDR      w8,[x20,#0]
        0x40003d0c:    b9011f08    ....    STR      w8,[x24,#0x11c]
        0x40003d10:    b9400268    h.@.    LDR      w8,[x19,#0]
        0x40003d14:    b9012708    .'..    STR      w8,[x24,#0x124]
        0x40003d18:    b94003a8    ..@.    LDR      w8,[x29,#0]
        0x40003d1c:    b9012f08    ./..    STR      w8,[x24,#0x12c]
        0x40003d20:    b9400388    ..@.    LDR      w8,[x28,#0]
        0x40003d24:    b9013708    .7..    STR      w8,[x24,#0x134]
        0x40003d28:    b9400368    h.@.    LDR      w8,[x27,#0]
        0x40003d2c:    b9013f08    .?..    STR      w8,[x24,#0x13c]
        0x40003d30:    b9400348    H.@.    LDR      w8,[x26,#0]
        0x40003d34:    b9014708    .G..    STR      w8,[x24,#0x144]
        0x40003d38:    b9400328    (.@.    LDR      w8,[x25,#0]
        0x40003d3c:    b9014f08    .O..    STR      w8,[x24,#0x14c]
        0x40003d40:    b94001c8    ..@.    LDR      w8,[x14,#0]
        0x40003d44:    aa0e03f7    ....    MOV      x23,x14
        0x40003d48:    b9015708    .W..    STR      w8,[x24,#0x154]
        0x40003d4c:    b94001a8    ..@.    LDR      w8,[x13,#0]
        0x40003d50:    b9015f08    ._..    STR      w8,[x24,#0x15c]
        0x40003d54:    b9400188    ..@.    LDR      w8,[x12,#0]
        0x40003d58:    b9016708    .g..    STR      w8,[x24,#0x164]
        0x40003d5c:    b9400168    h.@.    LDR      w8,[x11,#0]
        0x40003d60:    b9016f08    .o..    STR      w8,[x24,#0x16c]
        0x40003d64:    b9400148    H.@.    LDR      w8,[x10,#0]
        0x40003d68:    b9017708    .w..    STR      w8,[x24,#0x174]
        0x40003d6c:    b9400128    (.@.    LDR      w8,[x9,#0]
        0x40003d70:    b9017f08    ....    STR      w8,[x24,#0x17c]
        0x40003d74:    320007e0    ...2    ORR      w0,wzr,#3
        0x40003d78:    52bcca02    ...R    MOV      w2,#0xe6500000
        0x40003d7c:    2a1f03e1    ...*    MOV      w1,wzr
        0x40003d80:    97fff5ac    ....    BL       checkReg ; 0x40001430
        0x40003d84:    320007e0    ...2    ORR      w0,wzr,#3
        0x40003d88:    320003e1    ...2    ORR      w1,wzr,#1
        0x40003d8c:    aa1603e2    ....    MOV      x2,x22
        0x40003d90:    97fff5a8    ....    BL       checkReg ; 0x40001430
        0x40003d94:    320007e0    ...2    ORR      w0,wzr,#3
        0x40003d98:    321f03e1    ...2    ORR      w1,wzr,#2
        0x40003d9c:    aa1503e2    ....    MOV      x2,x21
        0x40003da0:    97fff5a4    ....    BL       checkReg ; 0x40001430
        0x40003da4:    320007e0    ...2    ORR      w0,wzr,#3
        0x40003da8:    320007e1    ...2    ORR      w1,wzr,#3
        0x40003dac:    aa1403e2    ....    MOV      x2,x20
        0x40003db0:    97fff5a0    ....    BL       checkReg ; 0x40001430
        0x40003db4:    320007e0    ...2    ORR      w0,wzr,#3
        0x40003db8:    321e03e1    ...2    ORR      w1,wzr,#4
        0x40003dbc:    aa1303e2    ....    MOV      x2,x19
        0x40003dc0:    97fff59c    ....    BL       checkReg ; 0x40001430
        0x40003dc4:    320007e0    ...2    ORR      w0,wzr,#3
        0x40003dc8:    528000a1    ...R    MOV      w1,#5
        0x40003dcc:    aa1d03e2    ....    MOV      x2,x29
        0x40003dd0:    97fff598    ....    BL       checkReg ; 0x40001430
        0x40003dd4:    320007e0    ...2    ORR      w0,wzr,#3
        0x40003dd8:    321f07e1    ...2    ORR      w1,wzr,#6
        0x40003ddc:    aa1c03e2    ....    MOV      x2,x28
        0x40003de0:    97fff594    ....    BL       checkReg ; 0x40001430
        0x40003de4:    320007e0    ...2    ORR      w0,wzr,#3
        0x40003de8:    32000be1    ...2    ORR      w1,wzr,#7
        0x40003dec:    aa1b03e2    ....    MOV      x2,x27
        0x40003df0:    97fff590    ....    BL       checkReg ; 0x40001430
        0x40003df4:    320007e0    ...2    ORR      w0,wzr,#3
        0x40003df8:    321d03e1    ...2    ORR      w1,wzr,#8
        0x40003dfc:    aa1a03e2    ....    MOV      x2,x26
        0x40003e00:    97fff58c    ....    BL       checkReg ; 0x40001430
        0x40003e04:    320007e0    ...2    ORR      w0,wzr,#3
        0x40003e08:    52800121    !..R    MOV      w1,#9
        0x40003e0c:    aa1903e2    ....    MOV      x2,x25
        0x40003e10:    97fff588    ....    BL       checkReg ; 0x40001430
        0x40003e14:    320007e0    ...2    ORR      w0,wzr,#3
        0x40003e18:    52800141    A..R    MOV      w1,#0xa
        0x40003e1c:    aa1703e2    ....    MOV      x2,x23
        0x40003e20:    97fff584    ....    BL       checkReg ; 0x40001430
        0x40003e24:    320007e0    ...2    ORR      w0,wzr,#3
        0x40003e28:    52800161    a..R    MOV      w1,#0xb
        0x40003e2c:    f94007e2    ..@.    LDR      x2,[sp,#8]
        0x40003e30:    97fff580    ....    BL       checkReg ; 0x40001430
        0x40003e34:    320007e0    ...2    ORR      w0,wzr,#3
        0x40003e38:    321e07e1    ...2    ORR      w1,wzr,#0xc
        0x40003e3c:    f9400be2    ..@.    LDR      x2,[sp,#0x10]
        0x40003e40:    97fff57c    |...    BL       checkReg ; 0x40001430
        0x40003e44:    320007e0    ...2    ORR      w0,wzr,#3
        0x40003e48:    528001a1    ...R    MOV      w1,#0xd
        0x40003e4c:    f9400fe2    ..@.    LDR      x2,[sp,#0x18]
        0x40003e50:    97fff578    x...    BL       checkReg ; 0x40001430
        0x40003e54:    320007e0    ...2    ORR      w0,wzr,#3
        0x40003e58:    321f0be1    ...2    ORR      w1,wzr,#0xe
        0x40003e5c:    f94013e2    ..@.    LDR      x2,[sp,#0x20]
        0x40003e60:    97fff574    t...    BL       checkReg ; 0x40001430
        0x40003e64:    320007e0    ...2    ORR      w0,wzr,#3
        0x40003e68:    32000fe1    ...2    ORR      w1,wzr,#0xf
        0x40003e6c:    f94017e2    ..@.    LDR      x2,[sp,#0x28]
        0x40003e70:    97fff570    p...    BL       checkReg ; 0x40001430
        0x40003e74:    aa1f03e8    ....    MOV      x8,xzr
        0x40003e78:    90000029    )...    ADRP     x9,{pc}+0x4000 ; 0x40007e78
        0x40003e7c:    91040129    )...    ADD      x9,x9,#0x100
        0x40003e80:    aa1f03ea    ....    MOV      x10,xzr
        0x40003e84:    2a1f03eb    ...*    MOV      w11,wzr
        0x40003e88:    2a0b03ec    ...*    MOV      w12,w11
        0x40003e8c:    d379e10d    ..y.    LSL      x13,x8,#7
        0x40003e90:    8b0d030e    ....    ADD      x14,x24,x13
        0x40003e94:    d37df14f    O.}.    LSL      x15,x10,#3
        0x40003e98:    8b0f01ce    ....    ADD      x14,x14,x15
        0x40003e9c:    d37ef58c    ..~.    LSL      x12,x12,#2
        0x40003ea0:    b86c69ce    .il.    LDR      w14,[x14,x12]
        0x40003ea4:    8b0d012d    -...    ADD      x13,x9,x13
        0x40003ea8:    8b0f01ad    ....    ADD      x13,x13,x15
        0x40003eac:    b86c69ac    .il.    LDR      w12,[x13,x12]
        0x40003eb0:    6b0c01df    ...k    CMP      w14,w12
        0x40003eb4:    540001a1    ...T    B.NE     0x40003ee8 ; mstp_check + 1464
        0x40003eb8:    1100056c    l...    ADD      w12,w11,#1
        0x40003ebc:    320003eb    ...2    ORR      w11,wzr,#1
        0x40003ec0:    7100059f    ...q    CMP      w12,#1
        0x40003ec4:    54fffe29    )..T    B.LS     0x40003e88 ; mstp_check + 1368
        0x40003ec8:    9100054a    J...    ADD      x10,x10,#1
        0x40003ecc:    f100415f    _A..    CMP      x10,#0x10
        0x40003ed0:    54fffda3    ...T    B.CC     0x40003e84 ; mstp_check + 1364
        0x40003ed4:    91000508    ....    ADD      x8,x8,#1
        0x40003ed8:    f100111f    ....    CMP      x8,#4
        0x40003edc:    54fffd23    #..T    B.CC     0x40003e80 ; mstp_check + 1360
        0x40003ee0:    2a1f03e0    ...*    MOV      w0,wzr
        0x40003ee4:    14000002    ....    B        0x40003eec ; mstp_check + 1468
        0x40003ee8:    320003e0    ...2    ORR      w0,wzr,#1
        0x40003eec:    a9487bfd    .{H.    LDP      x29,x30,[sp,#0x80]
        0x40003ef0:    a9474ff4    .OG.    LDP      x20,x19,[sp,#0x70]
        0x40003ef4:    a94657f6    .WF.    LDP      x22,x21,[sp,#0x60]
        0x40003ef8:    a9455ff8    ._E.    LDP      x24,x23,[sp,#0x50]
        0x40003efc:    a94467fa    .gD.    LDP      x26,x25,[sp,#0x40]
        0x40003f00:    a9436ffc    .oC.    LDP      x28,x27,[sp,#0x30]
        0x40003f04:    910243ff    .C..    ADD      sp,sp,#0x90
        0x40003f08:    d65f03c0    .._.    RET      
        0x40003f0c:    00000000    ....    DCI      0x00000000 ; ? Undefined
    pad_check
        0x40003f10:    a9bf7bf3    .{..    STP      x19,x30,[sp,#-0x10]!
        0x40003f14:    90000021    !...    ADRP     x1,{pc}+0x4000 ; 0x40007f14
        0x40003f18:    9110e021    !...    ADD      x1,x1,#0x438
        0x40003f1c:    52bcca13    ...R    MOV      w19,#0xe6500000
        0x40003f20:    52bcca00    ...R    MOV      w0,#0xe6500000
        0x40003f24:    97fff253    S...    BL       I2C_masterInit ; 0x40000870
        0x40003f28:    52bcca00    ...R    MOV      w0,#0xe6500000
        0x40003f2c:    12800001    ....    MOV      w1,#0xffffffff
        0x40003f30:    97fff220     ...    BL       I2C_masterClearInterruptStatus ; 0x400007b0
        0x40003f34:    52bcca00    ...R    MOV      w0,#0xe6500000
        0x40003f38:    12800001    ....    MOV      w1,#0xffffffff
        0x40003f3c:    97fff245    E...    BL       I2C_masterEnableInterrupt ; 0x40000850
        0x40003f40:    52bcca00    ...R    MOV      w0,#0xe6500000
        0x40003f44:    97fff233    3...    BL       I2C_masterEnable ; 0x40000810
        0x40003f48:    91402273    s"@.    ADD      x19,x19,#8,LSL #12
        0x40003f4c:    90000021    !...    ADRP     x1,{pc}+0x4000 ; 0x40007f4c
        0x40003f50:    91355021    !P5.    ADD      x1,x1,#0xd54
        0x40003f54:    aa1303e0    ....    MOV      x0,x19
        0x40003f58:    97fff3a2    ....    BL       I2C_slaveInit ; 0x40000de0
        0x40003f5c:    12800001    ....    MOV      w1,#0xffffffff
        0x40003f60:    aa1303e0    ....    MOV      x0,x19
        0x40003f64:    97fff37b    {...    BL       I2C_slaveClearInterruptStatus ; 0x40000d50
        0x40003f68:    12800001    ....    MOV      w1,#0xffffffff
        0x40003f6c:    aa1303e0    ....    MOV      x0,x19
        0x40003f70:    97fff394    ....    BL       I2C_slaveEnableInterrupt ; 0x40000dc0
        0x40003f74:    aa1303e0    ....    MOV      x0,x19
        0x40003f78:    97fff386    ....    BL       I2C_slaveEnable ; 0x40000d90
        0x40003f7c:    97fff199    ....    BL       GIC_enable ; 0x400005e0
        0x40003f80:    d0ffffe1    ....    ADRP     x1,{pc}-0x2000 ; 0x40001f80
        0x40003f84:    911e8021    !...    ADD      x1,x1,#0x7a0
        0x40003f88:    528021c0    .!.R    MOV      w0,#0x10e
        0x40003f8c:    97fff1fd    ....    BL       GIC_setInterruptHandler ; 0x40000780
        0x40003f90:    d0ffffe1    ....    ADRP     x1,{pc}-0x2000 ; 0x40001f90
        0x40003f94:    913f8021    !.?.    ADD      x1,x1,#0xfe0
        0x40003f98:    528021e0    .!.R    MOV      w0,#0x10f
        0x40003f9c:    97fff1f9    ....    BL       GIC_setInterruptHandler ; 0x40000780
        0x40003fa0:    528021c0    .!.R    MOV      w0,#0x10e
        0x40003fa4:    97fff1b7    ....    BL       GIC_enableInterrupt ; 0x40000680
        0x40003fa8:    528021e0    .!.R    MOV      w0,#0x10f
        0x40003fac:    97fff1b5    ....    BL       GIC_enableInterrupt ; 0x40000680
        0x40003fb0:    f0000028    (...    ADRP     x8,{pc}+0x7000 ; 0x4000afb0
        0x40003fb4:    b9495909    .YI.    LDR      w9,[x8,#0x958]
        0x40003fb8:    1100052a    *...    ADD      w10,w9,#1
        0x40003fbc:    90000033    3...    ADRP     x19,{pc}+0x4000 ; 0x40007fbc
        0x40003fc0:    9122a273    s.".    ADD      x19,x19,#0x8a8
        0x40003fc4:    b909590a    .Y..    STR      w10,[x8,#0x958]
        0x40003fc8:    b8697a61    azi.    LDR      w1,[x19,x9,LSL #2]
        0x40003fcc:    52bcca00    ...R    MOV      w0,#0xe6500000
        0x40003fd0:    97fff338    8...    BL       I2C_masterSendMultipleByteStart ; 0x40000cb0
        0x40003fd4:    d0000028    (...    ADRP     x8,{pc}+0x6000 ; 0x40009fd4
        0x40003fd8:    3979c109    ..y9    LDRB     w9,[x8,#0xe70]
        0x40003fdc:    34ffffe9    ...4    CBZ      w9,0x40003fd8 ; pad_check + 200
        0x40003fe0:    aa1f03e8    ....    MOV      x8,xzr
        0x40003fe4:    f0000029    )...    ADRP     x9,{pc}+0x7000 ; 0x4000afe4
        0x40003fe8:    91059129    )...    ADD      x9,x9,#0x164
        0x40003fec:    d37ef50a    ..~.    LSL      x10,x8,#2
        0x40003ff0:    b86a692b    +ij.    LDR      w11,[x9,x10]
        0x40003ff4:    b86a6a6a    jjj.    LDR      w10,[x19,x10]
        0x40003ff8:    6b0a017f    ...k    CMP      w11,w10
        0x40003ffc:    540000e1    ...T    B.NE     0x40004018 ; pad_check + 264
        0x40004000:    91000508    ....    ADD      x8,x8,#1
        0x40004004:    7100311f    .1.q    CMP      w8,#0xc
        0x40004008:    54ffff29    )..T    B.LS     0x40003fec ; pad_check + 220
        0x4000400c:    2a1f03e0    ...*    MOV      w0,wzr
        0x40004010:    a8c17bf3    .{..    LDP      x19,x30,[sp],#0x10
        0x40004014:    d65f03c0    .._.    RET      
        0x40004018:    320003e0    ...2    ORR      w0,wzr,#1
        0x4000401c:    a8c17bf3    .{..    LDP      x19,x30,[sp],#0x10
        0x40004020:    d65f03c0    .._.    RET      
        0x40004024:    00000000    ....    DCI      0x00000000 ; ? Undefined
        0x40004028:    00000000    ....    DCI      0x00000000 ; ? Undefined
        0x4000402c:    00000000    ....    DCI      0x00000000 ; ? Undefined
    reg_check
        0x40004030:    a9bf7bf3    .{..    STP      x19,x30,[sp,#-0x10]!
        0x40004034:    52bcca13    ...R    MOV      w19,#0xe6500000
        0x40004038:    52bcca01    ...R    MOV      w1,#0xe6500000
        0x4000403c:    2a1f03e0    ...*    MOV      w0,wzr
        0x40004040:    97fff4f0    ....    BL       checkReg ; 0x40001400
        0x40004044:    91001261    a...    ADD      x1,x19,#4
        0x40004048:    320003e0    ...2    ORR      w0,wzr,#1
        0x4000404c:    97fff4ed    ....    BL       checkReg ; 0x40001400
        0x40004050:    91002261    a"..    ADD      x1,x19,#8
        0x40004054:    321f03e0    ...2    ORR      w0,wzr,#2
        0x40004058:    97fff4ea    ....    BL       checkReg ; 0x40001400
        0x4000405c:    91003261    a2..    ADD      x1,x19,#0xc
        0x40004060:    320007e0    ...2    ORR      w0,wzr,#3
        0x40004064:    97fff4e7    ....    BL       checkReg ; 0x40001400
        0x40004068:    91004261    aB..    ADD      x1,x19,#0x10
        0x4000406c:    321e03e0    ...2    ORR      w0,wzr,#4
        0x40004070:    97fff4e4    ....    BL       checkReg ; 0x40001400
        0x40004074:    91005261    aR..    ADD      x1,x19,#0x14
        0x40004078:    528000a0    ...R    MOV      w0,#5
        0x4000407c:    97fff4e1    ....    BL       checkReg ; 0x40001400
        0x40004080:    91006261    ab..    ADD      x1,x19,#0x18
        0x40004084:    321f07e0    ...2    ORR      w0,wzr,#6
        0x40004088:    97fff4de    ....    BL       checkReg ; 0x40001400
        0x4000408c:    91007261    ar..    ADD      x1,x19,#0x1c
        0x40004090:    32000be0    ...2    ORR      w0,wzr,#7
        0x40004094:    97fff4db    ....    BL       checkReg ; 0x40001400
        0x40004098:    91008261    a...    ADD      x1,x19,#0x20
        0x4000409c:    321d03e0    ...2    ORR      w0,wzr,#8
        0x400040a0:    97fff4d8    ....    BL       checkReg ; 0x40001400
        0x400040a4:    91009261    a...    ADD      x1,x19,#0x24
        0x400040a8:    52800120     ..R    MOV      w0,#9
        0x400040ac:    97fff4d5    ....    BL       checkReg ; 0x40001400
        0x400040b0:    9100a261    a...    ADD      x1,x19,#0x28
        0x400040b4:    52800140    @..R    MOV      w0,#0xa
        0x400040b8:    97fff4d2    ....    BL       checkReg ; 0x40001400
        0x400040bc:    9100b261    a...    ADD      x1,x19,#0x2c
        0x400040c0:    52800160    `..R    MOV      w0,#0xb
        0x400040c4:    97fff4cf    ....    BL       checkReg ; 0x40001400
        0x400040c8:    9100c261    a...    ADD      x1,x19,#0x30
        0x400040cc:    321e07e0    ...2    ORR      w0,wzr,#0xc
        0x400040d0:    97fff4cc    ....    BL       checkReg ; 0x40001400
        0x400040d4:    9100d261    a...    ADD      x1,x19,#0x34
        0x400040d8:    528001a0    ...R    MOV      w0,#0xd
        0x400040dc:    97fff4c9    ....    BL       checkReg ; 0x40001400
        0x400040e0:    9100e261    a...    ADD      x1,x19,#0x38
        0x400040e4:    321f0be0    ...2    ORR      w0,wzr,#0xe
        0x400040e8:    97fff4c6    ....    BL       checkReg ; 0x40001400
        0x400040ec:    9100f261    a...    ADD      x1,x19,#0x3c
        0x400040f0:    32000fe0    ...2    ORR      w0,wzr,#0xf
        0x400040f4:    97fff4c3    ....    BL       checkReg ; 0x40001400
        0x400040f8:    aa1f03e8    ....    MOV      x8,xzr
        0x400040fc:    d0000029    )...    ADRP     x9,{pc}+0x6000 ; 0x4000a0fc
        0x40004100:    911b2129    )!..    ADD      x9,x9,#0x6c8
        0x40004104:    f000000a    ....    ADRP     x10,{pc}+0x3000 ; 0x40007104
        0x40004108:    9102014a    J...    ADD      x10,x10,#0x80
        0x4000410c:    2a1f03eb    ...*    MOV      w11,wzr
        0x40004110:    2a0b03ec    ...*    MOV      w12,w11
        0x40004114:    d37df10d    ..}.    LSL      x13,x8,#3
        0x40004118:    8b0d012e    ....    ADD      x14,x9,x13
        0x4000411c:    d37ef58c    ..~.    LSL      x12,x12,#2
        0x40004120:    b86c69ce    .il.    LDR      w14,[x14,x12]
        0x40004124:    8b0d014d    M...    ADD      x13,x10,x13
        0x40004128:    b86c69ac    .il.    LDR      w12,[x13,x12]
        0x4000412c:    6b0c01df    ...k    CMP      w14,w12
        0x40004130:    54000161    a..T    B.NE     0x4000415c ; reg_check + 300
        0x40004134:    1100056c    l...    ADD      w12,w11,#1
        0x40004138:    320003eb    ...2    ORR      w11,wzr,#1
        0x4000413c:    7100059f    ...q    CMP      w12,#1
        0x40004140:    54fffe89    ...T    B.LS     0x40004110 ; reg_check + 224
        0x40004144:    91000508    ....    ADD      x8,x8,#1
        0x40004148:    f100411f    .A..    CMP      x8,#0x10
        0x4000414c:    54fffe03    ...T    B.CC     0x4000410c ; reg_check + 220
        0x40004150:    2a1f03e0    ...*    MOV      w0,wzr
        0x40004154:    a8c17bf3    .{..    LDP      x19,x30,[sp],#0x10
        0x40004158:    d65f03c0    .._.    RET      
        0x4000415c:    320003e0    ...2    ORR      w0,wzr,#1
        0x40004160:    a8c17bf3    .{..    LDP      x19,x30,[sp],#0x10
        0x40004164:    d65f03c0    .._.    RET      
        0x40004168:    00000000    ....    DCI      0x00000000 ; ? Undefined
        0x4000416c:    00000000    ....    DCI      0x00000000 ; ? Undefined
    renesas_slave_rx
        0x40004170:    a9bc63f9    .c..    STP      x25,x24,[sp,#-0x40]!
        0x40004174:    a9015bf7    .[..    STP      x23,x22,[sp,#0x10]
        0x40004178:    a90253f5    .S..    STP      x21,x20,[sp,#0x20]
        0x4000417c:    a9037bf3    .{..    STP      x19,x30,[sp,#0x30]
        0x40004180:    52900014    ...R    MOV      w20,#0x8000
        0x40004184:    72bcca14    ...r    MOVK     w20,#0xe650,LSL #16
        0x40004188:    f0000001    ....    ADRP     x1,{pc}+0x3000 ; 0x40007188
        0x4000418c:    9115c021    !...    ADD      x1,x1,#0x570
        0x40004190:    52900000    ...R    MOV      w0,#0x8000
        0x40004194:    72bcca00    ...r    MOVK     w0,#0xe650,LSL #16
        0x40004198:    97fff1b6    ....    BL       I2C_masterInit ; 0x40000870
        0x4000419c:    52900000    ...R    MOV      w0,#0x8000
        0x400041a0:    72bcca00    ...r    MOVK     w0,#0xe650,LSL #16
        0x400041a4:    12800001    ....    MOV      w1,#0xffffffff
        0x400041a8:    97fff182    ....    BL       I2C_masterClearInterruptStatus ; 0x400007b0
        0x400041ac:    52900000    ...R    MOV      w0,#0x8000
        0x400041b0:    72bcca00    ...r    MOVK     w0,#0xe650,LSL #16
        0x400041b4:    97fff197    ....    BL       I2C_masterEnable ; 0x40000810
        0x400041b8:    d1402293    ."@.    SUB      x19,x20,#8,LSL #12
        0x400041bc:    f0000001    ....    ADRP     x1,{pc}+0x3000 ; 0x400071bc
        0x400041c0:    913a3021    !0:.    ADD      x1,x1,#0xe8c
        0x400041c4:    aa1303e0    ....    MOV      x0,x19
        0x400041c8:    97fff306    ....    BL       I2C_slaveInit ; 0x40000de0
        0x400041cc:    b9400268    h.@.    LDR      w8,[x19,#0]
        0x400041d0:    121c7908    .y..    AND      w8,w8,#0xfffffff7
        0x400041d4:    b9000268    h...    STR      w8,[x19,#0]
        0x400041d8:    12800001    ....    MOV      w1,#0xffffffff
        0x400041dc:    aa1303e0    ....    MOV      x0,x19
        0x400041e0:    97fff2dc    ....    BL       I2C_slaveClearInterruptStatus ; 0x40000d50
        0x400041e4:    aa1303e0    ....    MOV      x0,x19
        0x400041e8:    97fff2ea    ....    BL       I2C_slaveEnable ; 0x40000d90
        0x400041ec:    52900000    ...R    MOV      w0,#0x8000
        0x400041f0:    72bcca00    ...r    MOVK     w0,#0xe650,LSL #16
        0x400041f4:    52800901    ...R    MOV      w1,#0x48
        0x400041f8:    97fff2ae    ....    BL       I2C_masterSendMultipleByteStart ; 0x40000cb0
        0x400041fc:    928ffee8    ....    MOV      x8,#0xffffffffffff8008
        0x40004200:    b8686a89    .jh.    LDR      w9,[x20,x8]
        0x40004204:    3607ffe9    ...6    TBZ      w9,#0,0x40004200 ; renesas_slave_rx + 144
        0x40004208:    52900197    ...R    MOV      w23,#0x800c
        0x4000420c:    72bcca17    ...r    MOVK     w23,#0xe650,LSL #16
        0x40004210:    320003e1    ...2    ORR      w1,wzr,#1
        0x40004214:    aa1303e0    ....    MOV      x0,x19
        0x40004218:    97fff2ce    ....    BL       I2C_slaveClearInterruptStatus ; 0x40000d50
        0x4000421c:    b94002e8    ..@.    LDR      w8,[x23,#0]
        0x40004220:    3607ffe8    ...6    TBZ      w8,#0,0x4000421c ; renesas_slave_rx + 172
        0x40004224:    52900000    ...R    MOV      w0,#0x8000
        0x40004228:    72bcca00    ...r    MOVK     w0,#0xe650,LSL #16
        0x4000422c:    97fff175    u...    BL       I2C_masterDisableStartGeneration ; 0x40000800
        0x40004230:    52900000    ...R    MOV      w0,#0x8000
        0x40004234:    72bcca00    ...r    MOVK     w0,#0xe650,LSL #16
        0x40004238:    52800121    !..R    MOV      w1,#9
        0x4000423c:    97fff15d    ]...    BL       I2C_masterClearInterruptStatus ; 0x400007b0
        0x40004240:    320003f8    ...2    ORR      w24,wzr,#1
        0x40004244:    f0000015    ....    ADRP     x21,{pc}+0x3000 ; 0x40007244
        0x40004248:    912ed2b5    ....    ADD      x21,x21,#0xbb4
        0x4000424c:    928ffef9    ....    MOV      x25,#0xffffffffffff8008
        0x40004250:    d0000036    6...    ADRP     x22,{pc}+0x6000 ; 0x4000a250
        0x40004254:    9110f2d6    ....    ADD      x22,x22,#0x43c
        0x40004258:    b94002e8    ..@.    LDR      w8,[x23,#0]
        0x4000425c:    361fffe8    ...6    TBZ      w8,#3,0x40004258 ; renesas_slave_rx + 232
        0x40004260:    f100331f    .3..    CMP      x24,#0xc
        0x40004264:    540000c8    ...T    B.HI     0x4000427c ; renesas_slave_rx + 268
        0x40004268:    b8787aa1    .zx.    LDR      w1,[x21,x24,LSL #2]
        0x4000426c:    52900000    ...R    MOV      w0,#0x8000
        0x40004270:    72bcca00    ...r    MOVK     w0,#0xe650,LSL #16
        0x40004274:    97fff28b    ....    BL       I2C_masterSendMultipleByteNext ; 0x40000ca0
        0x40004278:    14000006    ....    B        0x40004290 ; renesas_slave_rx + 288
        0x4000427c:    f100371f    .7..    CMP      x24,#0xd
        0x40004280:    54000081    ...T    B.NE     0x40004290 ; renesas_slave_rx + 288
        0x40004284:    52900000    ...R    MOV      w0,#0x8000
        0x40004288:    72bcca00    ...r    MOVK     w0,#0xe650,LSL #16
        0x4000428c:    97fff291    ....    BL       I2C_masterSendMultipleByteStop ; 0x40000cd0
        0x40004290:    52900000    ...R    MOV      w0,#0x8000
        0x40004294:    72bcca00    ...r    MOVK     w0,#0xe650,LSL #16
        0x40004298:    321d03e1    ...2    ORR      w1,wzr,#8
        0x4000429c:    97fff145    E...    BL       I2C_masterClearInterruptStatus ; 0x400007b0
        0x400042a0:    b94002e8    ..@.    LDR      w8,[x23,#0]
        0x400042a4:    3617ffe8    ...6    TBZ      w8,#2,0x400042a0 ; renesas_slave_rx + 304
        0x400042a8:    52900000    ...R    MOV      w0,#0x8000
        0x400042ac:    72bcca00    ...r    MOVK     w0,#0xe650,LSL #16
        0x400042b0:    321e03e1    ...2    ORR      w1,wzr,#4
        0x400042b4:    97fff13f    ?...    BL       I2C_masterClearInterruptStatus ; 0x400007b0
        0x400042b8:    b8796a88    .jy.    LDR      w8,[x20,x25]
        0x400042bc:    360fffe8    ...6    TBZ      w8,#1,0x400042b8 ; renesas_slave_rx + 328
        0x400042c0:    aa1303e0    ....    MOV      x0,x19
        0x400042c4:    97fff3bb    ....    BL       I2C_slaveReceiveMultipleByteNext ; 0x400011b0
        0x400042c8:    8b180ac8    ....    ADD      x8,x22,x24,LSL #2
        0x400042cc:    b81fc100    ....    STUR     w0,[x8,#-4]
        0x400042d0:    321f03e1    ...2    ORR      w1,wzr,#2
        0x400042d4:    aa1303e0    ....    MOV      x0,x19
        0x400042d8:    97fff29e    ....    BL       I2C_slaveClearInterruptStatus ; 0x40000d50
        0x400042dc:    91000718    ....    ADD      x24,x24,#1
        0x400042e0:    f1003b1f    .;..    CMP      x24,#0xe
        0x400042e4:    54fffba1    ...T    B.NE     0x40004258 ; renesas_slave_rx + 232
        0x400042e8:    928ffee8    ....    MOV      x8,#0xffffffffffff8008
        0x400042ec:    b8686a89    .jh.    LDR      w9,[x20,x8]
        0x400042f0:    3627ffe9    ..'6    TBZ      w9,#4,0x400042ec ; renesas_slave_rx + 380
        0x400042f4:    321c03e1    ...2    ORR      w1,wzr,#0x10
        0x400042f8:    aa1303e0    ....    MOV      x0,x19
        0x400042fc:    97fff295    ....    BL       I2C_slaveClearInterruptStatus ; 0x40000d50
        0x40004300:    b94002e8    ..@.    LDR      w8,[x23,#0]
        0x40004304:    3627ffe8    ..'6    TBZ      w8,#4,0x40004300 ; renesas_slave_rx + 400
        0x40004308:    52900000    ...R    MOV      w0,#0x8000
        0x4000430c:    72bcca00    ...r    MOVK     w0,#0xe650,LSL #16
        0x40004310:    321c03e1    ...2    ORR      w1,wzr,#0x10
        0x40004314:    97fff127    '...    BL       I2C_masterClearInterruptStatus ; 0x400007b0
        0x40004318:    52900000    ...R    MOV      w0,#0x8000
        0x4000431c:    72bcca00    ...r    MOVK     w0,#0xe650,LSL #16
        0x40004320:    97fff128    (...    BL       I2C_masterDisable ; 0x400007c0
        0x40004324:    aa1303e0    ....    MOV      x0,x19
        0x40004328:    97fff28e    ....    BL       I2C_slaveDisable ; 0x40000d60
        0x4000432c:    aa1f03e8    ....    MOV      x8,xzr
        0x40004330:    d37ef509    ..~.    LSL      x9,x8,#2
        0x40004334:    b8696aca    .ji.    LDR      w10,[x22,x9]
        0x40004338:    b8696aa9    .ji.    LDR      w9,[x21,x9]
        0x4000433c:    6b09015f    _..k    CMP      w10,w9
        0x40004340:    540000c1    ...T    B.NE     0x40004358 ; renesas_slave_rx + 488
        0x40004344:    91000508    ....    ADD      x8,x8,#1
        0x40004348:    7100311f    .1.q    CMP      w8,#0xc
        0x4000434c:    54ffff29    )..T    B.LS     0x40004330 ; renesas_slave_rx + 448
        0x40004350:    2a1f03e0    ...*    MOV      w0,wzr
        0x40004354:    14000002    ....    B        0x4000435c ; renesas_slave_rx + 492
        0x40004358:    320003e0    ...2    ORR      w0,wzr,#1
        0x4000435c:    a9437bf3    .{C.    LDP      x19,x30,[sp,#0x30]
        0x40004360:    a94253f5    .SB.    LDP      x21,x20,[sp,#0x20]
        0x40004364:    a9415bf7    .[A.    LDP      x23,x22,[sp,#0x10]
        0x40004368:    a8c463f9    .c..    LDP      x25,x24,[sp],#0x40
        0x4000436c:    d65f03c0    .._.    RET      
    renesas_slave_rx_delay
        0x40004370:    a9bc63f9    .c..    STP      x25,x24,[sp,#-0x40]!
        0x40004374:    a9015bf7    .[..    STP      x23,x22,[sp,#0x10]
        0x40004378:    a90253f5    .S..    STP      x21,x20,[sp,#0x20]
        0x4000437c:    a9037bf3    .{..    STP      x19,x30,[sp,#0x30]
        0x40004380:    52900014    ...R    MOV      w20,#0x8000
        0x40004384:    72bcca14    ...r    MOVK     w20,#0xe650,LSL #16
        0x40004388:    f0000001    ....    ADRP     x1,{pc}+0x3000 ; 0x40007388
        0x4000438c:    9111a021    !...    ADD      x1,x1,#0x468
        0x40004390:    52900000    ...R    MOV      w0,#0x8000
        0x40004394:    72bcca00    ...r    MOVK     w0,#0xe650,LSL #16
        0x40004398:    97fff136    6...    BL       I2C_masterInit ; 0x40000870
        0x4000439c:    52900000    ...R    MOV      w0,#0x8000
        0x400043a0:    72bcca00    ...r    MOVK     w0,#0xe650,LSL #16
        0x400043a4:    12800001    ....    MOV      w1,#0xffffffff
        0x400043a8:    97fff102    ....    BL       I2C_masterClearInterruptStatus ; 0x400007b0
        0x400043ac:    52900000    ...R    MOV      w0,#0x8000
        0x400043b0:    72bcca00    ...r    MOVK     w0,#0xe650,LSL #16
        0x400043b4:    97fff117    ....    BL       I2C_masterEnable ; 0x40000810
        0x400043b8:    d1402293    ."@.    SUB      x19,x20,#8,LSL #12
        0x400043bc:    f0000001    ....    ADRP     x1,{pc}+0x3000 ; 0x400073bc
        0x400043c0:    91361021    !.6.    ADD      x1,x1,#0xd84
        0x400043c4:    aa1303e0    ....    MOV      x0,x19
        0x400043c8:    97fff286    ....    BL       I2C_slaveInit ; 0x40000de0
        0x400043cc:    b9400268    h.@.    LDR      w8,[x19,#0]
        0x400043d0:    121c7908    .y..    AND      w8,w8,#0xfffffff7
        0x400043d4:    b9000268    h...    STR      w8,[x19,#0]
        0x400043d8:    12800001    ....    MOV      w1,#0xffffffff
        0x400043dc:    aa1303e0    ....    MOV      x0,x19
        0x400043e0:    97fff25c    \...    BL       I2C_slaveClearInterruptStatus ; 0x40000d50
        0x400043e4:    aa1303e0    ....    MOV      x0,x19
        0x400043e8:    97fff26a    j...    BL       I2C_slaveEnable ; 0x40000d90
        0x400043ec:    52900000    ...R    MOV      w0,#0x8000
        0x400043f0:    72bcca00    ...r    MOVK     w0,#0xe650,LSL #16
        0x400043f4:    52800901    ...R    MOV      w1,#0x48
        0x400043f8:    97fff22e    ....    BL       I2C_masterSendMultipleByteStart ; 0x40000cb0
        0x400043fc:    928ffee8    ....    MOV      x8,#0xffffffffffff8008
        0x40004400:    b8686a89    .jh.    LDR      w9,[x20,x8]
        0x40004404:    3607ffe9    ...6    TBZ      w9,#0,0x40004400 ; renesas_slave_rx_delay + 144
        0x40004408:    52900197    ...R    MOV      w23,#0x800c
        0x4000440c:    72bcca17    ...r    MOVK     w23,#0xe650,LSL #16
        0x40004410:    320003e1    ...2    ORR      w1,wzr,#1
        0x40004414:    aa1303e0    ....    MOV      x0,x19
        0x40004418:    97fff24e    N...    BL       I2C_slaveClearInterruptStatus ; 0x40000d50
        0x4000441c:    b94002e8    ..@.    LDR      w8,[x23,#0]
        0x40004420:    3607ffe8    ...6    TBZ      w8,#0,0x4000441c ; renesas_slave_rx_delay + 172
        0x40004424:    52900000    ...R    MOV      w0,#0x8000
        0x40004428:    72bcca00    ...r    MOVK     w0,#0xe650,LSL #16
        0x4000442c:    97fff0f5    ....    BL       I2C_masterDisableStartGeneration ; 0x40000800
        0x40004430:    52900000    ...R    MOV      w0,#0x8000
        0x40004434:    72bcca00    ...r    MOVK     w0,#0xe650,LSL #16
        0x40004438:    52800121    !..R    MOV      w1,#9
        0x4000443c:    97fff0dd    ....    BL       I2C_masterClearInterruptStatus ; 0x400007b0
        0x40004440:    320003f8    ...2    ORR      w24,wzr,#1
        0x40004444:    f0000015    ....    ADRP     x21,{pc}+0x3000 ; 0x40007444
        0x40004448:    912442b5    .B$.    ADD      x21,x21,#0x910
        0x4000444c:    928ffef9    ....    MOV      x25,#0xffffffffffff8008
        0x40004450:    d0000036    6...    ADRP     x22,{pc}+0x6000 ; 0x4000a450
        0x40004454:    910732d6    .2..    ADD      x22,x22,#0x1cc
        0x40004458:    b94002e8    ..@.    LDR      w8,[x23,#0]
        0x4000445c:    361fffe8    ...6    TBZ      w8,#3,0x40004458 ; renesas_slave_rx_delay + 232
        0x40004460:    f100331f    .3..    CMP      x24,#0xc
        0x40004464:    540000c8    ...T    B.HI     0x4000447c ; renesas_slave_rx_delay + 268
        0x40004468:    b8787aa1    .zx.    LDR      w1,[x21,x24,LSL #2]
        0x4000446c:    52900000    ...R    MOV      w0,#0x8000
        0x40004470:    72bcca00    ...r    MOVK     w0,#0xe650,LSL #16
        0x40004474:    97fff20b    ....    BL       I2C_masterSendMultipleByteNext ; 0x40000ca0
        0x40004478:    14000006    ....    B        0x40004490 ; renesas_slave_rx_delay + 288
        0x4000447c:    f100371f    .7..    CMP      x24,#0xd
        0x40004480:    54000081    ...T    B.NE     0x40004490 ; renesas_slave_rx_delay + 288
        0x40004484:    52900000    ...R    MOV      w0,#0x8000
        0x40004488:    72bcca00    ...r    MOVK     w0,#0xe650,LSL #16
        0x4000448c:    97fff211    ....    BL       I2C_masterSendMultipleByteStop ; 0x40000cd0
        0x40004490:    52900000    ...R    MOV      w0,#0x8000
        0x40004494:    72bcca00    ...r    MOVK     w0,#0xe650,LSL #16
        0x40004498:    321d03e1    ...2    ORR      w1,wzr,#8
        0x4000449c:    97fff0c5    ....    BL       I2C_masterClearInterruptStatus ; 0x400007b0
        0x400044a0:    b94002e8    ..@.    LDR      w8,[x23,#0]
        0x400044a4:    3617ffe8    ...6    TBZ      w8,#2,0x400044a0 ; renesas_slave_rx_delay + 304
        0x400044a8:    52900000    ...R    MOV      w0,#0x8000
        0x400044ac:    72bcca00    ...r    MOVK     w0,#0xe650,LSL #16
        0x400044b0:    321e03e1    ...2    ORR      w1,wzr,#4
        0x400044b4:    97fff0bf    ....    BL       I2C_masterClearInterruptStatus ; 0x400007b0
        0x400044b8:    b8796a88    .jy.    LDR      w8,[x20,x25]
        0x400044bc:    360fffe8    ...6    TBZ      w8,#1,0x400044b8 ; renesas_slave_rx_delay + 328
        0x400044c0:    aa1303e0    ....    MOV      x0,x19
        0x400044c4:    97fff33b    ;...    BL       I2C_slaveReceiveMultipleByteNext ; 0x400011b0
        0x400044c8:    8b180ac8    ....    ADD      x8,x22,x24,LSL #2
        0x400044cc:    b81fc100    ....    STUR     w0,[x8,#-4]
        0x400044d0:    52806400    .d.R    MOV      w0,#0x320
        0x400044d4:    97fff35f    _...    BL       Sim_Delay ; 0x40001250
        0x400044d8:    321f03e1    ...2    ORR      w1,wzr,#2
        0x400044dc:    aa1303e0    ....    MOV      x0,x19
        0x400044e0:    97fff21c    ....    BL       I2C_slaveClearInterruptStatus ; 0x40000d50
        0x400044e4:    91000718    ....    ADD      x24,x24,#1
        0x400044e8:    f1003b1f    .;..    CMP      x24,#0xe
        0x400044ec:    54fffb61    a..T    B.NE     0x40004458 ; renesas_slave_rx_delay + 232
        0x400044f0:    928ffee8    ....    MOV      x8,#0xffffffffffff8008
        0x400044f4:    b8686a89    .jh.    LDR      w9,[x20,x8]
        0x400044f8:    3627ffe9    ..'6    TBZ      w9,#4,0x400044f4 ; renesas_slave_rx_delay + 388
        0x400044fc:    321c03e1    ...2    ORR      w1,wzr,#0x10
        0x40004500:    aa1303e0    ....    MOV      x0,x19
        0x40004504:    97fff213    ....    BL       I2C_slaveClearInterruptStatus ; 0x40000d50
        0x40004508:    b94002e8    ..@.    LDR      w8,[x23,#0]
        0x4000450c:    3627ffe8    ..'6    TBZ      w8,#4,0x40004508 ; renesas_slave_rx_delay + 408
        0x40004510:    52900000    ...R    MOV      w0,#0x8000
        0x40004514:    72bcca00    ...r    MOVK     w0,#0xe650,LSL #16
        0x40004518:    321c03e1    ...2    ORR      w1,wzr,#0x10
        0x4000451c:    97fff0a5    ....    BL       I2C_masterClearInterruptStatus ; 0x400007b0
        0x40004520:    52900000    ...R    MOV      w0,#0x8000
        0x40004524:    72bcca00    ...r    MOVK     w0,#0xe650,LSL #16
        0x40004528:    97fff0a6    ....    BL       I2C_masterDisable ; 0x400007c0
        0x4000452c:    aa1303e0    ....    MOV      x0,x19
        0x40004530:    97fff20c    ....    BL       I2C_slaveDisable ; 0x40000d60
        0x40004534:    aa1f03e8    ....    MOV      x8,xzr
        0x40004538:    d37ef509    ..~.    LSL      x9,x8,#2
        0x4000453c:    b8696aca    .ji.    LDR      w10,[x22,x9]
        0x40004540:    b8696aa9    .ji.    LDR      w9,[x21,x9]
        0x40004544:    6b09015f    _..k    CMP      w10,w9
        0x40004548:    540000c1    ...T    B.NE     0x40004560 ; renesas_slave_rx_delay + 496
        0x4000454c:    91000508    ....    ADD      x8,x8,#1
        0x40004550:    7100311f    .1.q    CMP      w8,#0xc
        0x40004554:    54ffff29    )..T    B.LS     0x40004538 ; renesas_slave_rx_delay + 456
        0x40004558:    2a1f03e0    ...*    MOV      w0,wzr
        0x4000455c:    14000002    ....    B        0x40004564 ; renesas_slave_rx_delay + 500
        0x40004560:    320003e0    ...2    ORR      w0,wzr,#1
        0x40004564:    a9437bf3    .{C.    LDP      x19,x30,[sp,#0x30]
        0x40004568:    a94253f5    .SB.    LDP      x21,x20,[sp,#0x20]
        0x4000456c:    a9415bf7    .[A.    LDP      x23,x22,[sp,#0x10]
        0x40004570:    a8c463f9    .c..    LDP      x25,x24,[sp],#0x40
        0x40004574:    d65f03c0    .._.    RET      
        0x40004578:    00000000    ....    DCI      0x00000000 ; ? Undefined
        0x4000457c:    00000000    ....    DCI      0x00000000 ; ? Undefined
    renesas_slave_rx_fna
        0x40004580:    a9bd5bf7    .[..    STP      x23,x22,[sp,#-0x30]!
        0x40004584:    a90153f5    .S..    STP      x21,x20,[sp,#0x10]
        0x40004588:    a9027bf3    .{..    STP      x19,x30,[sp,#0x20]
        0x4000458c:    52bcca14    ...R    MOV      w20,#0xe6500000
        0x40004590:    91402293    ."@.    ADD      x19,x20,#8,LSL #12
        0x40004594:    f0000001    ....    ADRP     x1,{pc}+0x3000 ; 0x40007594
        0x40004598:    910d8021    !...    ADD      x1,x1,#0x360
        0x4000459c:    aa1303e0    ....    MOV      x0,x19
        0x400045a0:    97fff0b4    ....    BL       I2C_masterInit ; 0x40000870
        0x400045a4:    12800001    ....    MOV      w1,#0xffffffff
        0x400045a8:    aa1303e0    ....    MOV      x0,x19
        0x400045ac:    97fff081    ....    BL       I2C_masterClearInterruptStatus ; 0x400007b0
        0x400045b0:    aa1303e0    ....    MOV      x0,x19
        0x400045b4:    97fff097    ....    BL       I2C_masterEnable ; 0x40000810
        0x400045b8:    f0000001    ....    ADRP     x1,{pc}+0x3000 ; 0x400075b8
        0x400045bc:    9131f021    !.1.    ADD      x1,x1,#0xc7c
        0x400045c0:    52bcca00    ...R    MOV      w0,#0xe6500000
        0x400045c4:    97fff207    ....    BL       I2C_slaveInit ; 0x40000de0
        0x400045c8:    b9400288    ..@.    LDR      w8,[x20,#0]
        0x400045cc:    121c7908    .y..    AND      w8,w8,#0xfffffff7
        0x400045d0:    b9000288    ....    STR      w8,[x20,#0]
        0x400045d4:    52bcca00    ...R    MOV      w0,#0xe6500000
        0x400045d8:    12800001    ....    MOV      w1,#0xffffffff
        0x400045dc:    97fff1dd    ....    BL       I2C_slaveClearInterruptStatus ; 0x40000d50
        0x400045e0:    52bcca00    ...R    MOV      w0,#0xe6500000
        0x400045e4:    97fff1eb    ....    BL       I2C_slaveEnable ; 0x40000d90
        0x400045e8:    52800901    ...R    MOV      w1,#0x48
        0x400045ec:    aa1303e0    ....    MOV      x0,x19
        0x400045f0:    97fff1b0    ....    BL       I2C_masterSendMultipleByteStart ; 0x40000cb0
        0x400045f4:    b9400a88    ..@.    LDR      w8,[x20,#8]
        0x400045f8:    3607ffe8    ...6    TBZ      w8,#0,0x400045f4 ; renesas_slave_rx_fna + 116
        0x400045fc:    52900197    ...R    MOV      w23,#0x800c
        0x40004600:    72bcca17    ...r    MOVK     w23,#0xe650,LSL #16
        0x40004604:    52bcca00    ...R    MOV      w0,#0xe6500000
        0x40004608:    320003e1    ...2    ORR      w1,wzr,#1
        0x4000460c:    97fff1d1    ....    BL       I2C_slaveClearInterruptStatus ; 0x40000d50
        0x40004610:    b94002e8    ..@.    LDR      w8,[x23,#0]
        0x40004614:    3607ffe8    ...6    TBZ      w8,#0,0x40004610 ; renesas_slave_rx_fna + 144
        0x40004618:    91402293    ."@.    ADD      x19,x20,#8,LSL #12
        0x4000461c:    aa1303e0    ....    MOV      x0,x19
        0x40004620:    97fff078    x...    BL       I2C_masterDisableStartGeneration ; 0x40000800
        0x40004624:    52800121    !..R    MOV      w1,#9
        0x40004628:    aa1303e0    ....    MOV      x0,x19
        0x4000462c:    97fff061    a...    BL       I2C_masterClearInterruptStatus ; 0x400007b0
        0x40004630:    f0000015    ....    ADRP     x21,{pc}+0x3000 ; 0x40007630
        0x40004634:    911a82b5    ....    ADD      x21,x21,#0x6a0
        0x40004638:    320003f3    ...2    ORR      w19,wzr,#1
        0x4000463c:    b0000036    6...    ADRP     x22,{pc}+0x5000 ; 0x4000963c
        0x40004640:    913d72d6    .r=.    ADD      x22,x22,#0xf5c
        0x40004644:    b94002e8    ..@.    LDR      w8,[x23,#0]
        0x40004648:    361fffe8    ...6    TBZ      w8,#3,0x40004644 ; renesas_slave_rx_fna + 196
        0x4000464c:    f100327f    .2..    CMP      x19,#0xc
        0x40004650:    54000088    ...T    B.HI     0x40004660 ; renesas_slave_rx_fna + 224
        0x40004654:    b8737aa1    .zs.    LDR      w1,[x21,x19,LSL #2]
        0x40004658:    91402280    ."@.    ADD      x0,x20,#8,LSL #12
        0x4000465c:    97fff191    ....    BL       I2C_masterSendMultipleByteNext ; 0x40000ca0
        0x40004660:    91402280    ."@.    ADD      x0,x20,#8,LSL #12
        0x40004664:    321d03e1    ...2    ORR      w1,wzr,#8
        0x40004668:    97fff052    R...    BL       I2C_masterClearInterruptStatus ; 0x400007b0
        0x4000466c:    b94002e8    ..@.    LDR      w8,[x23,#0]
        0x40004670:    3617ffe8    ...6    TBZ      w8,#2,0x4000466c ; renesas_slave_rx_fna + 236
        0x40004674:    91402280    ."@.    ADD      x0,x20,#8,LSL #12
        0x40004678:    321e03e1    ...2    ORR      w1,wzr,#4
        0x4000467c:    97fff04d    M...    BL       I2C_masterClearInterruptStatus ; 0x400007b0
        0x40004680:    b9400a88    ..@.    LDR      w8,[x20,#8]
        0x40004684:    360fffe8    ...6    TBZ      w8,#1,0x40004680 ; renesas_slave_rx_fna + 256
        0x40004688:    f1002e7f    ....    CMP      x19,#0xb
        0x4000468c:    54000088    ...T    B.HI     0x4000469c ; renesas_slave_rx_fna + 284
        0x40004690:    52bcca00    ...R    MOV      w0,#0xe6500000
        0x40004694:    97fff2c7    ....    BL       I2C_slaveReceiveMultipleByteNext ; 0x400011b0
        0x40004698:    1400000b    ....    B        0x400046c4 ; renesas_slave_rx_fna + 324
        0x4000469c:    12001e68    h...    AND      w8,w19,#0xff
        0x400046a0:    7100351f    .5.q    CMP      w8,#0xd
        0x400046a4:    540000c0    ...T    B.EQ     0x400046bc ; renesas_slave_rx_fna + 316
        0x400046a8:    7100311f    .1.q    CMP      w8,#0xc
        0x400046ac:    54000101    ...T    B.NE     0x400046cc ; renesas_slave_rx_fna + 332
        0x400046b0:    52bcca00    ...R    MOV      w0,#0xe6500000
        0x400046b4:    97fff2c3    ....    BL       I2C_slaveReceiveMultipleByteStop ; 0x400011c0
        0x400046b8:    14000003    ....    B        0x400046c4 ; renesas_slave_rx_fna + 324
        0x400046bc:    52bcca00    ...R    MOV      w0,#0xe6500000
        0x400046c0:    97fff2b8    ....    BL       I2C_slaveReceiveMultipleByteFinish ; 0x400011a0
        0x400046c4:    8b130ac8    ....    ADD      x8,x22,x19,LSL #2
        0x400046c8:    b81fc100    ....    STUR     w0,[x8,#-4]
        0x400046cc:    52bcca00    ...R    MOV      w0,#0xe6500000
        0x400046d0:    321f03e1    ...2    ORR      w1,wzr,#2
        0x400046d4:    97fff19f    ....    BL       I2C_slaveClearInterruptStatus ; 0x40000d50
        0x400046d8:    91000673    s...    ADD      x19,x19,#1
        0x400046dc:    f1003a7f    .:..    CMP      x19,#0xe
        0x400046e0:    54fffb21    !..T    B.NE     0x40004644 ; renesas_slave_rx_fna + 196
        0x400046e4:    b94002e8    ..@.    LDR      w8,[x23,#0]
        0x400046e8:    3637ffe8    ..76    TBZ      w8,#6,0x400046e4 ; renesas_slave_rx_fna + 356
        0x400046ec:    91402280    ."@.    ADD      x0,x20,#8,LSL #12
        0x400046f0:    321a03e1    ...2    ORR      w1,wzr,#0x40
        0x400046f4:    97fff02f    /...    BL       I2C_masterClearInterruptStatus ; 0x400007b0
        0x400046f8:    b9400a88    ..@.    LDR      w8,[x20,#8]
        0x400046fc:    3627ffe8    ..'6    TBZ      w8,#4,0x400046f8 ; renesas_slave_rx_fna + 376
        0x40004700:    52bcca00    ...R    MOV      w0,#0xe6500000
        0x40004704:    321c03e1    ...2    ORR      w1,wzr,#0x10
        0x40004708:    97fff192    ....    BL       I2C_slaveClearInterruptStatus ; 0x40000d50
        0x4000470c:    b94002e8    ..@.    LDR      w8,[x23,#0]
        0x40004710:    3627ffe8    ..'6    TBZ      w8,#4,0x4000470c ; renesas_slave_rx_fna + 396
        0x40004714:    91402293    ."@.    ADD      x19,x20,#8,LSL #12
        0x40004718:    321c03e1    ...2    ORR      w1,wzr,#0x10
        0x4000471c:    aa1303e0    ....    MOV      x0,x19
        0x40004720:    97fff024    $...    BL       I2C_masterClearInterruptStatus ; 0x400007b0
        0x40004724:    aa1303e0    ....    MOV      x0,x19
        0x40004728:    97fff026    &...    BL       I2C_masterDisable ; 0x400007c0
        0x4000472c:    52bcca00    ...R    MOV      w0,#0xe6500000
        0x40004730:    97fff18c    ....    BL       I2C_slaveDisable ; 0x40000d60
        0x40004734:    2a1f03e8    ...*    MOV      w8,wzr
        0x40004738:    12001d09    ....    AND      w9,w8,#0xff
        0x4000473c:    d37ef529    ).~.    LSL      x9,x9,#2
        0x40004740:    b8696aca    .ji.    LDR      w10,[x22,x9]
        0x40004744:    b8696aa9    .ji.    LDR      w9,[x21,x9]
        0x40004748:    6b09015f    _..k    CMP      w10,w9
        0x4000474c:    540000e1    ...T    B.NE     0x40004768 ; renesas_slave_rx_fna + 488
        0x40004750:    11000508    ....    ADD      w8,w8,#1
        0x40004754:    12001d09    ....    AND      w9,w8,#0xff
        0x40004758:    7100313f    ?1.q    CMP      w9,#0xc
        0x4000475c:    54fffee9    ...T    B.LS     0x40004738 ; renesas_slave_rx_fna + 440
        0x40004760:    2a1f03e0    ...*    MOV      w0,wzr
        0x40004764:    14000002    ....    B        0x4000476c ; renesas_slave_rx_fna + 492
        0x40004768:    320003e0    ...2    ORR      w0,wzr,#1
        0x4000476c:    a9427bf3    .{B.    LDP      x19,x30,[sp,#0x20]
        0x40004770:    a94153f5    .SA.    LDP      x21,x20,[sp,#0x10]
        0x40004774:    a8c35bf7    .[..    LDP      x23,x22,[sp],#0x30
        0x40004778:    d65f03c0    .._.    RET      
        0x4000477c:    00000000    ....    DCI      0x00000000 ; ? Undefined
    renesas_slave_rx_fna_delay
        0x40004780:    a9bd5bf7    .[..    STP      x23,x22,[sp,#-0x30]!
        0x40004784:    a90153f5    .S..    STP      x21,x20,[sp,#0x10]
        0x40004788:    a9027bf3    .{..    STP      x19,x30,[sp,#0x20]
        0x4000478c:    52bcca14    ...R    MOV      w20,#0xe6500000
        0x40004790:    91402293    ."@.    ADD      x19,x20,#8,LSL #12
        0x40004794:    f0000001    ....    ADRP     x1,{pc}+0x3000 ; 0x40007794
        0x40004798:    91156021    !`..    ADD      x1,x1,#0x558
        0x4000479c:    aa1303e0    ....    MOV      x0,x19
        0x400047a0:    97fff034    4...    BL       I2C_masterInit ; 0x40000870
        0x400047a4:    12800001    ....    MOV      w1,#0xffffffff
        0x400047a8:    aa1303e0    ....    MOV      x0,x19
        0x400047ac:    97fff001    ....    BL       I2C_masterClearInterruptStatus ; 0x400007b0
        0x400047b0:    aa1303e0    ....    MOV      x0,x19
        0x400047b4:    97fff017    ....    BL       I2C_masterEnable ; 0x40000810
        0x400047b8:    f0000001    ....    ADRP     x1,{pc}+0x3000 ; 0x400077b8
        0x400047bc:    9139d021    !.9.    ADD      x1,x1,#0xe74
        0x400047c0:    52bcca00    ...R    MOV      w0,#0xe6500000
        0x400047c4:    97fff187    ....    BL       I2C_slaveInit ; 0x40000de0
        0x400047c8:    b9400288    ..@.    LDR      w8,[x20,#0]
        0x400047cc:    121c7908    .y..    AND      w8,w8,#0xfffffff7
        0x400047d0:    b9000288    ....    STR      w8,[x20,#0]
        0x400047d4:    52bcca00    ...R    MOV      w0,#0xe6500000
        0x400047d8:    12800001    ....    MOV      w1,#0xffffffff
        0x400047dc:    97fff15d    ]...    BL       I2C_slaveClearInterruptStatus ; 0x40000d50
        0x400047e0:    52bcca00    ...R    MOV      w0,#0xe6500000
        0x400047e4:    97fff16b    k...    BL       I2C_slaveEnable ; 0x40000d90
        0x400047e8:    52800901    ...R    MOV      w1,#0x48
        0x400047ec:    aa1303e0    ....    MOV      x0,x19
        0x400047f0:    97fff130    0...    BL       I2C_masterSendMultipleByteStart ; 0x40000cb0
        0x400047f4:    b9400a88    ..@.    LDR      w8,[x20,#8]
        0x400047f8:    3607ffe8    ...6    TBZ      w8,#0,0x400047f4 ; renesas_slave_rx_fna_delay + 116
        0x400047fc:    52900197    ...R    MOV      w23,#0x800c
        0x40004800:    72bcca17    ...r    MOVK     w23,#0xe650,LSL #16
        0x40004804:    52bcca00    ...R    MOV      w0,#0xe6500000
        0x40004808:    320003e1    ...2    ORR      w1,wzr,#1
        0x4000480c:    97fff151    Q...    BL       I2C_slaveClearInterruptStatus ; 0x40000d50
        0x40004810:    b94002e8    ..@.    LDR      w8,[x23,#0]
        0x40004814:    3607ffe8    ...6    TBZ      w8,#0,0x40004810 ; renesas_slave_rx_fna_delay + 144
        0x40004818:    91402293    ."@.    ADD      x19,x20,#8,LSL #12
        0x4000481c:    aa1303e0    ....    MOV      x0,x19
        0x40004820:    97ffeff8    ....    BL       I2C_masterDisableStartGeneration ; 0x40000800
        0x40004824:    52800121    !..R    MOV      w1,#9
        0x40004828:    aa1303e0    ....    MOV      x0,x19
        0x4000482c:    97ffefe1    ....    BL       I2C_masterClearInterruptStatus ; 0x400007b0
        0x40004830:    f0000015    ....    ADRP     x21,{pc}+0x3000 ; 0x40007830
        0x40004834:    912e02b5    ....    ADD      x21,x21,#0xb80
        0x40004838:    320003f3    ...2    ORR      w19,wzr,#1
        0x4000483c:    d0000036    6...    ADRP     x22,{pc}+0x6000 ; 0x4000a83c
        0x40004840:    911022d6    ."..    ADD      x22,x22,#0x408
        0x40004844:    b94002e8    ..@.    LDR      w8,[x23,#0]
        0x40004848:    361fffe8    ...6    TBZ      w8,#3,0x40004844 ; renesas_slave_rx_fna_delay + 196
        0x4000484c:    f100327f    .2..    CMP      x19,#0xc
        0x40004850:    54000088    ...T    B.HI     0x40004860 ; renesas_slave_rx_fna_delay + 224
        0x40004854:    b8737aa1    .zs.    LDR      w1,[x21,x19,LSL #2]
        0x40004858:    91402280    ."@.    ADD      x0,x20,#8,LSL #12
        0x4000485c:    97fff111    ....    BL       I2C_masterSendMultipleByteNext ; 0x40000ca0
        0x40004860:    91402280    ."@.    ADD      x0,x20,#8,LSL #12
        0x40004864:    321d03e1    ...2    ORR      w1,wzr,#8
        0x40004868:    97ffefd2    ....    BL       I2C_masterClearInterruptStatus ; 0x400007b0
        0x4000486c:    b94002e8    ..@.    LDR      w8,[x23,#0]
        0x40004870:    3617ffe8    ...6    TBZ      w8,#2,0x4000486c ; renesas_slave_rx_fna_delay + 236
        0x40004874:    91402280    ."@.    ADD      x0,x20,#8,LSL #12
        0x40004878:    321e03e1    ...2    ORR      w1,wzr,#4
        0x4000487c:    97ffefcd    ....    BL       I2C_masterClearInterruptStatus ; 0x400007b0
        0x40004880:    b9400a88    ..@.    LDR      w8,[x20,#8]
        0x40004884:    360fffe8    ...6    TBZ      w8,#1,0x40004880 ; renesas_slave_rx_fna_delay + 256
        0x40004888:    f1002e7f    ....    CMP      x19,#0xb
        0x4000488c:    54000088    ...T    B.HI     0x4000489c ; renesas_slave_rx_fna_delay + 284
        0x40004890:    52bcca00    ...R    MOV      w0,#0xe6500000
        0x40004894:    97fff247    G...    BL       I2C_slaveReceiveMultipleByteNext ; 0x400011b0
        0x40004898:    1400000a    ....    B        0x400048c0 ; renesas_slave_rx_fna_delay + 320
        0x4000489c:    7100367f    .6.q    CMP      w19,#0xd
        0x400048a0:    540000c0    ...T    B.EQ     0x400048b8 ; renesas_slave_rx_fna_delay + 312
        0x400048a4:    7100327f    .2.q    CMP      w19,#0xc
        0x400048a8:    54000101    ...T    B.NE     0x400048c8 ; renesas_slave_rx_fna_delay + 328
        0x400048ac:    52bcca00    ...R    MOV      w0,#0xe6500000
        0x400048b0:    97fff244    D...    BL       I2C_slaveReceiveMultipleByteStop ; 0x400011c0
        0x400048b4:    14000003    ....    B        0x400048c0 ; renesas_slave_rx_fna_delay + 320
        0x400048b8:    52bcca00    ...R    MOV      w0,#0xe6500000
        0x400048bc:    97fff239    9...    BL       I2C_slaveReceiveMultipleByteFinish ; 0x400011a0
        0x400048c0:    8b130ac8    ....    ADD      x8,x22,x19,LSL #2
        0x400048c4:    b81fc100    ....    STUR     w0,[x8,#-4]
        0x400048c8:    52806400    .d.R    MOV      w0,#0x320
        0x400048cc:    97fff261    a...    BL       Sim_Delay ; 0x40001250
        0x400048d0:    52bcca00    ...R    MOV      w0,#0xe6500000
        0x400048d4:    321f03e1    ...2    ORR      w1,wzr,#2
        0x400048d8:    97fff11e    ....    BL       I2C_slaveClearInterruptStatus ; 0x40000d50
        0x400048dc:    91000673    s...    ADD      x19,x19,#1
        0x400048e0:    f1003a7f    .:..    CMP      x19,#0xe
        0x400048e4:    54fffb01    ...T    B.NE     0x40004844 ; renesas_slave_rx_fna_delay + 196
        0x400048e8:    b94002e8    ..@.    LDR      w8,[x23,#0]
        0x400048ec:    3637ffe8    ..76    TBZ      w8,#6,0x400048e8 ; renesas_slave_rx_fna_delay + 360
        0x400048f0:    91402280    ."@.    ADD      x0,x20,#8,LSL #12
        0x400048f4:    321a03e1    ...2    ORR      w1,wzr,#0x40
        0x400048f8:    97ffefae    ....    BL       I2C_masterClearInterruptStatus ; 0x400007b0
        0x400048fc:    b9400a88    ..@.    LDR      w8,[x20,#8]
        0x40004900:    3627ffe8    ..'6    TBZ      w8,#4,0x400048fc ; renesas_slave_rx_fna_delay + 380
        0x40004904:    52bcca00    ...R    MOV      w0,#0xe6500000
        0x40004908:    321c03e1    ...2    ORR      w1,wzr,#0x10
        0x4000490c:    97fff111    ....    BL       I2C_slaveClearInterruptStatus ; 0x40000d50
        0x40004910:    b94002e8    ..@.    LDR      w8,[x23,#0]
        0x40004914:    3627ffe8    ..'6    TBZ      w8,#4,0x40004910 ; renesas_slave_rx_fna_delay + 400
        0x40004918:    91402293    ."@.    ADD      x19,x20,#8,LSL #12
        0x4000491c:    321c03e1    ...2    ORR      w1,wzr,#0x10
        0x40004920:    aa1303e0    ....    MOV      x0,x19
        0x40004924:    97ffefa3    ....    BL       I2C_masterClearInterruptStatus ; 0x400007b0
        0x40004928:    aa1303e0    ....    MOV      x0,x19
        0x4000492c:    97ffefa5    ....    BL       I2C_masterDisable ; 0x400007c0
        0x40004930:    52bcca00    ...R    MOV      w0,#0xe6500000
        0x40004934:    97fff10b    ....    BL       I2C_slaveDisable ; 0x40000d60
        0x40004938:    aa1f03e8    ....    MOV      x8,xzr
        0x4000493c:    d37ef509    ..~.    LSL      x9,x8,#2
        0x40004940:    b8696aca    .ji.    LDR      w10,[x22,x9]
        0x40004944:    b8696aa9    .ji.    LDR      w9,[x21,x9]
        0x40004948:    6b09015f    _..k    CMP      w10,w9
        0x4000494c:    540000c1    ...T    B.NE     0x40004964 ; renesas_slave_rx_fna_delay + 484
        0x40004950:    91000508    ....    ADD      x8,x8,#1
        0x40004954:    7100311f    .1.q    CMP      w8,#0xc
        0x40004958:    54ffff29    )..T    B.LS     0x4000493c ; renesas_slave_rx_fna_delay + 444
        0x4000495c:    2a1f03e0    ...*    MOV      w0,wzr
        0x40004960:    14000002    ....    B        0x40004968 ; renesas_slave_rx_fna_delay + 488
        0x40004964:    320003e0    ...2    ORR      w0,wzr,#1
        0x40004968:    a9427bf3    .{B.    LDP      x19,x30,[sp,#0x20]
        0x4000496c:    a94153f5    .SA.    LDP      x21,x20,[sp,#0x10]
        0x40004970:    a8c35bf7    .[..    LDP      x23,x22,[sp],#0x30
        0x40004974:    d65f03c0    .._.    RET      
        0x40004978:    00000000    ....    DCI      0x00000000 ; ? Undefined
        0x4000497c:    00000000    ....    DCI      0x00000000 ; ? Undefined
    renesas_slave_rx_fna_sdbs
        0x40004980:    a9bc63f9    .c..    STP      x25,x24,[sp,#-0x40]!
        0x40004984:    a9015bf7    .[..    STP      x23,x22,[sp,#0x10]
        0x40004988:    a90253f5    .S..    STP      x21,x20,[sp,#0x20]
        0x4000498c:    a9037bf3    .{..    STP      x19,x30,[sp,#0x30]
        0x40004990:    52900014    ...R    MOV      w20,#0x8000
        0x40004994:    72bcca14    ...r    MOVK     w20,#0xe650,LSL #16
        0x40004998:    f0000001    ....    ADRP     x1,{pc}+0x3000 ; 0x40007998
        0x4000499c:    910ea021    !...    ADD      x1,x1,#0x3a8
        0x400049a0:    52900000    ...R    MOV      w0,#0x8000
        0x400049a4:    72bcca00    ...r    MOVK     w0,#0xe650,LSL #16
        0x400049a8:    97ffefb2    ....    BL       I2C_masterInit ; 0x40000870
        0x400049ac:    52900000    ...R    MOV      w0,#0x8000
        0x400049b0:    72bcca00    ...r    MOVK     w0,#0xe650,LSL #16
        0x400049b4:    12800001    ....    MOV      w1,#0xffffffff
        0x400049b8:    97ffef7e    ~...    BL       I2C_masterClearInterruptStatus ; 0x400007b0
        0x400049bc:    52900000    ...R    MOV      w0,#0x8000
        0x400049c0:    72bcca00    ...r    MOVK     w0,#0xe650,LSL #16
        0x400049c4:    97ffef93    ....    BL       I2C_masterEnable ; 0x40000810
        0x400049c8:    d1402293    ."@.    SUB      x19,x20,#8,LSL #12
        0x400049cc:    f0000001    ....    ADRP     x1,{pc}+0x3000 ; 0x400079cc
        0x400049d0:    91331021    !.3.    ADD      x1,x1,#0xcc4
        0x400049d4:    aa1303e0    ....    MOV      x0,x19
        0x400049d8:    97fff102    ....    BL       I2C_slaveInit ; 0x40000de0
        0x400049dc:    12800001    ....    MOV      w1,#0xffffffff
        0x400049e0:    aa1303e0    ....    MOV      x0,x19
        0x400049e4:    97fff0db    ....    BL       I2C_slaveClearInterruptStatus ; 0x40000d50
        0x400049e8:    aa1303e0    ....    MOV      x0,x19
        0x400049ec:    97fff0e9    ....    BL       I2C_slaveEnable ; 0x40000d90
        0x400049f0:    52900000    ...R    MOV      w0,#0x8000
        0x400049f4:    72bcca00    ...r    MOVK     w0,#0xe650,LSL #16
        0x400049f8:    52800901    ...R    MOV      w1,#0x48
        0x400049fc:    97fff0ad    ....    BL       I2C_masterSendMultipleByteStart ; 0x40000cb0
        0x40004a00:    928ffee8    ....    MOV      x8,#0xffffffffffff8008
        0x40004a04:    b8686a89    .jh.    LDR      w9,[x20,x8]
        0x40004a08:    3607ffe9    ...6    TBZ      w9,#0,0x40004a04 ; renesas_slave_rx_fna_sdbs + 132
        0x40004a0c:    52900197    ...R    MOV      w23,#0x800c
        0x40004a10:    72bcca17    ...r    MOVK     w23,#0xe650,LSL #16
        0x40004a14:    320003e1    ...2    ORR      w1,wzr,#1
        0x40004a18:    aa1303e0    ....    MOV      x0,x19
        0x40004a1c:    97fff0cd    ....    BL       I2C_slaveClearInterruptStatus ; 0x40000d50
        0x40004a20:    b94002e8    ..@.    LDR      w8,[x23,#0]
        0x40004a24:    3607ffe8    ...6    TBZ      w8,#0,0x40004a20 ; renesas_slave_rx_fna_sdbs + 160
        0x40004a28:    52900000    ...R    MOV      w0,#0x8000
        0x40004a2c:    72bcca00    ...r    MOVK     w0,#0xe650,LSL #16
        0x40004a30:    97ffef74    t...    BL       I2C_masterDisableStartGeneration ; 0x40000800
        0x40004a34:    52900000    ...R    MOV      w0,#0x8000
        0x40004a38:    72bcca00    ...r    MOVK     w0,#0xe650,LSL #16
        0x40004a3c:    52800121    !..R    MOV      w1,#9
        0x40004a40:    97ffef5c    \...    BL       I2C_masterClearInterruptStatus ; 0x400007b0
        0x40004a44:    320003f8    ...2    ORR      w24,wzr,#1
        0x40004a48:    f0000015    ....    ADRP     x21,{pc}+0x3000 ; 0x40007a48
        0x40004a4c:    911cf2b5    ....    ADD      x21,x21,#0x73c
        0x40004a50:    928ffef9    ....    MOV      x25,#0xffffffffffff8008
        0x40004a54:    b0000036    6...    ADRP     x22,{pc}+0x5000 ; 0x40009a54
        0x40004a58:    913fe2d6    ..?.    ADD      x22,x22,#0xff8
        0x40004a5c:    b94002e8    ..@.    LDR      w8,[x23,#0]
        0x40004a60:    361fffe8    ...6    TBZ      w8,#3,0x40004a5c ; renesas_slave_rx_fna_sdbs + 220
        0x40004a64:    f100331f    .3..    CMP      x24,#0xc
        0x40004a68:    540000a8    ...T    B.HI     0x40004a7c ; renesas_slave_rx_fna_sdbs + 252
        0x40004a6c:    b8787aa1    .zx.    LDR      w1,[x21,x24,LSL #2]
        0x40004a70:    52900000    ...R    MOV      w0,#0x8000
        0x40004a74:    72bcca00    ...r    MOVK     w0,#0xe650,LSL #16
        0x40004a78:    97fff08a    ....    BL       I2C_masterSendMultipleByteNext ; 0x40000ca0
        0x40004a7c:    52900000    ...R    MOV      w0,#0x8000
        0x40004a80:    72bcca00    ...r    MOVK     w0,#0xe650,LSL #16
        0x40004a84:    321d03e1    ...2    ORR      w1,wzr,#8
        0x40004a88:    97ffef4a    J...    BL       I2C_masterClearInterruptStatus ; 0x400007b0
        0x40004a8c:    b94002e8    ..@.    LDR      w8,[x23,#0]
        0x40004a90:    3617ffe8    ...6    TBZ      w8,#2,0x40004a8c ; renesas_slave_rx_fna_sdbs + 268
        0x40004a94:    52900000    ...R    MOV      w0,#0x8000
        0x40004a98:    72bcca00    ...r    MOVK     w0,#0xe650,LSL #16
        0x40004a9c:    321e03e1    ...2    ORR      w1,wzr,#4
        0x40004aa0:    97ffef44    D...    BL       I2C_masterClearInterruptStatus ; 0x400007b0
        0x40004aa4:    b8796a88    .jy.    LDR      w8,[x20,x25]
        0x40004aa8:    360fffe8    ...6    TBZ      w8,#1,0x40004aa4 ; renesas_slave_rx_fna_sdbs + 292
        0x40004aac:    f1002f1f    ./..    CMP      x24,#0xb
        0x40004ab0:    54000088    ...T    B.HI     0x40004ac0 ; renesas_slave_rx_fna_sdbs + 320
        0x40004ab4:    aa1303e0    ....    MOV      x0,x19
        0x40004ab8:    97fff1be    ....    BL       I2C_slaveReceiveMultipleByteNext ; 0x400011b0
        0x40004abc:    1400000a    ....    B        0x40004ae4 ; renesas_slave_rx_fna_sdbs + 356
        0x40004ac0:    7100371f    .7.q    CMP      w24,#0xd
        0x40004ac4:    540000c0    ...T    B.EQ     0x40004adc ; renesas_slave_rx_fna_sdbs + 348
        0x40004ac8:    7100331f    .3.q    CMP      w24,#0xc
        0x40004acc:    54000101    ...T    B.NE     0x40004aec ; renesas_slave_rx_fna_sdbs + 364
        0x40004ad0:    aa1303e0    ....    MOV      x0,x19
        0x40004ad4:    97fff1bb    ....    BL       I2C_slaveReceiveMultipleByteStop ; 0x400011c0
        0x40004ad8:    14000003    ....    B        0x40004ae4 ; renesas_slave_rx_fna_sdbs + 356
        0x40004adc:    aa1303e0    ....    MOV      x0,x19
        0x40004ae0:    97fff1b0    ....    BL       I2C_slaveReceiveMultipleByteFinish ; 0x400011a0
        0x40004ae4:    8b180ac8    ....    ADD      x8,x22,x24,LSL #2
        0x40004ae8:    b81fc100    ....    STUR     w0,[x8,#-4]
        0x40004aec:    321f03e1    ...2    ORR      w1,wzr,#2
        0x40004af0:    aa1303e0    ....    MOV      x0,x19
        0x40004af4:    97fff097    ....    BL       I2C_slaveClearInterruptStatus ; 0x40000d50
        0x40004af8:    91000718    ....    ADD      x24,x24,#1
        0x40004afc:    f1003b1f    .;..    CMP      x24,#0xe
        0x40004b00:    54fffae1    ...T    B.NE     0x40004a5c ; renesas_slave_rx_fna_sdbs + 220
        0x40004b04:    b94002e8    ..@.    LDR      w8,[x23,#0]
        0x40004b08:    3637ffe8    ..76    TBZ      w8,#6,0x40004b04 ; renesas_slave_rx_fna_sdbs + 388
        0x40004b0c:    52900000    ...R    MOV      w0,#0x8000
        0x40004b10:    72bcca00    ...r    MOVK     w0,#0xe650,LSL #16
        0x40004b14:    321a03e1    ...2    ORR      w1,wzr,#0x40
        0x40004b18:    97ffef26    &...    BL       I2C_masterClearInterruptStatus ; 0x400007b0
        0x40004b1c:    928ffee8    ....    MOV      x8,#0xffffffffffff8008
        0x40004b20:    b8686a89    .jh.    LDR      w9,[x20,x8]
        0x40004b24:    3627ffe9    ..'6    TBZ      w9,#4,0x40004b20 ; renesas_slave_rx_fna_sdbs + 416
        0x40004b28:    321c03e1    ...2    ORR      w1,wzr,#0x10
        0x40004b2c:    aa1303e0    ....    MOV      x0,x19
        0x40004b30:    97fff088    ....    BL       I2C_slaveClearInterruptStatus ; 0x40000d50
        0x40004b34:    b94002e8    ..@.    LDR      w8,[x23,#0]
        0x40004b38:    3627ffe8    ..'6    TBZ      w8,#4,0x40004b34 ; renesas_slave_rx_fna_sdbs + 436
        0x40004b3c:    52900000    ...R    MOV      w0,#0x8000
        0x40004b40:    72bcca00    ...r    MOVK     w0,#0xe650,LSL #16
        0x40004b44:    321c03e1    ...2    ORR      w1,wzr,#0x10
        0x40004b48:    97ffef1a    ....    BL       I2C_masterClearInterruptStatus ; 0x400007b0
        0x40004b4c:    52900000    ...R    MOV      w0,#0x8000
        0x40004b50:    72bcca00    ...r    MOVK     w0,#0xe650,LSL #16
        0x40004b54:    97ffef1b    ....    BL       I2C_masterDisable ; 0x400007c0
        0x40004b58:    aa1303e0    ....    MOV      x0,x19
        0x40004b5c:    97fff081    ....    BL       I2C_slaveDisable ; 0x40000d60
        0x40004b60:    aa1f03e8    ....    MOV      x8,xzr
        0x40004b64:    d37ef509    ..~.    LSL      x9,x8,#2
        0x40004b68:    b8696aca    .ji.    LDR      w10,[x22,x9]
        0x40004b6c:    b8696aa9    .ji.    LDR      w9,[x21,x9]
        0x40004b70:    6b09015f    _..k    CMP      w10,w9
        0x40004b74:    540000c1    ...T    B.NE     0x40004b8c ; renesas_slave_rx_fna_sdbs + 524
        0x40004b78:    91000508    ....    ADD      x8,x8,#1
        0x40004b7c:    7100311f    .1.q    CMP      w8,#0xc
        0x40004b80:    54ffff29    )..T    B.LS     0x40004b64 ; renesas_slave_rx_fna_sdbs + 484
        0x40004b84:    2a1f03e0    ...*    MOV      w0,wzr
        0x40004b88:    14000002    ....    B        0x40004b90 ; renesas_slave_rx_fna_sdbs + 528
        0x40004b8c:    320003e0    ...2    ORR      w0,wzr,#1
        0x40004b90:    a9437bf3    .{C.    LDP      x19,x30,[sp,#0x30]
        0x40004b94:    a94253f5    .SB.    LDP      x21,x20,[sp,#0x20]
        0x40004b98:    a9415bf7    .[A.    LDP      x23,x22,[sp,#0x10]
        0x40004b9c:    a8c463f9    .c..    LDP      x25,x24,[sp],#0x40
        0x40004ba0:    d65f03c0    .._.    RET      
        0x40004ba4:    00000000    ....    DCI      0x00000000 ; ? Undefined
        0x40004ba8:    00000000    ....    DCI      0x00000000 ; ? Undefined
        0x40004bac:    00000000    ....    DCI      0x00000000 ; ? Undefined
    renesas_slave_rx_sdbs
        0x40004bb0:    a9bc63f9    .c..    STP      x25,x24,[sp,#-0x40]!
        0x40004bb4:    a9015bf7    .[..    STP      x23,x22,[sp,#0x10]
        0x40004bb8:    a90253f5    .S..    STP      x21,x20,[sp,#0x20]
        0x40004bbc:    a9037bf3    .{..    STP      x19,x30,[sp,#0x30]
        0x40004bc0:    52900014    ...R    MOV      w20,#0x8000
        0x40004bc4:    72bcca14    ...r    MOVK     w20,#0xe650,LSL #16
        0x40004bc8:    f0000001    ....    ADRP     x1,{pc}+0x3000 ; 0x40007bc8
        0x40004bcc:    910d2021    ! ..    ADD      x1,x1,#0x348
        0x40004bd0:    52900000    ...R    MOV      w0,#0x8000
        0x40004bd4:    72bcca00    ...r    MOVK     w0,#0xe650,LSL #16
        0x40004bd8:    97ffef26    &...    BL       I2C_masterInit ; 0x40000870
        0x40004bdc:    52900000    ...R    MOV      w0,#0x8000
        0x40004be0:    72bcca00    ...r    MOVK     w0,#0xe650,LSL #16
        0x40004be4:    12800001    ....    MOV      w1,#0xffffffff
        0x40004be8:    97ffeef2    ....    BL       I2C_masterClearInterruptStatus ; 0x400007b0
        0x40004bec:    52900000    ...R    MOV      w0,#0x8000
        0x40004bf0:    72bcca00    ...r    MOVK     w0,#0xe650,LSL #16
        0x40004bf4:    97ffef07    ....    BL       I2C_masterEnable ; 0x40000810
        0x40004bf8:    d1402293    ."@.    SUB      x19,x20,#8,LSL #12
        0x40004bfc:    f0000001    ....    ADRP     x1,{pc}+0x3000 ; 0x40007bfc
        0x40004c00:    91319021    !.1.    ADD      x1,x1,#0xc64
        0x40004c04:    aa1303e0    ....    MOV      x0,x19
        0x40004c08:    97fff076    v...    BL       I2C_slaveInit ; 0x40000de0
        0x40004c0c:    12800001    ....    MOV      w1,#0xffffffff
        0x40004c10:    aa1303e0    ....    MOV      x0,x19
        0x40004c14:    97fff04f    O...    BL       I2C_slaveClearInterruptStatus ; 0x40000d50
        0x40004c18:    aa1303e0    ....    MOV      x0,x19
        0x40004c1c:    97fff05d    ]...    BL       I2C_slaveEnable ; 0x40000d90
        0x40004c20:    52900000    ...R    MOV      w0,#0x8000
        0x40004c24:    72bcca00    ...r    MOVK     w0,#0xe650,LSL #16
        0x40004c28:    52800901    ...R    MOV      w1,#0x48
        0x40004c2c:    97fff021    !...    BL       I2C_masterSendMultipleByteStart ; 0x40000cb0
        0x40004c30:    928ffee8    ....    MOV      x8,#0xffffffffffff8008
        0x40004c34:    b8686a89    .jh.    LDR      w9,[x20,x8]
        0x40004c38:    3607ffe9    ...6    TBZ      w9,#0,0x40004c34 ; renesas_slave_rx_sdbs + 132
        0x40004c3c:    52900197    ...R    MOV      w23,#0x800c
        0x40004c40:    72bcca17    ...r    MOVK     w23,#0xe650,LSL #16
        0x40004c44:    320003e1    ...2    ORR      w1,wzr,#1
        0x40004c48:    aa1303e0    ....    MOV      x0,x19
        0x40004c4c:    97fff041    A...    BL       I2C_slaveClearInterruptStatus ; 0x40000d50
        0x40004c50:    b94002e8    ..@.    LDR      w8,[x23,#0]
        0x40004c54:    3607ffe8    ...6    TBZ      w8,#0,0x40004c50 ; renesas_slave_rx_sdbs + 160
        0x40004c58:    52900000    ...R    MOV      w0,#0x8000
        0x40004c5c:    72bcca00    ...r    MOVK     w0,#0xe650,LSL #16
        0x40004c60:    97ffeee8    ....    BL       I2C_masterDisableStartGeneration ; 0x40000800
        0x40004c64:    52900000    ...R    MOV      w0,#0x8000
        0x40004c68:    72bcca00    ...r    MOVK     w0,#0xe650,LSL #16
        0x40004c6c:    52800121    !..R    MOV      w1,#9
        0x40004c70:    97ffeed0    ....    BL       I2C_masterClearInterruptStatus ; 0x400007b0
        0x40004c74:    320003f8    ...2    ORR      w24,wzr,#1
        0x40004c78:    f0000015    ....    ADRP     x21,{pc}+0x3000 ; 0x40007c78
        0x40004c7c:    9119b2b5    ....    ADD      x21,x21,#0x66c
        0x40004c80:    928ffef9    ....    MOV      x25,#0xffffffffffff8008
        0x40004c84:    b0000036    6...    ADRP     x22,{pc}+0x5000 ; 0x40009c84
        0x40004c88:    913ca2d6    ..<.    ADD      x22,x22,#0xf28
        0x40004c8c:    b94002e8    ..@.    LDR      w8,[x23,#0]
        0x40004c90:    361fffe8    ...6    TBZ      w8,#3,0x40004c8c ; renesas_slave_rx_sdbs + 220
        0x40004c94:    f100331f    .3..    CMP      x24,#0xc
        0x40004c98:    540000c8    ...T    B.HI     0x40004cb0 ; renesas_slave_rx_sdbs + 256
        0x40004c9c:    b8787aa1    .zx.    LDR      w1,[x21,x24,LSL #2]
        0x40004ca0:    52900000    ...R    MOV      w0,#0x8000
        0x40004ca4:    72bcca00    ...r    MOVK     w0,#0xe650,LSL #16
        0x40004ca8:    97ffeffe    ....    BL       I2C_masterSendMultipleByteNext ; 0x40000ca0
        0x40004cac:    14000006    ....    B        0x40004cc4 ; renesas_slave_rx_sdbs + 276
        0x40004cb0:    f100371f    .7..    CMP      x24,#0xd
        0x40004cb4:    54000081    ...T    B.NE     0x40004cc4 ; renesas_slave_rx_sdbs + 276
        0x40004cb8:    52900000    ...R    MOV      w0,#0x8000
        0x40004cbc:    72bcca00    ...r    MOVK     w0,#0xe650,LSL #16
        0x40004cc0:    97fff004    ....    BL       I2C_masterSendMultipleByteStop ; 0x40000cd0
        0x40004cc4:    52900000    ...R    MOV      w0,#0x8000
        0x40004cc8:    72bcca00    ...r    MOVK     w0,#0xe650,LSL #16
        0x40004ccc:    321d03e1    ...2    ORR      w1,wzr,#8
        0x40004cd0:    97ffeeb8    ....    BL       I2C_masterClearInterruptStatus ; 0x400007b0
        0x40004cd4:    b94002e8    ..@.    LDR      w8,[x23,#0]
        0x40004cd8:    3617ffe8    ...6    TBZ      w8,#2,0x40004cd4 ; renesas_slave_rx_sdbs + 292
        0x40004cdc:    52900000    ...R    MOV      w0,#0x8000
        0x40004ce0:    72bcca00    ...r    MOVK     w0,#0xe650,LSL #16
        0x40004ce4:    321e03e1    ...2    ORR      w1,wzr,#4
        0x40004ce8:    97ffeeb2    ....    BL       I2C_masterClearInterruptStatus ; 0x400007b0
        0x40004cec:    b8796a88    .jy.    LDR      w8,[x20,x25]
        0x40004cf0:    360fffe8    ...6    TBZ      w8,#1,0x40004cec ; renesas_slave_rx_sdbs + 316
        0x40004cf4:    aa1303e0    ....    MOV      x0,x19
        0x40004cf8:    97fff12e    ....    BL       I2C_slaveReceiveMultipleByteNext ; 0x400011b0
        0x40004cfc:    8b180ac8    ....    ADD      x8,x22,x24,LSL #2
        0x40004d00:    b81fc100    ....    STUR     w0,[x8,#-4]
        0x40004d04:    321f03e1    ...2    ORR      w1,wzr,#2
        0x40004d08:    aa1303e0    ....    MOV      x0,x19
        0x40004d0c:    97fff011    ....    BL       I2C_slaveClearInterruptStatus ; 0x40000d50
        0x40004d10:    91000718    ....    ADD      x24,x24,#1
        0x40004d14:    f1003b1f    .;..    CMP      x24,#0xe
        0x40004d18:    54fffba1    ...T    B.NE     0x40004c8c ; renesas_slave_rx_sdbs + 220
        0x40004d1c:    928ffee8    ....    MOV      x8,#0xffffffffffff8008
        0x40004d20:    b8686a89    .jh.    LDR      w9,[x20,x8]
        0x40004d24:    3627ffe9    ..'6    TBZ      w9,#4,0x40004d20 ; renesas_slave_rx_sdbs + 368
        0x40004d28:    321c03e1    ...2    ORR      w1,wzr,#0x10
        0x40004d2c:    aa1303e0    ....    MOV      x0,x19
        0x40004d30:    97fff008    ....    BL       I2C_slaveClearInterruptStatus ; 0x40000d50
        0x40004d34:    b94002e8    ..@.    LDR      w8,[x23,#0]
        0x40004d38:    3627ffe8    ..'6    TBZ      w8,#4,0x40004d34 ; renesas_slave_rx_sdbs + 388
        0x40004d3c:    52900000    ...R    MOV      w0,#0x8000
        0x40004d40:    72bcca00    ...r    MOVK     w0,#0xe650,LSL #16
        0x40004d44:    321c03e1    ...2    ORR      w1,wzr,#0x10
        0x40004d48:    97ffee9a    ....    BL       I2C_masterClearInterruptStatus ; 0x400007b0
        0x40004d4c:    52900000    ...R    MOV      w0,#0x8000
        0x40004d50:    72bcca00    ...r    MOVK     w0,#0xe650,LSL #16
        0x40004d54:    97ffee9b    ....    BL       I2C_masterDisable ; 0x400007c0
        0x40004d58:    aa1303e0    ....    MOV      x0,x19
        0x40004d5c:    97fff001    ....    BL       I2C_slaveDisable ; 0x40000d60
        0x40004d60:    aa1f03e8    ....    MOV      x8,xzr
        0x40004d64:    d37ef509    ..~.    LSL      x9,x8,#2
        0x40004d68:    b8696aca    .ji.    LDR      w10,[x22,x9]
        0x40004d6c:    b8696aa9    .ji.    LDR      w9,[x21,x9]
        0x40004d70:    6b09015f    _..k    CMP      w10,w9
        0x40004d74:    540000c1    ...T    B.NE     0x40004d8c ; renesas_slave_rx_sdbs + 476
        0x40004d78:    91000508    ....    ADD      x8,x8,#1
        0x40004d7c:    7100311f    .1.q    CMP      w8,#0xc
        0x40004d80:    54ffff29    )..T    B.LS     0x40004d64 ; renesas_slave_rx_sdbs + 436
        0x40004d84:    2a1f03e0    ...*    MOV      w0,wzr
        0x40004d88:    14000002    ....    B        0x40004d90 ; renesas_slave_rx_sdbs + 480
        0x40004d8c:    320003e0    ...2    ORR      w0,wzr,#1
        0x40004d90:    a9437bf3    .{C.    LDP      x19,x30,[sp,#0x30]
        0x40004d94:    a94253f5    .SB.    LDP      x21,x20,[sp,#0x20]
        0x40004d98:    a9415bf7    .[A.    LDP      x23,x22,[sp,#0x10]
        0x40004d9c:    a8c463f9    .c..    LDP      x25,x24,[sp],#0x40
        0x40004da0:    d65f03c0    .._.    RET      
        0x40004da4:    00000000    ....    DCI      0x00000000 ; ? Undefined
        0x40004da8:    00000000    ....    DCI      0x00000000 ; ? Undefined
        0x40004dac:    00000000    ....    DCI      0x00000000 ; ? Undefined
    renesas_slave_tx
        0x40004db0:    a9bc63f9    .c..    STP      x25,x24,[sp,#-0x40]!
        0x40004db4:    a9015bf7    .[..    STP      x23,x22,[sp,#0x10]
        0x40004db8:    a90253f5    .S..    STP      x21,x20,[sp,#0x20]
        0x40004dbc:    a9037bf3    .{..    STP      x19,x30,[sp,#0x30]
        0x40004dc0:    52900014    ...R    MOV      w20,#0x8000
        0x40004dc4:    72bcca14    ...r    MOVK     w20,#0xe650,LSL #16
        0x40004dc8:    f0000001    ....    ADRP     x1,{pc}+0x3000 ; 0x40007dc8
        0x40004dcc:    910de021    !...    ADD      x1,x1,#0x378
        0x40004dd0:    52900000    ...R    MOV      w0,#0x8000
        0x40004dd4:    72bcca00    ...r    MOVK     w0,#0xe650,LSL #16
        0x40004dd8:    97ffeea6    ....    BL       I2C_masterInit ; 0x40000870
        0x40004ddc:    52900000    ...R    MOV      w0,#0x8000
        0x40004de0:    72bcca00    ...r    MOVK     w0,#0xe650,LSL #16
        0x40004de4:    12800001    ....    MOV      w1,#0xffffffff
        0x40004de8:    97ffee72    r...    BL       I2C_masterClearInterruptStatus ; 0x400007b0
        0x40004dec:    52900000    ...R    MOV      w0,#0x8000
        0x40004df0:    72bcca00    ...r    MOVK     w0,#0xe650,LSL #16
        0x40004df4:    97ffee87    ....    BL       I2C_masterEnable ; 0x40000810
        0x40004df8:    d1402293    ."@.    SUB      x19,x20,#8,LSL #12
        0x40004dfc:    f0000001    ....    ADRP     x1,{pc}+0x3000 ; 0x40007dfc
        0x40004e00:    91325021    !P2.    ADD      x1,x1,#0xc94
        0x40004e04:    aa1303e0    ....    MOV      x0,x19
        0x40004e08:    97ffeff6    ....    BL       I2C_slaveInit ; 0x40000de0
        0x40004e0c:    12800001    ....    MOV      w1,#0xffffffff
        0x40004e10:    aa1303e0    ....    MOV      x0,x19
        0x40004e14:    97ffefcf    ....    BL       I2C_slaveClearInterruptStatus ; 0x40000d50
        0x40004e18:    aa1303e0    ....    MOV      x0,x19
        0x40004e1c:    97ffefdd    ....    BL       I2C_slaveEnable ; 0x40000d90
        0x40004e20:    52800901    ...R    MOV      w1,#0x48
        0x40004e24:    aa1303e0    ....    MOV      x0,x19
        0x40004e28:    97fff0ee    ....    BL       I2C_slaveSetData ; 0x400011e0
        0x40004e2c:    52900000    ...R    MOV      w0,#0x8000
        0x40004e30:    72bcca00    ...r    MOVK     w0,#0xe650,LSL #16
        0x40004e34:    97ffef8f    ....    BL       I2C_masterReceiveStart ; 0x40000c70
        0x40004e38:    928ffee8    ....    MOV      x8,#0xffffffffffff8008
        0x40004e3c:    b8686a89    .jh.    LDR      w9,[x20,x8]
        0x40004e40:    3607ffe9    ...6    TBZ      w9,#0,0x40004e3c ; renesas_slave_tx + 140
        0x40004e44:    52900197    ...R    MOV      w23,#0x800c
        0x40004e48:    72bcca17    ...r    MOVK     w23,#0xe650,LSL #16
        0x40004e4c:    320003e1    ...2    ORR      w1,wzr,#1
        0x40004e50:    aa1303e0    ....    MOV      x0,x19
        0x40004e54:    97ffefbf    ....    BL       I2C_slaveClearInterruptStatus ; 0x40000d50
        0x40004e58:    b94002e8    ..@.    LDR      w8,[x23,#0]
        0x40004e5c:    3607ffe8    ...6    TBZ      w8,#0,0x40004e58 ; renesas_slave_tx + 168
        0x40004e60:    52900000    ...R    MOV      w0,#0x8000
        0x40004e64:    72bcca00    ...r    MOVK     w0,#0xe650,LSL #16
        0x40004e68:    97ffee66    f...    BL       I2C_masterDisableStartGeneration ; 0x40000800
        0x40004e6c:    52900000    ...R    MOV      w0,#0x8000
        0x40004e70:    72bcca00    ...r    MOVK     w0,#0xe650,LSL #16
        0x40004e74:    320007e1    ...2    ORR      w1,wzr,#3
        0x40004e78:    97ffee4e    N...    BL       I2C_masterClearInterruptStatus ; 0x400007b0
        0x40004e7c:    320003f8    ...2    ORR      w24,wzr,#1
        0x40004e80:    f0000015    ....    ADRP     x21,{pc}+0x3000 ; 0x40007e80
        0x40004e84:    911b52b5    .R..    ADD      x21,x21,#0x6d4
        0x40004e88:    928ffef9    ....    MOV      x25,#0xffffffffffff8008
        0x40004e8c:    b0000036    6...    ADRP     x22,{pc}+0x5000 ; 0x40009e8c
        0x40004e90:    913e42d6    .B>.    ADD      x22,x22,#0xf90
        0x40004e94:    b8796a88    .jy.    LDR      w8,[x20,x25]
        0x40004e98:    361fffe8    ...6    TBZ      w8,#3,0x40004e94 ; renesas_slave_tx + 228
        0x40004e9c:    f100331f    .3..    CMP      x24,#0xc
        0x40004ea0:    54000088    ...T    B.HI     0x40004eb0 ; renesas_slave_tx + 256
        0x40004ea4:    b8787aa1    .zx.    LDR      w1,[x21,x24,LSL #2]
        0x40004ea8:    aa1303e0    ....    MOV      x0,x19
        0x40004eac:    97fff0cd    ....    BL       I2C_slaveSetData ; 0x400011e0
        0x40004eb0:    321d03e1    ...2    ORR      w1,wzr,#8
        0x40004eb4:    aa1303e0    ....    MOV      x0,x19
        0x40004eb8:    97ffefa6    ....    BL       I2C_slaveClearInterruptStatus ; 0x40000d50
        0x40004ebc:    b8796a88    .jy.    LDR      w8,[x20,x25]
        0x40004ec0:    3617ffe8    ...6    TBZ      w8,#2,0x40004ebc ; renesas_slave_tx + 268
        0x40004ec4:    321e03e1    ...2    ORR      w1,wzr,#4
        0x40004ec8:    aa1303e0    ....    MOV      x0,x19
        0x40004ecc:    97ffefa1    ....    BL       I2C_slaveClearInterruptStatus ; 0x40000d50
        0x40004ed0:    b94002e8    ..@.    LDR      w8,[x23,#0]
        0x40004ed4:    360fffe8    ...6    TBZ      w8,#1,0x40004ed0 ; renesas_slave_tx + 288
        0x40004ed8:    f1002f1f    ./..    CMP      x24,#0xb
        0x40004edc:    540000a8    ...T    B.HI     0x40004ef0 ; renesas_slave_tx + 320
        0x40004ee0:    52900000    ...R    MOV      w0,#0x8000
        0x40004ee4:    72bcca00    ...r    MOVK     w0,#0xe650,LSL #16
        0x40004ee8:    97ffef56    V...    BL       I2C_masterReceiveMultipleByteNext ; 0x40000c40
        0x40004eec:    1400000c    ....    B        0x40004f1c ; renesas_slave_tx + 364
        0x40004ef0:    7100371f    .7.q    CMP      w24,#0xd
        0x40004ef4:    540000e0    ...T    B.EQ     0x40004f10 ; renesas_slave_tx + 352
        0x40004ef8:    7100331f    .3.q    CMP      w24,#0xc
        0x40004efc:    54000141    A..T    B.NE     0x40004f24 ; renesas_slave_tx + 372
        0x40004f00:    52900000    ...R    MOV      w0,#0x8000
        0x40004f04:    72bcca00    ...r    MOVK     w0,#0xe650,LSL #16
        0x40004f08:    97ffef52    R...    BL       I2C_masterReceiveMultipleByteStop ; 0x40000c50
        0x40004f0c:    14000004    ....    B        0x40004f1c ; renesas_slave_tx + 364
        0x40004f10:    52900000    ...R    MOV      w0,#0x8000
        0x40004f14:    72bcca00    ...r    MOVK     w0,#0xe650,LSL #16
        0x40004f18:    97ffef46    F...    BL       I2C_masterReceiveMultipleByteFinish ; 0x40000c30
        0x40004f1c:    8b180ac8    ....    ADD      x8,x22,x24,LSL #2
        0x40004f20:    b81fc100    ....    STUR     w0,[x8,#-4]
        0x40004f24:    52900000    ...R    MOV      w0,#0x8000
        0x40004f28:    72bcca00    ...r    MOVK     w0,#0xe650,LSL #16
        0x40004f2c:    321f03e1    ...2    ORR      w1,wzr,#2
        0x40004f30:    97ffee20     ...    BL       I2C_masterClearInterruptStatus ; 0x400007b0
        0x40004f34:    91000718    ....    ADD      x24,x24,#1
        0x40004f38:    f1003b1f    .;..    CMP      x24,#0xe
        0x40004f3c:    54fffac1    ...T    B.NE     0x40004e94 ; renesas_slave_tx + 228
        0x40004f40:    928ffee8    ....    MOV      x8,#0xffffffffffff8008
        0x40004f44:    b8686a89    .jh.    LDR      w9,[x20,x8]
        0x40004f48:    3627ffe9    ..'6    TBZ      w9,#4,0x40004f44 ; renesas_slave_tx + 404
        0x40004f4c:    321c03e1    ...2    ORR      w1,wzr,#0x10
        0x40004f50:    aa1303e0    ....    MOV      x0,x19
        0x40004f54:    97ffef7f    ....    BL       I2C_slaveClearInterruptStatus ; 0x40000d50
        0x40004f58:    b94002e8    ..@.    LDR      w8,[x23,#0]
        0x40004f5c:    3627ffe8    ..'6    TBZ      w8,#4,0x40004f58 ; renesas_slave_tx + 424
        0x40004f60:    52900000    ...R    MOV      w0,#0x8000
        0x40004f64:    72bcca00    ...r    MOVK     w0,#0xe650,LSL #16
        0x40004f68:    321c03e1    ...2    ORR      w1,wzr,#0x10
        0x40004f6c:    97ffee11    ....    BL       I2C_masterClearInterruptStatus ; 0x400007b0
        0x40004f70:    52900000    ...R    MOV      w0,#0x8000
        0x40004f74:    72bcca00    ...r    MOVK     w0,#0xe650,LSL #16
        0x40004f78:    97ffee12    ....    BL       I2C_masterDisable ; 0x400007c0
        0x40004f7c:    aa1303e0    ....    MOV      x0,x19
        0x40004f80:    97ffef78    x...    BL       I2C_slaveDisable ; 0x40000d60
        0x40004f84:    aa1f03e8    ....    MOV      x8,xzr
        0x40004f88:    d37ef509    ..~.    LSL      x9,x8,#2
        0x40004f8c:    b8696aca    .ji.    LDR      w10,[x22,x9]
        0x40004f90:    b8696aa9    .ji.    LDR      w9,[x21,x9]
        0x40004f94:    6b09015f    _..k    CMP      w10,w9
        0x40004f98:    540000c1    ...T    B.NE     0x40004fb0 ; renesas_slave_tx + 512
        0x40004f9c:    91000508    ....    ADD      x8,x8,#1
        0x40004fa0:    7100311f    .1.q    CMP      w8,#0xc
        0x40004fa4:    54ffff29    )..T    B.LS     0x40004f88 ; renesas_slave_tx + 472
        0x40004fa8:    2a1f03e0    ...*    MOV      w0,wzr
        0x40004fac:    14000002    ....    B        0x40004fb4 ; renesas_slave_tx + 516
        0x40004fb0:    320003e0    ...2    ORR      w0,wzr,#1
        0x40004fb4:    a9437bf3    .{C.    LDP      x19,x30,[sp,#0x30]
        0x40004fb8:    a94253f5    .SB.    LDP      x21,x20,[sp,#0x20]
        0x40004fbc:    a9415bf7    .[A.    LDP      x23,x22,[sp,#0x10]
        0x40004fc0:    a8c463f9    .c..    LDP      x25,x24,[sp],#0x40
        0x40004fc4:    d65f03c0    .._.    RET      
        0x40004fc8:    00000000    ....    DCI      0x00000000 ; ? Undefined
        0x40004fcc:    00000000    ....    DCI      0x00000000 ; ? Undefined
    renesas_slave_tx_delay
        0x40004fd0:    a9bc63f9    .c..    STP      x25,x24,[sp,#-0x40]!
        0x40004fd4:    a9015bf7    .[..    STP      x23,x22,[sp,#0x10]
        0x40004fd8:    a90253f5    .S..    STP      x21,x20,[sp,#0x20]
        0x40004fdc:    a9037bf3    .{..    STP      x19,x30,[sp,#0x30]
        0x40004fe0:    52900014    ...R    MOV      w20,#0x8000
        0x40004fe4:    72bcca14    ...r    MOVK     w20,#0xe650,LSL #16
        0x40004fe8:    f0000001    ....    ADRP     x1,{pc}+0x3000 ; 0x40007fe8
        0x40004fec:    91132021    ! ..    ADD      x1,x1,#0x4c8
        0x40004ff0:    52900000    ...R    MOV      w0,#0x8000
        0x40004ff4:    72bcca00    ...r    MOVK     w0,#0xe650,LSL #16
        0x40004ff8:    97ffee1e    ....    BL       I2C_masterInit ; 0x40000870
        0x40004ffc:    52900000    ...R    MOV      w0,#0x8000
        0x40005000:    72bcca00    ...r    MOVK     w0,#0xe650,LSL #16
        0x40005004:    12800001    ....    MOV      w1,#0xffffffff
        0x40005008:    97ffedea    ....    BL       I2C_masterClearInterruptStatus ; 0x400007b0
        0x4000500c:    52900000    ...R    MOV      w0,#0x8000
        0x40005010:    72bcca00    ...r    MOVK     w0,#0xe650,LSL #16
        0x40005014:    97ffedff    ....    BL       I2C_masterEnable ; 0x40000810
        0x40005018:    d1402293    ."@.    SUB      x19,x20,#8,LSL #12
        0x4000501c:    d0000001    ....    ADRP     x1,{pc}+0x2000 ; 0x4000701c
        0x40005020:    91379021    !.7.    ADD      x1,x1,#0xde4
        0x40005024:    aa1303e0    ....    MOV      x0,x19
        0x40005028:    97ffef6e    n...    BL       I2C_slaveInit ; 0x40000de0
        0x4000502c:    12800001    ....    MOV      w1,#0xffffffff
        0x40005030:    aa1303e0    ....    MOV      x0,x19
        0x40005034:    97ffef47    G...    BL       I2C_slaveClearInterruptStatus ; 0x40000d50
        0x40005038:    aa1303e0    ....    MOV      x0,x19
        0x4000503c:    97ffef55    U...    BL       I2C_slaveEnable ; 0x40000d90
        0x40005040:    52800901    ...R    MOV      w1,#0x48
        0x40005044:    aa1303e0    ....    MOV      x0,x19
        0x40005048:    97fff066    f...    BL       I2C_slaveSetData ; 0x400011e0
        0x4000504c:    52900000    ...R    MOV      w0,#0x8000
        0x40005050:    72bcca00    ...r    MOVK     w0,#0xe650,LSL #16
        0x40005054:    97ffef07    ....    BL       I2C_masterReceiveStart ; 0x40000c70
        0x40005058:    928ffee8    ....    MOV      x8,#0xffffffffffff8008
        0x4000505c:    b8686a89    .jh.    LDR      w9,[x20,x8]
        0x40005060:    3607ffe9    ...6    TBZ      w9,#0,0x4000505c ; renesas_slave_tx_delay + 140
        0x40005064:    52900197    ...R    MOV      w23,#0x800c
        0x40005068:    72bcca17    ...r    MOVK     w23,#0xe650,LSL #16
        0x4000506c:    320003e1    ...2    ORR      w1,wzr,#1
        0x40005070:    aa1303e0    ....    MOV      x0,x19
        0x40005074:    97ffef37    7...    BL       I2C_slaveClearInterruptStatus ; 0x40000d50
        0x40005078:    b94002e8    ..@.    LDR      w8,[x23,#0]
        0x4000507c:    3607ffe8    ...6    TBZ      w8,#0,0x40005078 ; renesas_slave_tx_delay + 168
        0x40005080:    52900000    ...R    MOV      w0,#0x8000
        0x40005084:    72bcca00    ...r    MOVK     w0,#0xe650,LSL #16
        0x40005088:    97ffedde    ....    BL       I2C_masterDisableStartGeneration ; 0x40000800
        0x4000508c:    52900000    ...R    MOV      w0,#0x8000
        0x40005090:    72bcca00    ...r    MOVK     w0,#0xe650,LSL #16
        0x40005094:    320007e1    ...2    ORR      w1,wzr,#3
        0x40005098:    97ffedc6    ....    BL       I2C_masterClearInterruptStatus ; 0x400007b0
        0x4000509c:    320003f8    ...2    ORR      w24,wzr,#1
        0x400050a0:    d0000015    ....    ADRP     x21,{pc}+0x2000 ; 0x400070a0
        0x400050a4:    912852b5    .R(.    ADD      x21,x21,#0xa14
        0x400050a8:    928ffef9    ....    MOV      x25,#0xffffffffffff8008
        0x400050ac:    b0000036    6...    ADRP     x22,{pc}+0x5000 ; 0x4000a0ac
        0x400050b0:    910a72d6    .r..    ADD      x22,x22,#0x29c
        0x400050b4:    b8796a88    .jy.    LDR      w8,[x20,x25]
        0x400050b8:    361fffe8    ...6    TBZ      w8,#3,0x400050b4 ; renesas_slave_tx_delay + 228
        0x400050bc:    f100331f    .3..    CMP      x24,#0xc
        0x400050c0:    54000088    ...T    B.HI     0x400050d0 ; renesas_slave_tx_delay + 256
        0x400050c4:    b8787aa1    .zx.    LDR      w1,[x21,x24,LSL #2]
        0x400050c8:    aa1303e0    ....    MOV      x0,x19
        0x400050cc:    97fff045    E...    BL       I2C_slaveSetData ; 0x400011e0
        0x400050d0:    52806400    .d.R    MOV      w0,#0x320
        0x400050d4:    97fff05f    _...    BL       Sim_Delay ; 0x40001250
        0x400050d8:    321d03e1    ...2    ORR      w1,wzr,#8
        0x400050dc:    aa1303e0    ....    MOV      x0,x19
        0x400050e0:    97ffef1c    ....    BL       I2C_slaveClearInterruptStatus ; 0x40000d50
        0x400050e4:    b8796a88    .jy.    LDR      w8,[x20,x25]
        0x400050e8:    3617ffe8    ...6    TBZ      w8,#2,0x400050e4 ; renesas_slave_tx_delay + 276
        0x400050ec:    321e03e1    ...2    ORR      w1,wzr,#4
        0x400050f0:    aa1303e0    ....    MOV      x0,x19
        0x400050f4:    97ffef17    ....    BL       I2C_slaveClearInterruptStatus ; 0x40000d50
        0x400050f8:    b94002e8    ..@.    LDR      w8,[x23,#0]
        0x400050fc:    360fffe8    ...6    TBZ      w8,#1,0x400050f8 ; renesas_slave_tx_delay + 296
        0x40005100:    f1002f1f    ./..    CMP      x24,#0xb
        0x40005104:    540000a8    ...T    B.HI     0x40005118 ; renesas_slave_tx_delay + 328
        0x40005108:    52900000    ...R    MOV      w0,#0x8000
        0x4000510c:    72bcca00    ...r    MOVK     w0,#0xe650,LSL #16
        0x40005110:    97ffeecc    ....    BL       I2C_masterReceiveMultipleByteNext ; 0x40000c40
        0x40005114:    1400000c    ....    B        0x40005144 ; renesas_slave_tx_delay + 372
        0x40005118:    7100371f    .7.q    CMP      w24,#0xd
        0x4000511c:    540000e0    ...T    B.EQ     0x40005138 ; renesas_slave_tx_delay + 360
        0x40005120:    7100331f    .3.q    CMP      w24,#0xc
        0x40005124:    54000141    A..T    B.NE     0x4000514c ; renesas_slave_tx_delay + 380
        0x40005128:    52900000    ...R    MOV      w0,#0x8000
        0x4000512c:    72bcca00    ...r    MOVK     w0,#0xe650,LSL #16
        0x40005130:    97ffeec8    ....    BL       I2C_masterReceiveMultipleByteStop ; 0x40000c50
        0x40005134:    14000004    ....    B        0x40005144 ; renesas_slave_tx_delay + 372
        0x40005138:    52900000    ...R    MOV      w0,#0x8000
        0x4000513c:    72bcca00    ...r    MOVK     w0,#0xe650,LSL #16
        0x40005140:    97ffeebc    ....    BL       I2C_masterReceiveMultipleByteFinish ; 0x40000c30
        0x40005144:    8b180ac8    ....    ADD      x8,x22,x24,LSL #2
        0x40005148:    b81fc100    ....    STUR     w0,[x8,#-4]
        0x4000514c:    52900000    ...R    MOV      w0,#0x8000
        0x40005150:    72bcca00    ...r    MOVK     w0,#0xe650,LSL #16
        0x40005154:    321f03e1    ...2    ORR      w1,wzr,#2
        0x40005158:    97ffed96    ....    BL       I2C_masterClearInterruptStatus ; 0x400007b0
        0x4000515c:    91000718    ....    ADD      x24,x24,#1
        0x40005160:    f1003b1f    .;..    CMP      x24,#0xe
        0x40005164:    54fffa81    ...T    B.NE     0x400050b4 ; renesas_slave_tx_delay + 228
        0x40005168:    928ffee8    ....    MOV      x8,#0xffffffffffff8008
        0x4000516c:    b8686a89    .jh.    LDR      w9,[x20,x8]
        0x40005170:    3627ffe9    ..'6    TBZ      w9,#4,0x4000516c ; renesas_slave_tx_delay + 412
        0x40005174:    321c03e1    ...2    ORR      w1,wzr,#0x10
        0x40005178:    aa1303e0    ....    MOV      x0,x19
        0x4000517c:    97ffeef5    ....    BL       I2C_slaveClearInterruptStatus ; 0x40000d50
        0x40005180:    b94002e8    ..@.    LDR      w8,[x23,#0]
        0x40005184:    3627ffe8    ..'6    TBZ      w8,#4,0x40005180 ; renesas_slave_tx_delay + 432
        0x40005188:    52900000    ...R    MOV      w0,#0x8000
        0x4000518c:    72bcca00    ...r    MOVK     w0,#0xe650,LSL #16
        0x40005190:    321c03e1    ...2    ORR      w1,wzr,#0x10
        0x40005194:    97ffed87    ....    BL       I2C_masterClearInterruptStatus ; 0x400007b0
        0x40005198:    52900000    ...R    MOV      w0,#0x8000
        0x4000519c:    72bcca00    ...r    MOVK     w0,#0xe650,LSL #16
        0x400051a0:    97ffed88    ....    BL       I2C_masterDisable ; 0x400007c0
        0x400051a4:    aa1303e0    ....    MOV      x0,x19
        0x400051a8:    97ffeeee    ....    BL       I2C_slaveDisable ; 0x40000d60
        0x400051ac:    aa1f03e8    ....    MOV      x8,xzr
        0x400051b0:    d37ef509    ..~.    LSL      x9,x8,#2
        0x400051b4:    b8696aca    .ji.    LDR      w10,[x22,x9]
        0x400051b8:    b8696aa9    .ji.    LDR      w9,[x21,x9]
        0x400051bc:    6b09015f    _..k    CMP      w10,w9
        0x400051c0:    540000c1    ...T    B.NE     0x400051d8 ; renesas_slave_tx_delay + 520
        0x400051c4:    91000508    ....    ADD      x8,x8,#1
        0x400051c8:    7100311f    .1.q    CMP      w8,#0xc
        0x400051cc:    54ffff29    )..T    B.LS     0x400051b0 ; renesas_slave_tx_delay + 480
        0x400051d0:    2a1f03e0    ...*    MOV      w0,wzr
        0x400051d4:    14000002    ....    B        0x400051dc ; renesas_slave_tx_delay + 524
        0x400051d8:    320003e0    ...2    ORR      w0,wzr,#1
        0x400051dc:    a9437bf3    .{C.    LDP      x19,x30,[sp,#0x30]
        0x400051e0:    a94253f5    .SB.    LDP      x21,x20,[sp,#0x20]
        0x400051e4:    a9415bf7    .[A.    LDP      x23,x22,[sp,#0x10]
        0x400051e8:    a8c463f9    .c..    LDP      x25,x24,[sp],#0x40
        0x400051ec:    d65f03c0    .._.    RET      
    sdmac1ch0InterruptHandler
        0x400051f0:    52800188    ...R    MOV      w8,#0xc
        0x400051f4:    72bce608    ...r    MOVK     w8,#0xe730,LSL #16
        0x400051f8:    b9400109    ..@.    LDR      w9,[x8,#0]
        0x400051fc:    37080049    I..7    TBNZ     w9,#1,0x40005204 ; sdmac1ch0InterruptHandler + 20
        0x40005200:    d65f03c0    .._.    RET      
        0x40005204:    b9400109    ..@.    LDR      w9,[x8,#0]
        0x40005208:    121f7929    )y..    AND      w9,w9,#0xfffffffe
        0x4000520c:    b9000109    ....    STR      w9,[x8,#0]
        0x40005210:    b9400109    ..@.    LDR      w9,[x8,#0]
        0x40005214:    121e7929    )y..    AND      w9,w9,#0xfffffffd
        0x40005218:    b9000109    ....    STR      w9,[x8,#0]
        0x4000521c:    b9400109    ..@.    LDR      w9,[x8,#0]
        0x40005220:    121d7929    )y..    AND      w9,w9,#0xfffffffb
        0x40005224:    b9000109    ....    STR      w9,[x8,#0]
        0x40005228:    52bcca00    ...R    MOV      w0,#0xe6500000
        0x4000522c:    17ffed6d    m...    B        I2C_masterDisableDMATransmit ; 0x400007e0
    sdmac1ch0InterruptHandler
        0x40005230:    52800188    ...R    MOV      w8,#0xc
        0x40005234:    72bce608    ...r    MOVK     w8,#0xe730,LSL #16
        0x40005238:    b9400109    ..@.    LDR      w9,[x8,#0]
        0x4000523c:    37080049    I..7    TBNZ     w9,#1,0x40005244 ; sdmac1ch0InterruptHandler + 20
        0x40005240:    d65f03c0    .._.    RET      
        0x40005244:    b9400109    ..@.    LDR      w9,[x8,#0]
        0x40005248:    121f7929    )y..    AND      w9,w9,#0xfffffffe
        0x4000524c:    b9000109    ....    STR      w9,[x8,#0]
        0x40005250:    b9400109    ..@.    LDR      w9,[x8,#0]
        0x40005254:    121e7929    )y..    AND      w9,w9,#0xfffffffd
        0x40005258:    b9000109    ....    STR      w9,[x8,#0]
        0x4000525c:    b9400109    ..@.    LDR      w9,[x8,#0]
        0x40005260:    121d7929    )y..    AND      w9,w9,#0xfffffffb
        0x40005264:    b9000109    ....    STR      w9,[x8,#0]
        0x40005268:    52900000    ...R    MOV      w0,#0x8000
        0x4000526c:    72bcca00    ...r    MOVK     w0,#0xe650,LSL #16
        0x40005270:    17ffed5c    \...    B        I2C_masterDisableDMATransmit ; 0x400007e0
        0x40005274:    00000000    ....    DCI      0x00000000 ; ? Undefined
        0x40005278:    00000000    ....    DCI      0x00000000 ; ? Undefined
        0x4000527c:    00000000    ....    DCI      0x00000000 ; ? Undefined
    sdmac1ch0InterruptHandler
        0x40005280:    52800188    ...R    MOV      w8,#0xc
        0x40005284:    72bce608    ...r    MOVK     w8,#0xe730,LSL #16
        0x40005288:    b9400109    ..@.    LDR      w9,[x8,#0]
        0x4000528c:    36080229    )..6    TBZ      w9,#1,0x400052d0 ; sdmac1ch0InterruptHandler + 80
        0x40005290:    f81f0ffe    ....    STR      x30,[sp,#-0x10]!
        0x40005294:    b9400109    ..@.    LDR      w9,[x8,#0]
        0x40005298:    121f7929    )y..    AND      w9,w9,#0xfffffffe
        0x4000529c:    b9000109    ....    STR      w9,[x8,#0]
        0x400052a0:    b9400109    ..@.    LDR      w9,[x8,#0]
        0x400052a4:    121e7929    )y..    AND      w9,w9,#0xfffffffd
        0x400052a8:    b9000109    ....    STR      w9,[x8,#0]
        0x400052ac:    52800c08    ...R    MOV      w8,#0x60
        0x400052b0:    72bce6a8    ...r    MOVK     w8,#0xe735,LSL #16
        0x400052b4:    b900011f    ....    STR      wzr,[x8,#0]
        0x400052b8:    52bcca00    ...R    MOV      w0,#0xe6500000
        0x400052bc:    97ffed45    E...    BL       I2C_masterDisableDMAReceive ; 0x400007d0
        0x400052c0:    90000028    (...    ADRP     x8,{pc}+0x4000 ; 0x400092c0
        0x400052c4:    320003e9    ...2    ORR      w9,wzr,#1
        0x400052c8:    3938f109    ..89    STRB     w9,[x8,#0xe3c]
        0x400052cc:    f84107fe    ..A.    LDR      x30,[sp],#0x10
        0x400052d0:    d65f03c0    .._.    RET      
        0x400052d4:    00000000    ....    DCI      0x00000000 ; ? Undefined
        0x400052d8:    00000000    ....    DCI      0x00000000 ; ? Undefined
        0x400052dc:    00000000    ....    DCI      0x00000000 ; ? Undefined
    sdmac1ch0InterruptHandler
        0x400052e0:    52800188    ...R    MOV      w8,#0xc
        0x400052e4:    72bce608    ...r    MOVK     w8,#0xe730,LSL #16
        0x400052e8:    b9400109    ..@.    LDR      w9,[x8,#0]
        0x400052ec:    36080149    I..6    TBZ      w9,#1,0x40005314 ; sdmac1ch0InterruptHandler + 52
        0x400052f0:    b9400109    ..@.    LDR      w9,[x8,#0]
        0x400052f4:    121f7929    )y..    AND      w9,w9,#0xfffffffe
        0x400052f8:    b9000109    ....    STR      w9,[x8,#0]
        0x400052fc:    b9400109    ..@.    LDR      w9,[x8,#0]
        0x40005300:    121e7929    )y..    AND      w9,w9,#0xfffffffd
        0x40005304:    b9000109    ....    STR      w9,[x8,#0]
        0x40005308:    b9400109    ..@.    LDR      w9,[x8,#0]
        0x4000530c:    121d7929    )y..    AND      w9,w9,#0xfffffffb
        0x40005310:    b9000109    ....    STR      w9,[x8,#0]
        0x40005314:    d65f03c0    .._.    RET      
        0x40005318:    00000000    ....    DCI      0x00000000 ; ? Undefined
        0x4000531c:    00000000    ....    DCI      0x00000000 ; ? Undefined
    sdmac1ch0InterruptHandler
        0x40005320:    52800188    ...R    MOV      w8,#0xc
        0x40005324:    72bce608    ...r    MOVK     w8,#0xe730,LSL #16
        0x40005328:    b9400109    ..@.    LDR      w9,[x8,#0]
        0x4000532c:    36080249    I..6    TBZ      w9,#1,0x40005374 ; sdmac1ch0InterruptHandler + 84
        0x40005330:    f81f0ffe    ....    STR      x30,[sp,#-0x10]!
        0x40005334:    b9400109    ..@.    LDR      w9,[x8,#0]
        0x40005338:    121f7929    )y..    AND      w9,w9,#0xfffffffe
        0x4000533c:    b9000109    ....    STR      w9,[x8,#0]
        0x40005340:    b9400109    ..@.    LDR      w9,[x8,#0]
        0x40005344:    121e7929    )y..    AND      w9,w9,#0xfffffffd
        0x40005348:    b9000109    ....    STR      w9,[x8,#0]
        0x4000534c:    52800c08    ...R    MOV      w8,#0x60
        0x40005350:    72bce6a8    ...r    MOVK     w8,#0xe735,LSL #16
        0x40005354:    b900011f    ....    STR      wzr,[x8,#0]
        0x40005358:    52900000    ...R    MOV      w0,#0x8000
        0x4000535c:    72bcca00    ...r    MOVK     w0,#0xe650,LSL #16
        0x40005360:    97ffed1c    ....    BL       I2C_masterDisableDMAReceive ; 0x400007d0
        0x40005364:    90000028    (...    ADRP     x8,{pc}+0x4000 ; 0x40009364
        0x40005368:    320003e9    ...2    ORR      w9,wzr,#1
        0x4000536c:    39391109    ..99    STRB     w9,[x8,#0xe44]
        0x40005370:    f84107fe    ..A.    LDR      x30,[sp],#0x10
        0x40005374:    d65f03c0    .._.    RET      
        0x40005378:    00000000    ....    DCI      0x00000000 ; ? Undefined
        0x4000537c:    00000000    ....    DCI      0x00000000 ; ? Undefined
    sdmac1ch0InterruptHandler
        0x40005380:    52800188    ...R    MOV      w8,#0xc
        0x40005384:    72bce608    ...r    MOVK     w8,#0xe730,LSL #16
        0x40005388:    b9400109    ..@.    LDR      w9,[x8,#0]
        0x4000538c:    36080209    ...6    TBZ      w9,#1,0x400053cc ; sdmac1ch0InterruptHandler + 76
        0x40005390:    b9400109    ..@.    LDR      w9,[x8,#0]
        0x40005394:    52800c0a    ...R    MOV      w10,#0x60
        0x40005398:    72bce6aa    ...r    MOVK     w10,#0xe735,LSL #16
        0x4000539c:    121f7929    )y..    AND      w9,w9,#0xfffffffe
        0x400053a0:    b9000109    ....    STR      w9,[x8,#0]
        0x400053a4:    b9400109    ..@.    LDR      w9,[x8,#0]
        0x400053a8:    121e7929    )y..    AND      w9,w9,#0xfffffffd
        0x400053ac:    b9000109    ....    STR      w9,[x8,#0]
        0x400053b0:    b9400109    ..@.    LDR      w9,[x8,#0]
        0x400053b4:    121d7929    )y..    AND      w9,w9,#0xfffffffb
        0x400053b8:    b9000109    ....    STR      w9,[x8,#0]
        0x400053bc:    b900015f    _...    STR      wzr,[x10,#0]
        0x400053c0:    90000028    (...    ADRP     x8,{pc}+0x4000 ; 0x400093c0
        0x400053c4:    320003e9    ...2    ORR      w9,wzr,#1
        0x400053c8:    39392109    .!99    STRB     w9,[x8,#0xe48]
        0x400053cc:    d65f03c0    .._.    RET      
    sdmac1ch1InterruptHandler
        0x400053d0:    52820188    ...R    MOV      w8,#0x100c
        0x400053d4:    72bce608    ...r    MOVK     w8,#0xe730,LSL #16
        0x400053d8:    b9400109    ..@.    LDR      w9,[x8,#0]
        0x400053dc:    360802a9    ...6    TBZ      w9,#1,0x40005430 ; sdmac1ch1InterruptHandler + 96
        0x400053e0:    f81f0ffe    ....    STR      x30,[sp,#-0x10]!
        0x400053e4:    b9400109    ..@.    LDR      w9,[x8,#0]
        0x400053e8:    121f7929    )y..    AND      w9,w9,#0xfffffffe
        0x400053ec:    b9000109    ....    STR      w9,[x8,#0]
        0x400053f0:    b9400109    ..@.    LDR      w9,[x8,#0]
        0x400053f4:    121e7929    )y..    AND      w9,w9,#0xfffffffd
        0x400053f8:    b9000109    ....    STR      w9,[x8,#0]
        0x400053fc:    b9400109    ..@.    LDR      w9,[x8,#0]
        0x40005400:    121d7929    )y..    AND      w9,w9,#0xfffffffb
        0x40005404:    b9000109    ....    STR      w9,[x8,#0]
        0x40005408:    52800c08    ...R    MOV      w8,#0x60
        0x4000540c:    72bce6a8    ...r    MOVK     w8,#0xe735,LSL #16
        0x40005410:    b900011f    ....    STR      wzr,[x8,#0]
        0x40005414:    52900000    ...R    MOV      w0,#0x8000
        0x40005418:    72bcca00    ...r    MOVK     w0,#0xe650,LSL #16
        0x4000541c:    97ffee55    U...    BL       I2C_slaveDisableDMAReceive ; 0x40000d70
        0x40005420:    90000028    (...    ADRP     x8,{pc}+0x4000 ; 0x40009420
        0x40005424:    320003e9    ...2    ORR      w9,wzr,#1
        0x40005428:    3938d109    ..89    STRB     w9,[x8,#0xe34]
        0x4000542c:    f84107fe    ..A.    LDR      x30,[sp],#0x10
        0x40005430:    d65f03c0    .._.    RET      
        0x40005434:    00000000    ....    DCI      0x00000000 ; ? Undefined
        0x40005438:    00000000    ....    DCI      0x00000000 ; ? Undefined
        0x4000543c:    00000000    ....    DCI      0x00000000 ; ? Undefined
    sdmac1ch1InterruptHandler
        0x40005440:    52820188    ...R    MOV      w8,#0x100c
        0x40005444:    72bce608    ...r    MOVK     w8,#0xe730,LSL #16
        0x40005448:    b9400109    ..@.    LDR      w9,[x8,#0]
        0x4000544c:    36080289    ...6    TBZ      w9,#1,0x4000549c ; sdmac1ch1InterruptHandler + 92
        0x40005450:    f81f0ffe    ....    STR      x30,[sp,#-0x10]!
        0x40005454:    b9400109    ..@.    LDR      w9,[x8,#0]
        0x40005458:    121f7929    )y..    AND      w9,w9,#0xfffffffe
        0x4000545c:    b9000109    ....    STR      w9,[x8,#0]
        0x40005460:    b9400109    ..@.    LDR      w9,[x8,#0]
        0x40005464:    121e7929    )y..    AND      w9,w9,#0xfffffffd
        0x40005468:    b9000109    ....    STR      w9,[x8,#0]
        0x4000546c:    b9400109    ..@.    LDR      w9,[x8,#0]
        0x40005470:    121d7929    )y..    AND      w9,w9,#0xfffffffb
        0x40005474:    b9000109    ....    STR      w9,[x8,#0]
        0x40005478:    52800c08    ...R    MOV      w8,#0x60
        0x4000547c:    72bce6a8    ...r    MOVK     w8,#0xe735,LSL #16
        0x40005480:    b900011f    ....    STR      wzr,[x8,#0]
        0x40005484:    52bcca00    ...R    MOV      w0,#0xe6500000
        0x40005488:    97ffee3a    :...    BL       I2C_slaveDisableDMAReceive ; 0x40000d70
        0x4000548c:    90000028    (...    ADRP     x8,{pc}+0x4000 ; 0x4000948c
        0x40005490:    320003e9    ...2    ORR      w9,wzr,#1
        0x40005494:    3938e109    ..89    STRB     w9,[x8,#0xe38]
        0x40005498:    f84107fe    ..A.    LDR      x30,[sp],#0x10
        0x4000549c:    d65f03c0    .._.    RET      
    sdmac1ch1InterruptHandler
        0x400054a0:    52820188    ...R    MOV      w8,#0x100c
        0x400054a4:    72bce608    ...r    MOVK     w8,#0xe730,LSL #16
        0x400054a8:    b9400109    ..@.    LDR      w9,[x8,#0]
        0x400054ac:    37080049    I..7    TBNZ     w9,#1,0x400054b4 ; sdmac1ch1InterruptHandler + 20
        0x400054b0:    d65f03c0    .._.    RET      
        0x400054b4:    b9400109    ..@.    LDR      w9,[x8,#0]
        0x400054b8:    121f7929    )y..    AND      w9,w9,#0xfffffffe
        0x400054bc:    b9000109    ....    STR      w9,[x8,#0]
        0x400054c0:    b9400109    ..@.    LDR      w9,[x8,#0]
        0x400054c4:    121e7929    )y..    AND      w9,w9,#0xfffffffd
        0x400054c8:    b9000109    ....    STR      w9,[x8,#0]
        0x400054cc:    52900000    ...R    MOV      w0,#0x8000
        0x400054d0:    72bcca00    ...r    MOVK     w0,#0xe650,LSL #16
        0x400054d4:    17ffee2b    +...    B        I2C_slaveDisableDMATransmit ; 0x40000d80
        0x400054d8:    00000000    ....    DCI      0x00000000 ; ? Undefined
        0x400054dc:    00000000    ....    DCI      0x00000000 ; ? Undefined
    sdmac1ch1InterruptHandler
        0x400054e0:    52820188    ...R    MOV      w8,#0x100c
        0x400054e4:    72bce608    ...r    MOVK     w8,#0xe730,LSL #16
        0x400054e8:    b9400109    ..@.    LDR      w9,[x8,#0]
        0x400054ec:    360804e9    ...6    TBZ      w9,#1,0x40005588 ; sdmac1ch1InterruptHandler + 168
        0x400054f0:    90000029    )...    ADRP     x9,{pc}+0x4000 ; 0x400094f0
        0x400054f4:    b94e2d2a    *-N.    LDR      w10,[x9,#0xe2c]
        0x400054f8:    1100054a    J...    ADD      w10,w10,#1
        0x400054fc:    b90e2d2a    *-..    STR      w10,[x9,#0xe2c]
        0x40005500:    b940010b    ..@.    LDR      w11,[x8,#0]
        0x40005504:    121f796b    ky..    AND      w11,w11,#0xfffffffe
        0x40005508:    b900010b    ....    STR      w11,[x8,#0]
        0x4000550c:    7100055f    _..q    CMP      w10,#1
        0x40005510:    54000248    H..T    B.HI     0x40005558 ; sdmac1ch1InterruptHandler + 120
        0x40005514:    b94e2d29    )-N.    LDR      w9,[x9,#0xe2c]
        0x40005518:    5280068a    ...R    MOV      w10,#0x34
        0x4000551c:    b000002b    +...    ADRP     x11,{pc}+0x5000 ; 0x4000a51c
        0x40005520:    9103f16b    k...    ADD      x11,x11,#0xfc
        0x40005524:    1b0a2d29    )-..    MADD     w9,w9,w10,w11
        0x40005528:    b81f8109    ....    STUR     w9,[x8,#-8]
        0x4000552c:    b85fc109    .._.    LDUR     w9,[x8,#-4]
        0x40005530:    528001aa    ...R    MOV      w10,#0xd
        0x40005534:    33005d49    I].3    BFXIL    w9,w10,#0,#24
        0x40005538:    b81fc109    ....    STUR     w9,[x8,#-4]
        0x4000553c:    b9400109    ..@.    LDR      w9,[x8,#0]
        0x40005540:    121e7929    )y..    AND      w9,w9,#0xfffffffd
        0x40005544:    b9000109    ....    STR      w9,[x8,#0]
        0x40005548:    b9400109    ..@.    LDR      w9,[x8,#0]
        0x4000554c:    32000129    )..2    ORR      w9,w9,#1
        0x40005550:    b9000109    ....    STR      w9,[x8,#0]
        0x40005554:    d65f03c0    .._.    RET      
        0x40005558:    b9400109    ..@.    LDR      w9,[x8,#0]
        0x4000555c:    52800c0a    ...R    MOV      w10,#0x60
        0x40005560:    72bce6aa    ...r    MOVK     w10,#0xe735,LSL #16
        0x40005564:    121e7929    )y..    AND      w9,w9,#0xfffffffd
        0x40005568:    b9000109    ....    STR      w9,[x8,#0]
        0x4000556c:    b9400109    ..@.    LDR      w9,[x8,#0]
        0x40005570:    121d7929    )y..    AND      w9,w9,#0xfffffffb
        0x40005574:    b9000109    ....    STR      w9,[x8,#0]
        0x40005578:    b900015f    _...    STR      wzr,[x10,#0]
        0x4000557c:    90000028    (...    ADRP     x8,{pc}+0x4000 ; 0x4000957c
        0x40005580:    320003e9    ...2    ORR      w9,wzr,#1
        0x40005584:    39390109    ..99    STRB     w9,[x8,#0xe40]
        0x40005588:    d65f03c0    .._.    RET      
        0x4000558c:    00000000    ....    DCI      0x00000000 ; ? Undefined
    sdmac1ch1InterruptHandler
        0x40005590:    52820188    ...R    MOV      w8,#0x100c
        0x40005594:    72bce608    ...r    MOVK     w8,#0xe730,LSL #16
        0x40005598:    b9400109    ..@.    LDR      w9,[x8,#0]
        0x4000559c:    37080049    I..7    TBNZ     w9,#1,0x400055a4 ; sdmac1ch1InterruptHandler + 20
        0x400055a0:    d65f03c0    .._.    RET      
        0x400055a4:    b9400109    ..@.    LDR      w9,[x8,#0]
        0x400055a8:    121f7929    )y..    AND      w9,w9,#0xfffffffe
        0x400055ac:    b9000109    ....    STR      w9,[x8,#0]
        0x400055b0:    b9400109    ..@.    LDR      w9,[x8,#0]
        0x400055b4:    121e7929    )y..    AND      w9,w9,#0xfffffffd
        0x400055b8:    b9000109    ....    STR      w9,[x8,#0]
        0x400055bc:    52bcca00    ...R    MOV      w0,#0xe6500000
        0x400055c0:    17ffedf0    ....    B        I2C_slaveDisableDMATransmit ; 0x40000d80
        0x400055c4:    00000000    ....    DCI      0x00000000 ; ? Undefined
        0x400055c8:    00000000    ....    DCI      0x00000000 ; ? Undefined
        0x400055cc:    00000000    ....    DCI      0x00000000 ; ? Undefined
    sdmac1ch1InterruptHandler
        0x400055d0:    52820188    ...R    MOV      w8,#0x100c
        0x400055d4:    72bce608    ...r    MOVK     w8,#0xe730,LSL #16
        0x400055d8:    b9400109    ..@.    LDR      w9,[x8,#0]
        0x400055dc:    36080429    )..6    TBZ      w9,#1,0x40005660 ; sdmac1ch1InterruptHandler + 144
        0x400055e0:    90000029    )...    ADRP     x9,{pc}+0x4000 ; 0x400095e0
        0x400055e4:    b94e312a    *1N.    LDR      w10,[x9,#0xe30]
        0x400055e8:    1100054a    J...    ADD      w10,w10,#1
        0x400055ec:    b90e312a    *1..    STR      w10,[x9,#0xe30]
        0x400055f0:    b940010b    ..@.    LDR      w11,[x8,#0]
        0x400055f4:    121f796b    ky..    AND      w11,w11,#0xfffffffe
        0x400055f8:    b900010b    ....    STR      w11,[x8,#0]
        0x400055fc:    7100055f    _..q    CMP      w10,#1
        0x40005600:    54000248    H..T    B.HI     0x40005648 ; sdmac1ch1InterruptHandler + 120
        0x40005604:    b94e3129    )1N.    LDR      w9,[x9,#0xe30]
        0x40005608:    5280068a    ...R    MOV      w10,#0x34
        0x4000560c:    d000000b    ....    ADRP     x11,{pc}+0x2000 ; 0x4000760c
        0x40005610:    9129f16b    k.).    ADD      x11,x11,#0xa7c
        0x40005614:    1b0a2d29    )-..    MADD     w9,w9,w10,w11
        0x40005618:    11001129    )...    ADD      w9,w9,#4
        0x4000561c:    b81f4109    .A..    STUR     w9,[x8,#-0xc]
        0x40005620:    b85fc109    .._.    LDUR     w9,[x8,#-4]
        0x40005624:    528001aa    ...R    MOV      w10,#0xd
        0x40005628:    33005d49    I].3    BFXIL    w9,w10,#0,#24
        0x4000562c:    b81fc109    ....    STUR     w9,[x8,#-4]
        0x40005630:    b9400109    ..@.    LDR      w9,[x8,#0]
        0x40005634:    121e7929    )y..    AND      w9,w9,#0xfffffffd
        0x40005638:    b9000109    ....    STR      w9,[x8,#0]
        0x4000563c:    b9400109    ..@.    LDR      w9,[x8,#0]
        0x40005640:    32000129    )..2    ORR      w9,w9,#1
        0x40005644:    14000006    ....    B        0x4000565c ; sdmac1ch1InterruptHandler + 140
        0x40005648:    b9400109    ..@.    LDR      w9,[x8,#0]
        0x4000564c:    121e7929    )y..    AND      w9,w9,#0xfffffffd
        0x40005650:    b9000109    ....    STR      w9,[x8,#0]
        0x40005654:    b9400109    ..@.    LDR      w9,[x8,#0]
        0x40005658:    121d7929    )y..    AND      w9,w9,#0xfffffffb
        0x4000565c:    b9000109    ....    STR      w9,[x8,#0]
        0x40005660:    d65f03c0    .._.    RET      
        0x40005664:    00000000    ....    DCI      0x00000000 ; ? Undefined
        0x40005668:    00000000    ....    DCI      0x00000000 ; ? Undefined
        0x4000566c:    00000000    ....    DCI      0x00000000 ; ? Undefined
    slave_general_call
        0x40005670:    a9bc63f9    .c..    STP      x25,x24,[sp,#-0x40]!
        0x40005674:    a9015bf7    .[..    STP      x23,x22,[sp,#0x10]
        0x40005678:    a90253f5    .S..    STP      x21,x20,[sp,#0x20]
        0x4000567c:    a9037bf3    .{..    STP      x19,x30,[sp,#0x30]
        0x40005680:    52900014    ...R    MOV      w20,#0x8000
        0x40005684:    72bcca14    ...r    MOVK     w20,#0xe650,LSL #16
        0x40005688:    d0000001    ....    ADRP     x1,{pc}+0x2000 ; 0x40007688
        0x4000568c:    91144021    !@..    ADD      x1,x1,#0x510
        0x40005690:    52900000    ...R    MOV      w0,#0x8000
        0x40005694:    72bcca00    ...r    MOVK     w0,#0xe650,LSL #16
        0x40005698:    97ffec76    v...    BL       I2C_masterInit ; 0x40000870
        0x4000569c:    52900000    ...R    MOV      w0,#0x8000
        0x400056a0:    72bcca00    ...r    MOVK     w0,#0xe650,LSL #16
        0x400056a4:    12800001    ....    MOV      w1,#0xffffffff
        0x400056a8:    97ffec42    B...    BL       I2C_masterClearInterruptStatus ; 0x400007b0
        0x400056ac:    52900000    ...R    MOV      w0,#0x8000
        0x400056b0:    72bcca00    ...r    MOVK     w0,#0xe650,LSL #16
        0x400056b4:    97ffec57    W...    BL       I2C_masterEnable ; 0x40000810
        0x400056b8:    d1402293    ."@.    SUB      x19,x20,#8,LSL #12
        0x400056bc:    d0000001    ....    ADRP     x1,{pc}+0x2000 ; 0x400076bc
        0x400056c0:    9138b021    !.8.    ADD      x1,x1,#0xe2c
        0x400056c4:    aa1303e0    ....    MOV      x0,x19
        0x400056c8:    97ffedc6    ....    BL       I2C_slaveInit ; 0x40000de0
        0x400056cc:    12800001    ....    MOV      w1,#0xffffffff
        0x400056d0:    aa1303e0    ....    MOV      x0,x19
        0x400056d4:    97ffed9f    ....    BL       I2C_slaveClearInterruptStatus ; 0x40000d50
        0x400056d8:    aa1303e0    ....    MOV      x0,x19
        0x400056dc:    97ffedad    ....    BL       I2C_slaveEnable ; 0x40000d90
        0x400056e0:    52900000    ...R    MOV      w0,#0x8000
        0x400056e4:    72bcca00    ...r    MOVK     w0,#0xe650,LSL #16
        0x400056e8:    52800901    ...R    MOV      w1,#0x48
        0x400056ec:    97ffed71    q...    BL       I2C_masterSendMultipleByteStart ; 0x40000cb0
        0x400056f0:    928ffee8    ....    MOV      x8,#0xffffffffffff8008
        0x400056f4:    b8686a89    .jh.    LDR      w9,[x20,x8]
        0x400056f8:    3607ffe9    ...6    TBZ      w9,#0,0x400056f4 ; slave_general_call + 132
        0x400056fc:    52900197    ...R    MOV      w23,#0x800c
        0x40005700:    72bcca17    ...r    MOVK     w23,#0xe650,LSL #16
        0x40005704:    320003e1    ...2    ORR      w1,wzr,#1
        0x40005708:    aa1303e0    ....    MOV      x0,x19
        0x4000570c:    97ffed91    ....    BL       I2C_slaveClearInterruptStatus ; 0x40000d50
        0x40005710:    b94002e8    ..@.    LDR      w8,[x23,#0]
        0x40005714:    3607ffe8    ...6    TBZ      w8,#0,0x40005710 ; slave_general_call + 160
        0x40005718:    52900000    ...R    MOV      w0,#0x8000
        0x4000571c:    72bcca00    ...r    MOVK     w0,#0xe650,LSL #16
        0x40005720:    97ffec38    8...    BL       I2C_masterDisableStartGeneration ; 0x40000800
        0x40005724:    52900000    ...R    MOV      w0,#0x8000
        0x40005728:    72bcca00    ...r    MOVK     w0,#0xe650,LSL #16
        0x4000572c:    52800121    !..R    MOV      w1,#9
        0x40005730:    97ffec20     ...    BL       I2C_masterClearInterruptStatus ; 0x400007b0
        0x40005734:    320003f8    ...2    ORR      w24,wzr,#1
        0x40005738:    d0000015    ....    ADRP     x21,{pc}+0x2000 ; 0x40007738
        0x4000573c:    912b92b5    ..+.    ADD      x21,x21,#0xae4
        0x40005740:    928ffef9    ....    MOV      x25,#0xffffffffffff8008
        0x40005744:    b0000036    6...    ADRP     x22,{pc}+0x5000 ; 0x4000a744
        0x40005748:    910db2d6    ....    ADD      x22,x22,#0x36c
        0x4000574c:    b94002e8    ..@.    LDR      w8,[x23,#0]
        0x40005750:    361fffe8    ...6    TBZ      w8,#3,0x4000574c ; slave_general_call + 220
        0x40005754:    f100331f    .3..    CMP      x24,#0xc
        0x40005758:    540000c8    ...T    B.HI     0x40005770 ; slave_general_call + 256
        0x4000575c:    b8787aa1    .zx.    LDR      w1,[x21,x24,LSL #2]
        0x40005760:    52900000    ...R    MOV      w0,#0x8000
        0x40005764:    72bcca00    ...r    MOVK     w0,#0xe650,LSL #16
        0x40005768:    97ffed4e    N...    BL       I2C_masterSendMultipleByteNext ; 0x40000ca0
        0x4000576c:    14000004    ....    B        0x4000577c ; slave_general_call + 268
        0x40005770:    52900000    ...R    MOV      w0,#0x8000
        0x40005774:    72bcca00    ...r    MOVK     w0,#0xe650,LSL #16
        0x40005778:    97ffed56    V...    BL       I2C_masterSendMultipleByteStop ; 0x40000cd0
        0x4000577c:    52900000    ...R    MOV      w0,#0x8000
        0x40005780:    72bcca00    ...r    MOVK     w0,#0xe650,LSL #16
        0x40005784:    321d03e1    ...2    ORR      w1,wzr,#8
        0x40005788:    97ffec0a    ....    BL       I2C_masterClearInterruptStatus ; 0x400007b0
        0x4000578c:    b94002e8    ..@.    LDR      w8,[x23,#0]
        0x40005790:    3617ffe8    ...6    TBZ      w8,#2,0x4000578c ; slave_general_call + 284
        0x40005794:    52900000    ...R    MOV      w0,#0x8000
        0x40005798:    72bcca00    ...r    MOVK     w0,#0xe650,LSL #16
        0x4000579c:    321e03e1    ...2    ORR      w1,wzr,#4
        0x400057a0:    97ffec04    ....    BL       I2C_masterClearInterruptStatus ; 0x400007b0
        0x400057a4:    b8796a88    .jy.    LDR      w8,[x20,x25]
        0x400057a8:    360fffe8    ...6    TBZ      w8,#1,0x400057a4 ; slave_general_call + 308
        0x400057ac:    aa1303e0    ....    MOV      x0,x19
        0x400057b0:    97ffee80    ....    BL       I2C_slaveReceiveMultipleByteNext ; 0x400011b0
        0x400057b4:    8b180ac8    ....    ADD      x8,x22,x24,LSL #2
        0x400057b8:    b81fc100    ....    STUR     w0,[x8,#-4]
        0x400057bc:    321f03e1    ...2    ORR      w1,wzr,#2
        0x400057c0:    aa1303e0    ....    MOV      x0,x19
        0x400057c4:    97ffed63    c...    BL       I2C_slaveClearInterruptStatus ; 0x40000d50
        0x400057c8:    91000718    ....    ADD      x24,x24,#1
        0x400057cc:    f1003b1f    .;..    CMP      x24,#0xe
        0x400057d0:    54fffbe1    ...T    B.NE     0x4000574c ; slave_general_call + 220
        0x400057d4:    928ffee8    ....    MOV      x8,#0xffffffffffff8008
        0x400057d8:    b8686a89    .jh.    LDR      w9,[x20,x8]
        0x400057dc:    3627ffe9    ..'6    TBZ      w9,#4,0x400057d8 ; slave_general_call + 360
        0x400057e0:    321c03e1    ...2    ORR      w1,wzr,#0x10
        0x400057e4:    aa1303e0    ....    MOV      x0,x19
        0x400057e8:    97ffed5a    Z...    BL       I2C_slaveClearInterruptStatus ; 0x40000d50
        0x400057ec:    b94002e8    ..@.    LDR      w8,[x23,#0]
        0x400057f0:    3627ffe8    ..'6    TBZ      w8,#4,0x400057ec ; slave_general_call + 380
        0x400057f4:    52900000    ...R    MOV      w0,#0x8000
        0x400057f8:    72bcca00    ...r    MOVK     w0,#0xe650,LSL #16
        0x400057fc:    321c03e1    ...2    ORR      w1,wzr,#0x10
        0x40005800:    97ffebec    ....    BL       I2C_masterClearInterruptStatus ; 0x400007b0
        0x40005804:    52900000    ...R    MOV      w0,#0x8000
        0x40005808:    72bcca00    ...r    MOVK     w0,#0xe650,LSL #16
        0x4000580c:    97ffebed    ....    BL       I2C_masterDisable ; 0x400007c0
        0x40005810:    aa1303e0    ....    MOV      x0,x19
        0x40005814:    97ffed53    S...    BL       I2C_slaveDisable ; 0x40000d60
        0x40005818:    aa1f03e8    ....    MOV      x8,xzr
        0x4000581c:    d37ef509    ..~.    LSL      x9,x8,#2
        0x40005820:    b8696aca    .ji.    LDR      w10,[x22,x9]
        0x40005824:    b8696aa9    .ji.    LDR      w9,[x21,x9]
        0x40005828:    6b09015f    _..k    CMP      w10,w9
        0x4000582c:    540000c1    ...T    B.NE     0x40005844 ; slave_general_call + 468
        0x40005830:    91000508    ....    ADD      x8,x8,#1
        0x40005834:    7100311f    .1.q    CMP      w8,#0xc
        0x40005838:    54ffff29    )..T    B.LS     0x4000581c ; slave_general_call + 428
        0x4000583c:    2a1f03e0    ...*    MOV      w0,wzr
        0x40005840:    14000002    ....    B        0x40005848 ; slave_general_call + 472
        0x40005844:    320003e0    ...2    ORR      w0,wzr,#1
        0x40005848:    a9437bf3    .{C.    LDP      x19,x30,[sp,#0x30]
        0x4000584c:    a94253f5    .SB.    LDP      x21,x20,[sp,#0x20]
        0x40005850:    a9415bf7    .[A.    LDP      x23,x22,[sp,#0x10]
        0x40005854:    a8c463f9    .c..    LDP      x25,x24,[sp],#0x40
        0x40005858:    d65f03c0    .._.    RET      
        0x4000585c:    00000000    ....    DCI      0x00000000 ; ? Undefined
    slave_nack_addr
        0x40005860:    a9be53f5    .S..    STP      x21,x20,[sp,#-0x20]!
        0x40005864:    a9017bf3    .{..    STP      x19,x30,[sp,#0x10]
        0x40005868:    52900194    ...R    MOV      w20,#0x800c
        0x4000586c:    72bcca14    ...r    MOVK     w20,#0xe650,LSL #16
        0x40005870:    52900015    ...R    MOV      w21,#0x8000
        0x40005874:    72bcca15    ...r    MOVK     w21,#0xe650,LSL #16
        0x40005878:    d0000001    ....    ADRP     x1,{pc}+0x2000 ; 0x40007878
        0x4000587c:    9112c021    !...    ADD      x1,x1,#0x4b0
        0x40005880:    52900000    ...R    MOV      w0,#0x8000
        0x40005884:    72bcca00    ...r    MOVK     w0,#0xe650,LSL #16
        0x40005888:    97ffebfa    ....    BL       I2C_masterInit ; 0x40000870
        0x4000588c:    52900000    ...R    MOV      w0,#0x8000
        0x40005890:    72bcca00    ...r    MOVK     w0,#0xe650,LSL #16
        0x40005894:    12800001    ....    MOV      w1,#0xffffffff
        0x40005898:    97ffebc6    ....    BL       I2C_masterClearInterruptStatus ; 0x400007b0
        0x4000589c:    52900000    ...R    MOV      w0,#0x8000
        0x400058a0:    72bcca00    ...r    MOVK     w0,#0xe650,LSL #16
        0x400058a4:    97ffebdb    ....    BL       I2C_masterEnable ; 0x40000810
        0x400058a8:    d14022b3    ."@.    SUB      x19,x21,#8,LSL #12
        0x400058ac:    d0000001    ....    ADRP     x1,{pc}+0x2000 ; 0x400078ac
        0x400058b0:    91373021    !07.    ADD      x1,x1,#0xdcc
        0x400058b4:    aa1303e0    ....    MOV      x0,x19
        0x400058b8:    97ffed4a    J...    BL       I2C_slaveInit ; 0x40000de0
        0x400058bc:    12800001    ....    MOV      w1,#0xffffffff
        0x400058c0:    aa1303e0    ....    MOV      x0,x19
        0x400058c4:    97ffed23    #...    BL       I2C_slaveClearInterruptStatus ; 0x40000d50
        0x400058c8:    aa1303e0    ....    MOV      x0,x19
        0x400058cc:    97ffed31    1...    BL       I2C_slaveEnable ; 0x40000d90
        0x400058d0:    b0000028    (...    ADRP     x8,{pc}+0x5000 ; 0x4000a8d0
        0x400058d4:    b9496909    .iI.    LDR      w9,[x8,#0x968]
        0x400058d8:    1100052a    *...    ADD      w10,w9,#1
        0x400058dc:    d000000b    ....    ADRP     x11,{pc}+0x2000 ; 0x400078dc
        0x400058e0:    9127816b    k.'.    ADD      x11,x11,#0x9e0
        0x400058e4:    b909690a    .i..    STR      w10,[x8,#0x968]
        0x400058e8:    b8697961    ayi.    LDR      w1,[x11,x9,LSL #2]
        0x400058ec:    52900000    ...R    MOV      w0,#0x8000
        0x400058f0:    72bcca00    ...r    MOVK     w0,#0xe650,LSL #16
        0x400058f4:    97ffecef    ....    BL       I2C_masterSendMultipleByteStart ; 0x40000cb0
        0x400058f8:    b9400288    ..@.    LDR      w8,[x20,#0]
        0x400058fc:    3607ffe8    ...6    TBZ      w8,#0,0x400058f8 ; slave_nack_addr + 152
        0x40005900:    52900000    ...R    MOV      w0,#0x8000
        0x40005904:    72bcca00    ...r    MOVK     w0,#0xe650,LSL #16
        0x40005908:    52800121    !..R    MOV      w1,#9
        0x4000590c:    97ffeba9    ....    BL       I2C_masterClearInterruptStatus ; 0x400007b0
        0x40005910:    52900000    ...R    MOV      w0,#0x8000
        0x40005914:    72bcca00    ...r    MOVK     w0,#0xe650,LSL #16
        0x40005918:    97ffebba    ....    BL       I2C_masterDisableStartGeneration ; 0x40000800
        0x4000591c:    b9400288    ..@.    LDR      w8,[x20,#0]
        0x40005920:    3637ffe8    ..76    TBZ      w8,#6,0x4000591c ; slave_nack_addr + 188
        0x40005924:    52900000    ...R    MOV      w0,#0x8000
        0x40005928:    72bcca00    ...r    MOVK     w0,#0xe650,LSL #16
        0x4000592c:    321a03e1    ...2    ORR      w1,wzr,#0x40
        0x40005930:    97ffeba0    ....    BL       I2C_masterClearInterruptStatus ; 0x400007b0
        0x40005934:    928ffee8    ....    MOV      x8,#0xffffffffffff8008
        0x40005938:    b8686aa9    .jh.    LDR      w9,[x21,x8]
        0x4000593c:    3627ffe9    ..'6    TBZ      w9,#4,0x40005938 ; slave_nack_addr + 216
        0x40005940:    321c03e1    ...2    ORR      w1,wzr,#0x10
        0x40005944:    aa1303e0    ....    MOV      x0,x19
        0x40005948:    97ffed02    ....    BL       I2C_slaveClearInterruptStatus ; 0x40000d50
        0x4000594c:    b9400288    ..@.    LDR      w8,[x20,#0]
        0x40005950:    3627ffe8    ..'6    TBZ      w8,#4,0x4000594c ; slave_nack_addr + 236
        0x40005954:    52900000    ...R    MOV      w0,#0x8000
        0x40005958:    72bcca00    ...r    MOVK     w0,#0xe650,LSL #16
        0x4000595c:    321c03e1    ...2    ORR      w1,wzr,#0x10
        0x40005960:    97ffeb94    ....    BL       I2C_masterClearInterruptStatus ; 0x400007b0
        0x40005964:    52900000    ...R    MOV      w0,#0x8000
        0x40005968:    72bcca00    ...r    MOVK     w0,#0xe650,LSL #16
        0x4000596c:    97ffeb95    ....    BL       I2C_masterDisable ; 0x400007c0
        0x40005970:    aa1303e0    ....    MOV      x0,x19
        0x40005974:    97ffecfb    ....    BL       I2C_slaveDisable ; 0x40000d60
        0x40005978:    2a1f03e0    ...*    MOV      w0,wzr
        0x4000597c:    a9417bf3    .{A.    LDP      x19,x30,[sp,#0x10]
        0x40005980:    a8c253f5    .S..    LDP      x21,x20,[sp],#0x20
        0x40005984:    d65f03c0    .._.    RET      
        0x40005988:    00000000    ....    DCI      0x00000000 ; ? Undefined
        0x4000598c:    00000000    ....    DCI      0x00000000 ; ? Undefined
    slave_rx
        0x40005990:    a9bc63f9    .c..    STP      x25,x24,[sp,#-0x40]!
        0x40005994:    a9015bf7    .[..    STP      x23,x22,[sp,#0x10]
        0x40005998:    a90253f5    .S..    STP      x21,x20,[sp,#0x20]
        0x4000599c:    a9037bf3    .{..    STP      x19,x30,[sp,#0x30]
        0x400059a0:    52900014    ...R    MOV      w20,#0x8000
        0x400059a4:    72bcca14    ...r    MOVK     w20,#0xe650,LSL #16
        0x400059a8:    d0000001    ....    ADRP     x1,{pc}+0x2000 ; 0x400079a8
        0x400059ac:    91114021    !@..    ADD      x1,x1,#0x450
        0x400059b0:    52900000    ...R    MOV      w0,#0x8000
        0x400059b4:    72bcca00    ...r    MOVK     w0,#0xe650,LSL #16
        0x400059b8:    97ffebae    ....    BL       I2C_masterInit ; 0x40000870
        0x400059bc:    52900000    ...R    MOV      w0,#0x8000
        0x400059c0:    72bcca00    ...r    MOVK     w0,#0xe650,LSL #16
        0x400059c4:    12800001    ....    MOV      w1,#0xffffffff
        0x400059c8:    97ffeb7a    z...    BL       I2C_masterClearInterruptStatus ; 0x400007b0
        0x400059cc:    52900000    ...R    MOV      w0,#0x8000
        0x400059d0:    72bcca00    ...r    MOVK     w0,#0xe650,LSL #16
        0x400059d4:    97ffeb8f    ....    BL       I2C_masterEnable ; 0x40000810
        0x400059d8:    d1402293    ."@.    SUB      x19,x20,#8,LSL #12
        0x400059dc:    d0000001    ....    ADRP     x1,{pc}+0x2000 ; 0x400079dc
        0x400059e0:    9135b021    !.5.    ADD      x1,x1,#0xd6c
        0x400059e4:    aa1303e0    ....    MOV      x0,x19
        0x400059e8:    97ffecfe    ....    BL       I2C_slaveInit ; 0x40000de0
        0x400059ec:    12800001    ....    MOV      w1,#0xffffffff
        0x400059f0:    aa1303e0    ....    MOV      x0,x19
        0x400059f4:    97ffecd7    ....    BL       I2C_slaveClearInterruptStatus ; 0x40000d50
        0x400059f8:    aa1303e0    ....    MOV      x0,x19
        0x400059fc:    97ffece5    ....    BL       I2C_slaveEnable ; 0x40000d90
        0x40005a00:    52900000    ...R    MOV      w0,#0x8000
        0x40005a04:    72bcca00    ...r    MOVK     w0,#0xe650,LSL #16
        0x40005a08:    52800901    ...R    MOV      w1,#0x48
        0x40005a0c:    97ffeca9    ....    BL       I2C_masterSendMultipleByteStart ; 0x40000cb0
        0x40005a10:    928ffee8    ....    MOV      x8,#0xffffffffffff8008
        0x40005a14:    b8686a89    .jh.    LDR      w9,[x20,x8]
        0x40005a18:    3607ffe9    ...6    TBZ      w9,#0,0x40005a14 ; slave_rx + 132
        0x40005a1c:    52900197    ...R    MOV      w23,#0x800c
        0x40005a20:    72bcca17    ...r    MOVK     w23,#0xe650,LSL #16
        0x40005a24:    320003e1    ...2    ORR      w1,wzr,#1
        0x40005a28:    aa1303e0    ....    MOV      x0,x19
        0x40005a2c:    97ffecc9    ....    BL       I2C_slaveClearInterruptStatus ; 0x40000d50
        0x40005a30:    b94002e8    ..@.    LDR      w8,[x23,#0]
        0x40005a34:    3607ffe8    ...6    TBZ      w8,#0,0x40005a30 ; slave_rx + 160
        0x40005a38:    52900000    ...R    MOV      w0,#0x8000
        0x40005a3c:    72bcca00    ...r    MOVK     w0,#0xe650,LSL #16
        0x40005a40:    97ffeb70    p...    BL       I2C_masterDisableStartGeneration ; 0x40000800
        0x40005a44:    52900000    ...R    MOV      w0,#0x8000
        0x40005a48:    72bcca00    ...r    MOVK     w0,#0xe650,LSL #16
        0x40005a4c:    52800121    !..R    MOV      w1,#9
        0x40005a50:    97ffeb58    X...    BL       I2C_masterClearInterruptStatus ; 0x400007b0
        0x40005a54:    320003f8    ...2    ORR      w24,wzr,#1
        0x40005a58:    d0000015    ....    ADRP     x21,{pc}+0x2000 ; 0x40007a58
        0x40005a5c:    912372b5    .r#.    ADD      x21,x21,#0x8dc
        0x40005a60:    928ffef9    ....    MOV      x25,#0xffffffffffff8008
        0x40005a64:    b0000036    6...    ADRP     x22,{pc}+0x5000 ; 0x4000aa64
        0x40005a68:    910662d6    .b..    ADD      x22,x22,#0x198
        0x40005a6c:    b94002e8    ..@.    LDR      w8,[x23,#0]
        0x40005a70:    361fffe8    ...6    TBZ      w8,#3,0x40005a6c ; slave_rx + 220
        0x40005a74:    f100331f    .3..    CMP      x24,#0xc
        0x40005a78:    540000c8    ...T    B.HI     0x40005a90 ; slave_rx + 256
        0x40005a7c:    b8787aa1    .zx.    LDR      w1,[x21,x24,LSL #2]
        0x40005a80:    52900000    ...R    MOV      w0,#0x8000
        0x40005a84:    72bcca00    ...r    MOVK     w0,#0xe650,LSL #16
        0x40005a88:    97ffec86    ....    BL       I2C_masterSendMultipleByteNext ; 0x40000ca0
        0x40005a8c:    14000004    ....    B        0x40005a9c ; slave_rx + 268
        0x40005a90:    52900000    ...R    MOV      w0,#0x8000
        0x40005a94:    72bcca00    ...r    MOVK     w0,#0xe650,LSL #16
        0x40005a98:    97ffec8e    ....    BL       I2C_masterSendMultipleByteStop ; 0x40000cd0
        0x40005a9c:    52900000    ...R    MOV      w0,#0x8000
        0x40005aa0:    72bcca00    ...r    MOVK     w0,#0xe650,LSL #16
        0x40005aa4:    321d03e1    ...2    ORR      w1,wzr,#8
        0x40005aa8:    97ffeb42    B...    BL       I2C_masterClearInterruptStatus ; 0x400007b0
        0x40005aac:    b94002e8    ..@.    LDR      w8,[x23,#0]
        0x40005ab0:    3617ffe8    ...6    TBZ      w8,#2,0x40005aac ; slave_rx + 284
        0x40005ab4:    52900000    ...R    MOV      w0,#0x8000
        0x40005ab8:    72bcca00    ...r    MOVK     w0,#0xe650,LSL #16
        0x40005abc:    321e03e1    ...2    ORR      w1,wzr,#4
        0x40005ac0:    97ffeb3c    <...    BL       I2C_masterClearInterruptStatus ; 0x400007b0
        0x40005ac4:    b8796a88    .jy.    LDR      w8,[x20,x25]
        0x40005ac8:    360fffe8    ...6    TBZ      w8,#1,0x40005ac4 ; slave_rx + 308
        0x40005acc:    aa1303e0    ....    MOV      x0,x19
        0x40005ad0:    97ffedb8    ....    BL       I2C_slaveReceiveMultipleByteNext ; 0x400011b0
        0x40005ad4:    8b180ac8    ....    ADD      x8,x22,x24,LSL #2
        0x40005ad8:    b81fc100    ....    STUR     w0,[x8,#-4]
        0x40005adc:    321f03e1    ...2    ORR      w1,wzr,#2
        0x40005ae0:    aa1303e0    ....    MOV      x0,x19
        0x40005ae4:    97ffec9b    ....    BL       I2C_slaveClearInterruptStatus ; 0x40000d50
        0x40005ae8:    91000718    ....    ADD      x24,x24,#1
        0x40005aec:    f1003b1f    .;..    CMP      x24,#0xe
        0x40005af0:    54fffbe1    ...T    B.NE     0x40005a6c ; slave_rx + 220
        0x40005af4:    928ffee8    ....    MOV      x8,#0xffffffffffff8008
        0x40005af8:    b8686a89    .jh.    LDR      w9,[x20,x8]
        0x40005afc:    3627ffe9    ..'6    TBZ      w9,#4,0x40005af8 ; slave_rx + 360
        0x40005b00:    321c03e1    ...2    ORR      w1,wzr,#0x10
        0x40005b04:    aa1303e0    ....    MOV      x0,x19
        0x40005b08:    97ffec92    ....    BL       I2C_slaveClearInterruptStatus ; 0x40000d50
        0x40005b0c:    b94002e8    ..@.    LDR      w8,[x23,#0]
        0x40005b10:    3627ffe8    ..'6    TBZ      w8,#4,0x40005b0c ; slave_rx + 380
        0x40005b14:    52900000    ...R    MOV      w0,#0x8000
        0x40005b18:    72bcca00    ...r    MOVK     w0,#0xe650,LSL #16
        0x40005b1c:    321c03e1    ...2    ORR      w1,wzr,#0x10
        0x40005b20:    97ffeb24    $...    BL       I2C_masterClearInterruptStatus ; 0x400007b0
        0x40005b24:    52900000    ...R    MOV      w0,#0x8000
        0x40005b28:    72bcca00    ...r    MOVK     w0,#0xe650,LSL #16
        0x40005b2c:    97ffeb25    %...    BL       I2C_masterDisable ; 0x400007c0
        0x40005b30:    aa1303e0    ....    MOV      x0,x19
        0x40005b34:    97ffec8b    ....    BL       I2C_slaveDisable ; 0x40000d60
        0x40005b38:    aa1f03e8    ....    MOV      x8,xzr
        0x40005b3c:    d37ef509    ..~.    LSL      x9,x8,#2
        0x40005b40:    b8696aca    .ji.    LDR      w10,[x22,x9]
        0x40005b44:    b8696aa9    .ji.    LDR      w9,[x21,x9]
        0x40005b48:    6b09015f    _..k    CMP      w10,w9
        0x40005b4c:    540000c1    ...T    B.NE     0x40005b64 ; slave_rx + 468
        0x40005b50:    91000508    ....    ADD      x8,x8,#1
        0x40005b54:    7100311f    .1.q    CMP      w8,#0xc
        0x40005b58:    54ffff29    )..T    B.LS     0x40005b3c ; slave_rx + 428
        0x40005b5c:    2a1f03e0    ...*    MOV      w0,wzr
        0x40005b60:    14000002    ....    B        0x40005b68 ; slave_rx + 472
        0x40005b64:    320003e0    ...2    ORR      w0,wzr,#1
        0x40005b68:    a9437bf3    .{C.    LDP      x19,x30,[sp,#0x30]
        0x40005b6c:    a94253f5    .SB.    LDP      x21,x20,[sp,#0x20]
        0x40005b70:    a9415bf7    .[A.    LDP      x23,x22,[sp,#0x10]
        0x40005b74:    a8c463f9    .c..    LDP      x25,x24,[sp],#0x40
        0x40005b78:    d65f03c0    .._.    RET      
        0x40005b7c:    00000000    ....    DCI      0x00000000 ; ? Undefined
    slave_rx_dma
        0x40005b80:    f81d0ff6    ....    STR      x22,[sp,#-0x30]!
        0x40005b84:    a90153f5    .S..    STP      x21,x20,[sp,#0x10]
        0x40005b88:    a9027bf3    .{..    STP      x19,x30,[sp,#0x20]
        0x40005b8c:    52900013    ...R    MOV      w19,#0x8000
        0x40005b90:    72bcca13    ...r    MOVK     w19,#0xe650,LSL #16
        0x40005b94:    52858394    ...R    MOV      w20,#0x2c1c
        0x40005b98:    72bcc2b4    ...r    MOVK     w20,#0xe615,LSL #16
        0x40005b9c:    52858380    ...R    MOV      w0,#0x2c1c
        0x40005ba0:    72bcc2a0    ...r    MOVK     w0,#0xe615,LSL #16
        0x40005ba4:    52800121    !..R    MOV      w1,#9
        0x40005ba8:    97ffea72    r...    BL       CPG_SetBit ; 0x40000570
        0x40005bac:    91020280    ....    ADD      x0,x20,#0x80
        0x40005bb0:    52800121    !..R    MOV      w1,#9
        0x40005bb4:    97ffea6f    o...    BL       CPG_SetBit ; 0x40000570
        0x40005bb8:    9177e268    h.w.    ADD      x8,x19,#0xdf8,LSL #12
        0x40005bbc:    d0000014    ....    ADRP     x20,{pc}+0x2000 ; 0x40007bbc
        0x40005bc0:    911c2294    ."..    ADD      x20,x20,#0x708
        0x40005bc4:    11001289    ....    ADD      w9,w20,#4
        0x40005bc8:    b9000109    ....    STR      w9,[x8,#0]
        0x40005bcc:    52800495    ...R    MOV      w21,#0x24
        0x40005bd0:    72bcca15    ...r    MOVK     w21,#0xe650,LSL #16
        0x40005bd4:    114022a8    ."@.    ADD      w8,w21,#8,LSL #12
        0x40005bd8:    52800196    ...R    MOV      w22,#0xc
        0x40005bdc:    72bce616    ...r    MOVK     w22,#0xe730,LSL #16
        0x40005be0:    b81f82c8    ....    STUR     w8,[x22,#-8]
        0x40005be4:    b85fc2c8    .._.    LDUR     w8,[x22,#-4]
        0x40005be8:    12081d08    ....    AND      w8,w8,#0xff000000
        0x40005bec:    321e0508    ...2    ORR      w8,w8,#0xc
        0x40005bf0:    b81fc2c8    ....    STUR     w8,[x22,#-4]
        0x40005bf4:    b94002c8    ..@.    LDR      w8,[x22,#0]
        0x40005bf8:    12107508    .u..    AND      w8,w8,#0xffff3fff
        0x40005bfc:    b90002c8    ....    STR      w8,[x22,#0]
        0x40005c00:    b94002c8    ..@.    LDR      w8,[x22,#0]
        0x40005c04:    12127508    .u..    AND      w8,w8,#0xffffcfff
        0x40005c08:    32140108    ...2    ORR      w8,w8,#0x1000
        0x40005c0c:    b90002c8    ....    STR      w8,[x22,#0]
        0x40005c10:    b94002c8    ..@.    LDR      w8,[x22,#0]
        0x40005c14:    12146d08    .m..    AND      w8,w8,#0xfffff0ff
        0x40005c18:    32150108    ...2    ORR      w8,w8,#0x800
        0x40005c1c:    b90002c8    ....    STR      w8,[x22,#0]
        0x40005c20:    b94002c8    ..@.    LDR      w8,[x22,#0]
        0x40005c24:    120a7508    .u..    AND      w8,w8,#0xffcfffff
        0x40005c28:    b90002c8    ....    STR      w8,[x22,#0]
        0x40005c2c:    b94002c8    ..@.    LDR      w8,[x22,#0]
        0x40005c30:    121b7508    .u..    AND      w8,w8,#0xffffffe7
        0x40005c34:    321c0108    ...2    ORR      w8,w8,#0x10
        0x40005c38:    b90002c8    ....    STR      w8,[x22,#0]
        0x40005c3c:    52801268    h..R    MOV      w8,#0x93
        0x40005c40:    79006ac8    .j.y    STRH     w8,[x22,#0x34]
        0x40005c44:    b94002c8    ..@.    LDR      w8,[x22,#0]
        0x40005c48:    321e0108    ...2    ORR      w8,w8,#4
        0x40005c4c:    b90002c8    ....    STR      w8,[x22,#0]
        0x40005c50:    b94002c8    ..@.    LDR      w8,[x22,#0]
        0x40005c54:    32000108    ...2    ORR      w8,w8,#1
        0x40005c58:    b90002c8    ....    STR      w8,[x22,#0]
        0x40005c5c:    d0000001    ....    ADRP     x1,{pc}+0x2000 ; 0x40007c5c
        0x40005c60:    910e4021    !@..    ADD      x1,x1,#0x390
        0x40005c64:    52900000    ...R    MOV      w0,#0x8000
        0x40005c68:    72bcca00    ...r    MOVK     w0,#0xe650,LSL #16
        0x40005c6c:    97ffeb01    ....    BL       I2C_masterInit ; 0x40000870
        0x40005c70:    52900000    ...R    MOV      w0,#0x8000
        0x40005c74:    72bcca00    ...r    MOVK     w0,#0xe650,LSL #16
        0x40005c78:    12800001    ....    MOV      w1,#0xffffffff
        0x40005c7c:    97ffeacd    ....    BL       I2C_masterClearInterruptStatus ; 0x400007b0
        0x40005c80:    52900000    ...R    MOV      w0,#0x8000
        0x40005c84:    72bcca00    ...r    MOVK     w0,#0xe650,LSL #16
        0x40005c88:    12800001    ....    MOV      w1,#0xffffffff
        0x40005c8c:    97ffeaf1    ....    BL       I2C_masterEnableInterrupt ; 0x40000850
        0x40005c90:    52900000    ...R    MOV      w0,#0x8000
        0x40005c94:    72bcca00    ...r    MOVK     w0,#0xe650,LSL #16
        0x40005c98:    97ffeade    ....    BL       I2C_masterEnable ; 0x40000810
        0x40005c9c:    b90ff6d5    ....    STR      w21,[x22,#0xff4]
        0x40005ca0:    90000035    5...    ADRP     x21,{pc}+0x4000 ; 0x40009ca0
        0x40005ca4:    913f12b5    ..?.    ADD      x21,x21,#0xfc4
        0x40005ca8:    b90ffad5    ....    STR      w21,[x22,#0xff8]
        0x40005cac:    52820188    ...R    MOV      w8,#0x100c
        0x40005cb0:    72bce608    ...r    MOVK     w8,#0xe730,LSL #16
        0x40005cb4:    b85fc109    .._.    LDUR     w9,[x8,#-4]
        0x40005cb8:    528001aa    ...R    MOV      w10,#0xd
        0x40005cbc:    33005d49    I].3    BFXIL    w9,w10,#0,#24
        0x40005cc0:    b81fc109    ....    STUR     w9,[x8,#-4]
        0x40005cc4:    b9400109    ..@.    LDR      w9,[x8,#0]
        0x40005cc8:    12107529    )u..    AND      w9,w9,#0xffff3fff
        0x40005ccc:    32120129    )..2    ORR      w9,w9,#0x4000
        0x40005cd0:    b9000109    ....    STR      w9,[x8,#0]
        0x40005cd4:    b9400109    ..@.    LDR      w9,[x8,#0]
        0x40005cd8:    12127529    )u..    AND      w9,w9,#0xffffcfff
        0x40005cdc:    b9000109    ....    STR      w9,[x8,#0]
        0x40005ce0:    b9400109    ..@.    LDR      w9,[x8,#0]
        0x40005ce4:    12146d29    )m..    AND      w9,w9,#0xfffff0ff
        0x40005ce8:    32150129    )..2    ORR      w9,w9,#0x800
        0x40005cec:    b9000109    ....    STR      w9,[x8,#0]
        0x40005cf0:    b9400109    ..@.    LDR      w9,[x8,#0]
        0x40005cf4:    120a7529    )u..    AND      w9,w9,#0xffcfffff
        0x40005cf8:    b9000109    ....    STR      w9,[x8,#0]
        0x40005cfc:    b9400109    ..@.    LDR      w9,[x8,#0]
        0x40005d00:    121b7529    )u..    AND      w9,w9,#0xffffffe7
        0x40005d04:    321c0129    )..2    ORR      w9,w9,#0x10
        0x40005d08:    b9000109    ....    STR      w9,[x8,#0]
        0x40005d0c:    52801409    ...R    MOV      w9,#0xa0
        0x40005d10:    79006909    .i.y    STRH     w9,[x8,#0x34]
        0x40005d14:    b9400109    ..@.    LDR      w9,[x8,#0]
        0x40005d18:    321e0129    )..2    ORR      w9,w9,#4
        0x40005d1c:    b9000109    ....    STR      w9,[x8,#0]
        0x40005d20:    b9400109    ..@.    LDR      w9,[x8,#0]
        0x40005d24:    32000129    )..2    ORR      w9,w9,#1
        0x40005d28:    b9000109    ....    STR      w9,[x8,#0]
        0x40005d2c:    d1402273    s"@.    SUB      x19,x19,#8,LSL #12
        0x40005d30:    d0000001    ....    ADRP     x1,{pc}+0x2000 ; 0x40007d30
        0x40005d34:    9132b021    !.2.    ADD      x1,x1,#0xcac
        0x40005d38:    aa1303e0    ....    MOV      x0,x19
        0x40005d3c:    97ffec29    )...    BL       I2C_slaveInit ; 0x40000de0
        0x40005d40:    12800001    ....    MOV      w1,#0xffffffff
        0x40005d44:    aa1303e0    ....    MOV      x0,x19
        0x40005d48:    97ffec02    ....    BL       I2C_slaveClearInterruptStatus ; 0x40000d50
        0x40005d4c:    12800001    ....    MOV      w1,#0xffffffff
        0x40005d50:    aa1303e0    ....    MOV      x0,x19
        0x40005d54:    97ffec1b    ....    BL       I2C_slaveEnableInterrupt ; 0x40000dc0
        0x40005d58:    aa1303e0    ....    MOV      x0,x19
        0x40005d5c:    97ffec0d    ....    BL       I2C_slaveEnable ; 0x40000d90
        0x40005d60:    97ffea20     ...    BL       GIC_enable ; 0x400005e0
        0x40005d64:    90ffffe1    ....    ADRP     x1,{pc}-0x4000 ; 0x40001d64
        0x40005d68:    9115c021    !...    ADD      x1,x1,#0x570
        0x40005d6c:    528021c0    .!.R    MOV      w0,#0x10e
        0x40005d70:    97ffea84    ....    BL       GIC_setInterruptHandler ; 0x40000780
        0x40005d74:    90ffffe1    ....    ADRP     x1,{pc}-0x4000 ; 0x40001d74
        0x40005d78:    91328021    !.2.    ADD      x1,x1,#0xca0
        0x40005d7c:    528021e0    .!.R    MOV      w0,#0x10f
        0x40005d80:    97ffea80    ....    BL       GIC_setInterruptHandler ; 0x40000780
        0x40005d84:    90000001    ....    ADRP     x1,{pc} ; 0x40005d84
        0x40005d88:    9108c021    !...    ADD      x1,x1,#0x230
        0x40005d8c:    321a03e0    ...2    ORR      w0,wzr,#0x40
        0x40005d90:    97ffea7c    |...    BL       GIC_setInterruptHandler ; 0x40000780
        0x40005d94:    90000001    ....    ADRP     x1,{pc} ; 0x40005d94
        0x40005d98:    91110021    !...    ADD      x1,x1,#0x440
        0x40005d9c:    52800820     ..R    MOV      w0,#0x41
        0x40005da0:    97ffea78    x...    BL       GIC_setInterruptHandler ; 0x40000780
        0x40005da4:    528021c0    .!.R    MOV      w0,#0x10e
        0x40005da8:    97ffea36    6...    BL       GIC_enableInterrupt ; 0x40000680
        0x40005dac:    528021e0    .!.R    MOV      w0,#0x10f
        0x40005db0:    97ffea34    4...    BL       GIC_enableInterrupt ; 0x40000680
        0x40005db4:    321a03e0    ...2    ORR      w0,wzr,#0x40
        0x40005db8:    97ffea32    2...    BL       GIC_enableInterrupt ; 0x40000680
        0x40005dbc:    52800820     ..R    MOV      w0,#0x41
        0x40005dc0:    97ffea30    0...    BL       GIC_enableInterrupt ; 0x40000680
        0x40005dc4:    52900000    ...R    MOV      w0,#0x8000
        0x40005dc8:    72bcca00    ...r    MOVK     w0,#0xe650,LSL #16
        0x40005dcc:    52800901    ...R    MOV      w1,#0x48
        0x40005dd0:    97ffebb8    ....    BL       I2C_masterSendMultipleByteStart ; 0x40000cb0
        0x40005dd4:    90000028    (...    ADRP     x8,{pc}+0x4000 ; 0x40009dd4
        0x40005dd8:    39796109    .ay9    LDRB     w9,[x8,#0xe58]
        0x40005ddc:    34ffffe9    ...4    CBZ      w9,0x40005dd8 ; slave_rx_dma + 600
        0x40005de0:    52900000    ...R    MOV      w0,#0x8000
        0x40005de4:    72bcca00    ...r    MOVK     w0,#0xe650,LSL #16
        0x40005de8:    97ffea76    v...    BL       I2C_masterDisable ; 0x400007c0
        0x40005dec:    aa1303e0    ....    MOV      x0,x19
        0x40005df0:    97ffebdc    ....    BL       I2C_slaveDisable ; 0x40000d60
        0x40005df4:    aa1f03e8    ....    MOV      x8,xzr
        0x40005df8:    d37ef509    ..~.    LSL      x9,x8,#2
        0x40005dfc:    b8696aaa    .ji.    LDR      w10,[x21,x9]
        0x40005e00:    b8696a89    .ji.    LDR      w9,[x20,x9]
        0x40005e04:    6b09015f    _..k    CMP      w10,w9
        0x40005e08:    540000c1    ...T    B.NE     0x40005e20 ; slave_rx_dma + 672
        0x40005e0c:    91000508    ....    ADD      x8,x8,#1
        0x40005e10:    7100311f    .1.q    CMP      w8,#0xc
        0x40005e14:    54ffff29    )..T    B.LS     0x40005df8 ; slave_rx_dma + 632
        0x40005e18:    2a1f03e0    ...*    MOV      w0,wzr
        0x40005e1c:    14000002    ....    B        0x40005e24 ; slave_rx_dma + 676
        0x40005e20:    320003e0    ...2    ORR      w0,wzr,#1
        0x40005e24:    a9427bf3    .{B.    LDP      x19,x30,[sp,#0x20]
        0x40005e28:    a94153f5    .SA.    LDP      x21,x20,[sp,#0x10]
        0x40005e2c:    f84307f6    ..C.    LDR      x22,[sp],#0x30
        0x40005e30:    d65f03c0    .._.    RET      
        0x40005e34:    00000000    ....    DCI      0x00000000 ; ? Undefined
        0x40005e38:    00000000    ....    DCI      0x00000000 ; ? Undefined
        0x40005e3c:    00000000    ....    DCI      0x00000000 ; ? Undefined
    slave_rx_fna
        0x40005e40:    a9bc63f9    .c..    STP      x25,x24,[sp,#-0x40]!
        0x40005e44:    a9015bf7    .[..    STP      x23,x22,[sp,#0x10]
        0x40005e48:    a90253f5    .S..    STP      x21,x20,[sp,#0x20]
        0x40005e4c:    a9037bf3    .{..    STP      x19,x30,[sp,#0x30]
        0x40005e50:    52900014    ...R    MOV      w20,#0x8000
        0x40005e54:    72bcca14    ...r    MOVK     w20,#0xe650,LSL #16
        0x40005e58:    d0000001    ....    ADRP     x1,{pc}+0x2000 ; 0x40007e58
        0x40005e5c:    9114a021    !...    ADD      x1,x1,#0x528
        0x40005e60:    52900000    ...R    MOV      w0,#0x8000
        0x40005e64:    72bcca00    ...r    MOVK     w0,#0xe650,LSL #16
        0x40005e68:    97ffea82    ....    BL       I2C_masterInit ; 0x40000870
        0x40005e6c:    52900000    ...R    MOV      w0,#0x8000
        0x40005e70:    72bcca00    ...r    MOVK     w0,#0xe650,LSL #16
        0x40005e74:    12800001    ....    MOV      w1,#0xffffffff
        0x40005e78:    97ffea4e    N...    BL       I2C_masterClearInterruptStatus ; 0x400007b0
        0x40005e7c:    52900000    ...R    MOV      w0,#0x8000
        0x40005e80:    72bcca00    ...r    MOVK     w0,#0xe650,LSL #16
        0x40005e84:    97ffea63    c...    BL       I2C_masterEnable ; 0x40000810
        0x40005e88:    d1402293    ."@.    SUB      x19,x20,#8,LSL #12
        0x40005e8c:    d0000001    ....    ADRP     x1,{pc}+0x2000 ; 0x40007e8c
        0x40005e90:    91391021    !.9.    ADD      x1,x1,#0xe44
        0x40005e94:    aa1303e0    ....    MOV      x0,x19
        0x40005e98:    97ffebd2    ....    BL       I2C_slaveInit ; 0x40000de0
        0x40005e9c:    12800001    ....    MOV      w1,#0xffffffff
        0x40005ea0:    aa1303e0    ....    MOV      x0,x19
        0x40005ea4:    97ffebab    ....    BL       I2C_slaveClearInterruptStatus ; 0x40000d50
        0x40005ea8:    aa1303e0    ....    MOV      x0,x19
        0x40005eac:    97ffebb9    ....    BL       I2C_slaveEnable ; 0x40000d90
        0x40005eb0:    52900000    ...R    MOV      w0,#0x8000
        0x40005eb4:    72bcca00    ...r    MOVK     w0,#0xe650,LSL #16
        0x40005eb8:    52800901    ...R    MOV      w1,#0x48
        0x40005ebc:    97ffeb7d    }...    BL       I2C_masterSendMultipleByteStart ; 0x40000cb0
        0x40005ec0:    928ffee8    ....    MOV      x8,#0xffffffffffff8008
        0x40005ec4:    b8686a89    .jh.    LDR      w9,[x20,x8]
        0x40005ec8:    3607ffe9    ...6    TBZ      w9,#0,0x40005ec4 ; slave_rx_fna + 132
        0x40005ecc:    52900197    ...R    MOV      w23,#0x800c
        0x40005ed0:    72bcca17    ...r    MOVK     w23,#0xe650,LSL #16
        0x40005ed4:    320003e1    ...2    ORR      w1,wzr,#1
        0x40005ed8:    aa1303e0    ....    MOV      x0,x19
        0x40005edc:    97ffeb9d    ....    BL       I2C_slaveClearInterruptStatus ; 0x40000d50
        0x40005ee0:    b94002e8    ..@.    LDR      w8,[x23,#0]
        0x40005ee4:    3607ffe8    ...6    TBZ      w8,#0,0x40005ee0 ; slave_rx_fna + 160
        0x40005ee8:    52900000    ...R    MOV      w0,#0x8000
        0x40005eec:    72bcca00    ...r    MOVK     w0,#0xe650,LSL #16
        0x40005ef0:    97ffea44    D...    BL       I2C_masterDisableStartGeneration ; 0x40000800
        0x40005ef4:    52900000    ...R    MOV      w0,#0x8000
        0x40005ef8:    72bcca00    ...r    MOVK     w0,#0xe650,LSL #16
        0x40005efc:    52800121    !..R    MOV      w1,#9
        0x40005f00:    97ffea2c    ,...    BL       I2C_masterClearInterruptStatus ; 0x400007b0
        0x40005f04:    320003f8    ...2    ORR      w24,wzr,#1
        0x40005f08:    d0000015    ....    ADRP     x21,{pc}+0x2000 ; 0x40007f08
        0x40005f0c:    912c62b5    .b,.    ADD      x21,x21,#0xb18
        0x40005f10:    928ffef9    ....    MOV      x25,#0xffffffffffff8008
        0x40005f14:    b0000036    6...    ADRP     x22,{pc}+0x5000 ; 0x4000af14
        0x40005f18:    910e82d6    ....    ADD      x22,x22,#0x3a0
        0x40005f1c:    b94002e8    ..@.    LDR      w8,[x23,#0]
        0x40005f20:    361fffe8    ...6    TBZ      w8,#3,0x40005f1c ; slave_rx_fna + 220
        0x40005f24:    f100331f    .3..    CMP      x24,#0xc
        0x40005f28:    540000a8    ...T    B.HI     0x40005f3c ; slave_rx_fna + 252
        0x40005f2c:    b8787aa1    .zx.    LDR      w1,[x21,x24,LSL #2]
        0x40005f30:    52900000    ...R    MOV      w0,#0x8000
        0x40005f34:    72bcca00    ...r    MOVK     w0,#0xe650,LSL #16
        0x40005f38:    97ffeb5a    Z...    BL       I2C_masterSendMultipleByteNext ; 0x40000ca0
        0x40005f3c:    52900000    ...R    MOV      w0,#0x8000
        0x40005f40:    72bcca00    ...r    MOVK     w0,#0xe650,LSL #16
        0x40005f44:    321d03e1    ...2    ORR      w1,wzr,#8
        0x40005f48:    97ffea1a    ....    BL       I2C_masterClearInterruptStatus ; 0x400007b0
        0x40005f4c:    b94002e8    ..@.    LDR      w8,[x23,#0]
        0x40005f50:    3617ffe8    ...6    TBZ      w8,#2,0x40005f4c ; slave_rx_fna + 268
        0x40005f54:    52900000    ...R    MOV      w0,#0x8000
        0x40005f58:    72bcca00    ...r    MOVK     w0,#0xe650,LSL #16
        0x40005f5c:    321e03e1    ...2    ORR      w1,wzr,#4
        0x40005f60:    97ffea14    ....    BL       I2C_masterClearInterruptStatus ; 0x400007b0
        0x40005f64:    b8796a88    .jy.    LDR      w8,[x20,x25]
        0x40005f68:    360fffe8    ...6    TBZ      w8,#1,0x40005f64 ; slave_rx_fna + 292
        0x40005f6c:    f1002f1f    ./..    CMP      x24,#0xb
        0x40005f70:    54000088    ...T    B.HI     0x40005f80 ; slave_rx_fna + 320
        0x40005f74:    aa1303e0    ....    MOV      x0,x19
        0x40005f78:    97ffec8e    ....    BL       I2C_slaveReceiveMultipleByteNext ; 0x400011b0
        0x40005f7c:    1400000a    ....    B        0x40005fa4 ; slave_rx_fna + 356
        0x40005f80:    7100371f    .7.q    CMP      w24,#0xd
        0x40005f84:    540000c0    ...T    B.EQ     0x40005f9c ; slave_rx_fna + 348
        0x40005f88:    7100331f    .3.q    CMP      w24,#0xc
        0x40005f8c:    54000101    ...T    B.NE     0x40005fac ; slave_rx_fna + 364
        0x40005f90:    aa1303e0    ....    MOV      x0,x19
        0x40005f94:    97ffec8b    ....    BL       I2C_slaveReceiveMultipleByteStop ; 0x400011c0
        0x40005f98:    14000003    ....    B        0x40005fa4 ; slave_rx_fna + 356
        0x40005f9c:    aa1303e0    ....    MOV      x0,x19
        0x40005fa0:    97ffec80    ....    BL       I2C_slaveReceiveMultipleByteFinish ; 0x400011a0
        0x40005fa4:    8b180ac8    ....    ADD      x8,x22,x24,LSL #2
        0x40005fa8:    b81fc100    ....    STUR     w0,[x8,#-4]
        0x40005fac:    321f03e1    ...2    ORR      w1,wzr,#2
        0x40005fb0:    aa1303e0    ....    MOV      x0,x19
        0x40005fb4:    97ffeb67    g...    BL       I2C_slaveClearInterruptStatus ; 0x40000d50
        0x40005fb8:    91000718    ....    ADD      x24,x24,#1
        0x40005fbc:    f1003b1f    .;..    CMP      x24,#0xe
        0x40005fc0:    54fffae1    ...T    B.NE     0x40005f1c ; slave_rx_fna + 220
        0x40005fc4:    b94002e8    ..@.    LDR      w8,[x23,#0]
        0x40005fc8:    3637ffe8    ..76    TBZ      w8,#6,0x40005fc4 ; slave_rx_fna + 388
        0x40005fcc:    52900000    ...R    MOV      w0,#0x8000
        0x40005fd0:    72bcca00    ...r    MOVK     w0,#0xe650,LSL #16
        0x40005fd4:    321a03e1    ...2    ORR      w1,wzr,#0x40
        0x40005fd8:    97ffe9f6    ....    BL       I2C_masterClearInterruptStatus ; 0x400007b0
        0x40005fdc:    928ffee8    ....    MOV      x8,#0xffffffffffff8008
        0x40005fe0:    b8686a89    .jh.    LDR      w9,[x20,x8]
        0x40005fe4:    3627ffe9    ..'6    TBZ      w9,#4,0x40005fe0 ; slave_rx_fna + 416
        0x40005fe8:    321c03e1    ...2    ORR      w1,wzr,#0x10
        0x40005fec:    aa1303e0    ....    MOV      x0,x19
        0x40005ff0:    97ffeb58    X...    BL       I2C_slaveClearInterruptStatus ; 0x40000d50
        0x40005ff4:    b94002e8    ..@.    LDR      w8,[x23,#0]
        0x40005ff8:    3627ffe8    ..'6    TBZ      w8,#4,0x40005ff4 ; slave_rx_fna + 436
        0x40005ffc:    52900000    ...R    MOV      w0,#0x8000
        0x40006000:    72bcca00    ...r    MOVK     w0,#0xe650,LSL #16
        0x40006004:    321c03e1    ...2    ORR      w1,wzr,#0x10
        0x40006008:    97ffe9ea    ....    BL       I2C_masterClearInterruptStatus ; 0x400007b0
        0x4000600c:    52900000    ...R    MOV      w0,#0x8000
        0x40006010:    72bcca00    ...r    MOVK     w0,#0xe650,LSL #16
        0x40006014:    97ffe9eb    ....    BL       I2C_masterDisable ; 0x400007c0
        0x40006018:    aa1303e0    ....    MOV      x0,x19
        0x4000601c:    97ffeb51    Q...    BL       I2C_slaveDisable ; 0x40000d60
        0x40006020:    aa1f03e8    ....    MOV      x8,xzr
        0x40006024:    d37ef509    ..~.    LSL      x9,x8,#2
        0x40006028:    b8696aca    .ji.    LDR      w10,[x22,x9]
        0x4000602c:    b8696aa9    .ji.    LDR      w9,[x21,x9]
        0x40006030:    6b09015f    _..k    CMP      w10,w9
        0x40006034:    540000c1    ...T    B.NE     0x4000604c ; slave_rx_fna + 524
        0x40006038:    91000508    ....    ADD      x8,x8,#1
        0x4000603c:    7100311f    .1.q    CMP      w8,#0xc
        0x40006040:    54ffff29    )..T    B.LS     0x40006024 ; slave_rx_fna + 484
        0x40006044:    2a1f03e0    ...*    MOV      w0,wzr
        0x40006048:    14000002    ....    B        0x40006050 ; slave_rx_fna + 528
        0x4000604c:    320003e0    ...2    ORR      w0,wzr,#1
        0x40006050:    a9437bf3    .{C.    LDP      x19,x30,[sp,#0x30]
        0x40006054:    a94253f5    .SB.    LDP      x21,x20,[sp,#0x20]
        0x40006058:    a9415bf7    .[A.    LDP      x23,x22,[sp,#0x10]
        0x4000605c:    a8c463f9    .c..    LDP      x25,x24,[sp],#0x40
        0x40006060:    d65f03c0    .._.    RET      
        0x40006064:    00000000    ....    DCI      0x00000000 ; ? Undefined
        0x40006068:    00000000    ....    DCI      0x00000000 ; ? Undefined
        0x4000606c:    00000000    ....    DCI      0x00000000 ; ? Undefined
    slave_tx
        0x40006070:    a9bc63f9    .c..    STP      x25,x24,[sp,#-0x40]!
        0x40006074:    a9015bf7    .[..    STP      x23,x22,[sp,#0x10]
        0x40006078:    a90253f5    .S..    STP      x21,x20,[sp,#0x20]
        0x4000607c:    a9037bf3    .{..    STP      x19,x30,[sp,#0x30]
        0x40006080:    52900014    ...R    MOV      w20,#0x8000
        0x40006084:    72bcca14    ...r    MOVK     w20,#0xe650,LSL #16
        0x40006088:    b0000001    ....    ADRP     x1,{pc}+0x1000 ; 0x40007088
        0x4000608c:    910c6021    !`..    ADD      x1,x1,#0x318
        0x40006090:    52900000    ...R    MOV      w0,#0x8000
        0x40006094:    72bcca00    ...r    MOVK     w0,#0xe650,LSL #16
        0x40006098:    97ffe9f6    ....    BL       I2C_masterInit ; 0x40000870
        0x4000609c:    52900000    ...R    MOV      w0,#0x8000
        0x400060a0:    72bcca00    ...r    MOVK     w0,#0xe650,LSL #16
        0x400060a4:    12800001    ....    MOV      w1,#0xffffffff
        0x400060a8:    97ffe9c2    ....    BL       I2C_masterClearInterruptStatus ; 0x400007b0
        0x400060ac:    52900000    ...R    MOV      w0,#0x8000
        0x400060b0:    72bcca00    ...r    MOVK     w0,#0xe650,LSL #16
        0x400060b4:    97ffe9d7    ....    BL       I2C_masterEnable ; 0x40000810
        0x400060b8:    d1402293    ."@.    SUB      x19,x20,#8,LSL #12
        0x400060bc:    b0000001    ....    ADRP     x1,{pc}+0x1000 ; 0x400070bc
        0x400060c0:    9130d021    !.0.    ADD      x1,x1,#0xc34
        0x400060c4:    aa1303e0    ....    MOV      x0,x19
        0x400060c8:    97ffeb46    F...    BL       I2C_slaveInit ; 0x40000de0
        0x400060cc:    12800001    ....    MOV      w1,#0xffffffff
        0x400060d0:    aa1303e0    ....    MOV      x0,x19
        0x400060d4:    97ffeb1f    ....    BL       I2C_slaveClearInterruptStatus ; 0x40000d50
        0x400060d8:    aa1303e0    ....    MOV      x0,x19
        0x400060dc:    97ffeb2d    -...    BL       I2C_slaveEnable ; 0x40000d90
        0x400060e0:    52800901    ...R    MOV      w1,#0x48
        0x400060e4:    aa1303e0    ....    MOV      x0,x19
        0x400060e8:    97ffec3e    >...    BL       I2C_slaveSetData ; 0x400011e0
        0x400060ec:    52900000    ...R    MOV      w0,#0x8000
        0x400060f0:    72bcca00    ...r    MOVK     w0,#0xe650,LSL #16
        0x400060f4:    97ffeadf    ....    BL       I2C_masterReceiveStart ; 0x40000c70
        0x400060f8:    928ffee8    ....    MOV      x8,#0xffffffffffff8008
        0x400060fc:    b8686a89    .jh.    LDR      w9,[x20,x8]
        0x40006100:    3607ffe9    ...6    TBZ      w9,#0,0x400060fc ; slave_tx + 140
        0x40006104:    52900197    ...R    MOV      w23,#0x800c
        0x40006108:    72bcca17    ...r    MOVK     w23,#0xe650,LSL #16
        0x4000610c:    320003e1    ...2    ORR      w1,wzr,#1
        0x40006110:    aa1303e0    ....    MOV      x0,x19
        0x40006114:    97ffeb0f    ....    BL       I2C_slaveClearInterruptStatus ; 0x40000d50
        0x40006118:    b94002e8    ..@.    LDR      w8,[x23,#0]
        0x4000611c:    3607ffe8    ...6    TBZ      w8,#0,0x40006118 ; slave_tx + 168
        0x40006120:    52900000    ...R    MOV      w0,#0x8000
        0x40006124:    72bcca00    ...r    MOVK     w0,#0xe650,LSL #16
        0x40006128:    97ffe9b6    ....    BL       I2C_masterDisableStartGeneration ; 0x40000800
        0x4000612c:    52900000    ...R    MOV      w0,#0x8000
        0x40006130:    72bcca00    ...r    MOVK     w0,#0xe650,LSL #16
        0x40006134:    320007e1    ...2    ORR      w1,wzr,#3
        0x40006138:    97ffe99e    ....    BL       I2C_masterClearInterruptStatus ; 0x400007b0
        0x4000613c:    320003f8    ...2    ORR      w24,wzr,#1
        0x40006140:    b0000015    ....    ADRP     x21,{pc}+0x1000 ; 0x40007140
        0x40006144:    911812b5    ....    ADD      x21,x21,#0x604
        0x40006148:    928ffef9    ....    MOV      x25,#0xffffffffffff8008
        0x4000614c:    f0000016    ....    ADRP     x22,{pc}+0x3000 ; 0x4000914c
        0x40006150:    913b02d6    ..;.    ADD      x22,x22,#0xec0
        0x40006154:    b8796a88    .jy.    LDR      w8,[x20,x25]
        0x40006158:    361fffe8    ...6    TBZ      w8,#3,0x40006154 ; slave_tx + 228
        0x4000615c:    f100331f    .3..    CMP      x24,#0xc
        0x40006160:    54000088    ...T    B.HI     0x40006170 ; slave_tx + 256
        0x40006164:    b8787aa1    .zx.    LDR      w1,[x21,x24,LSL #2]
        0x40006168:    aa1303e0    ....    MOV      x0,x19
        0x4000616c:    97ffec1d    ....    BL       I2C_slaveSetData ; 0x400011e0
        0x40006170:    321d03e1    ...2    ORR      w1,wzr,#8
        0x40006174:    aa1303e0    ....    MOV      x0,x19
        0x40006178:    97ffeaf6    ....    BL       I2C_slaveClearInterruptStatus ; 0x40000d50
        0x4000617c:    b8796a88    .jy.    LDR      w8,[x20,x25]
        0x40006180:    3617ffe8    ...6    TBZ      w8,#2,0x4000617c ; slave_tx + 268
        0x40006184:    321e03e1    ...2    ORR      w1,wzr,#4
        0x40006188:    aa1303e0    ....    MOV      x0,x19
        0x4000618c:    97ffeaf1    ....    BL       I2C_slaveClearInterruptStatus ; 0x40000d50
        0x40006190:    b94002e8    ..@.    LDR      w8,[x23,#0]
        0x40006194:    360fffe8    ...6    TBZ      w8,#1,0x40006190 ; slave_tx + 288
        0x40006198:    f1002f1f    ./..    CMP      x24,#0xb
        0x4000619c:    540000a8    ...T    B.HI     0x400061b0 ; slave_tx + 320
        0x400061a0:    52900000    ...R    MOV      w0,#0x8000
        0x400061a4:    72bcca00    ...r    MOVK     w0,#0xe650,LSL #16
        0x400061a8:    97ffeaa6    ....    BL       I2C_masterReceiveMultipleByteNext ; 0x40000c40
        0x400061ac:    1400000c    ....    B        0x400061dc ; slave_tx + 364
        0x400061b0:    7100371f    .7.q    CMP      w24,#0xd
        0x400061b4:    540000e0    ...T    B.EQ     0x400061d0 ; slave_tx + 352
        0x400061b8:    7100331f    .3.q    CMP      w24,#0xc
        0x400061bc:    54000141    A..T    B.NE     0x400061e4 ; slave_tx + 372
        0x400061c0:    52900000    ...R    MOV      w0,#0x8000
        0x400061c4:    72bcca00    ...r    MOVK     w0,#0xe650,LSL #16
        0x400061c8:    97ffeaa2    ....    BL       I2C_masterReceiveMultipleByteStop ; 0x40000c50
        0x400061cc:    14000004    ....    B        0x400061dc ; slave_tx + 364
        0x400061d0:    52900000    ...R    MOV      w0,#0x8000
        0x400061d4:    72bcca00    ...r    MOVK     w0,#0xe650,LSL #16
        0x400061d8:    97ffea96    ....    BL       I2C_masterReceiveMultipleByteFinish ; 0x40000c30
        0x400061dc:    8b180ac8    ....    ADD      x8,x22,x24,LSL #2
        0x400061e0:    b81fc100    ....    STUR     w0,[x8,#-4]
        0x400061e4:    52900000    ...R    MOV      w0,#0x8000
        0x400061e8:    72bcca00    ...r    MOVK     w0,#0xe650,LSL #16
        0x400061ec:    321f03e1    ...2    ORR      w1,wzr,#2
        0x400061f0:    97ffe970    p...    BL       I2C_masterClearInterruptStatus ; 0x400007b0
        0x400061f4:    91000718    ....    ADD      x24,x24,#1
        0x400061f8:    f1003b1f    .;..    CMP      x24,#0xe
        0x400061fc:    54fffac1    ...T    B.NE     0x40006154 ; slave_tx + 228
        0x40006200:    928ffee8    ....    MOV      x8,#0xffffffffffff8008
        0x40006204:    b8686a89    .jh.    LDR      w9,[x20,x8]
        0x40006208:    3627ffe9    ..'6    TBZ      w9,#4,0x40006204 ; slave_tx + 404
        0x4000620c:    321c03e1    ...2    ORR      w1,wzr,#0x10
        0x40006210:    aa1303e0    ....    MOV      x0,x19
        0x40006214:    97ffeacf    ....    BL       I2C_slaveClearInterruptStatus ; 0x40000d50
        0x40006218:    b94002e8    ..@.    LDR      w8,[x23,#0]
        0x4000621c:    3627ffe8    ..'6    TBZ      w8,#4,0x40006218 ; slave_tx + 424
        0x40006220:    52900000    ...R    MOV      w0,#0x8000
        0x40006224:    72bcca00    ...r    MOVK     w0,#0xe650,LSL #16
        0x40006228:    321c03e1    ...2    ORR      w1,wzr,#0x10
        0x4000622c:    97ffe961    a...    BL       I2C_masterClearInterruptStatus ; 0x400007b0
        0x40006230:    52900000    ...R    MOV      w0,#0x8000
        0x40006234:    72bcca00    ...r    MOVK     w0,#0xe650,LSL #16
        0x40006238:    97ffe962    b...    BL       I2C_masterDisable ; 0x400007c0
        0x4000623c:    aa1303e0    ....    MOV      x0,x19
        0x40006240:    97ffeac8    ....    BL       I2C_slaveDisable ; 0x40000d60
        0x40006244:    aa1f03e8    ....    MOV      x8,xzr
        0x40006248:    d37ef509    ..~.    LSL      x9,x8,#2
        0x4000624c:    b8696aca    .ji.    LDR      w10,[x22,x9]
        0x40006250:    b8696aa9    .ji.    LDR      w9,[x21,x9]
        0x40006254:    6b09015f    _..k    CMP      w10,w9
        0x40006258:    540000c1    ...T    B.NE     0x40006270 ; slave_tx + 512
        0x4000625c:    91000508    ....    ADD      x8,x8,#1
        0x40006260:    7100311f    .1.q    CMP      w8,#0xc
        0x40006264:    54ffff29    )..T    B.LS     0x40006248 ; slave_tx + 472
        0x40006268:    2a1f03e0    ...*    MOV      w0,wzr
        0x4000626c:    14000002    ....    B        0x40006274 ; slave_tx + 516
        0x40006270:    320003e0    ...2    ORR      w0,wzr,#1
        0x40006274:    a9437bf3    .{C.    LDP      x19,x30,[sp,#0x30]
        0x40006278:    a94253f5    .SB.    LDP      x21,x20,[sp,#0x20]
        0x4000627c:    a9415bf7    .[A.    LDP      x23,x22,[sp,#0x10]
        0x40006280:    a8c463f9    .c..    LDP      x25,x24,[sp],#0x40
        0x40006284:    d65f03c0    .._.    RET      
        0x40006288:    00000000    ....    DCI      0x00000000 ; ? Undefined
        0x4000628c:    00000000    ....    DCI      0x00000000 ; ? Undefined
    slave_tx_delay
        0x40006290:    a9bc63f9    .c..    STP      x25,x24,[sp,#-0x40]!
        0x40006294:    a9015bf7    .[..    STP      x23,x22,[sp,#0x10]
        0x40006298:    a90253f5    .S..    STP      x21,x20,[sp,#0x20]
        0x4000629c:    a9037bf3    .{..    STP      x19,x30,[sp,#0x30]
        0x400062a0:    52900014    ...R    MOV      w20,#0x8000
        0x400062a4:    72bcca14    ...r    MOVK     w20,#0xe650,LSL #16
        0x400062a8:    b0000001    ....    ADRP     x1,{pc}+0x1000 ; 0x400072a8
        0x400062ac:    91150021    !...    ADD      x1,x1,#0x540
        0x400062b0:    52900000    ...R    MOV      w0,#0x8000
        0x400062b4:    72bcca00    ...r    MOVK     w0,#0xe650,LSL #16
        0x400062b8:    97ffe96e    n...    BL       I2C_masterInit ; 0x40000870
        0x400062bc:    52900000    ...R    MOV      w0,#0x8000
        0x400062c0:    72bcca00    ...r    MOVK     w0,#0xe650,LSL #16
        0x400062c4:    12800001    ....    MOV      w1,#0xffffffff
        0x400062c8:    97ffe93a    :...    BL       I2C_masterClearInterruptStatus ; 0x400007b0
        0x400062cc:    52900000    ...R    MOV      w0,#0x8000
        0x400062d0:    72bcca00    ...r    MOVK     w0,#0xe650,LSL #16
        0x400062d4:    97ffe94f    O...    BL       I2C_masterEnable ; 0x40000810
        0x400062d8:    d1402293    ."@.    SUB      x19,x20,#8,LSL #12
        0x400062dc:    b0000001    ....    ADRP     x1,{pc}+0x1000 ; 0x400072dc
        0x400062e0:    91397021    !p9.    ADD      x1,x1,#0xe5c
        0x400062e4:    aa1303e0    ....    MOV      x0,x19
        0x400062e8:    97ffeabe    ....    BL       I2C_slaveInit ; 0x40000de0
        0x400062ec:    12800001    ....    MOV      w1,#0xffffffff
        0x400062f0:    aa1303e0    ....    MOV      x0,x19
        0x400062f4:    97ffea97    ....    BL       I2C_slaveClearInterruptStatus ; 0x40000d50
        0x400062f8:    aa1303e0    ....    MOV      x0,x19
        0x400062fc:    97ffeaa5    ....    BL       I2C_slaveEnable ; 0x40000d90
        0x40006300:    52800901    ...R    MOV      w1,#0x48
        0x40006304:    aa1303e0    ....    MOV      x0,x19
        0x40006308:    97ffebb6    ....    BL       I2C_slaveSetData ; 0x400011e0
        0x4000630c:    52900000    ...R    MOV      w0,#0x8000
        0x40006310:    72bcca00    ...r    MOVK     w0,#0xe650,LSL #16
        0x40006314:    97ffea57    W...    BL       I2C_masterReceiveStart ; 0x40000c70
        0x40006318:    928ffee8    ....    MOV      x8,#0xffffffffffff8008
        0x4000631c:    b8686a89    .jh.    LDR      w9,[x20,x8]
        0x40006320:    3607ffe9    ...6    TBZ      w9,#0,0x4000631c ; slave_tx_delay + 140
        0x40006324:    52900197    ...R    MOV      w23,#0x800c
        0x40006328:    72bcca17    ...r    MOVK     w23,#0xe650,LSL #16
        0x4000632c:    320003e1    ...2    ORR      w1,wzr,#1
        0x40006330:    aa1303e0    ....    MOV      x0,x19
        0x40006334:    97ffea87    ....    BL       I2C_slaveClearInterruptStatus ; 0x40000d50
        0x40006338:    b94002e8    ..@.    LDR      w8,[x23,#0]
        0x4000633c:    3607ffe8    ...6    TBZ      w8,#0,0x40006338 ; slave_tx_delay + 168
        0x40006340:    52900000    ...R    MOV      w0,#0x8000
        0x40006344:    72bcca00    ...r    MOVK     w0,#0xe650,LSL #16
        0x40006348:    97ffe92e    ....    BL       I2C_masterDisableStartGeneration ; 0x40000800
        0x4000634c:    52900000    ...R    MOV      w0,#0x8000
        0x40006350:    72bcca00    ...r    MOVK     w0,#0xe650,LSL #16
        0x40006354:    320007e1    ...2    ORR      w1,wzr,#3
        0x40006358:    97ffe916    ....    BL       I2C_masterClearInterruptStatus ; 0x400007b0
        0x4000635c:    320003f8    ...2    ORR      w24,wzr,#1
        0x40006360:    90000035    5...    ADRP     x21,{pc}+0x4000 ; 0x4000a360
        0x40006364:    910f52b5    .R..    ADD      x21,x21,#0x3d4
        0x40006368:    928ffef9    ....    MOV      x25,#0xffffffffffff8008
        0x4000636c:    b0000016    ....    ADRP     x22,{pc}+0x1000 ; 0x4000736c
        0x40006370:    912d32d6    .2-.    ADD      x22,x22,#0xb4c
        0x40006374:    b94002e8    ..@.    LDR      w8,[x23,#0]
        0x40006378:    360fffe8    ...6    TBZ      w8,#1,0x40006374 ; slave_tx_delay + 228
        0x4000637c:    f1002f1f    ./..    CMP      x24,#0xb
        0x40006380:    540000a8    ...T    B.HI     0x40006394 ; slave_tx_delay + 260
        0x40006384:    52900000    ...R    MOV      w0,#0x8000
        0x40006388:    72bcca00    ...r    MOVK     w0,#0xe650,LSL #16
        0x4000638c:    97ffea2d    -...    BL       I2C_masterReceiveMultipleByteNext ; 0x40000c40
        0x40006390:    1400000c    ....    B        0x400063c0 ; slave_tx_delay + 304
        0x40006394:    7100371f    .7.q    CMP      w24,#0xd
        0x40006398:    540000e0    ...T    B.EQ     0x400063b4 ; slave_tx_delay + 292
        0x4000639c:    7100331f    .3.q    CMP      w24,#0xc
        0x400063a0:    54000141    A..T    B.NE     0x400063c8 ; slave_tx_delay + 312
        0x400063a4:    52900000    ...R    MOV      w0,#0x8000
        0x400063a8:    72bcca00    ...r    MOVK     w0,#0xe650,LSL #16
        0x400063ac:    97ffea29    )...    BL       I2C_masterReceiveMultipleByteStop ; 0x40000c50
        0x400063b0:    14000004    ....    B        0x400063c0 ; slave_tx_delay + 304
        0x400063b4:    52900000    ...R    MOV      w0,#0x8000
        0x400063b8:    72bcca00    ...r    MOVK     w0,#0xe650,LSL #16
        0x400063bc:    97ffea1d    ....    BL       I2C_masterReceiveMultipleByteFinish ; 0x40000c30
        0x400063c0:    8b180aa8    ....    ADD      x8,x21,x24,LSL #2
        0x400063c4:    b81fc100    ....    STUR     w0,[x8,#-4]
        0x400063c8:    52900000    ...R    MOV      w0,#0x8000
        0x400063cc:    72bcca00    ...r    MOVK     w0,#0xe650,LSL #16
        0x400063d0:    321f03e1    ...2    ORR      w1,wzr,#2
        0x400063d4:    97ffe8f7    ....    BL       I2C_masterClearInterruptStatus ; 0x400007b0
        0x400063d8:    b8796a88    .jy.    LDR      w8,[x20,x25]
        0x400063dc:    3617ffe8    ...6    TBZ      w8,#2,0x400063d8 ; slave_tx_delay + 328
        0x400063e0:    321e03e1    ...2    ORR      w1,wzr,#4
        0x400063e4:    aa1303e0    ....    MOV      x0,x19
        0x400063e8:    97ffea5a    Z...    BL       I2C_slaveClearInterruptStatus ; 0x40000d50
        0x400063ec:    b8796a88    .jy.    LDR      w8,[x20,x25]
        0x400063f0:    361fffe8    ...6    TBZ      w8,#3,0x400063ec ; slave_tx_delay + 348
        0x400063f4:    f100331f    .3..    CMP      x24,#0xc
        0x400063f8:    54000088    ...T    B.HI     0x40006408 ; slave_tx_delay + 376
        0x400063fc:    b8787ac1    .zx.    LDR      w1,[x22,x24,LSL #2]
        0x40006400:    aa1303e0    ....    MOV      x0,x19
        0x40006404:    97ffeb77    w...    BL       I2C_slaveSetData ; 0x400011e0
        0x40006408:    52801900    ...R    MOV      w0,#0xc8
        0x4000640c:    97ffeb91    ....    BL       Sim_Delay ; 0x40001250
        0x40006410:    321d03e1    ...2    ORR      w1,wzr,#8
        0x40006414:    aa1303e0    ....    MOV      x0,x19
        0x40006418:    97ffea4e    N...    BL       I2C_slaveClearInterruptStatus ; 0x40000d50
        0x4000641c:    91000718    ....    ADD      x24,x24,#1
        0x40006420:    f1003b1f    .;..    CMP      x24,#0xe
        0x40006424:    54fffa81    ...T    B.NE     0x40006374 ; slave_tx_delay + 228
        0x40006428:    928ffee8    ....    MOV      x8,#0xffffffffffff8008
        0x4000642c:    b8686a89    .jh.    LDR      w9,[x20,x8]
        0x40006430:    3627ffe9    ..'6    TBZ      w9,#4,0x4000642c ; slave_tx_delay + 412
        0x40006434:    321c03e1    ...2    ORR      w1,wzr,#0x10
        0x40006438:    aa1303e0    ....    MOV      x0,x19
        0x4000643c:    97ffea45    E...    BL       I2C_slaveClearInterruptStatus ; 0x40000d50
        0x40006440:    b94002e8    ..@.    LDR      w8,[x23,#0]
        0x40006444:    3627ffe8    ..'6    TBZ      w8,#4,0x40006440 ; slave_tx_delay + 432
        0x40006448:    52900000    ...R    MOV      w0,#0x8000
        0x4000644c:    72bcca00    ...r    MOVK     w0,#0xe650,LSL #16
        0x40006450:    321c03e1    ...2    ORR      w1,wzr,#0x10
        0x40006454:    97ffe8d7    ....    BL       I2C_masterClearInterruptStatus ; 0x400007b0
        0x40006458:    52900000    ...R    MOV      w0,#0x8000
        0x4000645c:    72bcca00    ...r    MOVK     w0,#0xe650,LSL #16
        0x40006460:    97ffe8d8    ....    BL       I2C_masterDisable ; 0x400007c0
        0x40006464:    aa1303e0    ....    MOV      x0,x19
        0x40006468:    97ffea3e    >...    BL       I2C_slaveDisable ; 0x40000d60
        0x4000646c:    aa1f03e8    ....    MOV      x8,xzr
        0x40006470:    d37ef509    ..~.    LSL      x9,x8,#2
        0x40006474:    b8696aaa    .ji.    LDR      w10,[x21,x9]
        0x40006478:    b8696ac9    .ji.    LDR      w9,[x22,x9]
        0x4000647c:    6b09015f    _..k    CMP      w10,w9
        0x40006480:    540000c1    ...T    B.NE     0x40006498 ; slave_tx_delay + 520
        0x40006484:    91000508    ....    ADD      x8,x8,#1
        0x40006488:    7100311f    .1.q    CMP      w8,#0xc
        0x4000648c:    54ffff29    )..T    B.LS     0x40006470 ; slave_tx_delay + 480
        0x40006490:    2a1f03e0    ...*    MOV      w0,wzr
        0x40006494:    14000002    ....    B        0x4000649c ; slave_tx_delay + 524
        0x40006498:    320003e0    ...2    ORR      w0,wzr,#1
        0x4000649c:    a9437bf3    .{C.    LDP      x19,x30,[sp,#0x30]
        0x400064a0:    a94253f5    .SB.    LDP      x21,x20,[sp,#0x20]
        0x400064a4:    a9415bf7    .[A.    LDP      x23,x22,[sp,#0x10]
        0x400064a8:    a8c463f9    .c..    LDP      x25,x24,[sp],#0x40
        0x400064ac:    d65f03c0    .._.    RET      
    slave_tx_dma
        0x400064b0:    f81c0ff8    ....    STR      x24,[sp,#-0x40]!
        0x400064b4:    a9015bf7    .[..    STP      x23,x22,[sp,#0x10]
        0x400064b8:    a90253f5    .S..    STP      x21,x20,[sp,#0x20]
        0x400064bc:    a9037bf3    .{..    STP      x19,x30,[sp,#0x30]
        0x400064c0:    52bcca15    ...R    MOV      w21,#0xe6500000
        0x400064c4:    52858393    ...R    MOV      w19,#0x2c1c
        0x400064c8:    72bcc2b3    ...r    MOVK     w19,#0xe615,LSL #16
        0x400064cc:    52858380    ...R    MOV      w0,#0x2c1c
        0x400064d0:    72bcc2a0    ...r    MOVK     w0,#0xe615,LSL #16
        0x400064d4:    52800121    !..R    MOV      w1,#9
        0x400064d8:    97ffe826    &...    BL       CPG_SetBit ; 0x40000570
        0x400064dc:    91020260    `...    ADD      x0,x19,#0x80
        0x400064e0:    52800121    !..R    MOV      w1,#9
        0x400064e4:    97ffe823    #...    BL       CPG_SetBit ; 0x40000570
        0x400064e8:    52800497    ...R    MOV      w23,#0x24
        0x400064ec:    72bcca17    ...r    MOVK     w23,#0xe650,LSL #16
        0x400064f0:    114022e8    ."@.    ADD      w8,w23,#8,LSL #12
        0x400064f4:    320b0be9    ...2    ORR      w9,wzr,#0xe00000
        0x400064f8:    b8296aa8    .j).    STR      w8,[x21,x9]
        0x400064fc:    90000034    4...    ADRP     x20,{pc}+0x4000 ; 0x4000a4fc
        0x40006500:    910b4294    .B..    ADD      x20,x20,#0x2d0
        0x40006504:    52800198    ...R    MOV      w24,#0xc
        0x40006508:    72bce618    ...r    MOVK     w24,#0xe730,LSL #16
        0x4000650c:    b81f8314    ....    STUR     w20,[x24,#-8]
        0x40006510:    b85fc308    .._.    LDUR     w8,[x24,#-4]
        0x40006514:    528001a9    ...R    MOV      w9,#0xd
        0x40006518:    33005d28    (].3    BFXIL    w8,w9,#0,#24
        0x4000651c:    b81fc308    ....    STUR     w8,[x24,#-4]
        0x40006520:    b9400308    ..@.    LDR      w8,[x24,#0]
        0x40006524:    12107508    .u..    AND      w8,w8,#0xffff3fff
        0x40006528:    32120108    ...2    ORR      w8,w8,#0x4000
        0x4000652c:    b9000308    ....    STR      w8,[x24,#0]
        0x40006530:    b9400308    ..@.    LDR      w8,[x24,#0]
        0x40006534:    12127508    .u..    AND      w8,w8,#0xffffcfff
        0x40006538:    b9000308    ....    STR      w8,[x24,#0]
        0x4000653c:    b9400308    ..@.    LDR      w8,[x24,#0]
        0x40006540:    12146d08    .m..    AND      w8,w8,#0xfffff0ff
        0x40006544:    32150108    ...2    ORR      w8,w8,#0x800
        0x40006548:    b9000308    ....    STR      w8,[x24,#0]
        0x4000654c:    b9400308    ..@.    LDR      w8,[x24,#0]
        0x40006550:    120a7508    .u..    AND      w8,w8,#0xffcfffff
        0x40006554:    b9000308    ....    STR      w8,[x24,#0]
        0x40006558:    b9400308    ..@.    LDR      w8,[x24,#0]
        0x4000655c:    121b7508    .u..    AND      w8,w8,#0xffffffe7
        0x40006560:    321c0108    ...2    ORR      w8,w8,#0x10
        0x40006564:    b9000308    ....    STR      w8,[x24,#0]
        0x40006568:    52801248    H..R    MOV      w8,#0x92
        0x4000656c:    79006b08    .k.y    STRH     w8,[x24,#0x34]
        0x40006570:    b9400308    ..@.    LDR      w8,[x24,#0]
        0x40006574:    321e0108    ...2    ORR      w8,w8,#4
        0x40006578:    b9000308    ....    STR      w8,[x24,#0]
        0x4000657c:    b9400308    ..@.    LDR      w8,[x24,#0]
        0x40006580:    32000108    ...2    ORR      w8,w8,#1
        0x40006584:    b9000308    ....    STR      w8,[x24,#0]
        0x40006588:    914022b3    ."@.    ADD      x19,x21,#8,LSL #12
        0x4000658c:    b0000001    ....    ADRP     x1,{pc}+0x1000 ; 0x4000758c
        0x40006590:    91138021    !...    ADD      x1,x1,#0x4e0
        0x40006594:    aa1303e0    ....    MOV      x0,x19
        0x40006598:    97ffe8b6    ....    BL       I2C_masterInit ; 0x40000870
        0x4000659c:    12800001    ....    MOV      w1,#0xffffffff
        0x400065a0:    aa1303e0    ....    MOV      x0,x19
        0x400065a4:    97ffe883    ....    BL       I2C_masterClearInterruptStatus ; 0x400007b0
        0x400065a8:    12800001    ....    MOV      w1,#0xffffffff
        0x400065ac:    aa1303e0    ....    MOV      x0,x19
        0x400065b0:    97ffe8a8    ....    BL       I2C_masterEnableInterrupt ; 0x40000850
        0x400065b4:    aa1303e0    ....    MOV      x0,x19
        0x400065b8:    97ffe896    ....    BL       I2C_masterEnable ; 0x40000810
        0x400065bc:    b0000016    ....    ADRP     x22,{pc}+0x1000 ; 0x400075bc
        0x400065c0:    912922d6    .").    ADD      x22,x22,#0xa48
        0x400065c4:    110012c8    ....    ADD      w8,w22,#4
        0x400065c8:    b90ff708    ....    STR      w8,[x24,#0xff4]
        0x400065cc:    b90ffb17    ....    STR      w23,[x24,#0xff8]
        0x400065d0:    52820188    ...R    MOV      w8,#0x100c
        0x400065d4:    72bce608    ...r    MOVK     w8,#0xe730,LSL #16
        0x400065d8:    b85fc109    .._.    LDUR     w9,[x8,#-4]
        0x400065dc:    12081d29    )...    AND      w9,w9,#0xff000000
        0x400065e0:    321e0529    )..2    ORR      w9,w9,#0xc
        0x400065e4:    b81fc109    ....    STUR     w9,[x8,#-4]
        0x400065e8:    b9400109    ..@.    LDR      w9,[x8,#0]
        0x400065ec:    12107529    )u..    AND      w9,w9,#0xffff3fff
        0x400065f0:    b9000109    ....    STR      w9,[x8,#0]
        0x400065f4:    b9400109    ..@.    LDR      w9,[x8,#0]
        0x400065f8:    12127529    )u..    AND      w9,w9,#0xffffcfff
        0x400065fc:    32140129    )..2    ORR      w9,w9,#0x1000
        0x40006600:    b9000109    ....    STR      w9,[x8,#0]
        0x40006604:    b9400109    ..@.    LDR      w9,[x8,#0]
        0x40006608:    12146d29    )m..    AND      w9,w9,#0xfffff0ff
        0x4000660c:    32150129    )..2    ORR      w9,w9,#0x800
        0x40006610:    b9000109    ....    STR      w9,[x8,#0]
        0x40006614:    b9400109    ..@.    LDR      w9,[x8,#0]
        0x40006618:    120a7529    )u..    AND      w9,w9,#0xffcfffff
        0x4000661c:    b9000109    ....    STR      w9,[x8,#0]
        0x40006620:    b9400109    ..@.    LDR      w9,[x8,#0]
        0x40006624:    121b7529    )u..    AND      w9,w9,#0xffffffe7
        0x40006628:    321c0129    )..2    ORR      w9,w9,#0x10
        0x4000662c:    b9000109    ....    STR      w9,[x8,#0]
        0x40006630:    52801429    )..R    MOV      w9,#0xa1
        0x40006634:    79006909    .i.y    STRH     w9,[x8,#0x34]
        0x40006638:    b9400109    ..@.    LDR      w9,[x8,#0]
        0x4000663c:    321e0129    )..2    ORR      w9,w9,#4
        0x40006640:    b9000109    ....    STR      w9,[x8,#0]
        0x40006644:    b9400109    ..@.    LDR      w9,[x8,#0]
        0x40006648:    32000129    )..2    ORR      w9,w9,#1
        0x4000664c:    b9000109    ....    STR      w9,[x8,#0]
        0x40006650:    b0000001    ....    ADRP     x1,{pc}+0x1000 ; 0x40007650
        0x40006654:    9137f021    !.7.    ADD      x1,x1,#0xdfc
        0x40006658:    52bcca00    ...R    MOV      w0,#0xe6500000
        0x4000665c:    97ffe9e1    ....    BL       I2C_slaveInit ; 0x40000de0
        0x40006660:    52bcca00    ...R    MOV      w0,#0xe6500000
        0x40006664:    12800001    ....    MOV      w1,#0xffffffff
        0x40006668:    97ffe9ba    ....    BL       I2C_slaveClearInterruptStatus ; 0x40000d50
        0x4000666c:    52bcca00    ...R    MOV      w0,#0xe6500000
        0x40006670:    12800001    ....    MOV      w1,#0xffffffff
        0x40006674:    97ffe9d3    ....    BL       I2C_slaveEnableInterrupt ; 0x40000dc0
        0x40006678:    52bcca00    ...R    MOV      w0,#0xe6500000
        0x4000667c:    52800901    ...R    MOV      w1,#0x48
        0x40006680:    97ffead8    ....    BL       I2C_slaveSetData ; 0x400011e0
        0x40006684:    52bcca00    ...R    MOV      w0,#0xe6500000
        0x40006688:    97ffe9c2    ....    BL       I2C_slaveEnable ; 0x40000d90
        0x4000668c:    97ffe7d5    ....    BL       GIC_enable ; 0x400005e0
        0x40006690:    f0ffffc1    ....    ADRP     x1,{pc}-0x5000 ; 0x40001690
        0x40006694:    91290021    !.).    ADD      x1,x1,#0xa40
        0x40006698:    528021c0    .!.R    MOV      w0,#0x10e
        0x4000669c:    97ffe839    9...    BL       GIC_setInterruptHandler ; 0x40000780
        0x400066a0:    90ffffe1    ....    ADRP     x1,{pc}-0x4000 ; 0x400026a0
        0x400066a4:    91084021    !@..    ADD      x1,x1,#0x210
        0x400066a8:    528021e0    .!.R    MOV      w0,#0x10f
        0x400066ac:    97ffe835    5...    BL       GIC_setInterruptHandler ; 0x40000780
        0x400066b0:    f0ffffe1    ....    ADRP     x1,{pc}-0x1000 ; 0x400056b0
        0x400066b4:    910c8021    !...    ADD      x1,x1,#0x320
        0x400066b8:    321a03e0    ...2    ORR      w0,wzr,#0x40
        0x400066bc:    97ffe831    1...    BL       GIC_setInterruptHandler ; 0x40000780
        0x400066c0:    f0ffffe1    ....    ADRP     x1,{pc}-0x1000 ; 0x400056c0
        0x400066c4:    91164021    !@..    ADD      x1,x1,#0x590
        0x400066c8:    52800820     ..R    MOV      w0,#0x41
        0x400066cc:    97ffe82d    -...    BL       GIC_setInterruptHandler ; 0x40000780
        0x400066d0:    528021c0    .!.R    MOV      w0,#0x10e
        0x400066d4:    97ffe7eb    ....    BL       GIC_enableInterrupt ; 0x40000680
        0x400066d8:    528021e0    .!.R    MOV      w0,#0x10f
        0x400066dc:    97ffe7e9    ....    BL       GIC_enableInterrupt ; 0x40000680
        0x400066e0:    321a03e0    ...2    ORR      w0,wzr,#0x40
        0x400066e4:    97ffe7e7    ....    BL       GIC_enableInterrupt ; 0x40000680
        0x400066e8:    52800820     ..R    MOV      w0,#0x41
        0x400066ec:    97ffe7e5    ....    BL       GIC_enableInterrupt ; 0x40000680
        0x400066f0:    aa1303e0    ....    MOV      x0,x19
        0x400066f4:    97ffe95f    _...    BL       I2C_masterReceiveStart ; 0x40000c70
        0x400066f8:    f0000008    ....    ADRP     x8,{pc}+0x3000 ; 0x400096f8
        0x400066fc:    397a0109    ..z9    LDRB     w9,[x8,#0xe80]
        0x40006700:    34ffffe9    ...4    CBZ      w9,0x400066fc ; slave_tx_dma + 588
        0x40006704:    914022a0    ."@.    ADD      x0,x21,#8,LSL #12
        0x40006708:    97ffe82e    ....    BL       I2C_masterDisable ; 0x400007c0
        0x4000670c:    52bcca00    ...R    MOV      w0,#0xe6500000
        0x40006710:    97ffe994    ....    BL       I2C_slaveDisable ; 0x40000d60
        0x40006714:    aa1f03e8    ....    MOV      x8,xzr
        0x40006718:    d37ef509    ..~.    LSL      x9,x8,#2
        0x4000671c:    b8696a8a    .ji.    LDR      w10,[x20,x9]
        0x40006720:    b8696ac9    .ji.    LDR      w9,[x22,x9]
        0x40006724:    6b09015f    _..k    CMP      w10,w9
        0x40006728:    540000c1    ...T    B.NE     0x40006740 ; slave_tx_dma + 656
        0x4000672c:    91000508    ....    ADD      x8,x8,#1
        0x40006730:    7100311f    .1.q    CMP      w8,#0xc
        0x40006734:    54ffff29    )..T    B.LS     0x40006718 ; slave_tx_dma + 616
        0x40006738:    2a1f03e0    ...*    MOV      w0,wzr
        0x4000673c:    14000002    ....    B        0x40006744 ; slave_tx_dma + 660
        0x40006740:    320003e0    ...2    ORR      w0,wzr,#1
        0x40006744:    a9437bf3    .{C.    LDP      x19,x30,[sp,#0x30]
        0x40006748:    a94253f5    .SB.    LDP      x21,x20,[sp,#0x20]
        0x4000674c:    a9415bf7    .[A.    LDP      x23,x22,[sp,#0x10]
        0x40006750:    f84407f8    ..D.    LDR      x24,[sp],#0x40
        0x40006754:    d65f03c0    .._.    RET      
        0x40006758:    00000000    ....    DCI      0x00000000 ; ? Undefined
        0x4000675c:    00000000    ....    DCI      0x00000000 ; ? Undefined
    srst_check
        0x40006760:    d10303ff    ....    SUB      sp,sp,#0xc0
        0x40006764:    a9066ffc    .o..    STP      x28,x27,[sp,#0x60]
        0x40006768:    a90767fa    .g..    STP      x26,x25,[sp,#0x70]
        0x4000676c:    a9085ff8    ._..    STP      x24,x23,[sp,#0x80]
        0x40006770:    a90957f6    .W..    STP      x22,x21,[sp,#0x90]
        0x40006774:    a90a4ff4    .O..    STP      x20,x19,[sp,#0xa0]
        0x40006778:    a90b7bfd    .{..    STP      x29,x30,[sp,#0xb0]
        0x4000677c:    52bcca17    ...R    MOV      w23,#0xe6500000
        0x40006780:    52bcca02    ...R    MOV      w2,#0xe6500000
        0x40006784:    2a1f03e0    ...*    MOV      w0,wzr
        0x40006788:    2a1f03e1    ...*    MOV      w1,wzr
        0x4000678c:    97ffeb0d    ....    BL       checkReg ; 0x400013c0
        0x40006790:    910012f8    ....    ADD      x24,x23,#4
        0x40006794:    320003e1    ...2    ORR      w1,wzr,#1
        0x40006798:    2a1f03e0    ...*    MOV      w0,wzr
        0x4000679c:    aa1803e2    ....    MOV      x2,x24
        0x400067a0:    f9002ff8    ./..    STR      x24,[sp,#0x58]
        0x400067a4:    97ffeb07    ....    BL       checkReg ; 0x400013c0
        0x400067a8:    910022f9    ."..    ADD      x25,x23,#8
        0x400067ac:    321f03e1    ...2    ORR      w1,wzr,#2
        0x400067b0:    2a1f03e0    ...*    MOV      w0,wzr
        0x400067b4:    aa1903e2    ....    MOV      x2,x25
        0x400067b8:    f9002bf9    .+..    STR      x25,[sp,#0x50]
        0x400067bc:    97ffeb01    ....    BL       checkReg ; 0x400013c0
        0x400067c0:    910032e2    .2..    ADD      x2,x23,#0xc
        0x400067c4:    f90017e2    ....    STR      x2,[sp,#0x28]
        0x400067c8:    320007e1    ...2    ORR      w1,wzr,#3
        0x400067cc:    2a1f03e0    ...*    MOV      w0,wzr
        0x400067d0:    97ffeafc    ....    BL       checkReg ; 0x400013c0
        0x400067d4:    910042fa    .B..    ADD      x26,x23,#0x10
        0x400067d8:    321e03e1    ...2    ORR      w1,wzr,#4
        0x400067dc:    2a1f03e0    ...*    MOV      w0,wzr
        0x400067e0:    aa1a03e2    ....    MOV      x2,x26
        0x400067e4:    f90027fa    .'..    STR      x26,[sp,#0x48]
        0x400067e8:    97ffeaf6    ....    BL       checkReg ; 0x400013c0
        0x400067ec:    910052e2    .R..    ADD      x2,x23,#0x14
        0x400067f0:    f90013e2    ....    STR      x2,[sp,#0x20]
        0x400067f4:    528000a1    ...R    MOV      w1,#5
        0x400067f8:    2a1f03e0    ...*    MOV      w0,wzr
        0x400067fc:    97ffeaf1    ....    BL       checkReg ; 0x400013c0
        0x40006800:    910062fb    .b..    ADD      x27,x23,#0x18
        0x40006804:    321f07e1    ...2    ORR      w1,wzr,#6
        0x40006808:    2a1f03e0    ...*    MOV      w0,wzr
        0x4000680c:    aa1b03e2    ....    MOV      x2,x27
        0x40006810:    f90023fb    .#..    STR      x27,[sp,#0x40]
        0x40006814:    97ffeaeb    ....    BL       checkReg ; 0x400013c0
        0x40006818:    910072e2    .r..    ADD      x2,x23,#0x1c
        0x4000681c:    f9000fe2    ....    STR      x2,[sp,#0x18]
        0x40006820:    32000be1    ...2    ORR      w1,wzr,#7
        0x40006824:    2a1f03e0    ...*    MOV      w0,wzr
        0x40006828:    97ffeae6    ....    BL       checkReg ; 0x400013c0
        0x4000682c:    910082fc    ....    ADD      x28,x23,#0x20
        0x40006830:    321d03e1    ...2    ORR      w1,wzr,#8
        0x40006834:    2a1f03e0    ...*    MOV      w0,wzr
        0x40006838:    aa1c03e2    ....    MOV      x2,x28
        0x4000683c:    f9001ffc    ....    STR      x28,[sp,#0x38]
        0x40006840:    97ffeae0    ....    BL       checkReg ; 0x400013c0
        0x40006844:    910092e2    ....    ADD      x2,x23,#0x24
        0x40006848:    f9000be2    ....    STR      x2,[sp,#0x10]
        0x4000684c:    52800121    !..R    MOV      w1,#9
        0x40006850:    2a1f03e0    ...*    MOV      w0,wzr
        0x40006854:    97ffeadb    ....    BL       checkReg ; 0x400013c0
        0x40006858:    9100a2fd    ....    ADD      x29,x23,#0x28
        0x4000685c:    52800141    A..R    MOV      w1,#0xa
        0x40006860:    2a1f03e0    ...*    MOV      w0,wzr
        0x40006864:    aa1d03e2    ....    MOV      x2,x29
        0x40006868:    f9001bfd    ....    STR      x29,[sp,#0x30]
        0x4000686c:    97ffead5    ....    BL       checkReg ; 0x400013c0
        0x40006870:    9100b2e2    ....    ADD      x2,x23,#0x2c
        0x40006874:    f90007e2    ....    STR      x2,[sp,#8]
        0x40006878:    52800161    a..R    MOV      w1,#0xb
        0x4000687c:    2a1f03e0    ...*    MOV      w0,wzr
        0x40006880:    97ffead0    ....    BL       checkReg ; 0x400013c0
        0x40006884:    9100c2f3    ....    ADD      x19,x23,#0x30
        0x40006888:    321e07e1    ...2    ORR      w1,wzr,#0xc
        0x4000688c:    2a1f03e0    ...*    MOV      w0,wzr
        0x40006890:    aa1303e2    ....    MOV      x2,x19
        0x40006894:    97ffeacb    ....    BL       checkReg ; 0x400013c0
        0x40006898:    9100d2f4    ....    ADD      x20,x23,#0x34
        0x4000689c:    528001a1    ...R    MOV      w1,#0xd
        0x400068a0:    2a1f03e0    ...*    MOV      w0,wzr
        0x400068a4:    aa1403e2    ....    MOV      x2,x20
        0x400068a8:    97ffeac6    ....    BL       checkReg ; 0x400013c0
        0x400068ac:    9100e2f5    ....    ADD      x21,x23,#0x38
        0x400068b0:    321f0be1    ...2    ORR      w1,wzr,#0xe
        0x400068b4:    2a1f03e0    ...*    MOV      w0,wzr
        0x400068b8:    aa1503e2    ....    MOV      x2,x21
        0x400068bc:    97ffeac1    ....    BL       checkReg ; 0x400013c0
        0x400068c0:    9100f2f6    ....    ADD      x22,x23,#0x3c
        0x400068c4:    32000fe1    ...2    ORR      w1,wzr,#0xf
        0x400068c8:    2a1f03e0    ...*    MOV      w0,wzr
        0x400068cc:    aa1603e2    ....    MOV      x2,x22
        0x400068d0:    97ffeabc    ....    BL       checkReg ; 0x400013c0
        0x400068d4:    12800008    ....    MOV      w8,#0xffffffff
        0x400068d8:    b90002e8    ....    STR      w8,[x23,#0]
        0x400068dc:    b90006e8    ....    STR      w8,[x23,#4]
        0x400068e0:    b9000ae8    ....    STR      w8,[x23,#8]
        0x400068e4:    b9000ee8    ....    STR      w8,[x23,#0xc]
        0x400068e8:    b90012e8    ....    STR      w8,[x23,#0x10]
        0x400068ec:    b90016e8    ....    STR      w8,[x23,#0x14]
        0x400068f0:    b9001ae8    ....    STR      w8,[x23,#0x18]
        0x400068f4:    b9001ee8    ....    STR      w8,[x23,#0x1c]
        0x400068f8:    b90022e8    ."..    STR      w8,[x23,#0x20]
        0x400068fc:    b90026e8    .&..    STR      w8,[x23,#0x24]
        0x40006900:    b9002ae8    .*..    STR      w8,[x23,#0x28]
        0x40006904:    b9002ee8    ....    STR      w8,[x23,#0x2c]
        0x40006908:    b90032e8    .2..    STR      w8,[x23,#0x30]
        0x4000690c:    b90036e8    .6..    STR      w8,[x23,#0x34]
        0x40006910:    b9003ae8    .:..    STR      w8,[x23,#0x38]
        0x40006914:    b9003ee8    .>..    STR      w8,[x23,#0x3c]
        0x40006918:    52858280    ...R    MOV      w0,#0x2c14
        0x4000691c:    72bcc2a0    ...r    MOVK     w0,#0xe615,LSL #16
        0x40006920:    52800241    A..R    MOV      w1,#0x12
        0x40006924:    97ffe713    ....    BL       CPG_SetBit ; 0x40000570
        0x40006928:    320003e0    ...2    ORR      w0,wzr,#1
        0x4000692c:    52bcca02    ...R    MOV      w2,#0xe6500000
        0x40006930:    2a1f03e1    ...*    MOV      w1,wzr
        0x40006934:    97ffeaa3    ....    BL       checkReg ; 0x400013c0
        0x40006938:    320003e0    ...2    ORR      w0,wzr,#1
        0x4000693c:    320003e1    ...2    ORR      w1,wzr,#1
        0x40006940:    aa1803e2    ....    MOV      x2,x24
        0x40006944:    97ffea9f    ....    BL       checkReg ; 0x400013c0
        0x40006948:    320003e0    ...2    ORR      w0,wzr,#1
        0x4000694c:    321f03e1    ...2    ORR      w1,wzr,#2
        0x40006950:    aa1903e2    ....    MOV      x2,x25
        0x40006954:    97ffea9b    ....    BL       checkReg ; 0x400013c0
        0x40006958:    320003e0    ...2    ORR      w0,wzr,#1
        0x4000695c:    320007e1    ...2    ORR      w1,wzr,#3
        0x40006960:    f94017f9    ..@.    LDR      x25,[sp,#0x28]
        0x40006964:    aa1903e2    ....    MOV      x2,x25
        0x40006968:    97ffea96    ....    BL       checkReg ; 0x400013c0
        0x4000696c:    320003e0    ...2    ORR      w0,wzr,#1
        0x40006970:    321e03e1    ...2    ORR      w1,wzr,#4
        0x40006974:    aa1a03e2    ....    MOV      x2,x26
        0x40006978:    97ffea92    ....    BL       checkReg ; 0x400013c0
        0x4000697c:    320003e0    ...2    ORR      w0,wzr,#1
        0x40006980:    528000a1    ...R    MOV      w1,#5
        0x40006984:    f94013fa    ..@.    LDR      x26,[sp,#0x20]
        0x40006988:    aa1a03e2    ....    MOV      x2,x26
        0x4000698c:    97ffea8d    ....    BL       checkReg ; 0x400013c0
        0x40006990:    320003e0    ...2    ORR      w0,wzr,#1
        0x40006994:    321f07e1    ...2    ORR      w1,wzr,#6
        0x40006998:    aa1b03e2    ....    MOV      x2,x27
        0x4000699c:    97ffea89    ....    BL       checkReg ; 0x400013c0
        0x400069a0:    320003e0    ...2    ORR      w0,wzr,#1
        0x400069a4:    32000be1    ...2    ORR      w1,wzr,#7
        0x400069a8:    f9400ffb    ..@.    LDR      x27,[sp,#0x18]
        0x400069ac:    aa1b03e2    ....    MOV      x2,x27
        0x400069b0:    97ffea84    ....    BL       checkReg ; 0x400013c0
        0x400069b4:    320003e0    ...2    ORR      w0,wzr,#1
        0x400069b8:    321d03e1    ...2    ORR      w1,wzr,#8
        0x400069bc:    aa1c03e2    ....    MOV      x2,x28
        0x400069c0:    97ffea80    ....    BL       checkReg ; 0x400013c0
        0x400069c4:    320003e0    ...2    ORR      w0,wzr,#1
        0x400069c8:    52800121    !..R    MOV      w1,#9
        0x400069cc:    f9400bfc    ..@.    LDR      x28,[sp,#0x10]
        0x400069d0:    aa1c03e2    ....    MOV      x2,x28
        0x400069d4:    97ffea7b    {...    BL       checkReg ; 0x400013c0
        0x400069d8:    320003e0    ...2    ORR      w0,wzr,#1
        0x400069dc:    52800141    A..R    MOV      w1,#0xa
        0x400069e0:    aa1d03e2    ....    MOV      x2,x29
        0x400069e4:    97ffea77    w...    BL       checkReg ; 0x400013c0
        0x400069e8:    320003e0    ...2    ORR      w0,wzr,#1
        0x400069ec:    52800161    a..R    MOV      w1,#0xb
        0x400069f0:    f94007fd    ..@.    LDR      x29,[sp,#8]
        0x400069f4:    aa1d03e2    ....    MOV      x2,x29
        0x400069f8:    97ffea72    r...    BL       checkReg ; 0x400013c0
        0x400069fc:    320003e0    ...2    ORR      w0,wzr,#1
        0x40006a00:    321e07e1    ...2    ORR      w1,wzr,#0xc
        0x40006a04:    aa1303e2    ....    MOV      x2,x19
        0x40006a08:    97ffea6e    n...    BL       checkReg ; 0x400013c0
        0x40006a0c:    320003e0    ...2    ORR      w0,wzr,#1
        0x40006a10:    528001a1    ...R    MOV      w1,#0xd
        0x40006a14:    aa1403e2    ....    MOV      x2,x20
        0x40006a18:    97ffea6a    j...    BL       checkReg ; 0x400013c0
        0x40006a1c:    320003e0    ...2    ORR      w0,wzr,#1
        0x40006a20:    321f0be1    ...2    ORR      w1,wzr,#0xe
        0x40006a24:    aa1503e2    ....    MOV      x2,x21
        0x40006a28:    97ffea66    f...    BL       checkReg ; 0x400013c0
        0x40006a2c:    320003e0    ...2    ORR      w0,wzr,#1
        0x40006a30:    32000fe1    ...2    ORR      w1,wzr,#0xf
        0x40006a34:    aa1603e2    ....    MOV      x2,x22
        0x40006a38:    97ffea62    b...    BL       checkReg ; 0x400013c0
        0x40006a3c:    52858288    ...R    MOV      w8,#0x2c14
        0x40006a40:    72bcc2a8    ...r    MOVK     w8,#0xe615,LSL #16
        0x40006a44:    91020100    ....    ADD      x0,x8,#0x80
        0x40006a48:    52800241    A..R    MOV      w1,#0x12
        0x40006a4c:    97ffe6c9    ....    BL       CPG_SetBit ; 0x40000570
        0x40006a50:    90000038    8...    ADRP     x24,{pc}+0x4000 ; 0x4000aa50
        0x40006a54:    91132318    .#..    ADD      x24,x24,#0x4c8
        0x40006a58:    b94002e8    ..@.    LDR      w8,[x23,#0]
        0x40006a5c:    b9010308    ....    STR      w8,[x24,#0x100]
        0x40006a60:    b94006e8    ..@.    LDR      w8,[x23,#4]
        0x40006a64:    b9010b08    ....    STR      w8,[x24,#0x108]
        0x40006a68:    b9400ae8    ..@.    LDR      w8,[x23,#8]
        0x40006a6c:    b9011308    ....    STR      w8,[x24,#0x110]
        0x40006a70:    b9400ee8    ..@.    LDR      w8,[x23,#0xc]
        0x40006a74:    b9011b08    ....    STR      w8,[x24,#0x118]
        0x40006a78:    b94012e8    ..@.    LDR      w8,[x23,#0x10]
        0x40006a7c:    b9012308    .#..    STR      w8,[x24,#0x120]
        0x40006a80:    b94016e8    ..@.    LDR      w8,[x23,#0x14]
        0x40006a84:    b9012b08    .+..    STR      w8,[x24,#0x128]
        0x40006a88:    b9401ae8    ..@.    LDR      w8,[x23,#0x18]
        0x40006a8c:    b9013308    .3..    STR      w8,[x24,#0x130]
        0x40006a90:    b9401ee8    ..@.    LDR      w8,[x23,#0x1c]
        0x40006a94:    b9013b08    .;..    STR      w8,[x24,#0x138]
        0x40006a98:    b94022e8    ."@.    LDR      w8,[x23,#0x20]
        0x40006a9c:    b9014308    .C..    STR      w8,[x24,#0x140]
        0x40006aa0:    b94026e8    .&@.    LDR      w8,[x23,#0x24]
        0x40006aa4:    b9014b08    .K..    STR      w8,[x24,#0x148]
        0x40006aa8:    b9402ae8    .*@.    LDR      w8,[x23,#0x28]
        0x40006aac:    b9015308    .S..    STR      w8,[x24,#0x150]
        0x40006ab0:    b9402ee8    ..@.    LDR      w8,[x23,#0x2c]
        0x40006ab4:    b9015b08    .[..    STR      w8,[x24,#0x158]
        0x40006ab8:    b94032e8    .2@.    LDR      w8,[x23,#0x30]
        0x40006abc:    b9016308    .c..    STR      w8,[x24,#0x160]
        0x40006ac0:    b94036e8    .6@.    LDR      w8,[x23,#0x34]
        0x40006ac4:    b9016b08    .k..    STR      w8,[x24,#0x168]
        0x40006ac8:    b9403ae8    .:@.    LDR      w8,[x23,#0x38]
        0x40006acc:    b9017308    .s..    STR      w8,[x24,#0x170]
        0x40006ad0:    b9403ee8    .>@.    LDR      w8,[x23,#0x3c]
        0x40006ad4:    b901071f    ....    STR      wzr,[x24,#0x104]
        0x40006ad8:    b9010f1f    ....    STR      wzr,[x24,#0x10c]
        0x40006adc:    b901171f    ....    STR      wzr,[x24,#0x114]
        0x40006ae0:    b9011f1f    ....    STR      wzr,[x24,#0x11c]
        0x40006ae4:    b901271f    .'..    STR      wzr,[x24,#0x124]
        0x40006ae8:    b9012f1f    ./..    STR      wzr,[x24,#0x12c]
        0x40006aec:    b901371f    .7..    STR      wzr,[x24,#0x134]
        0x40006af0:    b9013f1f    .?..    STR      wzr,[x24,#0x13c]
        0x40006af4:    b901471f    .G..    STR      wzr,[x24,#0x144]
        0x40006af8:    b9014f1f    .O..    STR      wzr,[x24,#0x14c]
        0x40006afc:    b901571f    .W..    STR      wzr,[x24,#0x154]
        0x40006b00:    b9015f1f    ._..    STR      wzr,[x24,#0x15c]
        0x40006b04:    b901671f    .g..    STR      wzr,[x24,#0x164]
        0x40006b08:    b9017b08    .{..    STR      w8,[x24,#0x178]
        0x40006b0c:    b9016f1f    .o..    STR      wzr,[x24,#0x16c]
        0x40006b10:    b901771f    .w..    STR      wzr,[x24,#0x174]
        0x40006b14:    b9017f1f    ....    STR      wzr,[x24,#0x17c]
        0x40006b18:    320007e0    ...2    ORR      w0,wzr,#3
        0x40006b1c:    52bcca02    ...R    MOV      w2,#0xe6500000
        0x40006b20:    2a1f03e1    ...*    MOV      w1,wzr
        0x40006b24:    97ffea27    '...    BL       checkReg ; 0x400013c0
        0x40006b28:    320007e0    ...2    ORR      w0,wzr,#3
        0x40006b2c:    320003e1    ...2    ORR      w1,wzr,#1
        0x40006b30:    f9402fe2    ./@.    LDR      x2,[sp,#0x58]
        0x40006b34:    97ffea23    #...    BL       checkReg ; 0x400013c0
        0x40006b38:    320007e0    ...2    ORR      w0,wzr,#3
        0x40006b3c:    321f03e1    ...2    ORR      w1,wzr,#2
        0x40006b40:    f9402be2    .+@.    LDR      x2,[sp,#0x50]
        0x40006b44:    97ffea1f    ....    BL       checkReg ; 0x400013c0
        0x40006b48:    320007e0    ...2    ORR      w0,wzr,#3
        0x40006b4c:    320007e1    ...2    ORR      w1,wzr,#3
        0x40006b50:    aa1903e2    ....    MOV      x2,x25
        0x40006b54:    97ffea1b    ....    BL       checkReg ; 0x400013c0
        0x40006b58:    320007e0    ...2    ORR      w0,wzr,#3
        0x40006b5c:    321e03e1    ...2    ORR      w1,wzr,#4
        0x40006b60:    f94027e2    .'@.    LDR      x2,[sp,#0x48]
        0x40006b64:    97ffea17    ....    BL       checkReg ; 0x400013c0
        0x40006b68:    320007e0    ...2    ORR      w0,wzr,#3
        0x40006b6c:    528000a1    ...R    MOV      w1,#5
        0x40006b70:    aa1a03e2    ....    MOV      x2,x26
        0x40006b74:    97ffea13    ....    BL       checkReg ; 0x400013c0
        0x40006b78:    320007e0    ...2    ORR      w0,wzr,#3
        0x40006b7c:    321f07e1    ...2    ORR      w1,wzr,#6
        0x40006b80:    f94023e2    .#@.    LDR      x2,[sp,#0x40]
        0x40006b84:    97ffea0f    ....    BL       checkReg ; 0x400013c0
        0x40006b88:    320007e0    ...2    ORR      w0,wzr,#3
        0x40006b8c:    32000be1    ...2    ORR      w1,wzr,#7
        0x40006b90:    aa1b03e2    ....    MOV      x2,x27
        0x40006b94:    97ffea0b    ....    BL       checkReg ; 0x400013c0
        0x40006b98:    320007e0    ...2    ORR      w0,wzr,#3
        0x40006b9c:    321d03e1    ...2    ORR      w1,wzr,#8
        0x40006ba0:    f9401fe2    ..@.    LDR      x2,[sp,#0x38]
        0x40006ba4:    97ffea07    ....    BL       checkReg ; 0x400013c0
        0x40006ba8:    320007e0    ...2    ORR      w0,wzr,#3
        0x40006bac:    52800121    !..R    MOV      w1,#9
        0x40006bb0:    aa1c03e2    ....    MOV      x2,x28
        0x40006bb4:    97ffea03    ....    BL       checkReg ; 0x400013c0
        0x40006bb8:    320007e0    ...2    ORR      w0,wzr,#3
        0x40006bbc:    52800141    A..R    MOV      w1,#0xa
        0x40006bc0:    f9401be2    ..@.    LDR      x2,[sp,#0x30]
        0x40006bc4:    97ffe9ff    ....    BL       checkReg ; 0x400013c0
        0x40006bc8:    320007e0    ...2    ORR      w0,wzr,#3
        0x40006bcc:    52800161    a..R    MOV      w1,#0xb
        0x40006bd0:    aa1d03e2    ....    MOV      x2,x29
        0x40006bd4:    97ffe9fb    ....    BL       checkReg ; 0x400013c0
        0x40006bd8:    320007e0    ...2    ORR      w0,wzr,#3
        0x40006bdc:    321e07e1    ...2    ORR      w1,wzr,#0xc
        0x40006be0:    aa1303e2    ....    MOV      x2,x19
        0x40006be4:    97ffe9f7    ....    BL       checkReg ; 0x400013c0
        0x40006be8:    320007e0    ...2    ORR      w0,wzr,#3
        0x40006bec:    528001a1    ...R    MOV      w1,#0xd
        0x40006bf0:    aa1403e2    ....    MOV      x2,x20
        0x40006bf4:    97ffe9f3    ....    BL       checkReg ; 0x400013c0
        0x40006bf8:    320007e0    ...2    ORR      w0,wzr,#3
        0x40006bfc:    321f0be1    ...2    ORR      w1,wzr,#0xe
        0x40006c00:    aa1503e2    ....    MOV      x2,x21
        0x40006c04:    97ffe9ef    ....    BL       checkReg ; 0x400013c0
        0x40006c08:    320007e0    ...2    ORR      w0,wzr,#3
        0x40006c0c:    32000fe1    ...2    ORR      w1,wzr,#0xf
        0x40006c10:    aa1603e2    ....    MOV      x2,x22
        0x40006c14:    97ffe9eb    ....    BL       checkReg ; 0x400013c0
        0x40006c18:    aa1f03e8    ....    MOV      x8,xzr
        0x40006c1c:    90000009    ....    ADRP     x9,{pc} ; 0x40006c1c
        0x40006c20:    913a0129    ).:.    ADD      x9,x9,#0xe80
        0x40006c24:    aa1f03ea    ....    MOV      x10,xzr
        0x40006c28:    2a1f03eb    ...*    MOV      w11,wzr
        0x40006c2c:    2a0b03ec    ...*    MOV      w12,w11
        0x40006c30:    d379e10d    ..y.    LSL      x13,x8,#7
        0x40006c34:    8b0d030e    ....    ADD      x14,x24,x13
        0x40006c38:    d37df14f    O.}.    LSL      x15,x10,#3
        0x40006c3c:    8b0f01ce    ....    ADD      x14,x14,x15
        0x40006c40:    d37ef58c    ..~.    LSL      x12,x12,#2
        0x40006c44:    b86c69ce    .il.    LDR      w14,[x14,x12]
        0x40006c48:    8b0d012d    -...    ADD      x13,x9,x13
        0x40006c4c:    8b0f01ad    ....    ADD      x13,x13,x15
        0x40006c50:    b86c69ac    .il.    LDR      w12,[x13,x12]
        0x40006c54:    6b0c01df    ...k    CMP      w14,w12
        0x40006c58:    540001a1    ...T    B.NE     0x40006c8c ; srst_check + 1324
        0x40006c5c:    1100056c    l...    ADD      w12,w11,#1
        0x40006c60:    320003eb    ...2    ORR      w11,wzr,#1
        0x40006c64:    7100059f    ...q    CMP      w12,#1
        0x40006c68:    54fffe29    )..T    B.LS     0x40006c2c ; srst_check + 1228
        0x40006c6c:    9100054a    J...    ADD      x10,x10,#1
        0x40006c70:    f100415f    _A..    CMP      x10,#0x10
        0x40006c74:    54fffda3    ...T    B.CC     0x40006c28 ; srst_check + 1224
        0x40006c78:    91000508    ....    ADD      x8,x8,#1
        0x40006c7c:    f100111f    ....    CMP      x8,#4
        0x40006c80:    54fffd23    #..T    B.CC     0x40006c24 ; srst_check + 1220
        0x40006c84:    2a1f03e0    ...*    MOV      w0,wzr
        0x40006c88:    14000002    ....    B        0x40006c90 ; srst_check + 1328
        0x40006c8c:    320003e0    ...2    ORR      w0,wzr,#1
        0x40006c90:    a94b7bfd    .{K.    LDP      x29,x30,[sp,#0xb0]
        0x40006c94:    a94a4ff4    .OJ.    LDP      x20,x19,[sp,#0xa0]
        0x40006c98:    a94957f6    .WI.    LDP      x22,x21,[sp,#0x90]
        0x40006c9c:    a9485ff8    ._H.    LDP      x24,x23,[sp,#0x80]
        0x40006ca0:    a94767fa    .gG.    LDP      x26,x25,[sp,#0x70]
        0x40006ca4:    a9466ffc    .oF.    LDP      x28,x27,[sp,#0x60]
        0x40006ca8:    910303ff    ....    ADD      sp,sp,#0xc0
        0x40006cac:    d65f03c0    .._.    RET      
    $x
    $Ven$XX$L$$__rt_entry
        0x40006cb0:    58000050    P..X    LDR      x16,{pc}+8 ; 0x40006cb8 ; [0x40006cb8] = 
        0x40006cb4:    d61f0200    ....    BR       x16
    $d
        0x40006cb8:    00000080    ....    DCD    128
        0x40006cbc:    00000000    ....    DCD    0
    $d.realdata
        0x40006cc0:    400009e4    ...@    DCD    1073744356
        0x40006cc4:    00000000    ....    DCD    0
        0x40006cc8:    40000b04    ...@    DCD    1073744644
        0x40006ccc:    00000000    ....    DCD    0
        0x40006cd0:    40000b3c    <..@    DCD    1073744700
        0x40006cd4:    00000000    ....    DCD    0
        0x40006cd8:    40000b74    t..@    DCD    1073744756
        0x40006cdc:    00000000    ....    DCD    0
        0x40006ce0:    40000bac    ...@    DCD    1073744812
        0x40006ce4:    00000000    ....    DCD    0
        0x40006ce8:    40000a1c    ...@    DCD    1073744412
        0x40006cec:    00000000    ....    DCD    0
        0x40006cf0:    40000be4    ...@    DCD    1073744868
        0x40006cf4:    00000000    ....    DCD    0
        0x40006cf8:    40000918    ...@    DCD    1073744152
        0x40006cfc:    00000000    ....    DCD    0
        0x40006d00:    40000a54    T..@    DCD    1073744468
        0x40006d04:    00000000    ....    DCD    0
        0x40006d08:    40000a74    t..@    DCD    1073744500
        0x40006d0c:    00000000    ....    DCD    0
        0x40006d10:    40000a94    ...@    DCD    1073744532
        0x40006d14:    00000000    ....    DCD    0
        0x40006d18:    40000ab4    ...@    DCD    1073744564
        0x40006d1c:    00000000    ....    DCD    0
        0x40006d20:    40000944    D..@    DCD    1073744196
        0x40006d24:    00000000    ....    DCD    0
        0x40006d28:    40000ad4    ...@    DCD    1073744596
        0x40006d2c:    00000000    ....    DCD    0
        0x40006d30:    400009e4    ...@    DCD    1073744356
        0x40006d34:    00000000    ....    DCD    0
        0x40006d38:    40000b04    ...@    DCD    1073744644
        0x40006d3c:    00000000    ....    DCD    0
        0x40006d40:    40000b3c    <..@    DCD    1073744700
        0x40006d44:    00000000    ....    DCD    0
        0x40006d48:    40000b74    t..@    DCD    1073744756
        0x40006d4c:    00000000    ....    DCD    0
        0x40006d50:    40000bac    ...@    DCD    1073744812
        0x40006d54:    00000000    ....    DCD    0
        0x40006d58:    40000a1c    ...@    DCD    1073744412
        0x40006d5c:    00000000    ....    DCD    0
        0x40006d60:    40000be4    ...@    DCD    1073744868
        0x40006d64:    00000000    ....    DCD    0
        0x40006d68:    40000918    ...@    DCD    1073744152
        0x40006d6c:    00000000    ....    DCD    0
        0x40006d70:    40000a54    T..@    DCD    1073744468
        0x40006d74:    00000000    ....    DCD    0
        0x40006d78:    40000a74    t..@    DCD    1073744500
        0x40006d7c:    00000000    ....    DCD    0
        0x40006d80:    40000a94    ...@    DCD    1073744532
        0x40006d84:    00000000    ....    DCD    0
        0x40006d88:    40000ab4    ...@    DCD    1073744564
        0x40006d8c:    00000000    ....    DCD    0
        0x40006d90:    40000944    D..@    DCD    1073744196
        0x40006d94:    00000000    ....    DCD    0
        0x40006d98:    40000ad4    ...@    DCD    1073744596
        0x40006d9c:    00000000    ....    DCD    0
        0x40006da0:    40000f58    X..@    DCD    1073745752
        0x40006da4:    00000000    ....    DCD    0
        0x40006da8:    40001078    x..@    DCD    1073746040
        0x40006dac:    00000000    ....    DCD    0
        0x40006db0:    400010b0    ...@    DCD    1073746096
        0x40006db4:    00000000    ....    DCD    0
        0x40006db8:    400010e8    ...@    DCD    1073746152
        0x40006dbc:    00000000    ....    DCD    0
        0x40006dc0:    40001120     ..@    DCD    1073746208
        0x40006dc4:    00000000    ....    DCD    0
        0x40006dc8:    40000f90    ...@    DCD    1073745808
        0x40006dcc:    00000000    ....    DCD    0
        0x40006dd0:    40001158    X..@    DCD    1073746264
        0x40006dd4:    00000000    ....    DCD    0
        0x40006dd8:    40000e8c    ...@    DCD    1073745548
        0x40006ddc:    00000000    ....    DCD    0
        0x40006de0:    40000fc8    ...@    DCD    1073745864
        0x40006de4:    00000000    ....    DCD    0
        0x40006de8:    40000fe8    ...@    DCD    1073745896
        0x40006dec:    00000000    ....    DCD    0
        0x40006df0:    40001008    ...@    DCD    1073745928
        0x40006df4:    00000000    ....    DCD    0
        0x40006df8:    40001028    (..@    DCD    1073745960
        0x40006dfc:    00000000    ....    DCD    0
        0x40006e00:    40000eb8    ...@    DCD    1073745592
        0x40006e04:    00000000    ....    DCD    0
        0x40006e08:    40001048    H..@    DCD    1073745992
        0x40006e0c:    00000000    ....    DCD    0
        0x40006e10:    40000f58    X..@    DCD    1073745752
        0x40006e14:    00000000    ....    DCD    0
        0x40006e18:    40001078    x..@    DCD    1073746040
        0x40006e1c:    00000000    ....    DCD    0
        0x40006e20:    400010b0    ...@    DCD    1073746096
        0x40006e24:    00000000    ....    DCD    0
        0x40006e28:    400010e8    ...@    DCD    1073746152
        0x40006e2c:    00000000    ....    DCD    0
        0x40006e30:    40001120     ..@    DCD    1073746208
        0x40006e34:    00000000    ....    DCD    0
        0x40006e38:    40000f90    ...@    DCD    1073745808
        0x40006e3c:    00000000    ....    DCD    0
        0x40006e40:    40001158    X..@    DCD    1073746264
        0x40006e44:    00000000    ....    DCD    0
        0x40006e48:    40000e8c    ...@    DCD    1073745548
        0x40006e4c:    00000000    ....    DCD    0
        0x40006e50:    40000fc8    ...@    DCD    1073745864
        0x40006e54:    00000000    ....    DCD    0
        0x40006e58:    40000fe8    ...@    DCD    1073745896
        0x40006e5c:    00000000    ....    DCD    0
        0x40006e60:    40001008    ...@    DCD    1073745928
        0x40006e64:    00000000    ....    DCD    0
        0x40006e68:    40001028    (..@    DCD    1073745960
        0x40006e6c:    00000000    ....    DCD    0
        0x40006e70:    40000eb8    ...@    DCD    1073745592
        0x40006e74:    00000000    ....    DCD    0
        0x40006e78:    40001048    H..@    DCD    1073745992
        0x40006e7c:    00000000    ....    DCD    0
    golden
        0x40006e80:    1f1f1f1f    ....    DCD    522133279
        0x40006e84:    00000000    ....    DCD    0
        0x40006e88:    dfdfdfdf    ....    DCD    3755991007
        0x40006e8c:    40404040    @@@@    DCD    1077952576
        0x40006e90:    00000000    ....    DCD    0
        0x40006e94:    00000000    ....    DCD    0
        0x40006e98:    00000000    ....    DCD    0
        0x40006e9c:    00000000    ....    DCD    0
        0x40006ea0:    1f1f1f1f    ....    DCD    522133279
        0x40006ea4:    00000000    ....    DCD    0
        0x40006ea8:    7f7f7f7f    ....    DCD    2139062143
        0x40006eac:    00000000    ....    DCD    0
        0x40006eb0:    000001ff    ....    DCD    511
        0x40006eb4:    00000000    ....    DCD    0
        0x40006eb8:    7f7f7f7f    ....    DCD    2139062143
        0x40006ebc:    00000000    ....    DCD    0
        0x40006ec0:    ffffffff    ....    DCD    4294967295
        0x40006ec4:    00000000    ....    DCD    0
        0x40006ec8:    00000000    ....    DCD    0
        0x40006ecc:    00000000    ....    DCD    0
        0x40006ed0:    87878787    ....    DCD    2273806215
        0x40006ed4:    00000000    ....    DCD    0
        0x40006ed8:    ffffffff    ....    DCD    4294967295
        0x40006edc:    00000000    ....    DCD    0
        0x40006ee0:    0000ffff    ....    DCD    65535
        0x40006ee4:    00000000    ....    DCD    0
        0x40006ee8:    0000ffff    ....    DCD    65535
        0x40006eec:    00000000    ....    DCD    0
        0x40006ef0:    1f1f001f    ....    DCD    522125343
        0x40006ef4:    00000000    ....    DCD    0
        0x40006ef8:    ffffffff    ....    DCD    4294967295
        0x40006efc:    00000000    ....    DCD    0
        0x40006f00:    00000000    ....    DCD    0
        0x40006f04:    00000000    ....    DCD    0
        0x40006f08:    00000000    ....    DCD    0
        0x40006f0c:    00000000    ....    DCD    0
        0x40006f10:    00000000    ....    DCD    0
        0x40006f14:    00000000    ....    DCD    0
        0x40006f18:    00000000    ....    DCD    0
        0x40006f1c:    00000000    ....    DCD    0
        0x40006f20:    00000000    ....    DCD    0
        0x40006f24:    00000000    ....    DCD    0
        0x40006f28:    00000000    ....    DCD    0
        0x40006f2c:    00000000    ....    DCD    0
        0x40006f30:    00000000    ....    DCD    0
        0x40006f34:    00000000    ....    DCD    0
        0x40006f38:    00000000    ....    DCD    0
        0x40006f3c:    00000000    ....    DCD    0
        0x40006f40:    00000000    ....    DCD    0
        0x40006f44:    00000000    ....    DCD    0
        0x40006f48:    00000000    ....    DCD    0
        0x40006f4c:    00000000    ....    DCD    0
        0x40006f50:    00000000    ....    DCD    0
        0x40006f54:    00000000    ....    DCD    0
        0x40006f58:    00000000    ....    DCD    0
        0x40006f5c:    00000000    ....    DCD    0
        0x40006f60:    00000000    ....    DCD    0
        0x40006f64:    00000000    ....    DCD    0
        0x40006f68:    00000000    ....    DCD    0
        0x40006f6c:    00000000    ....    DCD    0
        0x40006f70:    00000000    ....    DCD    0
        0x40006f74:    00000000    ....    DCD    0
        0x40006f78:    00000000    ....    DCD    0
        0x40006f7c:    00000000    ....    DCD    0
        0x40006f80:    00000000    ....    DCD    0
        0x40006f84:    00000000    ....    DCD    0
        0x40006f88:    40404040    @@@@    DCD    1077952576
        0x40006f8c:    00000000    ....    DCD    0
        0x40006f90:    00000000    ....    DCD    0
        0x40006f94:    00000000    ....    DCD    0
        0x40006f98:    00000000    ....    DCD    0
        0x40006f9c:    00000000    ....    DCD    0
        0x40006fa0:    00000000    ....    DCD    0
        0x40006fa4:    00000000    ....    DCD    0
        0x40006fa8:    00000000    ....    DCD    0
        0x40006fac:    00000000    ....    DCD    0
        0x40006fb0:    00000000    ....    DCD    0
        0x40006fb4:    00000000    ....    DCD    0
        0x40006fb8:    00000000    ....    DCD    0
        0x40006fbc:    00000000    ....    DCD    0
        0x40006fc0:    00000000    ....    DCD    0
        0x40006fc4:    00000000    ....    DCD    0
        0x40006fc8:    00000000    ....    DCD    0
        0x40006fcc:    00000000    ....    DCD    0
        0x40006fd0:    00000000    ....    DCD    0
        0x40006fd4:    00000000    ....    DCD    0
        0x40006fd8:    00000000    ....    DCD    0
        0x40006fdc:    00000000    ....    DCD    0
        0x40006fe0:    00000000    ....    DCD    0
        0x40006fe4:    00000000    ....    DCD    0
        0x40006fe8:    00000000    ....    DCD    0
        0x40006fec:    00000000    ....    DCD    0
        0x40006ff0:    00000004    ....    DCD    4
        0x40006ff4:    00000000    ....    DCD    0
        0x40006ff8:    00000000    ....    DCD    0
        0x40006ffc:    00000000    ....    DCD    0
        0x40007000:    1f1f1f1f    ....    DCD    522133279
        0x40007004:    00000000    ....    DCD    0
        0x40007008:    dfdfdfdf    ....    DCD    3755991007
        0x4000700c:    40404040    @@@@    DCD    1077952576
        0x40007010:    00000000    ....    DCD    0
        0x40007014:    00000000    ....    DCD    0
        0x40007018:    00000000    ....    DCD    0
        0x4000701c:    00000000    ....    DCD    0
        0x40007020:    1f1f1f1f    ....    DCD    522133279
        0x40007024:    00000000    ....    DCD    0
        0x40007028:    7f7f7f7f    ....    DCD    2139062143
        0x4000702c:    00000000    ....    DCD    0
        0x40007030:    000001ff    ....    DCD    511
        0x40007034:    00000000    ....    DCD    0
        0x40007038:    7f7f7f7f    ....    DCD    2139062143
        0x4000703c:    00000000    ....    DCD    0
        0x40007040:    ffffffff    ....    DCD    4294967295
        0x40007044:    00000000    ....    DCD    0
        0x40007048:    00000000    ....    DCD    0
        0x4000704c:    00000000    ....    DCD    0
        0x40007050:    87878787    ....    DCD    2273806215
        0x40007054:    00000000    ....    DCD    0
        0x40007058:    ffffffff    ....    DCD    4294967295
        0x4000705c:    00000000    ....    DCD    0
        0x40007060:    0000ffff    ....    DCD    65535
        0x40007064:    00000000    ....    DCD    0
        0x40007068:    0000ffff    ....    DCD    65535
        0x4000706c:    00000000    ....    DCD    0
        0x40007070:    1f1f001f    ....    DCD    522125343
        0x40007074:    00000000    ....    DCD    0
        0x40007078:    ffffffff    ....    DCD    4294967295
        0x4000707c:    00000000    ....    DCD    0
    golden
        0x40007080:    1f1f1f1f    ....    DCD    522133279
        0x40007084:    00000000    ....    DCD    0
        0x40007088:    dfdfdfdf    ....    DCD    3755991007
        0x4000708c:    40404040    @@@@    DCD    1077952576
        0x40007090:    00000000    ....    DCD    0
        0x40007094:    00000000    ....    DCD    0
        0x40007098:    00000000    ....    DCD    0
        0x4000709c:    00000000    ....    DCD    0
        0x400070a0:    1f1f1f1f    ....    DCD    522133279
        0x400070a4:    00000000    ....    DCD    0
        0x400070a8:    7f7f7f7f    ....    DCD    2139062143
        0x400070ac:    00000000    ....    DCD    0
        0x400070b0:    000001ff    ....    DCD    511
        0x400070b4:    00000000    ....    DCD    0
        0x400070b8:    7f7f7f7f    ....    DCD    2139062143
        0x400070bc:    00000000    ....    DCD    0
        0x400070c0:    ffffffff    ....    DCD    4294967295
        0x400070c4:    00000000    ....    DCD    0
        0x400070c8:    00000000    ....    DCD    0
        0x400070cc:    00000000    ....    DCD    0
        0x400070d0:    87878787    ....    DCD    2273806215
        0x400070d4:    00000000    ....    DCD    0
        0x400070d8:    ffffffff    ....    DCD    4294967295
        0x400070dc:    00000000    ....    DCD    0
        0x400070e0:    0000ffff    ....    DCD    65535
        0x400070e4:    00000000    ....    DCD    0
        0x400070e8:    0000ffff    ....    DCD    65535
        0x400070ec:    00000000    ....    DCD    0
        0x400070f0:    1f1f001f    ....    DCD    522125343
        0x400070f4:    00000000    ....    DCD    0
        0x400070f8:    ffffffff    ....    DCD    4294967295
        0x400070fc:    00000000    ....    DCD    0
    golden
        0x40007100:    1f1f1f1f    ....    DCD    522133279
        0x40007104:    00000000    ....    DCD    0
        0x40007108:    dfdfdfdf    ....    DCD    3755991007
        0x4000710c:    40404040    @@@@    DCD    1077952576
        0x40007110:    00000000    ....    DCD    0
        0x40007114:    00000000    ....    DCD    0
        0x40007118:    00000000    ....    DCD    0
        0x4000711c:    00000000    ....    DCD    0
        0x40007120:    1f1f1f1f    ....    DCD    522133279
        0x40007124:    00000000    ....    DCD    0
        0x40007128:    7f7f7f7f    ....    DCD    2139062143
        0x4000712c:    00000000    ....    DCD    0
        0x40007130:    000001ff    ....    DCD    511
        0x40007134:    00000000    ....    DCD    0
        0x40007138:    7f7f7f7f    ....    DCD    2139062143
        0x4000713c:    00000000    ....    DCD    0
        0x40007140:    ffffffff    ....    DCD    4294967295
        0x40007144:    00000000    ....    DCD    0
        0x40007148:    00000000    ....    DCD    0
        0x4000714c:    00000000    ....    DCD    0
        0x40007150:    87878787    ....    DCD    2273806215
        0x40007154:    00000000    ....    DCD    0
        0x40007158:    ffffffff    ....    DCD    4294967295
        0x4000715c:    00000000    ....    DCD    0
        0x40007160:    0000ffff    ....    DCD    65535
        0x40007164:    00000000    ....    DCD    0
        0x40007168:    0000ffff    ....    DCD    65535
        0x4000716c:    00000000    ....    DCD    0
        0x40007170:    1f1f001f    ....    DCD    522125343
        0x40007174:    00000000    ....    DCD    0
        0x40007178:    ffffffff    ....    DCD    4294967295
        0x4000717c:    00000000    ....    DCD    0
        0x40007180:    00000000    ....    DCD    0
        0x40007184:    00000000    ....    DCD    0
        0x40007188:    00000000    ....    DCD    0
        0x4000718c:    00000000    ....    DCD    0
        0x40007190:    00000000    ....    DCD    0
        0x40007194:    00000000    ....    DCD    0
        0x40007198:    00000000    ....    DCD    0
        0x4000719c:    00000000    ....    DCD    0
        0x400071a0:    00000000    ....    DCD    0
        0x400071a4:    00000000    ....    DCD    0
        0x400071a8:    00000000    ....    DCD    0
        0x400071ac:    00000000    ....    DCD    0
        0x400071b0:    00000000    ....    DCD    0
        0x400071b4:    00000000    ....    DCD    0
        0x400071b8:    00000000    ....    DCD    0
        0x400071bc:    00000000    ....    DCD    0
        0x400071c0:    00000000    ....    DCD    0
        0x400071c4:    00000000    ....    DCD    0
        0x400071c8:    00000000    ....    DCD    0
        0x400071cc:    00000000    ....    DCD    0
        0x400071d0:    00000000    ....    DCD    0
        0x400071d4:    00000000    ....    DCD    0
        0x400071d8:    00000000    ....    DCD    0
        0x400071dc:    00000000    ....    DCD    0
        0x400071e0:    00000000    ....    DCD    0
        0x400071e4:    00000000    ....    DCD    0
        0x400071e8:    00000000    ....    DCD    0
        0x400071ec:    00000000    ....    DCD    0
        0x400071f0:    00000000    ....    DCD    0
        0x400071f4:    00000000    ....    DCD    0
        0x400071f8:    00000000    ....    DCD    0
        0x400071fc:    00000000    ....    DCD    0
        0x40007200:    1f1f1f1f    ....    DCD    522133279
        0x40007204:    00000000    ....    DCD    0
        0x40007208:    dfdfdfdf    ....    DCD    3755991007
        0x4000720c:    40404040    @@@@    DCD    1077952576
        0x40007210:    00000000    ....    DCD    0
        0x40007214:    00000000    ....    DCD    0
        0x40007218:    00000000    ....    DCD    0
        0x4000721c:    00000000    ....    DCD    0
        0x40007220:    1f1f1f1f    ....    DCD    522133279
        0x40007224:    00000000    ....    DCD    0
        0x40007228:    7f7f7f7f    ....    DCD    2139062143
        0x4000722c:    00000000    ....    DCD    0
        0x40007230:    000001ff    ....    DCD    511
        0x40007234:    00000000    ....    DCD    0
        0x40007238:    7f7f7f7f    ....    DCD    2139062143
        0x4000723c:    00000000    ....    DCD    0
        0x40007240:    ffffffff    ....    DCD    4294967295
        0x40007244:    00000000    ....    DCD    0
        0x40007248:    00000000    ....    DCD    0
        0x4000724c:    00000000    ....    DCD    0
        0x40007250:    87878787    ....    DCD    2273806215
        0x40007254:    00000000    ....    DCD    0
        0x40007258:    ffffffff    ....    DCD    4294967295
        0x4000725c:    00000000    ....    DCD    0
        0x40007260:    0000ffff    ....    DCD    65535
        0x40007264:    00000000    ....    DCD    0
        0x40007268:    0000ffff    ....    DCD    65535
        0x4000726c:    00000000    ....    DCD    0
        0x40007270:    1f1f001f    ....    DCD    522125343
        0x40007274:    00000000    ....    DCD    0
        0x40007278:    ffffffff    ....    DCD    4294967295
        0x4000727c:    00000000    ....    DCD    0
        0x40007280:    1f1f1f1f    ....    DCD    522133279
        0x40007284:    00000000    ....    DCD    0
        0x40007288:    dfdfdfdf    ....    DCD    3755991007
        0x4000728c:    40404040    @@@@    DCD    1077952576
        0x40007290:    00000000    ....    DCD    0
        0x40007294:    00000000    ....    DCD    0
        0x40007298:    00000000    ....    DCD    0
        0x4000729c:    00000000    ....    DCD    0
        0x400072a0:    1f1f1f1f    ....    DCD    522133279
        0x400072a4:    00000000    ....    DCD    0
        0x400072a8:    7f7f7f7f    ....    DCD    2139062143
        0x400072ac:    00000000    ....    DCD    0
        0x400072b0:    000001ff    ....    DCD    511
        0x400072b4:    00000000    ....    DCD    0
        0x400072b8:    7f7f7f7f    ....    DCD    2139062143
        0x400072bc:    00000000    ....    DCD    0
        0x400072c0:    ffffffff    ....    DCD    4294967295
        0x400072c4:    00000000    ....    DCD    0
        0x400072c8:    00000000    ....    DCD    0
        0x400072cc:    00000000    ....    DCD    0
        0x400072d0:    87878787    ....    DCD    2273806215
        0x400072d4:    00000000    ....    DCD    0
        0x400072d8:    ffffffff    ....    DCD    4294967295
        0x400072dc:    00000000    ....    DCD    0
        0x400072e0:    0000ffff    ....    DCD    65535
        0x400072e4:    00000000    ....    DCD    0
        0x400072e8:    0000ffff    ....    DCD    65535
        0x400072ec:    00000000    ....    DCD    0
        0x400072f0:    1f1f001f    ....    DCD    522125343
        0x400072f4:    00000000    ....    DCD    0
        0x400072f8:    ffffffff    ....    DCD    4294967295
        0x400072fc:    00000000    ....    DCD    0
    masterConfig
        0x40007300:    00000000    ....    DCD    0
        0x40007304:    00000000    ....    DCD    0
        0x40007308:    00000000    ....    DCD    0
        0x4000730c:    00000000    ....    DCD    0
        0x40007310:    00000000    ....    DCD    0
        0x40007314:    00000005    ....    DCD    5
    masterConfig
        0x40007318:    00000001    ....    DCD    1
        0x4000731c:    00000050    P...    DCD    80
        0x40007320:    00000000    ....    DCD    0
        0x40007324:    00000000    ....    DCD    0
        0x40007328:    00000000    ....    DCD    0
        0x4000732c:    00000005    ....    DCD    5
    masterConfig
        0x40007330:    00000000    ....    DCD    0
        0x40007334:    00000051    Q...    DCD    81
        0x40007338:    00000000    ....    DCD    0
        0x4000733c:    00000000    ....    DCD    0
        0x40007340:    00000000    ....    DCD    0
        0x40007344:    00000005    ....    DCD    5
    masterConfig
        0x40007348:    00000000    ....    DCD    0
        0x4000734c:    00000050    P...    DCD    80
        0x40007350:    00000000    ....    DCD    0
        0x40007354:    00000000    ....    DCD    0
        0x40007358:    00000000    ....    DCD    0
        0x4000735c:    00000005    ....    DCD    5
    masterConfig
        0x40007360:    00000000    ....    DCD    0
        0x40007364:    00000050    P...    DCD    80
        0x40007368:    00000000    ....    DCD    0
        0x4000736c:    00000000    ....    DCD    0
        0x40007370:    00000000    ....    DCD    0
        0x40007374:    00000005    ....    DCD    5
    masterConfig
        0x40007378:    00000001    ....    DCD    1
        0x4000737c:    00000050    P...    DCD    80
        0x40007380:    00000000    ....    DCD    0
        0x40007384:    00000000    ....    DCD    0
        0x40007388:    00000000    ....    DCD    0
        0x4000738c:    00000005    ....    DCD    5
    masterConfig
        0x40007390:    00000000    ....    DCD    0
        0x40007394:    00000050    P...    DCD    80
        0x40007398:    00000000    ....    DCD    0
        0x4000739c:    00000000    ....    DCD    0
        0x400073a0:    00000000    ....    DCD    0
        0x400073a4:    00000005    ....    DCD    5
    masterConfig
        0x400073a8:    00000000    ....    DCD    0
        0x400073ac:    00000050    P...    DCD    80
        0x400073b0:    00000000    ....    DCD    0
        0x400073b4:    00000000    ....    DCD    0
        0x400073b8:    00000000    ....    DCD    0
        0x400073bc:    00000005    ....    DCD    5
    masterConfig
        0x400073c0:    00000001    ....    DCD    1
        0x400073c4:    00000051    Q...    DCD    81
        0x400073c8:    00000000    ....    DCD    0
        0x400073cc:    00000000    ....    DCD    0
        0x400073d0:    00000000    ....    DCD    0
        0x400073d4:    00000005    ....    DCD    5
    masterConfig
        0x400073d8:    00000000    ....    DCD    0
        0x400073dc:    00000001    ....    DCD    1
        0x400073e0:    00000001    ....    DCD    1
        0x400073e4:    00000000    ....    DCD    0
        0x400073e8:    00000000    ....    DCD    0
        0x400073ec:    00000005    ....    DCD    5
    masterConfig
        0x400073f0:    00000000    ....    DCD    0
        0x400073f4:    00000051    Q...    DCD    81
        0x400073f8:    00000000    ....    DCD    0
        0x400073fc:    00000000    ....    DCD    0
        0x40007400:    00000000    ....    DCD    0
        0x40007404:    00000005    ....    DCD    5
    masterConfig
        0x40007408:    00000000    ....    DCD    0
        0x4000740c:    00000051    Q...    DCD    81
        0x40007410:    00000000    ....    DCD    0
        0x40007414:    00000000    ....    DCD    0
        0x40007418:    00000000    ....    DCD    0
        0x4000741c:    00000005    ....    DCD    5
    masterConfig
        0x40007420:    00000000    ....    DCD    0
        0x40007424:    00000051    Q...    DCD    81
        0x40007428:    00000000    ....    DCD    0
        0x4000742c:    00000000    ....    DCD    0
        0x40007430:    00000000    ....    DCD    0
        0x40007434:    00000005    ....    DCD    5
    masterConfig
        0x40007438:    00000000    ....    DCD    0
        0x4000743c:    00000051    Q...    DCD    81
        0x40007440:    00000000    ....    DCD    0
        0x40007444:    00000000    ....    DCD    0
        0x40007448:    00000000    ....    DCD    0
        0x4000744c:    00000005    ....    DCD    5
    masterConfig
        0x40007450:    00000000    ....    DCD    0
        0x40007454:    00000050    P...    DCD    80
        0x40007458:    00000000    ....    DCD    0
        0x4000745c:    00000000    ....    DCD    0
        0x40007460:    00000000    ....    DCD    0
        0x40007464:    00000005    ....    DCD    5
    masterConfig
        0x40007468:    00000000    ....    DCD    0
        0x4000746c:    00000050    P...    DCD    80
        0x40007470:    00000000    ....    DCD    0
        0x40007474:    00000000    ....    DCD    0
        0x40007478:    00000000    ....    DCD    0
        0x4000747c:    00000005    ....    DCD    5
    masterConfig
        0x40007480:    00000000    ....    DCD    0
        0x40007484:    00000051    Q...    DCD    81
        0x40007488:    00000000    ....    DCD    0
        0x4000748c:    00000000    ....    DCD    0
        0x40007490:    00000000    ....    DCD    0
        0x40007494:    00000005    ....    DCD    5
    masterConfig
        0x40007498:    00000000    ....    DCD    0
        0x4000749c:    00000051    Q...    DCD    81
        0x400074a0:    00000000    ....    DCD    0
        0x400074a4:    00000000    ....    DCD    0
        0x400074a8:    00000000    ....    DCD    0
        0x400074ac:    00000005    ....    DCD    5
    masterConfig
        0x400074b0:    00000000    ....    DCD    0
        0x400074b4:    00000052    R...    DCD    82
        0x400074b8:    00000000    ....    DCD    0
        0x400074bc:    00000000    ....    DCD    0
        0x400074c0:    00000000    ....    DCD    0
        0x400074c4:    00000005    ....    DCD    5
    masterConfig
        0x400074c8:    00000001    ....    DCD    1
        0x400074cc:    00000050    P...    DCD    80
        0x400074d0:    00000000    ....    DCD    0
        0x400074d4:    00000000    ....    DCD    0
        0x400074d8:    00000000    ....    DCD    0
        0x400074dc:    00000005    ....    DCD    5
    masterConfig
        0x400074e0:    00000001    ....    DCD    1
        0x400074e4:    00000050    P...    DCD    80
        0x400074e8:    00000000    ....    DCD    0
        0x400074ec:    00000000    ....    DCD    0
        0x400074f0:    00000000    ....    DCD    0
        0x400074f4:    00000005    ....    DCD    5
    masterConfig
        0x400074f8:    00000001    ....    DCD    1
        0x400074fc:    00000051    Q...    DCD    81
        0x40007500:    00000000    ....    DCD    0
        0x40007504:    00000000    ....    DCD    0
        0x40007508:    00000000    ....    DCD    0
        0x4000750c:    00000005    ....    DCD    5
    masterConfig
        0x40007510:    00000000    ....    DCD    0
        0x40007514:    00000000    ....    DCD    0
        0x40007518:    00000000    ....    DCD    0
        0x4000751c:    00000000    ....    DCD    0
        0x40007520:    00000000    ....    DCD    0
        0x40007524:    00000005    ....    DCD    5
    masterConfig
        0x40007528:    00000000    ....    DCD    0
        0x4000752c:    00000050    P...    DCD    80
        0x40007530:    00000000    ....    DCD    0
        0x40007534:    00000000    ....    DCD    0
        0x40007538:    00000000    ....    DCD    0
        0x4000753c:    00000005    ....    DCD    5
    masterConfig
        0x40007540:    00000001    ....    DCD    1
        0x40007544:    00000050    P...    DCD    80
        0x40007548:    00000000    ....    DCD    0
        0x4000754c:    00000000    ....    DCD    0
        0x40007550:    00000000    ....    DCD    0
        0x40007554:    00000005    ....    DCD    5
    masterConfig
        0x40007558:    00000000    ....    DCD    0
        0x4000755c:    00000050    P...    DCD    80
        0x40007560:    00000000    ....    DCD    0
        0x40007564:    00000000    ....    DCD    0
        0x40007568:    00000000    ....    DCD    0
        0x4000756c:    00000005    ....    DCD    5
    masterConfig
        0x40007570:    00000000    ....    DCD    0
        0x40007574:    00000050    P...    DCD    80
        0x40007578:    00000000    ....    DCD    0
        0x4000757c:    00000000    ....    DCD    0
        0x40007580:    00000000    ....    DCD    0
        0x40007584:    00000005    ....    DCD    5
    masterConfig
        0x40007588:    00000001    ....    DCD    1
        0x4000758c:    00000051    Q...    DCD    81
        0x40007590:    00000000    ....    DCD    0
        0x40007594:    00000000    ....    DCD    0
        0x40007598:    00000000    ....    DCD    0
        0x4000759c:    00000005    ....    DCD    5
    masterConfig0
        0x400075a0:    00000000    ....    DCD    0
        0x400075a4:    00000051    Q...    DCD    81
        0x400075a8:    00000000    ....    DCD    0
        0x400075ac:    00000000    ....    DCD    0
        0x400075b0:    00000000    ....    DCD    0
        0x400075b4:    00000005    ....    DCD    5
    masterConfig1
        0x400075b8:    00000000    ....    DCD    0
        0x400075bc:    00000050    P...    DCD    80
        0x400075c0:    00000000    ....    DCD    0
        0x400075c4:    00000000    ....    DCD    0
        0x400075c8:    00000000    ....    DCD    0
        0x400075cc:    00000005    ....    DCD    5
    sendData
        0x400075d0:    00000048    H...    DCD    72
        0x400075d4:    00000045    E...    DCD    69
        0x400075d8:    0000004c    L...    DCD    76
        0x400075dc:    0000004c    L...    DCD    76
        0x400075e0:    0000004f    O...    DCD    79
        0x400075e4:    0000002c    ,...    DCD    44
        0x400075e8:    00000020     ...    DCD    32
        0x400075ec:    00000057    W...    DCD    87
        0x400075f0:    0000004f    O...    DCD    79
        0x400075f4:    00000052    R...    DCD    82
        0x400075f8:    0000004c    L...    DCD    76
        0x400075fc:    00000044    D...    DCD    68
        0x40007600:    00000021    !...    DCD    33
    sendData
        0x40007604:    00000048    H...    DCD    72
        0x40007608:    00000045    E...    DCD    69
        0x4000760c:    0000004c    L...    DCD    76
        0x40007610:    0000004c    L...    DCD    76
        0x40007614:    0000004f    O...    DCD    79
        0x40007618:    0000002c    ,...    DCD    44
        0x4000761c:    00000020     ...    DCD    32
        0x40007620:    00000057    W...    DCD    87
        0x40007624:    0000004f    O...    DCD    79
        0x40007628:    00000052    R...    DCD    82
        0x4000762c:    0000004c    L...    DCD    76
        0x40007630:    00000044    D...    DCD    68
        0x40007634:    00000021    !...    DCD    33
    sendData
        0x40007638:    00000048    H...    DCD    72
        0x4000763c:    00000045    E...    DCD    69
        0x40007640:    0000004c    L...    DCD    76
        0x40007644:    0000004c    L...    DCD    76
        0x40007648:    0000004f    O...    DCD    79
        0x4000764c:    0000002c    ,...    DCD    44
        0x40007650:    00000020     ...    DCD    32
        0x40007654:    00000057    W...    DCD    87
        0x40007658:    0000004f    O...    DCD    79
        0x4000765c:    00000052    R...    DCD    82
        0x40007660:    0000004c    L...    DCD    76
        0x40007664:    00000044    D...    DCD    68
        0x40007668:    00000021    !...    DCD    33
    sendData
        0x4000766c:    00000048    H...    DCD    72
        0x40007670:    00000045    E...    DCD    69
        0x40007674:    0000004c    L...    DCD    76
        0x40007678:    0000004c    L...    DCD    76
        0x4000767c:    0000004f    O...    DCD    79
        0x40007680:    0000002c    ,...    DCD    44
        0x40007684:    00000020     ...    DCD    32
        0x40007688:    00000057    W...    DCD    87
        0x4000768c:    0000004f    O...    DCD    79
        0x40007690:    00000052    R...    DCD    82
        0x40007694:    0000004c    L...    DCD    76
        0x40007698:    00000044    D...    DCD    68
        0x4000769c:    00000021    !...    DCD    33
    sendData
        0x400076a0:    00000048    H...    DCD    72
        0x400076a4:    00000045    E...    DCD    69
        0x400076a8:    0000004c    L...    DCD    76
        0x400076ac:    0000004c    L...    DCD    76
        0x400076b0:    0000004f    O...    DCD    79
        0x400076b4:    0000002c    ,...    DCD    44
        0x400076b8:    00000020     ...    DCD    32
        0x400076bc:    00000057    W...    DCD    87
        0x400076c0:    0000004f    O...    DCD    79
        0x400076c4:    00000052    R...    DCD    82
        0x400076c8:    0000004c    L...    DCD    76
        0x400076cc:    00000044    D...    DCD    68
        0x400076d0:    00000021    !...    DCD    33
    sendData
        0x400076d4:    00000048    H...    DCD    72
        0x400076d8:    00000045    E...    DCD    69
        0x400076dc:    0000004c    L...    DCD    76
        0x400076e0:    0000004c    L...    DCD    76
        0x400076e4:    0000004f    O...    DCD    79
        0x400076e8:    0000002c    ,...    DCD    44
        0x400076ec:    00000020     ...    DCD    32
        0x400076f0:    00000057    W...    DCD    87
        0x400076f4:    0000004f    O...    DCD    79
        0x400076f8:    00000052    R...    DCD    82
        0x400076fc:    0000004c    L...    DCD    76
        0x40007700:    00000044    D...    DCD    68
        0x40007704:    00000021    !...    DCD    33
    sendData
        0x40007708:    00000048    H...    DCD    72
        0x4000770c:    00000045    E...    DCD    69
        0x40007710:    0000004c    L...    DCD    76
        0x40007714:    0000004c    L...    DCD    76
        0x40007718:    0000004f    O...    DCD    79
        0x4000771c:    0000002c    ,...    DCD    44
        0x40007720:    00000020     ...    DCD    32
        0x40007724:    00000057    W...    DCD    87
        0x40007728:    0000004f    O...    DCD    79
        0x4000772c:    00000052    R...    DCD    82
        0x40007730:    0000004c    L...    DCD    76
        0x40007734:    00000044    D...    DCD    68
        0x40007738:    00000021    !...    DCD    33
    sendData
        0x4000773c:    00000048    H...    DCD    72
        0x40007740:    00000045    E...    DCD    69
        0x40007744:    0000004c    L...    DCD    76
        0x40007748:    0000004c    L...    DCD    76
        0x4000774c:    0000004f    O...    DCD    79
        0x40007750:    0000002c    ,...    DCD    44
        0x40007754:    00000020     ...    DCD    32
        0x40007758:    00000057    W...    DCD    87
        0x4000775c:    0000004f    O...    DCD    79
        0x40007760:    00000052    R...    DCD    82
        0x40007764:    0000004c    L...    DCD    76
        0x40007768:    00000044    D...    DCD    68
        0x4000776c:    00000021    !...    DCD    33
    sendData
        0x40007770:    00000048    H...    DCD    72
        0x40007774:    00000045    E...    DCD    69
        0x40007778:    0000004c    L...    DCD    76
        0x4000777c:    0000004c    L...    DCD    76
        0x40007780:    0000004f    O...    DCD    79
        0x40007784:    0000002c    ,...    DCD    44
        0x40007788:    00000020     ...    DCD    32
        0x4000778c:    00000057    W...    DCD    87
        0x40007790:    0000004f    O...    DCD    79
        0x40007794:    00000052    R...    DCD    82
        0x40007798:    0000004c    L...    DCD    76
        0x4000779c:    00000044    D...    DCD    68
        0x400077a0:    00000021    !...    DCD    33
    sendData
        0x400077a4:    00000048    H...    DCD    72
        0x400077a8:    00000045    E...    DCD    69
        0x400077ac:    0000004c    L...    DCD    76
        0x400077b0:    0000004c    L...    DCD    76
        0x400077b4:    0000004f    O...    DCD    79
        0x400077b8:    0000002c    ,...    DCD    44
        0x400077bc:    00000020     ...    DCD    32
        0x400077c0:    00000057    W...    DCD    87
        0x400077c4:    0000004f    O...    DCD    79
        0x400077c8:    00000052    R...    DCD    82
        0x400077cc:    0000004c    L...    DCD    76
        0x400077d0:    00000044    D...    DCD    68
        0x400077d4:    00000021    !...    DCD    33
    sendData
        0x400077d8:    00000048    H...    DCD    72
        0x400077dc:    00000045    E...    DCD    69
        0x400077e0:    0000004c    L...    DCD    76
        0x400077e4:    0000004c    L...    DCD    76
        0x400077e8:    0000004f    O...    DCD    79
        0x400077ec:    0000002c    ,...    DCD    44
        0x400077f0:    00000020     ...    DCD    32
        0x400077f4:    00000057    W...    DCD    87
        0x400077f8:    0000004f    O...    DCD    79
        0x400077fc:    00000052    R...    DCD    82
        0x40007800:    0000004c    L...    DCD    76
        0x40007804:    00000044    D...    DCD    68
        0x40007808:    00000021    !...    DCD    33
    sendData
        0x4000780c:    00000048    H...    DCD    72
        0x40007810:    00000045    E...    DCD    69
        0x40007814:    0000004c    L...    DCD    76
        0x40007818:    0000004c    L...    DCD    76
        0x4000781c:    0000004f    O...    DCD    79
        0x40007820:    0000002c    ,...    DCD    44
        0x40007824:    00000020     ...    DCD    32
        0x40007828:    00000057    W...    DCD    87
        0x4000782c:    0000004f    O...    DCD    79
        0x40007830:    00000052    R...    DCD    82
        0x40007834:    0000004c    L...    DCD    76
        0x40007838:    00000044    D...    DCD    68
        0x4000783c:    00000021    !...    DCD    33
    sendData
        0x40007840:    00000048    H...    DCD    72
        0x40007844:    00000045    E...    DCD    69
        0x40007848:    0000004c    L...    DCD    76
        0x4000784c:    0000004c    L...    DCD    76
        0x40007850:    0000004f    O...    DCD    79
        0x40007854:    0000002c    ,...    DCD    44
        0x40007858:    00000020     ...    DCD    32
        0x4000785c:    00000057    W...    DCD    87
        0x40007860:    0000004f    O...    DCD    79
        0x40007864:    00000052    R...    DCD    82
        0x40007868:    0000004c    L...    DCD    76
        0x4000786c:    00000044    D...    DCD    68
        0x40007870:    00000021    !...    DCD    33
        0x40007874:    00000052    R...    DCD    82
        0x40007878:    00000045    E...    DCD    69
        0x4000787c:    0000004e    N...    DCD    78
        0x40007880:    00000045    E...    DCD    69
        0x40007884:    00000053    S...    DCD    83
        0x40007888:    00000041    A...    DCD    65
        0x4000788c:    00000053    S...    DCD    83
        0x40007890:    00000020     ...    DCD    32
        0x40007894:    00000043    C...    DCD    67
        0x40007898:    0000004f    O...    DCD    79
        0x4000789c:    00000052    R...    DCD    82
        0x400078a0:    00000050    P...    DCD    80
        0x400078a4:    0000002e    ....    DCD    46
    sendData
        0x400078a8:    00000048    H...    DCD    72
        0x400078ac:    00000045    E...    DCD    69
        0x400078b0:    0000004c    L...    DCD    76
        0x400078b4:    0000004c    L...    DCD    76
        0x400078b8:    0000004f    O...    DCD    79
        0x400078bc:    0000002c    ,...    DCD    44
        0x400078c0:    00000020     ...    DCD    32
        0x400078c4:    00000057    W...    DCD    87
        0x400078c8:    0000004f    O...    DCD    79
        0x400078cc:    00000052    R...    DCD    82
        0x400078d0:    0000004c    L...    DCD    76
        0x400078d4:    00000044    D...    DCD    68
        0x400078d8:    00000021    !...    DCD    33
    sendData
        0x400078dc:    00000048    H...    DCD    72
        0x400078e0:    00000045    E...    DCD    69
        0x400078e4:    0000004c    L...    DCD    76
        0x400078e8:    0000004c    L...    DCD    76
        0x400078ec:    0000004f    O...    DCD    79
        0x400078f0:    0000002c    ,...    DCD    44
        0x400078f4:    00000020     ...    DCD    32
        0x400078f8:    00000057    W...    DCD    87
        0x400078fc:    0000004f    O...    DCD    79
        0x40007900:    00000052    R...    DCD    82
        0x40007904:    0000004c    L...    DCD    76
        0x40007908:    00000044    D...    DCD    68
        0x4000790c:    00000021    !...    DCD    33
    sendData
        0x40007910:    00000048    H...    DCD    72
        0x40007914:    00000045    E...    DCD    69
        0x40007918:    0000004c    L...    DCD    76
        0x4000791c:    0000004c    L...    DCD    76
        0x40007920:    0000004f    O...    DCD    79
        0x40007924:    0000002c    ,...    DCD    44
        0x40007928:    00000020     ...    DCD    32
        0x4000792c:    00000057    W...    DCD    87
        0x40007930:    0000004f    O...    DCD    79
        0x40007934:    00000052    R...    DCD    82
        0x40007938:    0000004c    L...    DCD    76
        0x4000793c:    00000044    D...    DCD    68
        0x40007940:    00000021    !...    DCD    33
    sendData
        0x40007944:    00000048    H...    DCD    72
        0x40007948:    00000045    E...    DCD    69
        0x4000794c:    0000004c    L...    DCD    76
        0x40007950:    0000004c    L...    DCD    76
        0x40007954:    0000004f    O...    DCD    79
        0x40007958:    0000002c    ,...    DCD    44
        0x4000795c:    00000020     ...    DCD    32
        0x40007960:    00000057    W...    DCD    87
        0x40007964:    0000004f    O...    DCD    79
        0x40007968:    00000052    R...    DCD    82
        0x4000796c:    0000004c    L...    DCD    76
        0x40007970:    00000044    D...    DCD    68
        0x40007974:    00000021    !...    DCD    33
    sendData
        0x40007978:    00000048    H...    DCD    72
        0x4000797c:    00000045    E...    DCD    69
        0x40007980:    0000004c    L...    DCD    76
        0x40007984:    0000004c    L...    DCD    76
        0x40007988:    0000004f    O...    DCD    79
        0x4000798c:    0000002c    ,...    DCD    44
        0x40007990:    00000020     ...    DCD    32
        0x40007994:    00000057    W...    DCD    87
        0x40007998:    0000004f    O...    DCD    79
        0x4000799c:    00000052    R...    DCD    82
        0x400079a0:    0000004c    L...    DCD    76
        0x400079a4:    00000044    D...    DCD    68
        0x400079a8:    00000021    !...    DCD    33
    sendData
        0x400079ac:    00000048    H...    DCD    72
        0x400079b0:    00000045    E...    DCD    69
        0x400079b4:    0000004c    L...    DCD    76
        0x400079b8:    0000004c    L...    DCD    76
        0x400079bc:    0000004f    O...    DCD    79
        0x400079c0:    0000002c    ,...    DCD    44
        0x400079c4:    00000020     ...    DCD    32
        0x400079c8:    00000057    W...    DCD    87
        0x400079cc:    0000004f    O...    DCD    79
        0x400079d0:    00000052    R...    DCD    82
        0x400079d4:    0000004c    L...    DCD    76
        0x400079d8:    00000044    D...    DCD    68
        0x400079dc:    00000021    !...    DCD    33
    sendData
        0x400079e0:    00000048    H...    DCD    72
        0x400079e4:    00000045    E...    DCD    69
        0x400079e8:    0000004c    L...    DCD    76
        0x400079ec:    0000004c    L...    DCD    76
        0x400079f0:    0000004f    O...    DCD    79
        0x400079f4:    0000002c    ,...    DCD    44
        0x400079f8:    00000020     ...    DCD    32
        0x400079fc:    00000057    W...    DCD    87
        0x40007a00:    0000004f    O...    DCD    79
        0x40007a04:    00000052    R...    DCD    82
        0x40007a08:    0000004c    L...    DCD    76
        0x40007a0c:    00000044    D...    DCD    68
        0x40007a10:    00000021    !...    DCD    33
    sendData
        0x40007a14:    00000048    H...    DCD    72
        0x40007a18:    00000045    E...    DCD    69
        0x40007a1c:    0000004c    L...    DCD    76
        0x40007a20:    0000004c    L...    DCD    76
        0x40007a24:    0000004f    O...    DCD    79
        0x40007a28:    0000002c    ,...    DCD    44
        0x40007a2c:    00000020     ...    DCD    32
        0x40007a30:    00000057    W...    DCD    87
        0x40007a34:    0000004f    O...    DCD    79
        0x40007a38:    00000052    R...    DCD    82
        0x40007a3c:    0000004c    L...    DCD    76
        0x40007a40:    00000044    D...    DCD    68
        0x40007a44:    00000021    !...    DCD    33
    sendData
        0x40007a48:    00000048    H...    DCD    72
        0x40007a4c:    00000045    E...    DCD    69
        0x40007a50:    0000004c    L...    DCD    76
        0x40007a54:    0000004c    L...    DCD    76
        0x40007a58:    0000004f    O...    DCD    79
        0x40007a5c:    0000002c    ,...    DCD    44
        0x40007a60:    00000020     ...    DCD    32
        0x40007a64:    00000057    W...    DCD    87
        0x40007a68:    0000004f    O...    DCD    79
        0x40007a6c:    00000052    R...    DCD    82
        0x40007a70:    0000004c    L...    DCD    76
        0x40007a74:    00000044    D...    DCD    68
        0x40007a78:    00000021    !...    DCD    33
    sendData
        0x40007a7c:    00000048    H...    DCD    72
        0x40007a80:    00000045    E...    DCD    69
        0x40007a84:    0000004c    L...    DCD    76
        0x40007a88:    0000004c    L...    DCD    76
        0x40007a8c:    0000004f    O...    DCD    79
        0x40007a90:    0000002c    ,...    DCD    44
        0x40007a94:    00000020     ...    DCD    32
        0x40007a98:    00000057    W...    DCD    87
        0x40007a9c:    0000004f    O...    DCD    79
        0x40007aa0:    00000052    R...    DCD    82
        0x40007aa4:    0000004c    L...    DCD    76
        0x40007aa8:    00000044    D...    DCD    68
        0x40007aac:    00000021    !...    DCD    33
        0x40007ab0:    00000052    R...    DCD    82
        0x40007ab4:    00000045    E...    DCD    69
        0x40007ab8:    0000004e    N...    DCD    78
        0x40007abc:    00000045    E...    DCD    69
        0x40007ac0:    00000053    S...    DCD    83
        0x40007ac4:    00000041    A...    DCD    65
        0x40007ac8:    00000053    S...    DCD    83
        0x40007acc:    00000020     ...    DCD    32
        0x40007ad0:    00000043    C...    DCD    67
        0x40007ad4:    0000004f    O...    DCD    79
        0x40007ad8:    00000052    R...    DCD    82
        0x40007adc:    00000050    P...    DCD    80
        0x40007ae0:    0000002e    ....    DCD    46
    sendData
        0x40007ae4:    00000048    H...    DCD    72
        0x40007ae8:    00000045    E...    DCD    69
        0x40007aec:    0000004c    L...    DCD    76
        0x40007af0:    0000004c    L...    DCD    76
        0x40007af4:    0000004f    O...    DCD    79
        0x40007af8:    0000002c    ,...    DCD    44
        0x40007afc:    00000020     ...    DCD    32
        0x40007b00:    00000057    W...    DCD    87
        0x40007b04:    0000004f    O...    DCD    79
        0x40007b08:    00000052    R...    DCD    82
        0x40007b0c:    0000004c    L...    DCD    76
        0x40007b10:    00000044    D...    DCD    68
        0x40007b14:    00000021    !...    DCD    33
    sendData
        0x40007b18:    00000048    H...    DCD    72
        0x40007b1c:    00000045    E...    DCD    69
        0x40007b20:    0000004c    L...    DCD    76
        0x40007b24:    0000004c    L...    DCD    76
        0x40007b28:    0000004f    O...    DCD    79
        0x40007b2c:    0000002c    ,...    DCD    44
        0x40007b30:    00000020     ...    DCD    32
        0x40007b34:    00000057    W...    DCD    87
        0x40007b38:    0000004f    O...    DCD    79
        0x40007b3c:    00000052    R...    DCD    82
        0x40007b40:    0000004c    L...    DCD    76
        0x40007b44:    00000044    D...    DCD    68
        0x40007b48:    00000021    !...    DCD    33
    sendData
        0x40007b4c:    00000048    H...    DCD    72
        0x40007b50:    00000045    E...    DCD    69
        0x40007b54:    0000004c    L...    DCD    76
        0x40007b58:    0000004c    L...    DCD    76
        0x40007b5c:    0000004f    O...    DCD    79
        0x40007b60:    0000002c    ,...    DCD    44
        0x40007b64:    00000020     ...    DCD    32
        0x40007b68:    00000057    W...    DCD    87
        0x40007b6c:    0000004f    O...    DCD    79
        0x40007b70:    00000052    R...    DCD    82
        0x40007b74:    0000004c    L...    DCD    76
        0x40007b78:    00000044    D...    DCD    68
        0x40007b7c:    00000021    !...    DCD    33
    sendData
        0x40007b80:    00000048    H...    DCD    72
        0x40007b84:    00000045    E...    DCD    69
        0x40007b88:    0000004c    L...    DCD    76
        0x40007b8c:    0000004c    L...    DCD    76
        0x40007b90:    0000004f    O...    DCD    79
        0x40007b94:    0000002c    ,...    DCD    44
        0x40007b98:    00000020     ...    DCD    32
        0x40007b9c:    00000057    W...    DCD    87
        0x40007ba0:    0000004f    O...    DCD    79
        0x40007ba4:    00000052    R...    DCD    82
        0x40007ba8:    0000004c    L...    DCD    76
        0x40007bac:    00000044    D...    DCD    68
        0x40007bb0:    00000021    !...    DCD    33
    sendData
        0x40007bb4:    00000048    H...    DCD    72
        0x40007bb8:    00000045    E...    DCD    69
        0x40007bbc:    0000004c    L...    DCD    76
        0x40007bc0:    0000004c    L...    DCD    76
        0x40007bc4:    0000004f    O...    DCD    79
        0x40007bc8:    0000002c    ,...    DCD    44
        0x40007bcc:    00000020     ...    DCD    32
        0x40007bd0:    00000057    W...    DCD    87
        0x40007bd4:    0000004f    O...    DCD    79
        0x40007bd8:    00000052    R...    DCD    82
        0x40007bdc:    0000004c    L...    DCD    76
        0x40007be0:    00000044    D...    DCD    68
        0x40007be4:    00000021    !...    DCD    33
    sendData
        0x40007be8:    00000048    H...    DCD    72
        0x40007bec:    00000045    E...    DCD    69
        0x40007bf0:    0000004c    L...    DCD    76
        0x40007bf4:    0000004c    L...    DCD    76
        0x40007bf8:    0000004f    O...    DCD    79
        0x40007bfc:    0000002c    ,...    DCD    44
        0x40007c00:    00000020     ...    DCD    32
        0x40007c04:    00000057    W...    DCD    87
        0x40007c08:    0000004f    O...    DCD    79
        0x40007c0c:    00000052    R...    DCD    82
        0x40007c10:    0000004c    L...    DCD    76
        0x40007c14:    00000044    D...    DCD    68
        0x40007c18:    00000021    !...    DCD    33
    slaveConfig
        0x40007c1c:    00000051    Q...    DCD    81
        0x40007c20:    00000001    ....    DCD    1
        0x40007c24:    00000001    ....    DCD    1
        0x40007c28:    00000000    ....    DCD    0
        0x40007c2c:    00000000    ....    DCD    0
        0x40007c30:    00000005    ....    DCD    5
    slaveConfig
        0x40007c34:    00000050    P...    DCD    80
        0x40007c38:    00000001    ....    DCD    1
        0x40007c3c:    00000000    ....    DCD    0
        0x40007c40:    00000000    ....    DCD    0
        0x40007c44:    00000000    ....    DCD    0
        0x40007c48:    00000005    ....    DCD    5
    slaveConfig
        0x40007c4c:    00000051    Q...    DCD    81
        0x40007c50:    00000001    ....    DCD    1
        0x40007c54:    00000000    ....    DCD    0
        0x40007c58:    00000000    ....    DCD    0
        0x40007c5c:    00000000    ....    DCD    0
        0x40007c60:    00000005    ....    DCD    5
    slaveConfig
        0x40007c64:    00000050    P...    DCD    80
        0x40007c68:    00000000    ....    DCD    0
        0x40007c6c:    00000000    ....    DCD    0
        0x40007c70:    00000000    ....    DCD    0
        0x40007c74:    00000000    ....    DCD    0
        0x40007c78:    00000005    ....    DCD    5
    slaveConfig
        0x40007c7c:    00000050    P...    DCD    80
        0x40007c80:    00000000    ....    DCD    0
        0x40007c84:    00000000    ....    DCD    0
        0x40007c88:    00000000    ....    DCD    0
        0x40007c8c:    00000000    ....    DCD    0
        0x40007c90:    00000005    ....    DCD    5
    slaveConfig
        0x40007c94:    00000050    P...    DCD    80
        0x40007c98:    00000000    ....    DCD    0
        0x40007c9c:    00000000    ....    DCD    0
        0x40007ca0:    00000000    ....    DCD    0
        0x40007ca4:    00000000    ....    DCD    0
        0x40007ca8:    00000005    ....    DCD    5
    slaveConfig
        0x40007cac:    00000050    P...    DCD    80
        0x40007cb0:    00000001    ....    DCD    1
        0x40007cb4:    00000000    ....    DCD    0
        0x40007cb8:    00000000    ....    DCD    0
        0x40007cbc:    00000000    ....    DCD    0
        0x40007cc0:    00000005    ....    DCD    5
    slaveConfig
        0x40007cc4:    00000050    P...    DCD    80
        0x40007cc8:    00000000    ....    DCD    0
        0x40007ccc:    00000000    ....    DCD    0
        0x40007cd0:    00000000    ....    DCD    0
        0x40007cd4:    00000000    ....    DCD    0
        0x40007cd8:    00000005    ....    DCD    5
    slaveConfig
        0x40007cdc:    00000051    Q...    DCD    81
        0x40007ce0:    00000001    ....    DCD    1
        0x40007ce4:    00000000    ....    DCD    0
        0x40007ce8:    00000000    ....    DCD    0
        0x40007cec:    00000000    ....    DCD    0
        0x40007cf0:    00000005    ....    DCD    5
    slaveConfig
        0x40007cf4:    00000001    ....    DCD    1
        0x40007cf8:    00000001    ....    DCD    1
        0x40007cfc:    00000000    ....    DCD    0
        0x40007d00:    00000000    ....    DCD    0
        0x40007d04:    00000000    ....    DCD    0
        0x40007d08:    00000005    ....    DCD    5
    slaveConfig
        0x40007d0c:    00000051    Q...    DCD    81
        0x40007d10:    00000001    ....    DCD    1
        0x40007d14:    00000000    ....    DCD    0
        0x40007d18:    00000000    ....    DCD    0
        0x40007d1c:    00000000    ....    DCD    0
        0x40007d20:    00000005    ....    DCD    5
    slaveConfig
        0x40007d24:    00000051    Q...    DCD    81
        0x40007d28:    00000001    ....    DCD    1
        0x40007d2c:    00000000    ....    DCD    0
        0x40007d30:    00000000    ....    DCD    0
        0x40007d34:    00000000    ....    DCD    0
        0x40007d38:    00000005    ....    DCD    5
    slaveConfig
        0x40007d3c:    00000051    Q...    DCD    81
        0x40007d40:    00000000    ....    DCD    0
        0x40007d44:    00000000    ....    DCD    0
        0x40007d48:    00000000    ....    DCD    0
        0x40007d4c:    00000000    ....    DCD    0
        0x40007d50:    00000005    ....    DCD    5
    slaveConfig
        0x40007d54:    00000051    Q...    DCD    81
        0x40007d58:    00000001    ....    DCD    1
        0x40007d5c:    00000000    ....    DCD    0
        0x40007d60:    00000000    ....    DCD    0
        0x40007d64:    00000000    ....    DCD    0
        0x40007d68:    00000005    ....    DCD    5
    slaveConfig
        0x40007d6c:    00000050    P...    DCD    80
        0x40007d70:    00000001    ....    DCD    1
        0x40007d74:    00000000    ....    DCD    0
        0x40007d78:    00000000    ....    DCD    0
        0x40007d7c:    00000000    ....    DCD    0
        0x40007d80:    00000005    ....    DCD    5
    slaveConfig
        0x40007d84:    00000050    P...    DCD    80
        0x40007d88:    00000000    ....    DCD    0
        0x40007d8c:    00000000    ....    DCD    0
        0x40007d90:    00000000    ....    DCD    0
        0x40007d94:    00000000    ....    DCD    0
        0x40007d98:    00000005    ....    DCD    5
    slaveConfig
        0x40007d9c:    00000051    Q...    DCD    81
        0x40007da0:    00000001    ....    DCD    1
        0x40007da4:    00000000    ....    DCD    0
        0x40007da8:    00000000    ....    DCD    0
        0x40007dac:    00000000    ....    DCD    0
        0x40007db0:    00000005    ....    DCD    5
    slaveConfig
        0x40007db4:    00000051    Q...    DCD    81
        0x40007db8:    00000001    ....    DCD    1
        0x40007dbc:    00000000    ....    DCD    0
        0x40007dc0:    00000000    ....    DCD    0
        0x40007dc4:    00000000    ....    DCD    0
        0x40007dc8:    00000005    ....    DCD    5
    slaveConfig
        0x40007dcc:    00000050    P...    DCD    80
        0x40007dd0:    00000001    ....    DCD    1
        0x40007dd4:    00000000    ....    DCD    0
        0x40007dd8:    00000000    ....    DCD    0
        0x40007ddc:    00000000    ....    DCD    0
        0x40007de0:    00000005    ....    DCD    5
    slaveConfig
        0x40007de4:    00000050    P...    DCD    80
        0x40007de8:    00000000    ....    DCD    0
        0x40007dec:    00000000    ....    DCD    0
        0x40007df0:    00000000    ....    DCD    0
        0x40007df4:    00000000    ....    DCD    0
        0x40007df8:    00000005    ....    DCD    5
    slaveConfig
        0x40007dfc:    00000050    P...    DCD    80
        0x40007e00:    00000001    ....    DCD    1
        0x40007e04:    00000000    ....    DCD    0
        0x40007e08:    00000000    ....    DCD    0
        0x40007e0c:    00000000    ....    DCD    0
        0x40007e10:    00000005    ....    DCD    5
    slaveConfig
        0x40007e14:    00000051    Q...    DCD    81
        0x40007e18:    00000000    ....    DCD    0
        0x40007e1c:    00000000    ....    DCD    0
        0x40007e20:    00000000    ....    DCD    0
        0x40007e24:    00000000    ....    DCD    0
        0x40007e28:    00000005    ....    DCD    5
    slaveConfig
        0x40007e2c:    00000050    P...    DCD    80
        0x40007e30:    00000001    ....    DCD    1
        0x40007e34:    00000001    ....    DCD    1
        0x40007e38:    00000000    ....    DCD    0
        0x40007e3c:    00000000    ....    DCD    0
        0x40007e40:    00000005    ....    DCD    5
    slaveConfig
        0x40007e44:    00000050    P...    DCD    80
        0x40007e48:    00000001    ....    DCD    1
        0x40007e4c:    00000000    ....    DCD    0
        0x40007e50:    00000000    ....    DCD    0
        0x40007e54:    00000000    ....    DCD    0
        0x40007e58:    00000005    ....    DCD    5
    slaveConfig
        0x40007e5c:    00000050    P...    DCD    80
        0x40007e60:    00000001    ....    DCD    1
        0x40007e64:    00000000    ....    DCD    0
        0x40007e68:    00000000    ....    DCD    0
        0x40007e6c:    00000000    ....    DCD    0
        0x40007e70:    00000005    ....    DCD    5
    slaveConfig
        0x40007e74:    00000050    P...    DCD    80
        0x40007e78:    00000000    ....    DCD    0
        0x40007e7c:    00000000    ....    DCD    0
        0x40007e80:    00000000    ....    DCD    0
        0x40007e84:    00000000    ....    DCD    0
        0x40007e88:    00000005    ....    DCD    5
    slaveConfig
        0x40007e8c:    00000050    P...    DCD    80
        0x40007e90:    00000000    ....    DCD    0
        0x40007e94:    00000000    ....    DCD    0
        0x40007e98:    00000000    ....    DCD    0
        0x40007e9c:    00000000    ....    DCD    0
        0x40007ea0:    00000005    ....    DCD    5
    slaveConfig
        0x40007ea4:    00000051    Q...    DCD    81
        0x40007ea8:    00000001    ....    DCD    1
        0x40007eac:    00000000    ....    DCD    0
        0x40007eb0:    00000000    ....    DCD    0
        0x40007eb4:    00000000    ....    DCD    0
        0x40007eb8:    00000005    ....    DCD    5
    slaveConfig0
        0x40007ebc:    00000050    P...    DCD    80
        0x40007ec0:    00000000    ....    DCD    0
        0x40007ec4:    00000000    ....    DCD    0
        0x40007ec8:    00000000    ....    DCD    0
        0x40007ecc:    00000000    ....    DCD    0
        0x40007ed0:    00000005    ....    DCD    5
        0x40007ed4:    00000000    ....    DCD    0

====================================

** Section #3

    Name        : ER10
    Type        : SHT_PROGBITS (0x00000001)
    Flags       : SHF_ALLOC + SHF_WRITE (0x00000003)
    Addr        : 0x40007ed8
    File Offset : 38232 (0x9558)
    Size        : 8016 bytes (0x1f50)
    Link        : SHN_UNDEF
    Info        : 0
    Alignment   : 8
    Entry Size  : 0

    0x40007ed8:   d0 05 00 40 00 00 00 00 d0 05 00 40 00 00 00 00    ...@.......@....
    0x40007ee8:   d0 05 00 40 00 00 00 00 d0 05 00 40 00 00 00 00    ...@.......@....
    0x40007ef8:   d0 05 00 40 00 00 00 00 d0 05 00 40 00 00 00 00    ...@.......@....
    0x40007f08:   d0 05 00 40 00 00 00 00 d0 05 00 40 00 00 00 00    ...@.......@....
    0x40007f18:   d0 05 00 40 00 00 00 00 d0 05 00 40 00 00 00 00    ...@.......@....
    0x40007f28:   d0 05 00 40 00 00 00 00 d0 05 00 40 00 00 00 00    ...@.......@....
    0x40007f38:   d0 05 00 40 00 00 00 00 d0 05 00 40 00 00 00 00    ...@.......@....
    0x40007f48:   d0 05 00 40 00 00 00 00 d0 05 00 40 00 00 00 00    ...@.......@....
    0x40007f58:   d0 05 00 40 00 00 00 00 d0 05 00 40 00 00 00 00    ...@.......@....
    0x40007f68:   d0 05 00 40 00 00 00 00 d0 05 00 40 00 00 00 00    ...@.......@....
    0x40007f78:   d0 05 00 40 00 00 00 00 d0 05 00 40 00 00 00 00    ...@.......@....
    0x40007f88:   d0 05 00 40 00 00 00 00 d0 05 00 40 00 00 00 00    ...@.......@....
    0x40007f98:   d0 05 00 40 00 00 00 00 d0 05 00 40 00 00 00 00    ...@.......@....
    0x40007fa8:   d0 05 00 40 00 00 00 00 d0 05 00 40 00 00 00 00    ...@.......@....
    0x40007fb8:   d0 05 00 40 00 00 00 00 d0 05 00 40 00 00 00 00    ...@.......@....
    0x40007fc8:   d0 05 00 40 00 00 00 00 d0 05 00 40 00 00 00 00    ...@.......@....
    0x40007fd8:   d0 05 00 40 00 00 00 00 d0 05 00 40 00 00 00 00    ...@.......@....
    0x40007fe8:   d0 05 00 40 00 00 00 00 d0 05 00 40 00 00 00 00    ...@.......@....
    0x40007ff8:   d0 05 00 40 00 00 00 00 d0 05 00 40 00 00 00 00    ...@.......@....
    0x40008008:   d0 05 00 40 00 00 00 00 d0 05 00 40 00 00 00 00    ...@.......@....
    0x40008018:   d0 05 00 40 00 00 00 00 d0 05 00 40 00 00 00 00    ...@.......@....
    0x40008028:   d0 05 00 40 00 00 00 00 d0 05 00 40 00 00 00 00    ...@.......@....
    0x40008038:   d0 05 00 40 00 00 00 00 d0 05 00 40 00 00 00 00    ...@.......@....
    0x40008048:   d0 05 00 40 00 00 00 00 d0 05 00 40 00 00 00 00    ...@.......@....
    0x40008058:   d0 05 00 40 00 00 00 00 d0 05 00 40 00 00 00 00    ...@.......@....
    0x40008068:   d0 05 00 40 00 00 00 00 d0 05 00 40 00 00 00 00    ...@.......@....
    0x40008078:   d0 05 00 40 00 00 00 00 d0 05 00 40 00 00 00 00    ...@.......@....
    0x40008088:   d0 05 00 40 00 00 00 00 d0 05 00 40 00 00 00 00    ...@.......@....
    0x40008098:   d0 05 00 40 00 00 00 00 d0 05 00 40 00 00 00 00    ...@.......@....
    0x400080a8:   d0 05 00 40 00 00 00 00 d0 05 00 40 00 00 00 00    ...@.......@....
    0x400080b8:   d0 05 00 40 00 00 00 00 d0 05 00 40 00 00 00 00    ...@.......@....
    0x400080c8:   d0 05 00 40 00 00 00 00 d0 05 00 40 00 00 00 00    ...@.......@....
    0x400080d8:   d0 05 00 40 00 00 00 00 d0 05 00 40 00 00 00 00    ...@.......@....
    0x400080e8:   d0 05 00 40 00 00 00 00 d0 05 00 40 00 00 00 00    ...@.......@....
    0x400080f8:   d0 05 00 40 00 00 00 00 d0 05 00 40 00 00 00 00    ...@.......@....
    0x40008108:   d0 05 00 40 00 00 00 00 d0 05 00 40 00 00 00 00    ...@.......@....
    0x40008118:   d0 05 00 40 00 00 00 00 d0 05 00 40 00 00 00 00    ...@.......@....
    0x40008128:   d0 05 00 40 00 00 00 00 d0 05 00 40 00 00 00 00    ...@.......@....
    0x40008138:   d0 05 00 40 00 00 00 00 d0 05 00 40 00 00 00 00    ...@.......@....
    0x40008148:   d0 05 00 40 00 00 00 00 d0 05 00 40 00 00 00 00    ...@.......@....
    0x40008158:   d0 05 00 40 00 00 00 00 d0 05 00 40 00 00 00 00    ...@.......@....
    0x40008168:   d0 05 00 40 00 00 00 00 d0 05 00 40 00 00 00 00    ...@.......@....
    0x40008178:   d0 05 00 40 00 00 00 00 d0 05 00 40 00 00 00 00    ...@.......@....
    0x40008188:   d0 05 00 40 00 00 00 00 d0 05 00 40 00 00 00 00    ...@.......@....
    0x40008198:   d0 05 00 40 00 00 00 00 d0 05 00 40 00 00 00 00    ...@.......@....
    0x400081a8:   d0 05 00 40 00 00 00 00 d0 05 00 40 00 00 00 00    ...@.......@....
    0x400081b8:   d0 05 00 40 00 00 00 00 d0 05 00 40 00 00 00 00    ...@.......@....
    0x400081c8:   d0 05 00 40 00 00 00 00 d0 05 00 40 00 00 00 00    ...@.......@....
    0x400081d8:   d0 05 00 40 00 00 00 00 d0 05 00 40 00 00 00 00    ...@.......@....
    0x400081e8:   d0 05 00 40 00 00 00 00 d0 05 00 40 00 00 00 00    ...@.......@....
    0x400081f8:   d0 05 00 40 00 00 00 00 d0 05 00 40 00 00 00 00    ...@.......@....
    0x40008208:   d0 05 00 40 00 00 00 00 d0 05 00 40 00 00 00 00    ...@.......@....
    0x40008218:   d0 05 00 40 00 00 00 00 d0 05 00 40 00 00 00 00    ...@.......@....
    0x40008228:   d0 05 00 40 00 00 00 00 d0 05 00 40 00 00 00 00    ...@.......@....
    0x40008238:   d0 05 00 40 00 00 00 00 d0 05 00 40 00 00 00 00    ...@.......@....
    0x40008248:   d0 05 00 40 00 00 00 00 d0 05 00 40 00 00 00 00    ...@.......@....
    0x40008258:   d0 05 00 40 00 00 00 00 d0 05 00 40 00 00 00 00    ...@.......@....
    0x40008268:   d0 05 00 40 00 00 00 00 d0 05 00 40 00 00 00 00    ...@.......@....
    0x40008278:   d0 05 00 40 00 00 00 00 d0 05 00 40 00 00 00 00    ...@.......@....
    0x40008288:   d0 05 00 40 00 00 00 00 d0 05 00 40 00 00 00 00    ...@.......@....
    0x40008298:   d0 05 00 40 00 00 00 00 d0 05 00 40 00 00 00 00    ...@.......@....
    0x400082a8:   d0 05 00 40 00 00 00 00 d0 05 00 40 00 00 00 00    ...@.......@....
    0x400082b8:   d0 05 00 40 00 00 00 00 d0 05 00 40 00 00 00 00    ...@.......@....
    0x400082c8:   d0 05 00 40 00 00 00 00 d0 05 00 40 00 00 00 00    ...@.......@....
    0x400082d8:   d0 05 00 40 00 00 00 00 d0 05 00 40 00 00 00 00    ...@.......@....
    0x400082e8:   d0 05 00 40 00 00 00 00 d0 05 00 40 00 00 00 00    ...@.......@....
    0x400082f8:   d0 05 00 40 00 00 00 00 d0 05 00 40 00 00 00 00    ...@.......@....
    0x40008308:   d0 05 00 40 00 00 00 00 d0 05 00 40 00 00 00 00    ...@.......@....
    0x40008318:   d0 05 00 40 00 00 00 00 d0 05 00 40 00 00 00 00    ...@.......@....
    0x40008328:   d0 05 00 40 00 00 00 00 d0 05 00 40 00 00 00 00    ...@.......@....
    0x40008338:   d0 05 00 40 00 00 00 00 d0 05 00 40 00 00 00 00    ...@.......@....
    0x40008348:   d0 05 00 40 00 00 00 00 d0 05 00 40 00 00 00 00    ...@.......@....
    0x40008358:   d0 05 00 40 00 00 00 00 d0 05 00 40 00 00 00 00    ...@.......@....
    0x40008368:   d0 05 00 40 00 00 00 00 d0 05 00 40 00 00 00 00    ...@.......@....
    0x40008378:   d0 05 00 40 00 00 00 00 d0 05 00 40 00 00 00 00    ...@.......@....
    0x40008388:   d0 05 00 40 00 00 00 00 d0 05 00 40 00 00 00 00    ...@.......@....
    0x40008398:   d0 05 00 40 00 00 00 00 d0 05 00 40 00 00 00 00    ...@.......@....
    0x400083a8:   d0 05 00 40 00 00 00 00 d0 05 00 40 00 00 00 00    ...@.......@....
    0x400083b8:   d0 05 00 40 00 00 00 00 d0 05 00 40 00 00 00 00    ...@.......@....
    0x400083c8:   d0 05 00 40 00 00 00 00 d0 05 00 40 00 00 00 00    ...@.......@....
    0x400083d8:   d0 05 00 40 00 00 00 00 d0 05 00 40 00 00 00 00    ...@.......@....
    0x400083e8:   d0 05 00 40 00 00 00 00 d0 05 00 40 00 00 00 00    ...@.......@....
    0x400083f8:   d0 05 00 40 00 00 00 00 d0 05 00 40 00 00 00 00    ...@.......@....
    0x40008408:   d0 05 00 40 00 00 00 00 d0 05 00 40 00 00 00 00    ...@.......@....
    0x40008418:   d0 05 00 40 00 00 00 00 d0 05 00 40 00 00 00 00    ...@.......@....
    0x40008428:   d0 05 00 40 00 00 00 00 d0 05 00 40 00 00 00 00    ...@.......@....
    0x40008438:   d0 05 00 40 00 00 00 00 d0 05 00 40 00 00 00 00    ...@.......@....
    0x40008448:   d0 05 00 40 00 00 00 00 d0 05 00 40 00 00 00 00    ...@.......@....
    0x40008458:   d0 05 00 40 00 00 00 00 d0 05 00 40 00 00 00 00    ...@.......@....
    0x40008468:   d0 05 00 40 00 00 00 00 d0 05 00 40 00 00 00 00    ...@.......@....
    0x40008478:   d0 05 00 40 00 00 00 00 d0 05 00 40 00 00 00 00    ...@.......@....
    0x40008488:   d0 05 00 40 00 00 00 00 d0 05 00 40 00 00 00 00    ...@.......@....
    0x40008498:   d0 05 00 40 00 00 00 00 d0 05 00 40 00 00 00 00    ...@.......@....
    0x400084a8:   d0 05 00 40 00 00 00 00 d0 05 00 40 00 00 00 00    ...@.......@....
    0x400084b8:   d0 05 00 40 00 00 00 00 d0 05 00 40 00 00 00 00    ...@.......@....
    0x400084c8:   d0 05 00 40 00 00 00 00 d0 05 00 40 00 00 00 00    ...@.......@....
    0x400084d8:   d0 05 00 40 00 00 00 00 d0 05 00 40 00 00 00 00    ...@.......@....
    0x400084e8:   d0 05 00 40 00 00 00 00 d0 05 00 40 00 00 00 00    ...@.......@....
    0x400084f8:   d0 05 00 40 00 00 00 00 d0 05 00 40 00 00 00 00    ...@.......@....
    0x40008508:   d0 05 00 40 00 00 00 00 d0 05 00 40 00 00 00 00    ...@.......@....
    0x40008518:   d0 05 00 40 00 00 00 00 d0 05 00 40 00 00 00 00    ...@.......@....
    0x40008528:   d0 05 00 40 00 00 00 00 d0 05 00 40 00 00 00 00    ...@.......@....
    0x40008538:   d0 05 00 40 00 00 00 00 d0 05 00 40 00 00 00 00    ...@.......@....
    0x40008548:   d0 05 00 40 00 00 00 00 d0 05 00 40 00 00 00 00    ...@.......@....
    0x40008558:   d0 05 00 40 00 00 00 00 d0 05 00 40 00 00 00 00    ...@.......@....
    0x40008568:   d0 05 00 40 00 00 00 00 d0 05 00 40 00 00 00 00    ...@.......@....
    0x40008578:   d0 05 00 40 00 00 00 00 d0 05 00 40 00 00 00 00    ...@.......@....
    0x40008588:   d0 05 00 40 00 00 00 00 d0 05 00 40 00 00 00 00    ...@.......@....
    0x40008598:   d0 05 00 40 00 00 00 00 d0 05 00 40 00 00 00 00    ...@.......@....
    0x400085a8:   d0 05 00 40 00 00 00 00 d0 05 00 40 00 00 00 00    ...@.......@....
    0x400085b8:   d0 05 00 40 00 00 00 00 d0 05 00 40 00 00 00 00    ...@.......@....
    0x400085c8:   d0 05 00 40 00 00 00 00 d0 05 00 40 00 00 00 00    ...@.......@....
    0x400085d8:   d0 05 00 40 00 00 00 00 d0 05 00 40 00 00 00 00    ...@.......@....
    0x400085e8:   d0 05 00 40 00 00 00 00 d0 05 00 40 00 00 00 00    ...@.......@....
    0x400085f8:   d0 05 00 40 00 00 00 00 d0 05 00 40 00 00 00 00    ...@.......@....
    0x40008608:   d0 05 00 40 00 00 00 00 d0 05 00 40 00 00 00 00    ...@.......@....
    0x40008618:   d0 05 00 40 00 00 00 00 d0 05 00 40 00 00 00 00    ...@.......@....
    0x40008628:   d0 05 00 40 00 00 00 00 d0 05 00 40 00 00 00 00    ...@.......@....
    0x40008638:   d0 05 00 40 00 00 00 00 d0 05 00 40 00 00 00 00    ...@.......@....
    0x40008648:   d0 05 00 40 00 00 00 00 d0 05 00 40 00 00 00 00    ...@.......@....
    0x40008658:   d0 05 00 40 00 00 00 00 d0 05 00 40 00 00 00 00    ...@.......@....
    0x40008668:   d0 05 00 40 00 00 00 00 d0 05 00 40 00 00 00 00    ...@.......@....
    0x40008678:   d0 05 00 40 00 00 00 00 d0 05 00 40 00 00 00 00    ...@.......@....
    0x40008688:   d0 05 00 40 00 00 00 00 d0 05 00 40 00 00 00 00    ...@.......@....
    0x40008698:   d0 05 00 40 00 00 00 00 d0 05 00 40 00 00 00 00    ...@.......@....
    0x400086a8:   d0 05 00 40 00 00 00 00 d0 05 00 40 00 00 00 00    ...@.......@....
    0x400086b8:   d0 05 00 40 00 00 00 00 d0 05 00 40 00 00 00 00    ...@.......@....
    0x400086c8:   d0 05 00 40 00 00 00 00 d0 05 00 40 00 00 00 00    ...@.......@....
    0x400086d8:   d0 05 00 40 00 00 00 00 d0 05 00 40 00 00 00 00    ...@.......@....
    0x400086e8:   d0 05 00 40 00 00 00 00 d0 05 00 40 00 00 00 00    ...@.......@....
    0x400086f8:   d0 05 00 40 00 00 00 00 d0 05 00 40 00 00 00 00    ...@.......@....
    0x40008708:   d0 05 00 40 00 00 00 00 d0 05 00 40 00 00 00 00    ...@.......@....
    0x40008718:   d0 05 00 40 00 00 00 00 d0 05 00 40 00 00 00 00    ...@.......@....
    0x40008728:   d0 05 00 40 00 00 00 00 d0 05 00 40 00 00 00 00    ...@.......@....
    0x40008738:   d0 05 00 40 00 00 00 00 d0 05 00 40 00 00 00 00    ...@.......@....
    0x40008748:   d0 05 00 40 00 00 00 00 d0 05 00 40 00 00 00 00    ...@.......@....
    0x40008758:   d0 05 00 40 00 00 00 00 d0 05 00 40 00 00 00 00    ...@.......@....
    0x40008768:   d0 05 00 40 00 00 00 00 d0 05 00 40 00 00 00 00    ...@.......@....
    0x40008778:   d0 05 00 40 00 00 00 00 d0 05 00 40 00 00 00 00    ...@.......@....
    0x40008788:   d0 05 00 40 00 00 00 00 d0 05 00 40 00 00 00 00    ...@.......@....
    0x40008798:   d0 05 00 40 00 00 00 00 d0 05 00 40 00 00 00 00    ...@.......@....
    0x400087a8:   d0 05 00 40 00 00 00 00 d0 05 00 40 00 00 00 00    ...@.......@....
    0x400087b8:   d0 05 00 40 00 00 00 00 d0 05 00 40 00 00 00 00    ...@.......@....
    0x400087c8:   d0 05 00 40 00 00 00 00 d0 05 00 40 00 00 00 00    ...@.......@....
    0x400087d8:   d0 05 00 40 00 00 00 00 d0 05 00 40 00 00 00 00    ...@.......@....
    0x400087e8:   d0 05 00 40 00 00 00 00 d0 05 00 40 00 00 00 00    ...@.......@....
    0x400087f8:   d0 05 00 40 00 00 00 00 d0 05 00 40 00 00 00 00    ...@.......@....
    0x40008808:   d0 05 00 40 00 00 00 00 d0 05 00 40 00 00 00 00    ...@.......@....
    0x40008818:   d0 05 00 40 00 00 00 00 d0 05 00 40 00 00 00 00    ...@.......@....
    0x40008828:   d0 05 00 40 00 00 00 00 d0 05 00 40 00 00 00 00    ...@.......@....
    0x40008838:   d0 05 00 40 00 00 00 00 d0 05 00 40 00 00 00 00    ...@.......@....
    0x40008848:   d0 05 00 40 00 00 00 00 d0 05 00 40 00 00 00 00    ...@.......@....
    0x40008858:   d0 05 00 40 00 00 00 00 d0 05 00 40 00 00 00 00    ...@.......@....
    0x40008868:   d0 05 00 40 00 00 00 00 d0 05 00 40 00 00 00 00    ...@.......@....
    0x40008878:   d0 05 00 40 00 00 00 00 d0 05 00 40 00 00 00 00    ...@.......@....
    0x40008888:   d0 05 00 40 00 00 00 00 d0 05 00 40 00 00 00 00    ...@.......@....
    0x40008898:   d0 05 00 40 00 00 00 00 d0 05 00 40 00 00 00 00    ...@.......@....
    0x400088a8:   d0 05 00 40 00 00 00 00 d0 05 00 40 00 00 00 00    ...@.......@....
    0x400088b8:   d0 05 00 40 00 00 00 00 d0 05 00 40 00 00 00 00    ...@.......@....
    0x400088c8:   d0 05 00 40 00 00 00 00 d0 05 00 40 00 00 00 00    ...@.......@....
    0x400088d8:   d0 05 00 40 00 00 00 00 d0 05 00 40 00 00 00 00    ...@.......@....
    0x400088e8:   d0 05 00 40 00 00 00 00 d0 05 00 40 00 00 00 00    ...@.......@....
    0x400088f8:   d0 05 00 40 00 00 00 00 d0 05 00 40 00 00 00 00    ...@.......@....
    0x40008908:   d0 05 00 40 00 00 00 00 d0 05 00 40 00 00 00 00    ...@.......@....
    0x40008918:   d0 05 00 40 00 00 00 00 d0 05 00 40 00 00 00 00    ...@.......@....
    0x40008928:   d0 05 00 40 00 00 00 00 d0 05 00 40 00 00 00 00    ...@.......@....
    0x40008938:   d0 05 00 40 00 00 00 00 d0 05 00 40 00 00 00 00    ...@.......@....
    0x40008948:   d0 05 00 40 00 00 00 00 d0 05 00 40 00 00 00 00    ...@.......@....
    0x40008958:   d0 05 00 40 00 00 00 00 d0 05 00 40 00 00 00 00    ...@.......@....
    0x40008968:   d0 05 00 40 00 00 00 00 d0 05 00 40 00 00 00 00    ...@.......@....
    0x40008978:   d0 05 00 40 00 00 00 00 d0 05 00 40 00 00 00 00    ...@.......@....
    0x40008988:   d0 05 00 40 00 00 00 00 d0 05 00 40 00 00 00 00    ...@.......@....
    0x40008998:   d0 05 00 40 00 00 00 00 d0 05 00 40 00 00 00 00    ...@.......@....
    0x400089a8:   d0 05 00 40 00 00 00 00 d0 05 00 40 00 00 00 00    ...@.......@....
    0x400089b8:   d0 05 00 40 00 00 00 00 d0 05 00 40 00 00 00 00    ...@.......@....
    0x400089c8:   d0 05 00 40 00 00 00 00 d0 05 00 40 00 00 00 00    ...@.......@....
    0x400089d8:   d0 05 00 40 00 00 00 00 d0 05 00 40 00 00 00 00    ...@.......@....
    0x400089e8:   d0 05 00 40 00 00 00 00 d0 05 00 40 00 00 00 00    ...@.......@....
    0x400089f8:   d0 05 00 40 00 00 00 00 d0 05 00 40 00 00 00 00    ...@.......@....
    0x40008a08:   d0 05 00 40 00 00 00 00 d0 05 00 40 00 00 00 00    ...@.......@....
    0x40008a18:   d0 05 00 40 00 00 00 00 d0 05 00 40 00 00 00 00    ...@.......@....
    0x40008a28:   d0 05 00 40 00 00 00 00 d0 05 00 40 00 00 00 00    ...@.......@....
    0x40008a38:   d0 05 00 40 00 00 00 00 d0 05 00 40 00 00 00 00    ...@.......@....
    0x40008a48:   d0 05 00 40 00 00 00 00 d0 05 00 40 00 00 00 00    ...@.......@....
    0x40008a58:   d0 05 00 40 00 00 00 00 d0 05 00 40 00 00 00 00    ...@.......@....
    0x40008a68:   d0 05 00 40 00 00 00 00 d0 05 00 40 00 00 00 00    ...@.......@....
    0x40008a78:   d0 05 00 40 00 00 00 00 d0 05 00 40 00 00 00 00    ...@.......@....
    0x40008a88:   d0 05 00 40 00 00 00 00 d0 05 00 40 00 00 00 00    ...@.......@....
    0x40008a98:   d0 05 00 40 00 00 00 00 d0 05 00 40 00 00 00 00    ...@.......@....
    0x40008aa8:   d0 05 00 40 00 00 00 00 d0 05 00 40 00 00 00 00    ...@.......@....
    0x40008ab8:   d0 05 00 40 00 00 00 00 d0 05 00 40 00 00 00 00    ...@.......@....
    0x40008ac8:   d0 05 00 40 00 00 00 00 d0 05 00 40 00 00 00 00    ...@.......@....
    0x40008ad8:   d0 05 00 40 00 00 00 00 d0 05 00 40 00 00 00 00    ...@.......@....
    0x40008ae8:   d0 05 00 40 00 00 00 00 d0 05 00 40 00 00 00 00    ...@.......@....
    0x40008af8:   d0 05 00 40 00 00 00 00 d0 05 00 40 00 00 00 00    ...@.......@....
    0x40008b08:   d0 05 00 40 00 00 00 00 d0 05 00 40 00 00 00 00    ...@.......@....
    0x40008b18:   d0 05 00 40 00 00 00 00 d0 05 00 40 00 00 00 00    ...@.......@....
    0x40008b28:   d0 05 00 40 00 00 00 00 d0 05 00 40 00 00 00 00    ...@.......@....
    0x40008b38:   d0 05 00 40 00 00 00 00 d0 05 00 40 00 00 00 00    ...@.......@....
    0x40008b48:   d0 05 00 40 00 00 00 00 d0 05 00 40 00 00 00 00    ...@.......@....
    0x40008b58:   d0 05 00 40 00 00 00 00 d0 05 00 40 00 00 00 00    ...@.......@....
    0x40008b68:   d0 05 00 40 00 00 00 00 d0 05 00 40 00 00 00 00    ...@.......@....
    0x40008b78:   d0 05 00 40 00 00 00 00 d0 05 00 40 00 00 00 00    ...@.......@....
    0x40008b88:   d0 05 00 40 00 00 00 00 d0 05 00 40 00 00 00 00    ...@.......@....
    0x40008b98:   d0 05 00 40 00 00 00 00 d0 05 00 40 00 00 00 00    ...@.......@....
    0x40008ba8:   d0 05 00 40 00 00 00 00 d0 05 00 40 00 00 00 00    ...@.......@....
    0x40008bb8:   d0 05 00 40 00 00 00 00 d0 05 00 40 00 00 00 00    ...@.......@....
    0x40008bc8:   d0 05 00 40 00 00 00 00 d0 05 00 40 00 00 00 00    ...@.......@....
    0x40008bd8:   d0 05 00 40 00 00 00 00 d0 05 00 40 00 00 00 00    ...@.......@....
    0x40008be8:   d0 05 00 40 00 00 00 00 d0 05 00 40 00 00 00 00    ...@.......@....
    0x40008bf8:   d0 05 00 40 00 00 00 00 d0 05 00 40 00 00 00 00    ...@.......@....
    0x40008c08:   d0 05 00 40 00 00 00 00 d0 05 00 40 00 00 00 00    ...@.......@....
    0x40008c18:   d0 05 00 40 00 00 00 00 d0 05 00 40 00 00 00 00    ...@.......@....
    0x40008c28:   d0 05 00 40 00 00 00 00 d0 05 00 40 00 00 00 00    ...@.......@....
    0x40008c38:   d0 05 00 40 00 00 00 00 d0 05 00 40 00 00 00 00    ...@.......@....
    0x40008c48:   d0 05 00 40 00 00 00 00 d0 05 00 40 00 00 00 00    ...@.......@....
    0x40008c58:   d0 05 00 40 00 00 00 00 d0 05 00 40 00 00 00 00    ...@.......@....
    0x40008c68:   d0 05 00 40 00 00 00 00 d0 05 00 40 00 00 00 00    ...@.......@....
    0x40008c78:   d0 05 00 40 00 00 00 00 d0 05 00 40 00 00 00 00    ...@.......@....
    0x40008c88:   d0 05 00 40 00 00 00 00 d0 05 00 40 00 00 00 00    ...@.......@....
    0x40008c98:   d0 05 00 40 00 00 00 00 d0 05 00 40 00 00 00 00    ...@.......@....
    0x40008ca8:   d0 05 00 40 00 00 00 00 d0 05 00 40 00 00 00 00    ...@.......@....
    0x40008cb8:   d0 05 00 40 00 00 00 00 d0 05 00 40 00 00 00 00    ...@.......@....
    0x40008cc8:   d0 05 00 40 00 00 00 00 d0 05 00 40 00 00 00 00    ...@.......@....
    0x40008cd8:   d0 05 00 40 00 00 00 00 d0 05 00 40 00 00 00 00    ...@.......@....
    0x40008ce8:   d0 05 00 40 00 00 00 00 d0 05 00 40 00 00 00 00    ...@.......@....
    0x40008cf8:   d0 05 00 40 00 00 00 00 d0 05 00 40 00 00 00 00    ...@.......@....
    0x40008d08:   d0 05 00 40 00 00 00 00 d0 05 00 40 00 00 00 00    ...@.......@....
    0x40008d18:   d0 05 00 40 00 00 00 00 d0 05 00 40 00 00 00 00    ...@.......@....
    0x40008d28:   d0 05 00 40 00 00 00 00 d0 05 00 40 00 00 00 00    ...@.......@....
    0x40008d38:   d0 05 00 40 00 00 00 00 d0 05 00 40 00 00 00 00    ...@.......@....
    0x40008d48:   d0 05 00 40 00 00 00 00 d0 05 00 40 00 00 00 00    ...@.......@....
    0x40008d58:   d0 05 00 40 00 00 00 00 d0 05 00 40 00 00 00 00    ...@.......@....
    0x40008d68:   d0 05 00 40 00 00 00 00 d0 05 00 40 00 00 00 00    ...@.......@....
    0x40008d78:   d0 05 00 40 00 00 00 00 d0 05 00 40 00 00 00 00    ...@.......@....
    0x40008d88:   d0 05 00 40 00 00 00 00 d0 05 00 40 00 00 00 00    ...@.......@....
    0x40008d98:   d0 05 00 40 00 00 00 00 d0 05 00 40 00 00 00 00    ...@.......@....
    0x40008da8:   d0 05 00 40 00 00 00 00 d0 05 00 40 00 00 00 00    ...@.......@....
    0x40008db8:   d0 05 00 40 00 00 00 00 d0 05 00 40 00 00 00 00    ...@.......@....
    0x40008dc8:   d0 05 00 40 00 00 00 00 d0 05 00 40 00 00 00 00    ...@.......@....
    0x40008dd8:   d0 05 00 40 00 00 00 00 d0 05 00 40 00 00 00 00    ...@.......@....
    0x40008de8:   d0 05 00 40 00 00 00 00 d0 05 00 40 00 00 00 00    ...@.......@....
    0x40008df8:   d0 05 00 40 00 00 00 00 d0 05 00 40 00 00 00 00    ...@.......@....
    0x40008e08:   d0 05 00 40 00 00 00 00 d0 05 00 40 00 00 00 00    ...@.......@....
    0x40008e18:   d0 05 00 40 00 00 00 00 d0 05 00 40 00 00 00 00    ...@.......@....
    0x40008e28:   d0 05 00 40 00 00 00 00 d0 05 00 40 00 00 00 00    ...@.......@....
    0x40008e38:   d0 05 00 40 00 00 00 00 d0 05 00 40 00 00 00 00    ...@.......@....
    0x40008e48:   d0 05 00 40 00 00 00 00 d0 05 00 40 00 00 00 00    ...@.......@....
    0x40008e58:   d0 05 00 40 00 00 00 00 d0 05 00 40 00 00 00 00    ...@.......@....
    0x40008e68:   d0 05 00 40 00 00 00 00 d0 05 00 40 00 00 00 00    ...@.......@....
    0x40008e78:   d0 05 00 40 00 00 00 00 d0 05 00 40 00 00 00 00    ...@.......@....
    0x40008e88:   d0 05 00 40 00 00 00 00 d0 05 00 40 00 00 00 00    ...@.......@....
    0x40008e98:   d0 05 00 40 00 00 00 00 d0 05 00 40 00 00 00 00    ...@.......@....
    0x40008ea8:   d0 05 00 40 00 00 00 00 d0 05 00 40 00 00 00 00    ...@.......@....
    0x40008eb8:   d0 05 00 40 00 00 00 00 d0 05 00 40 00 00 00 00    ...@.......@....
    0x40008ec8:   d0 05 00 40 00 00 00 00 d0 05 00 40 00 00 00 00    ...@.......@....
    0x40008ed8:   d0 05 00 40 00 00 00 00 d0 05 00 40 00 00 00 00    ...@.......@....
    0x40008ee8:   d0 05 00 40 00 00 00 00 d0 05 00 40 00 00 00 00    ...@.......@....
    0x40008ef8:   d0 05 00 40 00 00 00 00 d0 05 00 40 00 00 00 00    ...@.......@....
    0x40008f08:   d0 05 00 40 00 00 00 00 d0 05 00 40 00 00 00 00    ...@.......@....
    0x40008f18:   d0 05 00 40 00 00 00 00 d0 05 00 40 00 00 00 00    ...@.......@....
    0x40008f28:   d0 05 00 40 00 00 00 00 d0 05 00 40 00 00 00 00    ...@.......@....
    0x40008f38:   d0 05 00 40 00 00 00 00 d0 05 00 40 00 00 00 00    ...@.......@....
    0x40008f48:   d0 05 00 40 00 00 00 00 d0 05 00 40 00 00 00 00    ...@.......@....
    0x40008f58:   d0 05 00 40 00 00 00 00 d0 05 00 40 00 00 00 00    ...@.......@....
    0x40008f68:   d0 05 00 40 00 00 00 00 d0 05 00 40 00 00 00 00    ...@.......@....
    0x40008f78:   d0 05 00 40 00 00 00 00 d0 05 00 40 00 00 00 00    ...@.......@....
    0x40008f88:   d0 05 00 40 00 00 00 00 d0 05 00 40 00 00 00 00    ...@.......@....
    0x40008f98:   d0 05 00 40 00 00 00 00 d0 05 00 40 00 00 00 00    ...@.......@....
    0x40008fa8:   d0 05 00 40 00 00 00 00 d0 05 00 40 00 00 00 00    ...@.......@....
    0x40008fb8:   d0 05 00 40 00 00 00 00 d0 05 00 40 00 00 00 00    ...@.......@....
    0x40008fc8:   d0 05 00 40 00 00 00 00 d0 05 00 40 00 00 00 00    ...@.......@....
    0x40008fd8:   d0 05 00 40 00 00 00 00 d0 05 00 40 00 00 00 00    ...@.......@....
    0x40008fe8:   d0 05 00 40 00 00 00 00 d0 05 00 40 00 00 00 00    ...@.......@....
    0x40008ff8:   d0 05 00 40 00 00 00 00 d0 05 00 40 00 00 00 00    ...@.......@....
    0x40009008:   d0 05 00 40 00 00 00 00 d0 05 00 40 00 00 00 00    ...@.......@....
    0x40009018:   d0 05 00 40 00 00 00 00 d0 05 00 40 00 00 00 00    ...@.......@....
    0x40009028:   d0 05 00 40 00 00 00 00 d0 05 00 40 00 00 00 00    ...@.......@....
    0x40009038:   d0 05 00 40 00 00 00 00 d0 05 00 40 00 00 00 00    ...@.......@....
    0x40009048:   d0 05 00 40 00 00 00 00 d0 05 00 40 00 00 00 00    ...@.......@....
    0x40009058:   d0 05 00 40 00 00 00 00 d0 05 00 40 00 00 00 00    ...@.......@....
    0x40009068:   d0 05 00 40 00 00 00 00 d0 05 00 40 00 00 00 00    ...@.......@....
    0x40009078:   d0 05 00 40 00 00 00 00 d0 05 00 40 00 00 00 00    ...@.......@....
    0x40009088:   d0 05 00 40 00 00 00 00 d0 05 00 40 00 00 00 00    ...@.......@....
    0x40009098:   d0 05 00 40 00 00 00 00 d0 05 00 40 00 00 00 00    ...@.......@....
    0x400090a8:   d0 05 00 40 00 00 00 00 d0 05 00 40 00 00 00 00    ...@.......@....
    0x400090b8:   d0 05 00 40 00 00 00 00 d0 05 00 40 00 00 00 00    ...@.......@....
    0x400090c8:   d0 05 00 40 00 00 00 00 d0 05 00 40 00 00 00 00    ...@.......@....
    0x400090d8:   d0 05 00 40 00 00 00 00 d0 05 00 40 00 00 00 00    ...@.......@....
    0x400090e8:   d0 05 00 40 00 00 00 00 d0 05 00 40 00 00 00 00    ...@.......@....
    0x400090f8:   d0 05 00 40 00 00 00 00 d0 05 00 40 00 00 00 00    ...@.......@....
    0x40009108:   d0 05 00 40 00 00 00 00 d0 05 00 40 00 00 00 00    ...@.......@....
    0x40009118:   d0 05 00 40 00 00 00 00 d0 05 00 40 00 00 00 00    ...@.......@....
    0x40009128:   d0 05 00 40 00 00 00 00 d0 05 00 40 00 00 00 00    ...@.......@....
    0x40009138:   d0 05 00 40 00 00 00 00 d0 05 00 40 00 00 00 00    ...@.......@....
    0x40009148:   d0 05 00 40 00 00 00 00 d0 05 00 40 00 00 00 00    ...@.......@....
    0x40009158:   d0 05 00 40 00 00 00 00 d0 05 00 40 00 00 00 00    ...@.......@....
    0x40009168:   d0 05 00 40 00 00 00 00 d0 05 00 40 00 00 00 00    ...@.......@....
    0x40009178:   d0 05 00 40 00 00 00 00 d0 05 00 40 00 00 00 00    ...@.......@....
    0x40009188:   d0 05 00 40 00 00 00 00 d0 05 00 40 00 00 00 00    ...@.......@....
    0x40009198:   d0 05 00 40 00 00 00 00 d0 05 00 40 00 00 00 00    ...@.......@....
    0x400091a8:   d0 05 00 40 00 00 00 00 d0 05 00 40 00 00 00 00    ...@.......@....
    0x400091b8:   d0 05 00 40 00 00 00 00 d0 05 00 40 00 00 00 00    ...@.......@....
    0x400091c8:   d0 05 00 40 00 00 00 00 d0 05 00 40 00 00 00 00    ...@.......@....
    0x400091d8:   d0 05 00 40 00 00 00 00 d0 05 00 40 00 00 00 00    ...@.......@....
    0x400091e8:   d0 05 00 40 00 00 00 00 d0 05 00 40 00 00 00 00    ...@.......@....
    0x400091f8:   d0 05 00 40 00 00 00 00 d0 05 00 40 00 00 00 00    ...@.......@....
    0x40009208:   d0 05 00 40 00 00 00 00 d0 05 00 40 00 00 00 00    ...@.......@....
    0x40009218:   d0 05 00 40 00 00 00 00 d0 05 00 40 00 00 00 00    ...@.......@....
    0x40009228:   d0 05 00 40 00 00 00 00 d0 05 00 40 00 00 00 00    ...@.......@....
    0x40009238:   d0 05 00 40 00 00 00 00 d0 05 00 40 00 00 00 00    ...@.......@....
    0x40009248:   d0 05 00 40 00 00 00 00 d0 05 00 40 00 00 00 00    ...@.......@....
    0x40009258:   d0 05 00 40 00 00 00 00 d0 05 00 40 00 00 00 00    ...@.......@....
    0x40009268:   d0 05 00 40 00 00 00 00 d0 05 00 40 00 00 00 00    ...@.......@....
    0x40009278:   d0 05 00 40 00 00 00 00 d0 05 00 40 00 00 00 00    ...@.......@....
    0x40009288:   d0 05 00 40 00 00 00 00 d0 05 00 40 00 00 00 00    ...@.......@....
    0x40009298:   d0 05 00 40 00 00 00 00 d0 05 00 40 00 00 00 00    ...@.......@....
    0x400092a8:   d0 05 00 40 00 00 00 00 d0 05 00 40 00 00 00 00    ...@.......@....
    0x400092b8:   d0 05 00 40 00 00 00 00 d0 05 00 40 00 00 00 00    ...@.......@....
    0x400092c8:   d0 05 00 40 00 00 00 00 d0 05 00 40 00 00 00 00    ...@.......@....
    0x400092d8:   d0 05 00 40 00 00 00 00 d0 05 00 40 00 00 00 00    ...@.......@....
    0x400092e8:   d0 05 00 40 00 00 00 00 d0 05 00 40 00 00 00 00    ...@.......@....
    0x400092f8:   d0 05 00 40 00 00 00 00 d0 05 00 40 00 00 00 00    ...@.......@....
    0x40009308:   d0 05 00 40 00 00 00 00 d0 05 00 40 00 00 00 00    ...@.......@....
    0x40009318:   d0 05 00 40 00 00 00 00 d0 05 00 40 00 00 00 00    ...@.......@....
    0x40009328:   d0 05 00 40 00 00 00 00 d0 05 00 40 00 00 00 00    ...@.......@....
    0x40009338:   d0 05 00 40 00 00 00 00 d0 05 00 40 00 00 00 00    ...@.......@....
    0x40009348:   d0 05 00 40 00 00 00 00 d0 05 00 40 00 00 00 00    ...@.......@....
    0x40009358:   d0 05 00 40 00 00 00 00 d0 05 00 40 00 00 00 00    ...@.......@....
    0x40009368:   d0 05 00 40 00 00 00 00 d0 05 00 40 00 00 00 00    ...@.......@....
    0x40009378:   d0 05 00 40 00 00 00 00 d0 05 00 40 00 00 00 00    ...@.......@....
    0x40009388:   d0 05 00 40 00 00 00 00 d0 05 00 40 00 00 00 00    ...@.......@....
    0x40009398:   d0 05 00 40 00 00 00 00 d0 05 00 40 00 00 00 00    ...@.......@....
    0x400093a8:   d0 05 00 40 00 00 00 00 d0 05 00 40 00 00 00 00    ...@.......@....
    0x400093b8:   d0 05 00 40 00 00 00 00 d0 05 00 40 00 00 00 00    ...@.......@....
    0x400093c8:   d0 05 00 40 00 00 00 00 d0 05 00 40 00 00 00 00    ...@.......@....
    0x400093d8:   d0 05 00 40 00 00 00 00 d0 05 00 40 00 00 00 00    ...@.......@....
    0x400093e8:   d0 05 00 40 00 00 00 00 d0 05 00 40 00 00 00 00    ...@.......@....
    0x400093f8:   d0 05 00 40 00 00 00 00 d0 05 00 40 00 00 00 00    ...@.......@....
    0x40009408:   d0 05 00 40 00 00 00 00 d0 05 00 40 00 00 00 00    ...@.......@....
    0x40009418:   d0 05 00 40 00 00 00 00 d0 05 00 40 00 00 00 00    ...@.......@....
    0x40009428:   d0 05 00 40 00 00 00 00 d0 05 00 40 00 00 00 00    ...@.......@....
    0x40009438:   d0 05 00 40 00 00 00 00 d0 05 00 40 00 00 00 00    ...@.......@....
    0x40009448:   d0 05 00 40 00 00 00 00 d0 05 00 40 00 00 00 00    ...@.......@....
    0x40009458:   d0 05 00 40 00 00 00 00 d0 05 00 40 00 00 00 00    ...@.......@....
    0x40009468:   d0 05 00 40 00 00 00 00 d0 05 00 40 00 00 00 00    ...@.......@....
    0x40009478:   d0 05 00 40 00 00 00 00 d0 05 00 40 00 00 00 00    ...@.......@....
    0x40009488:   d0 05 00 40 00 00 00 00 d0 05 00 40 00 00 00 00    ...@.......@....
    0x40009498:   d0 05 00 40 00 00 00 00 d0 05 00 40 00 00 00 00    ...@.......@....
    0x400094a8:   d0 05 00 40 00 00 00 00 d0 05 00 40 00 00 00 00    ...@.......@....
    0x400094b8:   d0 05 00 40 00 00 00 00 d0 05 00 40 00 00 00 00    ...@.......@....
    0x400094c8:   d0 05 00 40 00 00 00 00 d0 05 00 40 00 00 00 00    ...@.......@....
    0x400094d8:   d0 05 00 40 00 00 00 00 d0 05 00 40 00 00 00 00    ...@.......@....
    0x400094e8:   d0 05 00 40 00 00 00 00 d0 05 00 40 00 00 00 00    ...@.......@....
    0x400094f8:   d0 05 00 40 00 00 00 00 d0 05 00 40 00 00 00 00    ...@.......@....
    0x40009508:   d0 05 00 40 00 00 00 00 d0 05 00 40 00 00 00 00    ...@.......@....
    0x40009518:   d0 05 00 40 00 00 00 00 d0 05 00 40 00 00 00 00    ...@.......@....
    0x40009528:   d0 05 00 40 00 00 00 00 d0 05 00 40 00 00 00 00    ...@.......@....
    0x40009538:   d0 05 00 40 00 00 00 00 d0 05 00 40 00 00 00 00    ...@.......@....
    0x40009548:   d0 05 00 40 00 00 00 00 d0 05 00 40 00 00 00 00    ...@.......@....
    0x40009558:   d0 05 00 40 00 00 00 00 d0 05 00 40 00 00 00 00    ...@.......@....
    0x40009568:   d0 05 00 40 00 00 00 00 d0 05 00 40 00 00 00 00    ...@.......@....
    0x40009578:   d0 05 00 40 00 00 00 00 d0 05 00 40 00 00 00 00    ...@.......@....
    0x40009588:   d0 05 00 40 00 00 00 00 d0 05 00 40 00 00 00 00    ...@.......@....
    0x40009598:   d0 05 00 40 00 00 00 00 d0 05 00 40 00 00 00 00    ...@.......@....
    0x400095a8:   d0 05 00 40 00 00 00 00 d0 05 00 40 00 00 00 00    ...@.......@....
    0x400095b8:   d0 05 00 40 00 00 00 00 d0 05 00 40 00 00 00 00    ...@.......@....
    0x400095c8:   d0 05 00 40 00 00 00 00 d0 05 00 40 00 00 00 00    ...@.......@....
    0x400095d8:   d0 05 00 40 00 00 00 00 d0 05 00 40 00 00 00 00    ...@.......@....
    0x400095e8:   d0 05 00 40 00 00 00 00 d0 05 00 40 00 00 00 00    ...@.......@....
    0x400095f8:   d0 05 00 40 00 00 00 00 d0 05 00 40 00 00 00 00    ...@.......@....
    0x40009608:   d0 05 00 40 00 00 00 00 d0 05 00 40 00 00 00 00    ...@.......@....
    0x40009618:   d0 05 00 40 00 00 00 00 d0 05 00 40 00 00 00 00    ...@.......@....
    0x40009628:   d0 05 00 40 00 00 00 00 d0 05 00 40 00 00 00 00    ...@.......@....
    0x40009638:   d0 05 00 40 00 00 00 00 d0 05 00 40 00 00 00 00    ...@.......@....
    0x40009648:   d0 05 00 40 00 00 00 00 d0 05 00 40 00 00 00 00    ...@.......@....
    0x40009658:   d0 05 00 40 00 00 00 00 d0 05 00 40 00 00 00 00    ...@.......@....
    0x40009668:   d0 05 00 40 00 00 00 00 d0 05 00 40 00 00 00 00    ...@.......@....
    0x40009678:   d0 05 00 40 00 00 00 00 d0 05 00 40 00 00 00 00    ...@.......@....
    0x40009688:   d0 05 00 40 00 00 00 00 d0 05 00 40 00 00 00 00    ...@.......@....
    0x40009698:   d0 05 00 40 00 00 00 00 d0 05 00 40 00 00 00 00    ...@.......@....
    0x400096a8:   d0 05 00 40 00 00 00 00 d0 05 00 40 00 00 00 00    ...@.......@....
    0x400096b8:   d0 05 00 40 00 00 00 00 d0 05 00 40 00 00 00 00    ...@.......@....
    0x400096c8:   d0 05 00 40 00 00 00 00 d0 05 00 40 00 00 00 00    ...@.......@....
    0x400096d8:   d0 05 00 40 00 00 00 00 d0 05 00 40 00 00 00 00    ...@.......@....
    0x400096e8:   d0 05 00 40 00 00 00 00 d0 05 00 40 00 00 00 00    ...@.......@....
    0x400096f8:   d0 05 00 40 00 00 00 00 d0 05 00 40 00 00 00 00    ...@.......@....
    0x40009708:   d0 05 00 40 00 00 00 00 d0 05 00 40 00 00 00 00    ...@.......@....
    0x40009718:   d0 05 00 40 00 00 00 00 d0 05 00 40 00 00 00 00    ...@.......@....
    0x40009728:   d0 05 00 40 00 00 00 00 d0 05 00 40 00 00 00 00    ...@.......@....
    0x40009738:   d0 05 00 40 00 00 00 00 d0 05 00 40 00 00 00 00    ...@.......@....
    0x40009748:   d0 05 00 40 00 00 00 00 d0 05 00 40 00 00 00 00    ...@.......@....
    0x40009758:   d0 05 00 40 00 00 00 00 d0 05 00 40 00 00 00 00    ...@.......@....
    0x40009768:   d0 05 00 40 00 00 00 00 d0 05 00 40 00 00 00 00    ...@.......@....
    0x40009778:   d0 05 00 40 00 00 00 00 d0 05 00 40 00 00 00 00    ...@.......@....
    0x40009788:   d0 05 00 40 00 00 00 00 d0 05 00 40 00 00 00 00    ...@.......@....
    0x40009798:   d0 05 00 40 00 00 00 00 d0 05 00 40 00 00 00 00    ...@.......@....
    0x400097a8:   d0 05 00 40 00 00 00 00 d0 05 00 40 00 00 00 00    ...@.......@....
    0x400097b8:   d0 05 00 40 00 00 00 00 d0 05 00 40 00 00 00 00    ...@.......@....
    0x400097c8:   d0 05 00 40 00 00 00 00 d0 05 00 40 00 00 00 00    ...@.......@....
    0x400097d8:   d0 05 00 40 00 00 00 00 d0 05 00 40 00 00 00 00    ...@.......@....
    0x400097e8:   d0 05 00 40 00 00 00 00 d0 05 00 40 00 00 00 00    ...@.......@....
    0x400097f8:   d0 05 00 40 00 00 00 00 d0 05 00 40 00 00 00 00    ...@.......@....
    0x40009808:   d0 05 00 40 00 00 00 00 d0 05 00 40 00 00 00 00    ...@.......@....
    0x40009818:   d0 05 00 40 00 00 00 00 d0 05 00 40 00 00 00 00    ...@.......@....
    0x40009828:   d0 05 00 40 00 00 00 00 d0 05 00 40 00 00 00 00    ...@.......@....
    0x40009838:   d0 05 00 40 00 00 00 00 d0 05 00 40 00 00 00 00    ...@.......@....
    0x40009848:   d0 05 00 40 00 00 00 00 d0 05 00 40 00 00 00 00    ...@.......@....
    0x40009858:   d0 05 00 40 00 00 00 00 d0 05 00 40 00 00 00 00    ...@.......@....
    0x40009868:   d0 05 00 40 00 00 00 00 d0 05 00 40 00 00 00 00    ...@.......@....
    0x40009878:   d0 05 00 40 00 00 00 00 d0 05 00 40 00 00 00 00    ...@.......@....
    0x40009888:   d0 05 00 40 00 00 00 00 d0 05 00 40 00 00 00 00    ...@.......@....
    0x40009898:   d0 05 00 40 00 00 00 00 d0 05 00 40 00 00 00 00    ...@.......@....
    0x400098a8:   d0 05 00 40 00 00 00 00 d0 05 00 40 00 00 00 00    ...@.......@....
    0x400098b8:   d0 05 00 40 00 00 00 00 d0 05 00 40 00 00 00 00    ...@.......@....
    0x400098c8:   d0 05 00 40 00 00 00 00 d0 05 00 40 00 00 00 00    ...@.......@....
    0x400098d8:   d0 05 00 40 00 00 00 00 d0 05 00 40 00 00 00 00    ...@.......@....
    0x400098e8:   d0 05 00 40 00 00 00 00 d0 05 00 40 00 00 00 00    ...@.......@....
    0x400098f8:   d0 05 00 40 00 00 00 00 d0 05 00 40 00 00 00 00    ...@.......@....
    0x40009908:   d0 05 00 40 00 00 00 00 d0 05 00 40 00 00 00 00    ...@.......@....
    0x40009918:   d0 05 00 40 00 00 00 00 d0 05 00 40 00 00 00 00    ...@.......@....
    0x40009928:   d0 05 00 40 00 00 00 00 d0 05 00 40 00 00 00 00    ...@.......@....
    0x40009938:   d0 05 00 40 00 00 00 00 d0 05 00 40 00 00 00 00    ...@.......@....
    0x40009948:   d0 05 00 40 00 00 00 00 d0 05 00 40 00 00 00 00    ...@.......@....
    0x40009958:   d0 05 00 40 00 00 00 00 d0 05 00 40 00 00 00 00    ...@.......@....
    0x40009968:   d0 05 00 40 00 00 00 00 d0 05 00 40 00 00 00 00    ...@.......@....
    0x40009978:   d0 05 00 40 00 00 00 00 d0 05 00 40 00 00 00 00    ...@.......@....
    0x40009988:   d0 05 00 40 00 00 00 00 d0 05 00 40 00 00 00 00    ...@.......@....
    0x40009998:   d0 05 00 40 00 00 00 00 d0 05 00 40 00 00 00 00    ...@.......@....
    0x400099a8:   d0 05 00 40 00 00 00 00 d0 05 00 40 00 00 00 00    ...@.......@....
    0x400099b8:   d0 05 00 40 00 00 00 00 d0 05 00 40 00 00 00 00    ...@.......@....
    0x400099c8:   d0 05 00 40 00 00 00 00 d0 05 00 40 00 00 00 00    ...@.......@....
    0x400099d8:   d0 05 00 40 00 00 00 00 d0 05 00 40 00 00 00 00    ...@.......@....
    0x400099e8:   d0 05 00 40 00 00 00 00 d0 05 00 40 00 00 00 00    ...@.......@....
    0x400099f8:   d0 05 00 40 00 00 00 00 d0 05 00 40 00 00 00 00    ...@.......@....
    0x40009a08:   d0 05 00 40 00 00 00 00 d0 05 00 40 00 00 00 00    ...@.......@....
    0x40009a18:   d0 05 00 40 00 00 00 00 d0 05 00 40 00 00 00 00    ...@.......@....
    0x40009a28:   d0 05 00 40 00 00 00 00 d0 05 00 40 00 00 00 00    ...@.......@....
    0x40009a38:   d0 05 00 40 00 00 00 00 d0 05 00 40 00 00 00 00    ...@.......@....
    0x40009a48:   d0 05 00 40 00 00 00 00 d0 05 00 40 00 00 00 00    ...@.......@....
    0x40009a58:   d0 05 00 40 00 00 00 00 d0 05 00 40 00 00 00 00    ...@.......@....
    0x40009a68:   d0 05 00 40 00 00 00 00 d0 05 00 40 00 00 00 00    ...@.......@....
    0x40009a78:   d0 05 00 40 00 00 00 00 d0 05 00 40 00 00 00 00    ...@.......@....
    0x40009a88:   d0 05 00 40 00 00 00 00 d0 05 00 40 00 00 00 00    ...@.......@....
    0x40009a98:   d0 05 00 40 00 00 00 00 d0 05 00 40 00 00 00 00    ...@.......@....
    0x40009aa8:   d0 05 00 40 00 00 00 00 d0 05 00 40 00 00 00 00    ...@.......@....
    0x40009ab8:   d0 05 00 40 00 00 00 00 d0 05 00 40 00 00 00 00    ...@.......@....
    0x40009ac8:   d0 05 00 40 00 00 00 00 d0 05 00 40 00 00 00 00    ...@.......@....
    0x40009ad8:   d0 05 00 40 00 00 00 00 d0 05 00 40 00 00 00 00    ...@.......@....
    0x40009ae8:   d0 05 00 40 00 00 00 00 d0 05 00 40 00 00 00 00    ...@.......@....
    0x40009af8:   d0 05 00 40 00 00 00 00 d0 05 00 40 00 00 00 00    ...@.......@....
    0x40009b08:   d0 05 00 40 00 00 00 00 d0 05 00 40 00 00 00 00    ...@.......@....
    0x40009b18:   d0 05 00 40 00 00 00 00 d0 05 00 40 00 00 00 00    ...@.......@....
    0x40009b28:   d0 05 00 40 00 00 00 00 d0 05 00 40 00 00 00 00    ...@.......@....
    0x40009b38:   d0 05 00 40 00 00 00 00 d0 05 00 40 00 00 00 00    ...@.......@....
    0x40009b48:   d0 05 00 40 00 00 00 00 d0 05 00 40 00 00 00 00    ...@.......@....
    0x40009b58:   d0 05 00 40 00 00 00 00 d0 05 00 40 00 00 00 00    ...@.......@....
    0x40009b68:   d0 05 00 40 00 00 00 00 d0 05 00 40 00 00 00 00    ...@.......@....
    0x40009b78:   d0 05 00 40 00 00 00 00 d0 05 00 40 00 00 00 00    ...@.......@....
    0x40009b88:   d0 05 00 40 00 00 00 00 d0 05 00 40 00 00 00 00    ...@.......@....
    0x40009b98:   d0 05 00 40 00 00 00 00 d0 05 00 40 00 00 00 00    ...@.......@....
    0x40009ba8:   d0 05 00 40 00 00 00 00 d0 05 00 40 00 00 00 00    ...@.......@....
    0x40009bb8:   d0 05 00 40 00 00 00 00 d0 05 00 40 00 00 00 00    ...@.......@....
    0x40009bc8:   d0 05 00 40 00 00 00 00 d0 05 00 40 00 00 00 00    ...@.......@....
    0x40009bd8:   d0 05 00 40 00 00 00 00 d0 05 00 40 00 00 00 00    ...@.......@....
    0x40009be8:   d0 05 00 40 00 00 00 00 d0 05 00 40 00 00 00 00    ...@.......@....
    0x40009bf8:   d0 05 00 40 00 00 00 00 d0 05 00 40 00 00 00 00    ...@.......@....
    0x40009c08:   d0 05 00 40 00 00 00 00 d0 05 00 40 00 00 00 00    ...@.......@....
    0x40009c18:   d0 05 00 40 00 00 00 00 d0 05 00 40 00 00 00 00    ...@.......@....
    0x40009c28:   d0 05 00 40 00 00 00 00 d0 05 00 40 00 00 00 00    ...@.......@....
    0x40009c38:   d0 05 00 40 00 00 00 00 d0 05 00 40 00 00 00 00    ...@.......@....
    0x40009c48:   d0 05 00 40 00 00 00 00 d0 05 00 40 00 00 00 00    ...@.......@....
    0x40009c58:   d0 05 00 40 00 00 00 00 d0 05 00 40 00 00 00 00    ...@.......@....
    0x40009c68:   d0 05 00 40 00 00 00 00 d0 05 00 40 00 00 00 00    ...@.......@....
    0x40009c78:   d0 05 00 40 00 00 00 00 d0 05 00 40 00 00 00 00    ...@.......@....
    0x40009c88:   d0 05 00 40 00 00 00 00 d0 05 00 40 00 00 00 00    ...@.......@....
    0x40009c98:   d0 05 00 40 00 00 00 00 d0 05 00 40 00 00 00 00    ...@.......@....
    0x40009ca8:   d0 05 00 40 00 00 00 00 d0 05 00 40 00 00 00 00    ...@.......@....
    0x40009cb8:   d0 05 00 40 00 00 00 00 d0 05 00 40 00 00 00 00    ...@.......@....
    0x40009cc8:   d0 05 00 40 00 00 00 00 d0 05 00 40 00 00 00 00    ...@.......@....
    0x40009cd8:   d0 05 00 40 00 00 00 00 d0 05 00 40 00 00 00 00    ...@.......@....
    0x40009ce8:   d0 05 00 40 00 00 00 00 d0 05 00 40 00 00 00 00    ...@.......@....
    0x40009cf8:   d0 05 00 40 00 00 00 00 d0 05 00 40 00 00 00 00    ...@.......@....
    0x40009d08:   d0 05 00 40 00 00 00 00 d0 05 00 40 00 00 00 00    ...@.......@....
    0x40009d18:   d0 05 00 40 00 00 00 00 a0 00 30 e6 00 00 00 00    ...@......0.....
    0x40009d28:   30 40 00 40 00 00 00 00 30 39 00 40 00 00 00 00    0@.@....09.@....
    0x40009d38:   60 67 00 40 00 00 00 00 10 3f 00 40 00 00 00 00    `g.@.....?.@....
    0x40009d48:   20 23 00 40 00 00 00 00 60 58 00 40 00 00 00 00     #.@....`X.@....
    0x40009d58:   70 56 00 40 00 00 00 00 90 59 00 40 00 00 00 00    pV.@.....Y.@....
    0x40009d68:   40 5e 00 40 00 00 00 00 70 60 00 40 00 00 00 00    @^.@....p`.@....
    0x40009d78:   90 62 00 40 00 00 00 00 b0 4b 00 40 00 00 00 00    .b.@.....K.@....
    0x40009d88:   80 49 00 40 00 00 00 00 70 41 00 40 00 00 00 00    .I.@....pA.@....
    0x40009d98:   70 43 00 40 00 00 00 00 80 45 00 40 00 00 00 00    pC.@.....E.@....
    0x40009da8:   80 47 00 40 00 00 00 00 b0 4d 00 40 00 00 00 00    .G.@.....M.@....
    0x40009db8:   d0 4f 00 40 00 00 00 00 80 5b 00 40 00 00 00 00    .O.@.....[.@....
    0x40009dc8:   b0 64 00 40 00 00 00 00 50 27 00 40 00 00 00 00    .d.@....P'.@....
    0x40009dd8:   b0 2f 00 40 00 00 00 00 f0 36 00 40 00 00 00 00    ./.@.....6.@....
    0x40009de8:   10 38 00 40 00 00 00 00 30 26 00 40 00 00 00 00    .8.@....0&.@....
    0x40009df8:   90 2e 00 40 00 00 00 00 d0 24 00 40 00 00 00 00    ...@.....$.@....
    0x40009e08:   70 28 00 40 00 00 00 00 d0 30 00 40 00 00 00 00    p(.@.....0.@....
    0x40009e18:   10 2b 00 40 00 00 00 00 70 33 00 40 00 00 00 00    .+.@....p3.@....


====================================

** Section #4

    Name        : ER10
    Type        : SHT_NOBITS (0x00000008)
    Flags       : SHF_ALLOC + SHF_WRITE (0x00000003)
    Addr        : 0x40009e28
    File Offset : 46248 (0xb4a8)
    Size        : 2888 bytes (0xb48)
    Link        : SHN_UNDEF
    Info        : 0
    Alignment   : 4
    Entry Size  : 0


====================================

** Section #5

    Name        : ARM_LIB_STACK
    Type        : SHT_NOBITS (0x00000008)
    Flags       : SHF_ALLOC + SHF_WRITE (0x00000003)
    Addr        : 0x6ffffc00
    File Offset : 46248 (0xb4a8)
    Size        : 1024 bytes (0x400)
    Link        : SHN_UNDEF
    Info        : 0
    Alignment   : 1
    Entry Size  : 0


====================================

** Section #6

    Name        : .debug_frame
    Type        : SHT_PROGBITS (0x00000001)
    Flags       : None (0x00000000)
    Addr        : 0x00000000
    File Offset : 46248 (0xb4a8)
    Size        : 952 bytes (0x3b8)
    Link        : SHN_UNDEF
    Info        : 0
    Alignment   : 1
    Entry Size  : 0

  CIE 000000: version 3, "armcc+", code align 000004, data align fffffffc, return reg r30
    DW_CFA_def_cfa_sf r31=0
    DW_CFA_undefined r0
    DW_CFA_undefined r1
    DW_CFA_undefined r2
    DW_CFA_undefined r3
    DW_CFA_undefined r4
    DW_CFA_undefined r5
    DW_CFA_undefined r6
    DW_CFA_undefined r7
    DW_CFA_undefined r16
    DW_CFA_same_value r19
    DW_CFA_same_value r20
    DW_CFA_same_value r21
    DW_CFA_same_value r22
    DW_CFA_same_value r23
    DW_CFA_same_value r24
    DW_CFA_same_value r25
    DW_CFA_same_value r26
    DW_CFA_same_value r27
    DW_CFA_same_value r28
    DW_CFA_same_value r29
    DW_CFA_same_value r30
    DW_CFA_undefined r64
    DW_CFA_undefined r65
    DW_CFA_undefined r66
    DW_CFA_undefined r67
    DW_CFA_undefined r68
    DW_CFA_undefined r69
    DW_CFA_undefined r70
    DW_CFA_undefined r71
    DW_CFA_same_value r72
    DW_CFA_same_value r73
    DW_CFA_same_value r74
    DW_CFA_same_value r75
    DW_CFA_same_value r76
    DW_CFA_same_value r77
    DW_CFA_same_value r78
    DW_CFA_same_value r79
  FDE 000060: CIE 000000, init loc 40000520, range 00001c
  CIE 000078: version 3, "armcc+", code align 000004, data align fffffffc, return reg r30
    DW_CFA_def_cfa_sf r31=0
    DW_CFA_undefined r0
    DW_CFA_undefined r1
    DW_CFA_undefined r2
    DW_CFA_undefined r3
    DW_CFA_undefined r4
    DW_CFA_undefined r5
    DW_CFA_undefined r6
    DW_CFA_undefined r7
    DW_CFA_undefined r16
    DW_CFA_same_value r19
    DW_CFA_same_value r20
    DW_CFA_same_value r21
    DW_CFA_same_value r22
    DW_CFA_same_value r23
    DW_CFA_same_value r24
    DW_CFA_same_value r25
    DW_CFA_same_value r26
    DW_CFA_same_value r27
    DW_CFA_same_value r28
    DW_CFA_same_value r29
    DW_CFA_same_value r30
    DW_CFA_undefined r64
    DW_CFA_undefined r65
    DW_CFA_undefined r66
    DW_CFA_undefined r67
    DW_CFA_undefined r68
    DW_CFA_undefined r69
    DW_CFA_undefined r70
    DW_CFA_undefined r71
    DW_CFA_same_value r72
    DW_CFA_same_value r73
    DW_CFA_same_value r74
    DW_CFA_same_value r75
    DW_CFA_same_value r76
    DW_CFA_same_value r77
    DW_CFA_same_value r78
    DW_CFA_same_value r79
  FDE 0000d8: CIE 000078, init loc 400004c0, range 000048
    DW_CFA_undefined r30
    DW_CFA_nop 
    DW_CFA_nop 
    DW_CFA_nop 
    DW_CFA_nop 
    DW_CFA_nop 
    DW_CFA_nop 
  FDE 0000f8: CIE 000078, init loc 40000508, range 000004
  CIE 000110: version 3, "armcc+", code align 000001, data align fffffffc, return reg r30
    DW_CFA_def_cfa_sf r31=0
    DW_CFA_undefined r0
    DW_CFA_undefined r1
    DW_CFA_undefined r2
    DW_CFA_undefined r3
    DW_CFA_undefined r4
    DW_CFA_undefined r5
    DW_CFA_undefined r6
    DW_CFA_undefined r7
    DW_CFA_undefined r8
    DW_CFA_undefined r9
    DW_CFA_undefined r10
    DW_CFA_undefined r11
    DW_CFA_undefined r12
    DW_CFA_undefined r13
    DW_CFA_undefined r14
    DW_CFA_undefined r15
    DW_CFA_undefined r16
    DW_CFA_undefined r17
    DW_CFA_undefined r18
    DW_CFA_same_value r19
    DW_CFA_same_value r20
    DW_CFA_same_value r21
    DW_CFA_same_value r22
    DW_CFA_same_value r23
    DW_CFA_same_value r24
    DW_CFA_same_value r25
    DW_CFA_same_value r26
    DW_CFA_same_value r27
    DW_CFA_same_value r28
    DW_CFA_same_value r29
    DW_CFA_same_value r30
    DW_CFA_undefined r64
    DW_CFA_undefined r65
    DW_CFA_undefined r66
    DW_CFA_undefined r67
    DW_CFA_undefined r68
    DW_CFA_undefined r69
    DW_CFA_undefined r70
    DW_CFA_undefined r71
    DW_CFA_same_value r72
    DW_CFA_same_value r73
    DW_CFA_same_value r74
    DW_CFA_same_value r75
    DW_CFA_same_value r76
    DW_CFA_same_value r77
    DW_CFA_same_value r78
    DW_CFA_same_value r79
    DW_CFA_undefined r80
    DW_CFA_undefined r81
    DW_CFA_undefined r82
    DW_CFA_undefined r83
    DW_CFA_undefined r84
    DW_CFA_undefined r85
    DW_CFA_undefined r86
    DW_CFA_undefined r87
    DW_CFA_undefined r88
    DW_CFA_undefined r89
    DW_CFA_undefined r90
    DW_CFA_undefined r91
    DW_CFA_undefined r92
    DW_CFA_undefined r93
    DW_CFA_undefined r94
    DW_CFA_undefined r95
    DW_CFA_nop 
    DW_CFA_nop 
    DW_CFA_nop 
    DW_CFA_nop 
  FDE 0001a8: CIE 000110, init loc 4000047c, range 000010
  CIE 0001c0: version 3, "armcc+", code align 000004, data align fffffffc, return reg r30
    DW_CFA_def_cfa_sf r31=0
    DW_CFA_undefined r0
    DW_CFA_undefined r1
    DW_CFA_undefined r2
    DW_CFA_undefined r3
    DW_CFA_undefined r4
    DW_CFA_undefined r5
    DW_CFA_undefined r6
    DW_CFA_undefined r7
    DW_CFA_undefined r16
    DW_CFA_same_value r19
    DW_CFA_same_value r20
    DW_CFA_same_value r21
    DW_CFA_same_value r22
    DW_CFA_same_value r23
    DW_CFA_same_value r24
    DW_CFA_same_value r25
    DW_CFA_same_value r26
    DW_CFA_same_value r27
    DW_CFA_same_value r28
    DW_CFA_same_value r29
    DW_CFA_same_value r30
    DW_CFA_undefined r64
    DW_CFA_undefined r65
    DW_CFA_undefined r66
    DW_CFA_undefined r67
    DW_CFA_undefined r68
    DW_CFA_undefined r69
    DW_CFA_undefined r70
    DW_CFA_undefined r71
    DW_CFA_same_value r72
    DW_CFA_same_value r73
    DW_CFA_same_value r74
    DW_CFA_same_value r75
    DW_CFA_same_value r76
    DW_CFA_same_value r77
    DW_CFA_same_value r78
    DW_CFA_same_value r79
  FDE 000220: CIE 0001c0, init loc 40000490, range 00002c
    DW_CFA_advance_loc +0x4 = 0x40000494
    DW_CFA_def_cfa_offset_sf =0x20
    DW_CFA_advance_loc +0x4 = 0x40000498
    DW_CFA_offset r30=0xfffffff0
    DW_CFA_advance_loc +0x4 = 0x4000049c
    DW_CFA_offset r19=0xffffffe0
    DW_CFA_offset r29=0xffffffe8
    DW_CFA_advance_loc +0x4 = 0x400004a0
    DW_CFA_def_cfa_sf r29=0x18
    DW_CFA_advance_loc +0x10 = 0x400004b0
    DW_CFA_def_cfa_sf r31=0x20
    DW_CFA_restore r19
    DW_CFA_restore r29
    DW_CFA_advance_loc +0x4 = 0x400004b4
    DW_CFA_restore r30
    DW_CFA_advance_loc +0x4 = 0x400004b8
    DW_CFA_def_cfa_offset_sf =0
    DW_CFA_nop 
    DW_CFA_nop 
    DW_CFA_nop 
    DW_CFA_nop 
    DW_CFA_nop 
    DW_CFA_nop 
  CIE 000258: version 3, "armcc+", code align 000001, data align fffffffc, return reg r30
    DW_CFA_def_cfa_sf r31=0
    DW_CFA_undefined r0
    DW_CFA_undefined r1
    DW_CFA_undefined r2
    DW_CFA_undefined r3
    DW_CFA_undefined r4
    DW_CFA_undefined r5
    DW_CFA_undefined r6
    DW_CFA_undefined r7
    DW_CFA_undefined r8
    DW_CFA_undefined r9
    DW_CFA_undefined r10
    DW_CFA_undefined r11
    DW_CFA_undefined r12
    DW_CFA_undefined r13
    DW_CFA_undefined r14
    DW_CFA_undefined r15
    DW_CFA_undefined r16
    DW_CFA_undefined r17
    DW_CFA_undefined r18
    DW_CFA_same_value r19
    DW_CFA_same_value r20
    DW_CFA_same_value r21
    DW_CFA_same_value r22
    DW_CFA_same_value r23
    DW_CFA_same_value r24
    DW_CFA_same_value r25
    DW_CFA_same_value r26
    DW_CFA_same_value r27
    DW_CFA_same_value r28
    DW_CFA_same_value r29
    DW_CFA_same_value r30
    DW_CFA_undefined r64
    DW_CFA_undefined r65
    DW_CFA_undefined r66
    DW_CFA_undefined r67
    DW_CFA_undefined r68
    DW_CFA_undefined r69
    DW_CFA_undefined r70
    DW_CFA_undefined r71
    DW_CFA_same_value r72
    DW_CFA_same_value r73
    DW_CFA_same_value r74
    DW_CFA_same_value r75
    DW_CFA_same_value r76
    DW_CFA_same_value r77
    DW_CFA_same_value r78
    DW_CFA_same_value r79
    DW_CFA_undefined r80
    DW_CFA_undefined r81
    DW_CFA_undefined r82
    DW_CFA_undefined r83
    DW_CFA_undefined r84
    DW_CFA_undefined r85
    DW_CFA_undefined r86
    DW_CFA_undefined r87
    DW_CFA_undefined r88
    DW_CFA_undefined r89
    DW_CFA_undefined r90
    DW_CFA_undefined r91
    DW_CFA_undefined r92
    DW_CFA_undefined r93
    DW_CFA_undefined r94
    DW_CFA_undefined r95
    DW_CFA_nop 
    DW_CFA_nop 
    DW_CFA_nop 
    DW_CFA_nop 
  FDE 0002f0: CIE 000258, init loc 000078, range 000008
  CIE 000308: version 3, "armcc+", code align 000001, data align fffffffc, return reg r30
    DW_CFA_def_cfa_sf r31=0
    DW_CFA_undefined r0
    DW_CFA_undefined r1
    DW_CFA_undefined r2
    DW_CFA_undefined r3
    DW_CFA_undefined r4
    DW_CFA_undefined r5
    DW_CFA_undefined r6
    DW_CFA_undefined r7
    DW_CFA_undefined r8
    DW_CFA_undefined r9
    DW_CFA_undefined r10
    DW_CFA_undefined r11
    DW_CFA_undefined r12
    DW_CFA_undefined r13
    DW_CFA_undefined r14
    DW_CFA_undefined r15
    DW_CFA_undefined r16
    DW_CFA_undefined r17
    DW_CFA_undefined r18
    DW_CFA_same_value r19
    DW_CFA_same_value r20
    DW_CFA_same_value r21
    DW_CFA_same_value r22
    DW_CFA_same_value r23
    DW_CFA_same_value r24
    DW_CFA_same_value r25
    DW_CFA_same_value r26
    DW_CFA_same_value r27
    DW_CFA_same_value r28
    DW_CFA_same_value r29
    DW_CFA_same_value r30
    DW_CFA_undefined r64
    DW_CFA_undefined r65
    DW_CFA_undefined r66
    DW_CFA_undefined r67
    DW_CFA_undefined r68
    DW_CFA_undefined r69
    DW_CFA_undefined r70
    DW_CFA_undefined r71
    DW_CFA_same_value r72
    DW_CFA_same_value r73
    DW_CFA_same_value r74
    DW_CFA_same_value r75
    DW_CFA_same_value r76
    DW_CFA_same_value r77
    DW_CFA_same_value r78
    DW_CFA_same_value r79
    DW_CFA_undefined r80
    DW_CFA_undefined r81
    DW_CFA_undefined r82
    DW_CFA_undefined r83
    DW_CFA_undefined r84
    DW_CFA_undefined r85
    DW_CFA_undefined r86
    DW_CFA_undefined r87
    DW_CFA_undefined r88
    DW_CFA_undefined r89
    DW_CFA_undefined r90
    DW_CFA_undefined r91
    DW_CFA_undefined r92
    DW_CFA_undefined r93
    DW_CFA_undefined r94
    DW_CFA_undefined r95
    DW_CFA_nop 
    DW_CFA_nop 
    DW_CFA_nop 
    DW_CFA_nop 
  FDE 0003a0: CIE 000308, init loc 4000048c, range 000004


====================================

** Section #7

    Name        : .comment
    Type        : SHT_PROGBITS (0x00000001)
    Flags       : None (0x00000000)
    Addr        : 0x00000000
    File Offset : 47200 (0xb860)
    Size        : 2252 bytes (0x8cc)
    Link        : SHN_UNDEF
    Info        : 0
    Alignment   : 1
    Entry Size  : 0

    Component: ARM Compiler 6.9 Tool: armlink [5ced1b00]
    armlink --map --datacompressor=off --errors=error.log --output=image.elf --scatter=/design01/rcarv3ufed_master/common_rvc/rcarv3u/VNET1/MASTER_TM/I2C_V3U_RTL/ct/include/../include/rcar_v3u/scatters/scatter_ddr.scat --sysroot=/common/appl/ARM/DS500-BN-00019-r5p0-28rel1/sw/ARMCompiler6.9 --entry=0x00000000 --info=unused

    /common/appl/ARM/DS500-BN-00019-r5p0-28rel1/sw/ARMCompiler6.9/lib/armlib/c_ou.l
    /common/appl/ARM/DS500-BN-00019-r5p0-28rel1/sw/ARMCompiler6.9/lib/armlib/fz_ov.l
    /common/appl/ARM/DS500-BN-00019-r5p0-28rel1/sw/ARMCompiler6.9/lib/libcxx/libcpp-experimental_onu.l
    /common/appl/ARM/DS500-BN-00019-r5p0-28rel1/sw/ARMCompiler6.9/lib/libcxx/libcpp_onu.l
    /common/appl/ARM/DS500-BN-00019-r5p0-28rel1/sw/ARMCompiler6.9/lib/libcxx/libcppabi_onu.l
    /common/appl/ARM/DS500-BN-00019-r5p0-28rel1/sw/ARMCompiler6.9/lib/armlib/m_ov.l
    /common/appl/ARM/DS500-BN-00019-r5p0-28rel1/sw/ARMCompiler6.9/lib/armlib/vfpsupport.l
    Input Comments:
    
    vectors_ca76.o
    startup_cr52.o
    mpu_cr52.o
    vectors_cr52.o
    rel_dbsc4_init_lpddr4_4266_CL40WL18_181012_cr52.o
    rel_dbsc4_init_lpddr4_4266_CL40WL18_181002_ca76.o
    startup_ca76.o
    
    Component: ARM Compiler 6.9 Tool: armasm [5ced1b00]
    armasm --cpu=8.2-A.64 -m -I/design01/rcarv3ufed_master/common_rvc/rcarv3u/VNET1/MASTER_TM/I2C_V3U_RTL/ct/i2c0/full_check -I/design01/rcarv3ufed_master/common_rvc/rcarv3u/VNET1/MASTER_TM/I2C_V3U_RTL/ct/include --predefine="__AARCH64 SETL {TRUE}" --predefine="__US
    
    
    master_general_call.o
    slave_tx.o
    master_tx_dma.o
    srst_check.o
    exception_handlers.o
    main.o
    renesas_slave_rx_sdbs.o
    renesas_slave_rx_fna.o
    renesas_slave_tx.o
    slave_rx_dma.o
    renesas_slave_rx_fna_sdbs.o
    master_rx_dma.o
    master_send_start_byte.o
    retarget.o
    interrupt_check.o
    master_tx.o
    master_tx_dma_continuous.o
    pad_check.o
    slave_rx.o
    renesas_slave_rx_delay.o
    sim_utils.o
    master_arbitration_lost.o
    master_tx_rpt_master_rx.o
    master_tx_fsb.o
    slave_nack_addr.o
    reg_check.o
    renesas_slave_tx_delay.o
    slave_tx_dma.o
    i2c.o
    master_rx_dma_continuous.o
    slave_general_call.o
    slave_rx_fna.o
    i2c_utils.o
    dmac.o
    slave_tx_delay.o
    renesas_slave_rx_fna_delay.o
    mstp_check.o
    renesas_slave_rx.o
    ddr_init.o
    pfc.o
    gic.o
    cpg.o
    master_rx.o
    
    
    Component: ARM Compiler 6.9 Tool: armclang [5ced1d00]
    
    

====================================

** Section #8

    Name        : .symtab
    Type        : SHT_SYMTAB (0x00000002)
    Flags       : None (0x00000000)
    Addr        : 0x00000000
    File Offset : 49452 (0xc12c)
    Size        : 13440 bytes (0x3480)
    Link        : Section 10 (.strtab)
    Info        : Last local symbol no = 396
    Alignment   : 4
    Entry Size  : 24

    Symbol table .symtab (839 symbols, 396 local)

      #  Symbol Name                Value      Bind  Sec  Type  Vis  Size
    ========================================================================

      1  $x                         0x00000000   Lc    1   --   De 
      2  $d                         0x00000070   Lc    1   --   De 
      3  $x                         0x00000078   Lc    1   --   De 
      4  $d                         0x00000098   Lc    1   --   De 
      5  $x                         0x000000a0   Lc    1   --   De 
      6  $d                         0x00000c00   Lc    1   --   De 
      7  $x                         0x00001498   Lc    1   --   De 
      8  $d                         0x000014a0   Lc    1   --   De 
      9  $x                         0x000014a8   Lc    1   --   De 
     10  $d                         0x000014b0   Lc    1   --   De 
     11  $x                         0x000014b8   Lc    1   --   De 
     12  $d                         0x000014c0   Lc    1   --   De 
     13  $x                         0x000014c8   Lc    1   --   De 
     14  $d                         0x000014d0   Lc    1   --   De 
     15  $x                         0x000014d8   Lc    1   --   De 
     16  $d                         0x000014e0   Lc    1   --   De 
     17  $d.realdata                0x000014e8   Lc    1   --   De 
     18  $x                         0x40000000   Lc    2   --   De 
     19  $d                         0x40000004   Lc    2   --   De 
     20  $x                         0x40000080   Lc    2   --   De 
     21  $d                         0x40000084   Lc    2   --   De 
     22  $x                         0x40000100   Lc    2   --   De 
     23  $d                         0x40000104   Lc    2   --   De 
     24  $x                         0x40000180   Lc    2   --   De 
     25  $d                         0x40000184   Lc    2   --   De 
     26  $x                         0x40000200   Lc    2   --   De 
     27  $d                         0x40000204   Lc    2   --   De 
     28  $x                         0x40000280   Lc    2   --   De 
     29  $d                         0x40000284   Lc    2   --   De 
     30  $x                         0x40000300   Lc    2   --   De 
     31  $d                         0x40000304   Lc    2   --   De 
     32  $x                         0x40000380   Lc    2   --   De 
     33  $d                         0x40000384   Lc    2   --   De 
     34  $x                         0x40000400   Lc    2   --   De 
     35  $d                         0x4000050c   Lc    2   --   De 
     36  $x                         0x40000520   Lc    2   --   De 
     37  $x.1                       0x40000540   Lc    2   --   De 
     38  $x                         0x40006cb0   Lc    2   --   De 
     39  $d                         0x40006cb8   Lc    2   --   De 
     40  $d.realdata                0x40006cc0   Lc    2   --   De 
     41  $d.realdata                0x6ffffc00   Lc    5   --   De 
     42  master_general_call.c      0x00000000   Lc  Abs  File  De 
     43  i2c0InterruptHandler       0x40001470   Lc    2  Code  De   0x6c
     44  i2c1InterruptHandler       0x40001bd0   Lc    2  Code  De   0xa0
     45  masterConfig               0x40007300   Lc    2  Data  De   0x18
     46  slaveConfig                0x40007c1c   Lc    2  Data  De   0x18
     47  sendData                   0x400075d0   Lc    2  Data  De   0x34
     48  sendDataIndex              0x4000a948   Lc    4  Data  De   0x4
     49  isTransferComplete         0x40009e50   Lc    4  Data  De   0x1
     50  receivedData               0x40009e8c   Lc    4  Data  De   0x34
     51  receivedDataIndex          0x4000a4a4   Lc    4  Data  De   0x4
     52  slave_tx.c                 0x00000000   Lc  Abs  File  De 
     53  masterConfig               0x40007318   Lc    2  Data  De   0x18
     54  slaveConfig                0x40007c34   Lc    2  Data  De   0x18
     55  sendData                   0x40007604   Lc    2  Data  De   0x34
     56  receivedData               0x40009ec0   Lc    4  Data  De   0x34
     57  master_tx_dma.c            0x00000000   Lc  Abs  File  De 
     58  i2c1InterruptHandler       0x40001c70   Lc    2  Code  De   0x24
     59  i2c0InterruptHandler       0x400014e0   Lc    2  Code  De   0x90
     60  sdmac1ch0InterruptHandler  0x400051f0   Lc    2  Code  De   0x40
     61  sdmac1ch1InterruptHandler  0x400053d0   Lc    2  Code  De   0x64
     62  sendData                   0x40007638   Lc    2  Data  De   0x34
     63  masterConfig               0x40007330   Lc    2  Data  De   0x18
     64  receivedData               0x40009ef4   Lc    4  Data  De   0x34
     65  slaveConfig                0x40007c4c   Lc    2  Data  De   0x18
     66  isTransferComplete         0x40009e54   Lc    4  Data  De   0x1
     67  isAutoTransferComplete     0x40009e34   Lc    4  Data  De   0x1
     68  srst_check.c               0x00000000   Lc  Abs  File  De 
     69  checkReg                   0x400013c0   Lc    2  Code  De   0x34
     70  result                     0x4000a4c8   Lc    4  Data  De   0x200
     71  golden                     0x40006e80   Lc    2  Data  De   0x200
     72  exception_handlers.c       0x00000000   Lc  Abs  File  De 
     73  main.c                     0x00000000   Lc  Abs  File  De 
     74  renesas_slave_rx_sdbs.c    0x00000000   Lc  Abs  File  De 
     75  masterConfig               0x40007348   Lc    2  Data  De   0x18
     76  slaveConfig                0x40007c64   Lc    2  Data  De   0x18
     77  sendData                   0x4000766c   Lc    2  Data  De   0x34
     78  receivedData               0x40009f28   Lc    4  Data  De   0x34
     79  renesas_slave_rx_fna.c     0x00000000   Lc  Abs  File  De 
     80  masterConfig               0x40007360   Lc    2  Data  De   0x18
     81  slaveConfig                0x40007c7c   Lc    2  Data  De   0x18
     82  sendData                   0x400076a0   Lc    2  Data  De   0x34
     83  receivedData               0x40009f5c   Lc    4  Data  De   0x34
     84  renesas_slave_tx.c         0x00000000   Lc  Abs  File  De 
     85  masterConfig               0x40007378   Lc    2  Data  De   0x18
     86  slaveConfig                0x40007c94   Lc    2  Data  De   0x18
     87  sendData                   0x400076d4   Lc    2  Data  De   0x34
     88  receivedData               0x40009f90   Lc    4  Data  De   0x34
     89  slave_rx_dma.c             0x00000000   Lc  Abs  File  De 
     90  i2c0InterruptHandler       0x40001570   Lc    2  Code  De   0x1c
     91  i2c1InterruptHandler       0x40001ca0   Lc    2  Code  De   0xa8
     92  sdmac1ch0InterruptHandler  0x40005230   Lc    2  Code  De   0x44
     93  sdmac1ch1InterruptHandler  0x40005440   Lc    2  Code  De   0x60
     94  sendData                   0x40007708   Lc    2  Data  De   0x34
     95  masterConfig               0x40007390   Lc    2  Data  De   0x18
     96  receivedData               0x40009fc4   Lc    4  Data  De   0x34
     97  slaveConfig                0x40007cac   Lc    2  Data  De   0x18
     98  isTransferComplete         0x40009e58   Lc    4  Data  De   0x1
     99  isAutoTransferComplete     0x40009e38   Lc    4  Data  De   0x1
    100  renesas_slave_rx_fna_sdbs.c 0x00000000   Lc  Abs  File  De 
    101  masterConfig               0x400073a8   Lc    2  Data  De   0x18
    102  slaveConfig                0x40007cc4   Lc    2  Data  De   0x18
    103  sendData                   0x4000773c   Lc    2  Data  De   0x34
    104  receivedData               0x40009ff8   Lc    4  Data  De   0x34
    105  master_rx_dma.c            0x00000000   Lc  Abs  File  De 
    106  i2c1InterruptHandler       0x40001d50   Lc    2  Code  De   0x78
    107  i2c0InterruptHandler       0x40001590   Lc    2  Code  De   0x3c
    108  sdmac1ch0InterruptHandler  0x40005280   Lc    2  Code  De   0x54
    109  sdmac1ch1InterruptHandler  0x400054a0   Lc    2  Code  De   0x38
    110  receivedData               0x4000a02c   Lc    4  Data  De   0x34
    111  masterConfig               0x400073c0   Lc    2  Data  De   0x18
    112  sendData                   0x40007770   Lc    2  Data  De   0x34
    113  slaveConfig                0x40007cdc   Lc    2  Data  De   0x18
    114  isTransferComplete         0x40009e5c   Lc    4  Data  De   0x1
    115  isAutoTransferComplete     0x40009e3c   Lc    4  Data  De   0x1
    116  master_send_start_byte.c   0x00000000   Lc  Abs  File  De 
    117  i2c0InterruptHandler       0x400015d0   Lc    2  Code  De   0x74
    118  i2c1InterruptHandler       0x40001dd0   Lc    2  Code  De   0xa0
    119  masterConfig               0x400073d8   Lc    2  Data  De   0x18
    120  slaveConfig                0x40007cf4   Lc    2  Data  De   0x18
    121  sendData                   0x400077a4   Lc    2  Data  De   0x34
    122  sendDataIndex              0x4000a94c   Lc    4  Data  De   0x4
    123  isTransferComplete         0x40009e60   Lc    4  Data  De   0x1
    124  receivedData               0x4000a060   Lc    4  Data  De   0x34
    125  receivedDataIndex          0x4000a4a8   Lc    4  Data  De   0x4
    126  retarget.c                 0x00000000   Lc  Abs  File  De 
    127  interrupt_check.c          0x00000000   Lc  Abs  File  De 
    128  i2c0InterruptHandler       0x40001650   Lc    2  Code  De   0x6c
    129  i2c1InterruptHandler       0x40001e70   Lc    2  Code  De   0xa0
    130  masterConfig               0x400073f0   Lc    2  Data  De   0x18
    131  slaveConfig                0x40007d0c   Lc    2  Data  De   0x18
    132  sendData                   0x400077d8   Lc    2  Data  De   0x34
    133  sendDataIndex              0x4000a950   Lc    4  Data  De   0x4
    134  isTransferComplete         0x40009e64   Lc    4  Data  De   0x1
    135  receivedData               0x4000a094   Lc    4  Data  De   0x34
    136  receivedDataIndex          0x4000a4ac   Lc    4  Data  De   0x4
    137  master_tx.c                0x00000000   Lc  Abs  File  De 
    138  i2c0InterruptHandler       0x400016c0   Lc    2  Code  De   0x6c
    139  i2c1InterruptHandler       0x40001f10   Lc    2  Code  De   0xa0
    140  masterConfig               0x40007408   Lc    2  Data  De   0x18
    141  slaveConfig                0x40007d24   Lc    2  Data  De   0x18
    142  sendData                   0x4000780c   Lc    2  Data  De   0x34
    143  sendDataIndex              0x4000a954   Lc    4  Data  De   0x4
    144  isTransferComplete         0x40009e68   Lc    4  Data  De   0x1
    145  receivedData               0x4000a0c8   Lc    4  Data  De   0x34
    146  receivedDataIndex          0x4000a4b0   Lc    4  Data  De   0x4
    147  master_tx_dma_continuous.c 0x00000000   Lc  Abs  File  De 
    148  i2c0InterruptHandler       0x40001730   Lc    2  Code  De   0x68
    149  i2c1InterruptHandler       0x40001fb0   Lc    2  Code  De   0x24
    150  sdmac1ch0InterruptHandler  0x400052e0   Lc    2  Code  De   0x38
    151  sdmac1ch1InterruptHandler  0x400054e0   Lc    2  Code  De   0xac
    152  sendData                   0x40007840   Lc    2  Data  De   0x68
    153  currentDataPackageIndex    0x40009e2c   Lc    4  Data  De   0x4
    154  masterConfig               0x40007420   Lc    2  Data  De   0x18
    155  receivedData               0x4000a0fc   Lc    4  Data  De   0x68
    156  slaveConfig                0x40007d3c   Lc    2  Data  De   0x18
    157  isTransferComplete         0x40009e6c   Lc    4  Data  De   0x1
    158  isAutoTransferComplete     0x40009e40   Lc    4  Data  De   0x1
    159  pad_check.c                0x00000000   Lc  Abs  File  De 
    160  i2c0InterruptHandler       0x400017a0   Lc    2  Code  De   0x6c
    161  i2c1InterruptHandler       0x40001fe0   Lc    2  Code  De   0xa0
    162  masterConfig               0x40007438   Lc    2  Data  De   0x18
    163  slaveConfig                0x40007d54   Lc    2  Data  De   0x18
    164  sendData                   0x400078a8   Lc    2  Data  De   0x34
    165  sendDataIndex              0x4000a958   Lc    4  Data  De   0x4
    166  isTransferComplete         0x40009e70   Lc    4  Data  De   0x1
    167  receivedData               0x4000a164   Lc    4  Data  De   0x34
    168  receivedDataIndex          0x4000a4b4   Lc    4  Data  De   0x4
    169  slave_rx.c                 0x00000000   Lc  Abs  File  De 
    170  masterConfig               0x40007450   Lc    2  Data  De   0x18
    171  slaveConfig                0x40007d6c   Lc    2  Data  De   0x18
    172  sendData                   0x400078dc   Lc    2  Data  De   0x34
    173  receivedData               0x4000a198   Lc    4  Data  De   0x34
    174  renesas_slave_rx_delay.c   0x00000000   Lc  Abs  File  De 
    175  masterConfig               0x40007468   Lc    2  Data  De   0x18
    176  slaveConfig                0x40007d84   Lc    2  Data  De   0x18
    177  sendData                   0x40007910   Lc    2  Data  De   0x34
    178  receivedData               0x4000a1cc   Lc    4  Data  De   0x34
    179  sim_utils.c                0x00000000   Lc  Abs  File  De 
    180  master_arbitration_lost.c  0x00000000   Lc  Abs  File  De 
    181  i2c0InterruptHandler       0x40001810   Lc    2  Code  De   0xc4
    182  i2c1InterruptHandler       0x40002080   Lc    2  Code  De   0x7c
    183  masterConfig0              0x400075a0   Lc    2  Data  De   0x18
    184  slaveConfig0               0x40007ebc   Lc    2  Data  De   0x18
    185  masterConfig1              0x400075b8   Lc    2  Data  De   0x18
    186  sendData                   0x40007944   Lc    2  Data  De   0x34
    187  sendDataIndex              0x4000a95c   Lc    4  Data  De   0x4
    188  isTransferComplete         0x40009e74   Lc    4  Data  De   0x1
    189  receivedData               0x4000a200   Lc    4  Data  De   0x34
    190  isMasterLostArbitration    0x40009e4c   Lc    4  Data  De   0x1
    191  receivedDataIndex          0x4000a4b8   Lc    4  Data  De   0x4
    192  master_tx_rpt_master_rx.c  0x00000000   Lc  Abs  File  De 
    193  i2c0InterruptHandler       0x400018e0   Lc    2  Code  De   0xc4
    194  i2c1InterruptHandler       0x40002100   Lc    2  Code  De   0xa8
    195  masterConfig               0x40007480   Lc    2  Data  De   0x18
    196  slaveConfig                0x40007d9c   Lc    2  Data  De   0x18
    197  sendData                   0x40007978   Lc    2  Data  De   0x34
    198  sendDataIndex              0x4000a960   Lc    4  Data  De   0x4
    199  isTransferComplete         0x40009e78   Lc    4  Data  De   0x1
    200  receivedData               0x4000a234   Lc    4  Data  De   0x34
    201  receivedDataIndex          0x4000a4bc   Lc    4  Data  De   0x4
    202  master_tx_fsb.c            0x00000000   Lc  Abs  File  De 
    203  i2c0InterruptHandler       0x400019b0   Lc    2  Code  De   0x88
    204  i2c1InterruptHandler       0x400021b0   Lc    2  Code  De   0x54
    205  masterConfig               0x40007498   Lc    2  Data  De   0x18
    206  slaveConfig                0x40007db4   Lc    2  Data  De   0x18
    207  sendData                   0x400079ac   Lc    2  Data  De   0x34
    208  sendDataIndex              0x4000a964   Lc    4  Data  De   0x4
    209  isTransferComplete         0x40009e7c   Lc    4  Data  De   0x1
    210  receivedData               0x4000a268   Lc    4  Data  De   0x34
    211  receivedDataIndex          0x4000a4c0   Lc    4  Data  De   0x4
    212  slave_nack_addr.c          0x00000000   Lc  Abs  File  De 
    213  masterConfig               0x400074b0   Lc    2  Data  De   0x18
    214  slaveConfig                0x40007dcc   Lc    2  Data  De   0x18
    215  sendData                   0x400079e0   Lc    2  Data  De   0x34
    216  sendDataIndex              0x4000a968   Lc    4  Data  De   0x4
    217  reg_check.c                0x00000000   Lc  Abs  File  De 
    218  checkReg                   0x40001400   Lc    2  Code  De   0x2c
    219  result                     0x4000a6c8   Lc    4  Data  De   0x80
    220  golden                     0x40007080   Lc    2  Data  De   0x80
    221  renesas_slave_tx_delay.c   0x00000000   Lc  Abs  File  De 
    222  masterConfig               0x400074c8   Lc    2  Data  De   0x18
    223  slaveConfig                0x40007de4   Lc    2  Data  De   0x18
    224  sendData                   0x40007a14   Lc    2  Data  De   0x34
    225  receivedData               0x4000a29c   Lc    4  Data  De   0x34
    226  slave_tx_dma.c             0x00000000   Lc  Abs  File  De 
    227  i2c0InterruptHandler       0x40001a40   Lc    2  Code  De   0x68
    228  i2c1InterruptHandler       0x40002210   Lc    2  Code  De   0x48
    229  sdmac1ch0InterruptHandler  0x40005320   Lc    2  Code  De   0x58
    230  sdmac1ch1InterruptHandler  0x40005590   Lc    2  Code  De   0x34
    231  receivedData               0x4000a2d0   Lc    4  Data  De   0x34
    232  masterConfig               0x400074e0   Lc    2  Data  De   0x18
    233  sendData                   0x40007a48   Lc    2  Data  De   0x34
    234  slaveConfig                0x40007dfc   Lc    2  Data  De   0x18
    235  isTransferComplete         0x40009e80   Lc    4  Data  De   0x1
    236  isAutoTransferComplete     0x40009e44   Lc    4  Data  De   0x1
    237  i2c.c                      0x00000000   Lc  Abs  File  De 
    238  master_rx_dma_continuous.c 0x00000000   Lc  Abs  File  De 
    239  i2c0InterruptHandler       0x40001ab0   Lc    2  Code  De   0x64
    240  i2c1InterruptHandler       0x40002260   Lc    2  Code  De   0x54
    241  sdmac1ch0InterruptHandler  0x40005380   Lc    2  Code  De   0x50
    242  sdmac1ch1InterruptHandler  0x400055d0   Lc    2  Code  De   0x94
    243  receivedData               0x4000a304   Lc    4  Data  De   0x68
    244  masterConfig               0x400074f8   Lc    2  Data  De   0x18
    245  sendData                   0x40007a7c   Lc    2  Data  De   0x68
    246  currentDataPackageIndex    0x40009e30   Lc    4  Data  De   0x4
    247  slaveConfig                0x40007e14   Lc    2  Data  De   0x18
    248  isTransferComplete         0x40009e84   Lc    4  Data  De   0x1
    249  isAutoTransferComplete     0x40009e48   Lc    4  Data  De   0x1
    250  slave_general_call.c       0x00000000   Lc  Abs  File  De 
    251  masterConfig               0x40007510   Lc    2  Data  De   0x18
    252  slaveConfig                0x40007e2c   Lc    2  Data  De   0x18
    253  sendData                   0x40007ae4   Lc    2  Data  De   0x34
    254  receivedData               0x4000a36c   Lc    4  Data  De   0x34
    255  slave_rx_fna.c             0x00000000   Lc  Abs  File  De 
    256  masterConfig               0x40007528   Lc    2  Data  De   0x18
    257  slaveConfig                0x40007e44   Lc    2  Data  De   0x18
    258  sendData                   0x40007b18   Lc    2  Data  De   0x34
    259  receivedData               0x4000a3a0   Lc    4  Data  De   0x34
    260  i2c_utils.c                0x00000000   Lc  Abs  File  De 
    261  dmac.c                     0x00000000   Lc  Abs  File  De 
    262  slave_tx_delay.c           0x00000000   Lc  Abs  File  De 
    263  masterConfig               0x40007540   Lc    2  Data  De   0x18
    264  slaveConfig                0x40007e5c   Lc    2  Data  De   0x18
    265  sendData                   0x40007b4c   Lc    2  Data  De   0x34
    266  receivedData               0x4000a3d4   Lc    4  Data  De   0x34
    267  renesas_slave_rx_fna_delay.c 0x00000000   Lc  Abs  File  De 
    268  masterConfig               0x40007558   Lc    2  Data  De   0x18
    269  slaveConfig                0x40007e74   Lc    2  Data  De   0x18
    270  sendData                   0x40007b80   Lc    2  Data  De   0x34
    271  receivedData               0x4000a408   Lc    4  Data  De   0x34
    272  mstp_check.c               0x00000000   Lc  Abs  File  De 
    273  checkReg                   0x40001430   Lc    2  Code  De   0x34
    274  result                     0x4000a748   Lc    4  Data  De   0x200
    275  golden                     0x40007100   Lc    2  Data  De   0x200
    276  renesas_slave_rx.c         0x00000000   Lc  Abs  File  De 
    277  masterConfig               0x40007570   Lc    2  Data  De   0x18
    278  slaveConfig                0x40007e8c   Lc    2  Data  De   0x18
    279  sendData                   0x40007bb4   Lc    2  Data  De   0x34
    280  receivedData               0x4000a43c   Lc    4  Data  De   0x34
    281  ddr_init.c                 0x00000000   Lc  Abs  File  De 
    282  pfc.c                      0x00000000   Lc  Abs  File  De 
    283  gic.c                      0x00000000   Lc  Abs  File  De 
    284  cpg.c                      0x00000000   Lc  Abs  File  De 
    285  master_rx.c                0x00000000   Lc  Abs  File  De 
    286  i2c0InterruptHandler       0x40001b20   Lc    2  Code  De   0xb0
    287  i2c1InterruptHandler       0x400022c0   Lc    2  Code  De   0x54
    288  masterConfig               0x40007588   Lc    2  Data  De   0x18
    289  slaveConfig                0x40007ea4   Lc    2  Data  De   0x18
    290  sendData                   0x40007be8   Lc    2  Data  De   0x34
    291  sendDataIndex              0x4000a96c   Lc    4  Data  De   0x4
    292  isTransferComplete         0x40009e88   Lc    4  Data  De   0x1
    293  receivedData               0x4000a470   Lc    4  Data  De   0x34
    294  receivedDataIndex          0x4000a4c4   Lc    4  Data  De   0x4
    295  /design01/rcarv3ufed_master/common_rvc/rcarv3u/VNET1/MASTER_TM/I2C_V3U_RTL/ct/include/rcar_v3u/startup/vectors_ca76.s 0x00000000   Lc  Abs  File  De 
    296  VECTORS                    0x40000000   Lc    2  Sect  De   0x440
    297  /design01/rcarv3ufed_master/common_rvc/rcarv3u/VNET1/MASTER_TM/I2C_V3U_RTL/ct/include/rcar_v3u/startup/startup_cr52.s 0x00000000   Lc  Abs  File  De 
    298  /design01/rcarv3ufed_master/common_rvc/rcarv3u/VNET1/MASTER_TM/I2C_V3U_RTL/ct/include/rcar_v3u/startup/mpu_cr52.s 0x00000000   Lc  Abs  File  De 
    299  /design01/rcarv3ufed_master/common_rvc/rcarv3u/VNET1/MASTER_TM/I2C_V3U_RTL/ct/include/rcar_v3u/startup/vectors_cr52.s 0x00000000   Lc  Abs  File  De 
    300  /design01/rcarv3ufed_master/common_rvc/rcarv3u/VNET1/MASTER_TM/I2C_V3U_RTL/ct/include/rcar_v3u/startup/rel_dbsc4_init_lpddr4_4266_CL40WL18_181012_cr52.s 0x00000000   Lc  Abs  File  De 
    301  /design01/rcarv3ufed_master/common_rvc/rcarv3u/VNET1/MASTER_TM/I2C_V3U_RTL/ct/include/rcar_v3u/startup/rel_dbsc4_init_lpddr4_4266_CL40WL18_181002_ca76.s 0x00000000   Lc  Abs  File  De 
    302  DDR_INIT                   0x000000a0   Lc    1  Sect  De   0x13f8
    303  /design01/rcarv3ufed_master/common_rvc/rcarv3u/VNET1/MASTER_TM/I2C_V3U_RTL/ct/include/rcar_v3u/startup/startup_ca76.s 0x00000000   Lc  Abs  File  De 
    304  STARTUP                    0x00000000   Lc    1  Sect  De   0x78
    305  ../clib/angel/sys.s        0x00000000   Lc  Abs  File  De 
    306  .text                      0x4000048c   Lc    2  Sect  De   0x4
    307  ../clib/angel/startup.s    0x00000000   Lc  Abs  File  De 
    308  !!!main                    0x00000078   Lc    1  Sect  De   0x8
    309  ../clib/angel/kernel.s     0x00000000   Lc  Abs  File  De 
    310  .ARM.Collect$$rtentry$$00000000 0x00000080   Lc    1  Sect  De 
    311  ../clib/angel/kernel.s     0x00000000   Lc  Abs  File  De 
    312  .ARM.Collect$$rtentry$$00000002 0x00000080   Lc    1  Sect  De 
    313  .ARM.Collect$$rtentry$$00000009 0x00000088   Lc    1  Sect  De 
    314  .ARM.Collect$$rtentry$$0000000A 0x00000088   Lc    1  Sect  De   0x4
    315  .ARM.Collect$$rtentry$$0000000C 0x0000008c   Lc    1  Sect  De 
    316  .ARM.Collect$$rtentry$$0000000D 0x0000008c   Lc    1  Sect  De   0x8
    317  ../clib/angel/kernel.s     0x00000000   Lc  Abs  File  De 
    318  ../clib/angel/kernel.s     0x00000000   Lc  Abs  File  De 
    319  .ARM.Collect$$rtentry$$00000007 0x00000080   Lc    1  Sect  De   0x8
    320  .ARM.Collect$$rtentry$$00002718 0x00000098   Lc    1  Sect  De   0x8
    321  __lit__00000000            0x00000098   Lc    1  Data  De   0x8
    322  ../clib/angel/sys.s        0x00000000   Lc  Abs  File  De 
    323  ../clib/stdlib.c           0x00000000   Lc  Abs  File  De 
    324  .text                      0x40000490   Lc    2  Sect  De 
    325  ../clib/angel/boardlib.s   0x00000000   Lc  Abs  File  De 
    326  ../clib/angel/boardlib.s   0x00000000   Lc  Abs  File  De 
    327  ../clib/angel/boardlib.s   0x00000000   Lc  Abs  File  De 
    328  ../clib/libinit.s          0x00000000   Lc  Abs  File  De 
    329  .ARM.Collect$$libinit$$00000000 0x40000440   Lc    2  Sect  De   0xc
    330  ../clib/angel/kernel.s     0x00000000   Lc  Abs  File  De 
    331  .ARM.Collect$$rtexit$$00000000 0x4000046c   Lc    2  Sect  De   0x4
    332  ../clib/libinit.s          0x00000000   Lc  Abs  File  De 
    333  .ARM.Collect$$libinit$$00000001 0x4000044c   Lc    2  Sect  De   0x4
    334  .ARM.Collect$$libinit$$00000004 0x40000450   Lc    2  Sect  De 
    335  .ARM.Collect$$libinit$$0000000A 0x40000450   Lc    2  Sect  De 
    336  .ARM.Collect$$libinit$$0000000C 0x40000450   Lc    2  Sect  De 
    337  .ARM.Collect$$libinit$$0000000E 0x40000450   Lc    2  Sect  De 
    338  .ARM.Collect$$libinit$$00000011 0x40000450   Lc    2  Sect  De 
    339  .ARM.Collect$$libinit$$00000013 0x40000450   Lc    2  Sect  De 
    340  .ARM.Collect$$libinit$$00000015 0x40000450   Lc    2  Sect  De 
    341  .ARM.Collect$$libinit$$00000017 0x40000450   Lc    2  Sect  De 
    342  .ARM.Collect$$libinit$$00000019 0x40000450   Lc    2  Sect  De 
    343  .ARM.Collect$$libinit$$0000001B 0x40000450   Lc    2  Sect  De 
    344  .ARM.Collect$$libinit$$0000001D 0x40000450   Lc    2  Sect  De 
    345  .ARM.Collect$$libinit$$0000001F 0x40000450   Lc    2  Sect  De 
    346  .ARM.Collect$$libinit$$00000021 0x40000450   Lc    2  Sect  De 
    347  .ARM.Collect$$libinit$$00000023 0x40000450   Lc    2  Sect  De 
    348  .ARM.Collect$$libinit$$00000025 0x40000450   Lc    2  Sect  De 
    349  .ARM.Collect$$libinit$$0000002C 0x40000450   Lc    2  Sect  De 
    350  .ARM.Collect$$libinit$$0000002E 0x40000450   Lc    2  Sect  De 
    351  .ARM.Collect$$libinit$$00000030 0x40000450   Lc    2  Sect  De 
    352  .ARM.Collect$$libinit$$00000032 0x40000450   Lc    2  Sect  De 
    353  .ARM.Collect$$libinit$$00000033 0x40000450   Lc    2  Sect  De   0x10
    354  ../clib/libinit.s          0x00000000   Lc  Abs  File  De 
    355  ../clib/angel/kernel.s     0x00000000   Lc  Abs  File  De 
    356  .ARM.Collect$$rtexit$$00000002 0x40000470   Lc    2  Sect  De 
    357  .ARM.Collect$$rtexit$$00000003 0x40000470   Lc    2  Sect  De   0x4
    358  .ARM.Collect$$rtexit$$00000004 0x40000474   Lc    2  Sect  De   0x8
    359  ../clib/armsys.c           0x00000000   Lc  Abs  File  De 
    360  ../fplib/cfplib/fpinit.c   0x00000000   Lc  Abs  File  De 
    361  .emb_text                  0x4000047c   Lc    2  Sect  De   0x10
    362  ../fplib/cfplib/fpinit.c   0x00000000   Lc  Abs  File  De 
    363  ../clib/angel/boardlib.s   0x00000000   Lc  Abs  File  De 
    364  ../clib/armsys.c           0x00000000   Lc  Abs  File  De 
    365  ../clib/armsys.c           0x00000000   Lc  Abs  File  De 
    366  ../clib/libinit.s          0x00000000   Lc  Abs  File  De 
    367  .ARM.Collect$$libshutdown$$00000000 0x40000460   Lc    2  Sect  De   0x4
    368  ../clib/heapalloc.c        0x00000000   Lc  Abs  File  De 
    369  ../clib/signal.c           0x00000000   Lc  Abs  File  De 
    370  ../clib/signal.c           0x00000000   Lc  Abs  File  De 
    371  ../clib/libinit.s          0x00000000   Lc  Abs  File  De 
    372  .ARM.Collect$$libshutdown$$00000002 0x40000464   Lc    2  Sect  De 
    373  .ARM.Collect$$libshutdown$$00000004 0x40000464   Lc    2  Sect  De 
    374  .ARM.Collect$$libshutdown$$00000007 0x40000464   Lc    2  Sect  De 
    375  .ARM.Collect$$libshutdown$$0000000A 0x40000464   Lc    2  Sect  De 
    376  .ARM.Collect$$libshutdown$$0000000C 0x40000464   Lc    2  Sect  De 
    377  .ARM.Collect$$libshutdown$$0000000F 0x40000464   Lc    2  Sect  De 
    378  .ARM.Collect$$libshutdown$$00000010 0x40000464   Lc    2  Sect  De   0x8
    379  ../clib/angel/sysapp.c     0x00000000   Lc  Abs  File  De 
    380  ../clib/signal.c           0x00000000   Lc  Abs  File  De 
    381  ../clib/signal.c           0x00000000   Lc  Abs  File  De 
    382  ../clib/signal.c           0x00000000   Lc  Abs  File  De 
    383  ../clib/signal.c           0x00000000   Lc  Abs  File  De 
    384  ../clib/signal.s           0x00000000   Lc  Abs  File  De 
    385  ../clib/signal.c           0x00000000   Lc  Abs  File  De 
    386  ../clib/signal.c           0x00000000   Lc  Abs  File  De 
    387  ../clib/signal.c           0x00000000   Lc  Abs  File  De 
    388  ../clib/signal.c           0x00000000   Lc  Abs  File  De 
    389  ../clib/signal.c           0x00000000   Lc  Abs  File  De 
    390  ../clib/signal.c           0x00000000   Lc  Abs  File  De 
    391  ../clib/signal.c           0x00000000   Lc  Abs  File  De 
    392  ../clib/signal.c           0x00000000   Lc  Abs  File  De 
    393  ../clib/angel/scatter.c    0x00000000   Lc  Abs  File  De 
    394  .text                      0x400004c0   Lc    2  Sect  De 
    395  ../clib/angel/scatter.c    0x00000000   Lc  Abs  File  De 
    396  .text                      0x40000520   Lc    2  Sect  De 
    397  BuildAttributes$$A64_ISAv8$P$Z$N$DE$K$FP_ARMv8$PE$MPE$A:L22UL41UL21$X:L11$S22US41US21$IEEE1$~IW$USESV6$~STKCKD$USESV7$WCHAR32$ENUMINT$~SHL$OSPACE$EBA8$STANDARDLIB$REQ8$PRES8$EABIv2 0x00000000   Gb  Abs   --   Hi 
    398  __main                     0x00000078   Gb    1  Code  Hi   0x8
    399  __rt_entry                 0x00000080   Gb    1  Code  Hi 
    400  __rt_entry_presh_1         0x00000080   Gb    1  Code  Hi 
    401  __rt_entry_sh              0x00000080   Gb    1  Code  Hi 
    402  __rt_entry_li              0x00000088   Gb    1  Code  Hi 
    403  __rt_entry_postsh_1        0x00000088   Gb    1  Code  Hi 
    404  __rt_entry_main            0x0000008c   Gb    1  Code  Hi 
    405  __rt_entry_postli_1        0x0000008c   Gb    1  Code  Hi 
    406  __ddr_init_bsc             0x000000a0   Gb    1  Code  Hi 
    407  $Ven$XX$L$$__ddr_init      0x00001498   Gb    1  Code  Hi   0x10
    408  $Ven$XX$L$$__scatterload   0x000014a8   Gb    1  Code  Hi   0x10
    409  $Ven$XX$L$$__rt_lib_init   0x000014b8   Gb    1  Code  De   0x10
    410  $Ven$XX$L$$main            0x000014c8   Gb    1  Code  Hi   0x10
    411  $Ven$XX$L$$exit            0x000014d8   Gb    1  Code  De   0x10
    412  Region$$Table$$Base        0x000014e8   Gb    1   --   Hi 
    413  Region$$Table$$Limit       0x00001508   Gb    1   --   Hi 
    414  __vectors_start            0x40000000   Gb    2  Code  Hi 
    415  __rt_lib_init              0x40000440   Gb    2  Code  De 
    416  __rt_lib_init_fp_1         0x4000044c   Gb    2  Code  Hi 
    417  __rt_lib_init_alloca_1     0x40000450   Gb    2  Code  Hi 
    418  __rt_lib_init_argv_1       0x40000450   Gb    2  Code  Hi 
    419  __rt_lib_init_atexit_1     0x40000450   Gb    2  Code  Hi 
    420  __rt_lib_init_clock_1      0x40000450   Gb    2  Code  Hi 
    421  __rt_lib_init_cpp_1        0x40000450   Gb    2  Code  Hi 
    422  __rt_lib_init_exceptions_1 0x40000450   Gb    2  Code  Hi 
    423  __rt_lib_init_fp_trap_1    0x40000450   Gb    2  Code  Hi 
    424  __rt_lib_init_getenv_1     0x40000450   Gb    2  Code  Hi 
    425  __rt_lib_init_heap_1       0x40000450   Gb    2  Code  Hi 
    426  __rt_lib_init_lc_collate_1 0x40000450   Gb    2  Code  Hi 
    427  __rt_lib_init_lc_ctype_1   0x40000450   Gb    2  Code  Hi 
    428  __rt_lib_init_lc_monetary_1 0x40000450   Gb    2  Code  Hi 
    429  __rt_lib_init_lc_numeric_1 0x40000450   Gb    2  Code  Hi 
    430  __rt_lib_init_lc_time_1    0x40000450   Gb    2  Code  Hi 
    431  __rt_lib_init_preinit_1    0x40000450   Gb    2  Code  Hi 
    432  __rt_lib_init_rand_1       0x40000450   Gb    2  Code  Hi 
    433  __rt_lib_init_return       0x40000450   Gb    2  Code  Hi 
    434  __rt_lib_init_signal_1     0x40000450   Gb    2  Code  Hi 
    435  __rt_lib_init_stdio_1      0x40000450   Gb    2  Code  Hi 
    436  __rt_lib_init_user_alloc_1 0x40000450   Gb    2  Code  Hi 
    437  __rt_lib_shutdown          0x40000460   Gb    2  Code  De 
    438  __rt_lib_shutdown_cpp_1    0x40000464   Gb    2  Code  Hi 
    439  __rt_lib_shutdown_fp_trap_1 0x40000464   Gb    2  Code  Hi 
    440  __rt_lib_shutdown_heap_1   0x40000464   Gb    2  Code  Hi 
    441  __rt_lib_shutdown_return   0x40000464   Gb    2  Code  Hi 
    442  __rt_lib_shutdown_signal_1 0x40000464   Gb    2  Code  Hi 
    443  __rt_lib_shutdown_stdio_1  0x40000464   Gb    2  Code  Hi 
    444  __rt_lib_shutdown_user_alloc_1 0x40000464   Gb    2  Code  Hi 
    445  __rt_exit                  0x4000046c   Gb    2  Code  De 
    446  __rt_exit_ls               0x40000470   Gb    2  Code  Hi 
    447  __rt_exit_prels_1          0x40000470   Gb    2  Code  Hi 
    448  __rt_exit_exit             0x40000474   Gb    2  Code  Hi 
    449  _fp_init                   0x4000047c   Gb    2  Code  De   0x10
    450  __semihosting$guard        0x4000048c   Gb    2  Code  De 
    451  __use_no_semihosting_swi   0x4000048c   Gb    2  Code  Hi   0x4
    452  exit                       0x40000490   Gb    2  Code  De   0x2c
    453  __scatterload              0x400004c0   Gb    2  Code  Hi   0x48
    454  __scatterload_rt2          0x400004c0   Gb    2  Code  De 
    455  __scatterload_null         0x40000508   Gb    2  Code  De   0x4
    456  __scatterload_zeroinit     0x40000520   Gb    2  Code  De   0x1c
    457  CPG_ClearBit               0x40000540   Gb    2  Code  Hi   0x28
    458  CPG_SetBit                 0x40000570   Gb    2  Code  Hi   0x28
    459  DMAC_initDescriptorMemory  0x400005a0   Gb    2  Code  Hi   0x2c
    460  GIC_defaultHandler         0x400005d0   Gb    2  Code  Hi   0x4
    461  GIC_enable                 0x400005e0   Gb    2  Code  Hi   0xa0
    462  GIC_enableInterrupt        0x40000680   Gb    2  Code  Hi   0xa8
    463  GIC_endInterrupt           0x40000730   Gb    2  Code  Hi   0xc
    464  GIC_executeInterruptHandler 0x40000740   Gb    2  Code  Hi   0x1c
    465  GIC_getACKID               0x40000760   Gb    2  Code  Hi   0x20
    466  GIC_setInterruptHandler    0x40000780   Gb    2  Code  Hi   0x10
    467  I2C_configPins             0x40000790   Gb    2  Code  Hi   0x1c
    468  I2C_masterClearInterruptStatus 0x400007b0   Gb    2  Code  Hi   0x10
    469  I2C_masterDisable          0x400007c0   Gb    2  Code  Hi   0x10
    470  I2C_masterDisableDMAReceive 0x400007d0   Gb    2  Code  Hi   0x10
    471  I2C_masterDisableDMATransmit 0x400007e0   Gb    2  Code  Hi   0x10
    472  I2C_masterDisableStartByteTransmit 0x400007f0   Gb    2  Code  Hi   0x10
    473  I2C_masterDisableStartGeneration 0x40000800   Gb    2  Code  Hi   0x10
    474  I2C_masterEnable           0x40000810   Gb    2  Code  Hi   0x10
    475  I2C_masterEnableDMAContinuousReceive 0x40000820   Gb    2  Code  Hi   0x10
    476  I2C_masterEnableDMAReceive 0x40000830   Gb    2  Code  Hi   0x10
    477  I2C_masterEnableDMATransmit 0x40000840   Gb    2  Code  Hi   0x10
    478  I2C_masterEnableInterrupt  0x40000850   Gb    2  Code  Hi   0x10
    479  I2C_masterGetInterruptStatus 0x40000860   Gb    2  Code  Hi   0xc
    480  I2C_masterInit             0x40000870   Gb    2  Code  Hi   0x3b8
    481  I2C_masterReceiveMultipleByteFinish 0x40000c30   Gb    2  Code  Hi   0xc
    482  I2C_masterReceiveMultipleByteNext 0x40000c40   Gb    2  Code  Hi   0xc
    483  I2C_masterReceiveMultipleByteStop 0x40000c50   Gb    2  Code  Hi   0x18
    484  I2C_masterReceiveStart     0x40000c70   Gb    2  Code  Hi   0x10
    485  I2C_masterRestart          0x40000c80   Gb    2  Code  Hi   0x1c
    486  I2C_masterSendMultipleByteNext 0x40000ca0   Gb    2  Code  Hi   0x8
    487  I2C_masterSendMultipleByteStart 0x40000cb0   Gb    2  Code  Hi   0x14
    488  I2C_masterSendMultipleByteStop 0x40000cd0   Gb    2  Code  Hi   0x10
    489  I2C_masterSetDMAContinuousReceiveBlockCount 0x40000ce0   Gb    2  Code  Hi   0x14
    490  I2C_masterSetDMAContinuousTransferCount 0x40000d00   Gb    2  Code  Hi   0x10
    491  I2C_modelConnect           0x40000d10   Gb    2  Code  Hi   0x4
    492  I2C_modelDisable           0x40000d20   Gb    2  Code  Hi   0x4
    493  I2C_releasePins            0x40000d30   Gb    2  Code  Hi   0x1c
    494  I2C_slaveClearInterruptStatus 0x40000d50   Gb    2  Code  Hi   0x10
    495  I2C_slaveDisable           0x40000d60   Gb    2  Code  Hi   0x10
    496  I2C_slaveDisableDMAReceive 0x40000d70   Gb    2  Code  Hi   0x10
    497  I2C_slaveDisableDMATransmit 0x40000d80   Gb    2  Code  Hi   0x10
    498  I2C_slaveEnable            0x40000d90   Gb    2  Code  Hi   0x10
    499  I2C_slaveEnableDMAReceive  0x40000da0   Gb    2  Code  Hi   0x10
    500  I2C_slaveEnableDMATransmit 0x40000db0   Gb    2  Code  Hi   0x10
    501  I2C_slaveEnableInterrupt   0x40000dc0   Gb    2  Code  Hi   0x10
    502  I2C_slaveGetInterruptStatus 0x40000dd0   Gb    2  Code  Hi   0xc
    503  I2C_slaveInit              0x40000de0   Gb    2  Code  Hi   0x3bc
    504  I2C_slaveReceiveMultipleByteFinish 0x400011a0   Gb    2  Code  Hi   0xc
    505  I2C_slaveReceiveMultipleByteNext 0x400011b0   Gb    2  Code  Hi   0xc
    506  I2C_slaveReceiveMultipleByteStop 0x400011c0   Gb    2  Code  Hi   0x18
    507  I2C_slaveSetData           0x400011e0   Gb    2  Code  Hi   0xc
    508  IRQ_Handler                0x400011f0   Gb    2  Code  Hi   0x10
    509  PFC_ClearMultipleBit       0x40001200   Gb    2  Code  Hi   0x18
    510  PFC_SetMultipleBit         0x40001220   Gb    2  Code  Hi   0x18
    511  SError_Handler             0x40001240   Gb    2  Code  Hi   0xc
    512  Sim_Delay                  0x40001250   Gb    2  Code  Hi   0x10
    513  Sim_Dump                   0x40001260   Gb    2  Code  Hi   0x24
    514  Sim_Judge                  0x40001290   Gb    2  Code  Hi   0x24
    515  Sim_Stop                   0x400012c0   Gb    2  Code  Hi   0xc
    516  Synchronous_Handler        0x400012d0   Gb    2  Code  Hi   0xc
    517  __ddr_init                 0x400012e0   Gb    2  Code  Hi   0xc8
    518  _sys_exit                  0x400013b0   Gb    2  Code  Hi   0x4
    519  interrupt_check            0x40002320   Gb    2  Code  Hi   0x114
    520  main                       0x40002440   Gb    2  Code  Hi   0x90
    521  master_arbitration_lost    0x400024d0   Gb    2  Code  Hi   0x160
    522  master_general_call        0x40002630   Gb    2  Code  Hi   0x114
    523  master_rx                  0x40002750   Gb    2  Code  Hi   0x120
    524  master_rx_dma              0x40002870   Gb    2  Code  Hi   0x2a0
    525  master_rx_dma_continuous   0x40002b10   Gb    2  Code  Hi   0x378
    526  master_send_start_byte     0x40002e90   Gb    2  Code  Hi   0x114
    527  master_tx                  0x40002fb0   Gb    2  Code  Hi   0x114
    528  master_tx_dma              0x400030d0   Gb    2  Code  Hi   0x298
    529  master_tx_dma_continuous   0x40003370   Gb    2  Code  Hi   0x37c
    530  master_tx_fsb              0x400036f0   Gb    2  Code  Hi   0x114
    531  master_tx_rpt_master_rx    0x40003810   Gb    2  Code  Hi   0x114
    532  mstp_check                 0x40003930   Gb    2  Code  Hi   0x5dc
    533  pad_check                  0x40003f10   Gb    2  Code  Hi   0x114
    534  reg_check                  0x40004030   Gb    2  Code  Hi   0x138
    535  renesas_slave_rx           0x40004170   Gb    2  Code  Hi   0x200
    536  renesas_slave_rx_delay     0x40004370   Gb    2  Code  Hi   0x208
    537  renesas_slave_rx_fna       0x40004580   Gb    2  Code  Hi   0x1fc
    538  renesas_slave_rx_fna_delay 0x40004780   Gb    2  Code  Hi   0x1f8
    539  renesas_slave_rx_fna_sdbs  0x40004980   Gb    2  Code  Hi   0x224
    540  renesas_slave_rx_sdbs      0x40004bb0   Gb    2  Code  Hi   0x1f4
    541  renesas_slave_tx           0x40004db0   Gb    2  Code  Hi   0x218
    542  renesas_slave_tx_delay     0x40004fd0   Gb    2  Code  Hi   0x220
    543  slave_general_call         0x40005670   Gb    2  Code  Hi   0x1ec
    544  slave_nack_addr            0x40005860   Gb    2  Code  Hi   0x128
    545  slave_rx                   0x40005990   Gb    2  Code  Hi   0x1ec
    546  slave_rx_dma               0x40005b80   Gb    2  Code  Hi   0x2b4
    547  slave_rx_fna               0x40005e40   Gb    2  Code  Hi   0x224
    548  slave_tx                   0x40006070   Gb    2  Code  Hi   0x218
    549  slave_tx_delay             0x40006290   Gb    2  Code  Hi   0x220
    550  slave_tx_dma               0x400064b0   Gb    2  Code  Hi   0x2a8
    551  srst_check                 0x40006760   Gb    2  Code  Hi   0x550
    552  $Ven$XX$L$$__rt_entry      0x40006cb0   Gb    2  Code  Hi   0x10
    553  GIC_intHandler             0x40007ed8   Gb    3  Data  Hi   0x1e48
    554  __ddr_init_sram            0x40009d20   Gb    3  Data  Hi   0x8
    555  pattern                    0x40009d28   Gb    3  Data  Hi   0x100
    556  DumpOffset                 0x40009e28   Gb    4  Data  Hi   0x4
    557  Image$$ARM_LIB_HEAP$$ZI$$Base 0x4000a970   Gb  Abs   --   Hi 
    558  Image$$ARM_LIB_HEAP$$ZI$$Limit 0x4000a970   Gb  Abs   --   Hi 
    559  Image$$ARM_LIB_STACK$$ZI$$Limit 0x70000000   Gb  Abs   --   Hi 


====================================

** Section #9

    Name        : .shstrtab
    Type        : SHT_STRTAB (0x00000003)
    Flags       : None (0x00000000)
    Addr        : 0x00000000
    File Offset : 62892 (0xf5ac)
    Size        : 73 bytes (0x49)
    Link        : SHN_UNDEF
    Info        : 0
    Alignment   : 1
    Entry Size  : 0

            #  Offset String
        ====================================

            1      1: .strtab
            2      9: .shstrtab
            3     19: .symtab
            4     27: .comment
            5     36: .debug_frame
            6     49: ARM_LIB_STACK
            7     63: ER10
            8     68: ER00


====================================

** Section #10

    Name        : .strtab
    Type        : SHT_STRTAB (0x00000003)
    Flags       : None (0x00000000)
    Addr        : 0x00000000
    File Offset : 62965 (0xf5f5)
    Size        : 6997 bytes (0x1b55)
    Link        : SHN_UNDEF
    Info        : 0
    Alignment   : 1
    Entry Size  : 0

            #  Offset String
        ====================================

            1      1: Image$$ARM_LIB_STACK$$ZI$$Limit
            2     33: Image$$ARM_LIB_HEAP$$ZI$$Limit
            3     64: Image$$ARM_LIB_HEAP$$ZI$$Base
            4     94: DumpOffset
            5    105: pattern
            6    113: __ddr_init_sram
            7    129: GIC_intHandler
            8    144: $Ven$XX$L$$__rt_entry
            9    166: srst_check
           10    177: slave_tx_dma
           11    190: slave_rx_dma
           12    203: slave_nack_addr
           13    219: slave_general_call
           14    238: renesas_slave_tx_delay
           15    261: renesas_slave_tx
           16    278: renesas_slave_rx_sdbs
           17    300: renesas_slave_rx_fna_sdbs
           18    326: renesas_slave_rx_fna_delay
           19    353: renesas_slave_rx_fna
           20    374: renesas_slave_rx_delay
           21    397: renesas_slave_rx
           22    414: reg_check
           23    424: pad_check
           24    434: mstp_check
           25    445: master_tx_rpt_master_rx
           26    469: master_tx_fsb
           27    483: master_tx_dma_continuous
           28    508: master_tx_dma
           29    522: master_tx
           30    532: master_send_start_byte
           31    555: master_rx_dma_continuous
           32    580: master_rx_dma
           33    594: master_general_call
           34    614: master_arbitration_lost
           35    638: interrupt_check
           36    654: _sys_exit
           37    664: Synchronous_Handler
           38    684: Sim_Stop
           39    693: Sim_Judge
           40    703: Sim_Dump
           41    712: Sim_Delay
           42    722: SError_Handler
           43    737: PFC_SetMultipleBit
           44    756: PFC_ClearMultipleBit
           45    777: IRQ_Handler
           46    789: I2C_slaveSetData
           47    806: I2C_slaveReceiveMultipleByteStop
           48    839: I2C_slaveReceiveMultipleByteNext
           49    872: I2C_slaveReceiveMultipleByteFinish
           50    907: I2C_slaveInit
           51    921: I2C_slaveGetInterruptStatus
           52    949: I2C_slaveEnableInterrupt
           53    974: I2C_slaveEnableDMATransmit
           54   1001: I2C_slaveEnableDMAReceive
           55   1027: I2C_slaveEnable
           56   1043: I2C_slaveDisableDMATransmit
           57   1071: I2C_slaveDisableDMAReceive
           58   1098: I2C_slaveDisable
           59   1115: I2C_slaveClearInterruptStatus
           60   1145: I2C_releasePins
           61   1161: I2C_modelDisable
           62   1178: I2C_modelConnect
           63   1195: I2C_masterSetDMAContinuousTransferCount
           64   1235: I2C_masterSetDMAContinuousReceiveBlockCount
           65   1279: I2C_masterSendMultipleByteStop
           66   1310: I2C_masterSendMultipleByteStart
           67   1342: I2C_masterSendMultipleByteNext
           68   1373: I2C_masterRestart
           69   1391: I2C_masterReceiveStart
           70   1414: I2C_masterReceiveMultipleByteStop
           71   1448: I2C_masterReceiveMultipleByteNext
           72   1482: I2C_masterReceiveMultipleByteFinish
           73   1518: I2C_masterInit
           74   1533: I2C_masterGetInterruptStatus
           75   1562: I2C_masterEnableInterrupt
           76   1588: I2C_masterEnableDMATransmit
           77   1616: I2C_masterEnableDMAReceive
           78   1643: I2C_masterEnableDMAContinuousReceive
           79   1680: I2C_masterEnable
           80   1697: I2C_masterDisableStartGeneration
           81   1730: I2C_masterDisableStartByteTransmit
           82   1765: I2C_masterDisableDMATransmit
           83   1794: I2C_masterDisableDMAReceive
           84   1822: I2C_masterDisable
           85   1840: I2C_masterClearInterruptStatus
           86   1871: I2C_configPins
           87   1886: GIC_setInterruptHandler
           88   1910: GIC_getACKID
           89   1923: GIC_executeInterruptHandler
           90   1951: GIC_endInterrupt
           91   1968: GIC_enableInterrupt
           92   1988: GIC_enable
           93   1999: GIC_defaultHandler
           94   2018: DMAC_initDescriptorMemory
           95   2044: CPG_SetBit
           96   2055: CPG_ClearBit
           97   2068: __scatterload_zeroinit
           98   2091: __scatterload_null
           99   2110: __scatterload_rt2
          100   2128: __use_no_semihosting_swi
          101   2153: __semihosting$guard
          102   2173: _fp_init
          103   2182: __rt_exit_exit
          104   2197: __rt_exit_prels_1
          105   2215: __rt_exit_ls
          106   2228: __rt_exit
          107   2238: __rt_lib_shutdown_user_alloc_1
          108   2269: __rt_lib_shutdown_stdio_1
          109   2295: __rt_lib_shutdown_signal_1
          110   2322: __rt_lib_shutdown_return
          111   2347: __rt_lib_shutdown_heap_1
          112   2372: __rt_lib_shutdown_fp_trap_1
          113   2400: __rt_lib_shutdown_cpp_1
          114   2424: __rt_lib_shutdown
          115   2442: __rt_lib_init_user_alloc_1
          116   2469: __rt_lib_init_stdio_1
          117   2491: __rt_lib_init_signal_1
          118   2514: __rt_lib_init_return
          119   2535: __rt_lib_init_rand_1
          120   2556: __rt_lib_init_preinit_1
          121   2580: __rt_lib_init_lc_time_1
          122   2604: __rt_lib_init_lc_numeric_1
          123   2631: __rt_lib_init_lc_monetary_1
          124   2659: __rt_lib_init_lc_ctype_1
          125   2684: __rt_lib_init_lc_collate_1
          126   2711: __rt_lib_init_heap_1
          127   2732: __rt_lib_init_getenv_1
          128   2755: __rt_lib_init_fp_trap_1
          129   2779: __rt_lib_init_exceptions_1
          130   2806: __rt_lib_init_cpp_1
          131   2826: __rt_lib_init_clock_1
          132   2848: __rt_lib_init_atexit_1
          133   2871: __rt_lib_init_argv_1
          134   2892: __rt_lib_init_alloca_1
          135   2915: __rt_lib_init_fp_1
          136   2934: __vectors_start
          137   2950: Region$$Table$$Limit
          138   2971: Region$$Table$$Base
          139   2991: $Ven$XX$L$$exit
          140   3007: $Ven$XX$L$$main
          141   3023: $Ven$XX$L$$__rt_lib_init
          142   3048: $Ven$XX$L$$__scatterload
          143   3073: $Ven$XX$L$$__ddr_init
          144   3095: __ddr_init_bsc
          145   3110: __rt_entry_postli_1
          146   3130: __rt_entry_main
          147   3146: __rt_entry_postsh_1
          148   3166: __rt_entry_li
          149   3180: __rt_entry_sh
          150   3194: __rt_entry_presh_1
          151   3213: __main
          152   3220: BuildAttributes$$A64_ISAv8$P$Z$N$DE$K$FP_ARMv8$PE$MPE$A:L22UL41UL21$X:L11$S22US41US21$IEEE1$~IW$USESV6$~STKCKD$USESV7$WCHAR32$ENUMINT$~SHL$OSPACE$EBA8$STANDARDLIB$REQ8$PRES8$EABIv2
          153   3401: ../clib/angel/scatter.c
          154   3425: ../clib/signal.s
          155   3442: ../clib/angel/sysapp.c
          156   3465: .ARM.Collect$$libshutdown$$00000010
          157   3501: .ARM.Collect$$libshutdown$$0000000F
          158   3537: .ARM.Collect$$libshutdown$$0000000C
          159   3573: .ARM.Collect$$libshutdown$$0000000A
          160   3609: .ARM.Collect$$libshutdown$$00000007
          161   3645: .ARM.Collect$$libshutdown$$00000004
          162   3681: .ARM.Collect$$libshutdown$$00000002
          163   3717: ../clib/signal.c
          164   3734: ../clib/heapalloc.c
          165   3754: .ARM.Collect$$libshutdown$$00000000
          166   3790: .emb_text
          167   3800: ../fplib/cfplib/fpinit.c
          168   3825: ../clib/armsys.c
          169   3842: .ARM.Collect$$rtexit$$00000004
          170   3873: .ARM.Collect$$rtexit$$00000003
          171   3904: .ARM.Collect$$rtexit$$00000002
          172   3935: .ARM.Collect$$libinit$$00000033
          173   3967: .ARM.Collect$$libinit$$00000032
          174   3999: .ARM.Collect$$libinit$$00000030
          175   4031: .ARM.Collect$$libinit$$0000002E
          176   4063: .ARM.Collect$$libinit$$0000002C
          177   4095: .ARM.Collect$$libinit$$00000025
          178   4127: .ARM.Collect$$libinit$$00000023
          179   4159: .ARM.Collect$$libinit$$00000021
          180   4191: .ARM.Collect$$libinit$$0000001F
          181   4223: .ARM.Collect$$libinit$$0000001D
          182   4255: .ARM.Collect$$libinit$$0000001B
          183   4287: .ARM.Collect$$libinit$$00000019
          184   4319: .ARM.Collect$$libinit$$00000017
          185   4351: .ARM.Collect$$libinit$$00000015
          186   4383: .ARM.Collect$$libinit$$00000013
          187   4415: .ARM.Collect$$libinit$$00000011
          188   4447: .ARM.Collect$$libinit$$0000000E
          189   4479: .ARM.Collect$$libinit$$0000000C
          190   4511: .ARM.Collect$$libinit$$0000000A
          191   4543: .ARM.Collect$$libinit$$00000004
          192   4575: .ARM.Collect$$libinit$$00000001
          193   4607: .ARM.Collect$$rtexit$$00000000
          194   4638: .ARM.Collect$$libinit$$00000000
          195   4670: ../clib/libinit.s
          196   4688: ../clib/angel/boardlib.s
          197   4713: ../clib/stdlib.c
          198   4730: __lit__00000000
          199   4746: .ARM.Collect$$rtentry$$00002718
          200   4778: .ARM.Collect$$rtentry$$00000007
          201   4810: .ARM.Collect$$rtentry$$0000000D
          202   4842: .ARM.Collect$$rtentry$$0000000C
          203   4874: .ARM.Collect$$rtentry$$0000000A
          204   4906: .ARM.Collect$$rtentry$$00000009
          205   4938: .ARM.Collect$$rtentry$$00000002
          206   4970: .ARM.Collect$$rtentry$$00000000
          207   5002: ../clib/angel/kernel.s
          208   5025: !!!main
          209   5033: ../clib/angel/startup.s
          210   5057: .text
          211   5063: ../clib/angel/sys.s
          212   5083: STARTUP
          213   5091: /design01/rcarv3ufed_master/common_rvc/rcarv3u/VNET1/MASTER_TM/I2C_V3U_RTL/ct/include/rcar_v3u/startup/startup_ca76.s
          214   5209: DDR_INIT
          215   5218: /design01/rcarv3ufed_master/common_rvc/rcarv3u/VNET1/MASTER_TM/I2C_V3U_RTL/ct/include/rcar_v3u/startup/rel_dbsc4_init_lpddr4_4266_CL40WL18_181002_ca76.s
          216   5371: /design01/rcarv3ufed_master/common_rvc/rcarv3u/VNET1/MASTER_TM/I2C_V3U_RTL/ct/include/rcar_v3u/startup/rel_dbsc4_init_lpddr4_4266_CL40WL18_181012_cr52.s
          217   5524: /design01/rcarv3ufed_master/common_rvc/rcarv3u/VNET1/MASTER_TM/I2C_V3U_RTL/ct/include/rcar_v3u/startup/vectors_cr52.s
          218   5642: /design01/rcarv3ufed_master/common_rvc/rcarv3u/VNET1/MASTER_TM/I2C_V3U_RTL/ct/include/rcar_v3u/startup/mpu_cr52.s
          219   5756: /design01/rcarv3ufed_master/common_rvc/rcarv3u/VNET1/MASTER_TM/I2C_V3U_RTL/ct/include/rcar_v3u/startup/startup_cr52.s
          220   5874: VECTORS
          221   5882: /design01/rcarv3ufed_master/common_rvc/rcarv3u/VNET1/MASTER_TM/I2C_V3U_RTL/ct/include/rcar_v3u/startup/vectors_ca76.s
          222   6000: cpg.c
          223   6006: gic.c
          224   6012: pfc.c
          225   6018: ddr_init.c
          226   6029: renesas_slave_rx.c
          227   6048: mstp_check.c
          228   6061: renesas_slave_rx_fna_delay.c
          229   6090: dmac.c
          230   6097: i2c_utils.c
          231   6109: slave_general_call.c
          232   6130: master_rx_dma_continuous.c
          233   6157: i2c.c
          234   6163: slave_tx_dma.c
          235   6178: renesas_slave_tx_delay.c
          236   6203: reg_check.c
          237   6215: slave_nack_addr.c
          238   6233: master_tx_fsb.c
          239   6249: master_tx_rpt_master_rx.c
          240   6275: isMasterLostArbitration
          241   6299: masterConfig1
          242   6313: slaveConfig0
          243   6326: masterConfig0
          244   6340: master_arbitration_lost.c
          245   6366: sim_utils.c
          246   6378: renesas_slave_rx_delay.c
          247   6403: pad_check.c
          248   6415: currentDataPackageIndex
          249   6439: master_tx_dma_continuous.c
          250   6466: master_tx.c
          251   6478: interrupt_check.c
          252   6496: retarget.c
          253   6507: master_send_start_byte.c
          254   6532: master_rx_dma.c
          255   6548: renesas_slave_rx_fna_sdbs.c
          256   6576: slave_rx_dma.c
          257   6591: renesas_slave_tx.c
          258   6610: renesas_slave_rx_fna.c
          259   6633: renesas_slave_rx_sdbs.c
          260   6657: main.c
          261   6664: exception_handlers.c
          262   6685: golden
          263   6692: result
          264   6699: checkReg
          265   6708: srst_check.c
          266   6721: isAutoTransferComplete
          267   6744: sdmac1ch1InterruptHandler
          268   6770: sdmac1ch0InterruptHandler
          269   6796: master_tx_dma.c
          270   6812: receivedDataIndex
          271   6830: receivedData
          272   6843: isTransferComplete
          273   6862: sendDataIndex
          274   6876: sendData
          275   6885: slaveConfig
          276   6897: masterConfig
          277   6910: i2c1InterruptHandler
          278   6931: i2c0InterruptHandler
          279   6952: master_general_call.c
          280   6974: $x.1
          281   6979: $d.realdata
          282   6991: $d
          283   6994: $x


====================================

