
/media/electronicdog/Windows/Users/lesyh/OneDrive/Documents/Renesas/bridge/v3.0.0/sample/gcc/full_check_master/debug/image.elf:     file format elf32-littlearm


Disassembly of section .text:

00000000 <FIQ_EXC-0x1c>:
       0:	ea00001a 	b	70 <Reset_Handler>
       4:	ea000005 	b	20 <UDF_EXC>
       8:	ea000008 	b	30 <SVC_EXC>
       c:	ea00000b 	b	40 <PAB_EXC>
      10:	ea00000e 	b	50 <DAB_EXC>
      14:	e320f000 	nop	{0}
      18:	ea000010 	b	60 <IRQ_EXC>

0000001c <FIQ_EXC>:
      1c:	eafffffe 	b	1c <FIQ_EXC>

00000020 <UDF_EXC>:
      20:	e92d5c0f 	push	{r0, r1, r2, r3, sl, fp, ip, lr}
      24:	eb0017ba 	bl	5f14 <UndefinedInstruction_Handler>
      28:	e8bd5c0f 	pop	{r0, r1, r2, r3, sl, fp, ip, lr}
      2c:	e160006e 	eret

00000030 <SVC_EXC>:
      30:	e92d5c0f 	push	{r0, r1, r2, r3, sl, fp, ip, lr}
      34:	eb0017b9 	bl	5f20 <SupervisorCall_Handler>
      38:	e8bd5c0f 	pop	{r0, r1, r2, r3, sl, fp, ip, lr}
      3c:	e160006e 	eret

00000040 <PAB_EXC>:
      40:	e92d5c0f 	push	{r0, r1, r2, r3, sl, fp, ip, lr}
      44:	eb0017b8 	bl	5f2c <PrefetchAbort_Handler>
      48:	e8bd5c0f 	pop	{r0, r1, r2, r3, sl, fp, ip, lr}
      4c:	e160006e 	eret

00000050 <DAB_EXC>:
      50:	e92d5c0f 	push	{r0, r1, r2, r3, sl, fp, ip, lr}
      54:	eb0017b7 	bl	5f38 <DataAbort_Handler>
      58:	e8bd5c0f 	pop	{r0, r1, r2, r3, sl, fp, ip, lr}
      5c:	e160006e 	eret

00000060 <IRQ_EXC>:
      60:	e92d5c0f 	push	{r0, r1, r2, r3, sl, fp, ip, lr}
      64:	eb0017b6 	bl	5f44 <IRQ_Handler>
      68:	e8bd5c0f 	pop	{r0, r1, r2, r3, sl, fp, ip, lr}
      6c:	e160006e 	eret

00000070 <Reset_Handler>:
      70:	ebffffe2 	bl	0 <ATTR0>
      74:	e3a0060f 	mov	r0, #15728640	; 0xf00000
      78:	ee010f50 	mcr	15, 0, r0, cr1, cr0, {2}
      7c:	e3a03000 	mov	r3, #0
      80:	e3443000 	movt	r3, #16384	; 0x4000
      84:	eee83a10 	vmsr	fpexc, r3
      88:	e59f0008 	ldr	r0, [pc, #8]	; 98 <Reset_Handler+0x28>
      8c:	ee8c0f10 	mcr	15, 4, r0, cr12, cr0, {0}
      90:	ee0c0f10 	mcr	15, 0, r0, cr12, cr0, {0}
      94:	ea0008cb 	b	23c8 <main>
      98:	00000000 	.word	0x00000000
      9c:	e59f0c14 	ldr	r0, [pc, #3092]	; cb8 <wait_init_complete_DBS1+0x148>
      a0:	e5901000 	ldr	r1, [r0]
      a4:	e3c11018 	bic	r1, r1, #24
      a8:	e1e02001 	mvn	r2, r1
      ac:	e59f0c08 	ldr	r0, [pc, #3080]	; cbc <wait_init_complete_DBS1+0x14c>
      b0:	e5802000 	str	r2, [r0]
      b4:	e59f0c04 	ldr	r0, [pc, #3076]	; cc0 <wait_init_complete_DBS1+0x150>
      b8:	e5801000 	str	r1, [r0]
      bc:	e59f0bf4 	ldr	r0, [pc, #3060]	; cb8 <wait_init_complete_DBS1+0x148>
      c0:	e5901000 	ldr	r1, [r0]
      c4:	e3a00010 	mov	r0, #16

000000c8 <wait_mstp_setting_end>:
      c8:	e2400001 	sub	r0, r0, #1
      cc:	e3500000 	cmp	r0, #0
      d0:	1afffffc 	bne	c8 <wait_mstp_setting_end>
      d4:	ea00000c 	b	10c <END_INIT_SUBROUTINE>
      d8:	e320f000 	nop	{0}

000000dc <SUB_WRITE_PHY_REG>:
      dc:	e59f4be0 	ldr	r4, [pc, #3040]	; cc4 <wait_init_complete_DBS1+0x154>
      e0:	e0011004 	and	r1, r1, r4
      e4:	e5821000 	str	r1, [r2]
      e8:	e5830000 	str	r0, [r3]

000000ec <LOOP_PHY_ACCESS>:
      ec:	e5920000 	ldr	r0, [r2]
      f0:	e3a04902 	mov	r4, #32768	; 0x8000
      f4:	e0000004 	and	r0, r0, r4
      f8:	e1500004 	cmp	r0, r4
      fc:	1afffffa 	bne	ec <LOOP_PHY_ACCESS>
     100:	e1811004 	orr	r1, r1, r4
     104:	e5821000 	str	r1, [r2]
     108:	e12fff1e 	bx	lr

0000010c <END_INIT_SUBROUTINE>:
     10c:	e59f0bb4 	ldr	r0, [pc, #2996]	; cc8 <wait_init_complete_DBS1+0x158>
     110:	e59f1bb4 	ldr	r1, [pc, #2996]	; ccc <wait_init_complete_DBS1+0x15c>
     114:	e5810000 	str	r0, [r1]
     118:	e59f0ba8 	ldr	r0, [pc, #2984]	; cc8 <wait_init_complete_DBS1+0x158>
     11c:	e59f1bac 	ldr	r1, [pc, #2988]	; cd0 <wait_init_complete_DBS1+0x160>
     120:	e5810000 	str	r0, [r1]
     124:	e3a0000a 	mov	r0, #10
     128:	e59f1ba4 	ldr	r1, [pc, #2980]	; cd4 <wait_init_complete_DBS1+0x164>
     12c:	e5810000 	str	r0, [r1]
     130:	e3a0000a 	mov	r0, #10
     134:	e59f1b9c 	ldr	r1, [pc, #2972]	; cd8 <wait_init_complete_DBS1+0x168>
     138:	e5810000 	str	r0, [r1]
     13c:	e59f0b98 	ldr	r0, [pc, #2968]	; cdc <wait_init_complete_DBS1+0x16c>
     140:	e59f1b98 	ldr	r1, [pc, #2968]	; ce0 <wait_init_complete_DBS1+0x170>
     144:	e5810000 	str	r0, [r1]
     148:	e59f0b8c 	ldr	r0, [pc, #2956]	; cdc <wait_init_complete_DBS1+0x16c>
     14c:	e59f1b90 	ldr	r1, [pc, #2960]	; ce4 <wait_init_complete_DBS1+0x174>
     150:	e5810000 	str	r0, [r1]
     154:	e59f0b80 	ldr	r0, [pc, #2944]	; cdc <wait_init_complete_DBS1+0x16c>
     158:	e59f1b88 	ldr	r1, [pc, #2952]	; ce8 <wait_init_complete_DBS1+0x178>
     15c:	e5810000 	str	r0, [r1]
     160:	e59f0b74 	ldr	r0, [pc, #2932]	; cdc <wait_init_complete_DBS1+0x16c>
     164:	e59f1b80 	ldr	r1, [pc, #2944]	; cec <wait_init_complete_DBS1+0x17c>
     168:	e5810000 	str	r0, [r1]
     16c:	e59f0b68 	ldr	r0, [pc, #2920]	; cdc <wait_init_complete_DBS1+0x16c>
     170:	e59f1b78 	ldr	r1, [pc, #2936]	; cf0 <wait_init_complete_DBS1+0x180>
     174:	e5810000 	str	r0, [r1]
     178:	e59f0b5c 	ldr	r0, [pc, #2908]	; cdc <wait_init_complete_DBS1+0x16c>
     17c:	e59f1b70 	ldr	r1, [pc, #2928]	; cf4 <wait_init_complete_DBS1+0x184>
     180:	e5810000 	str	r0, [r1]
     184:	e59f0b50 	ldr	r0, [pc, #2896]	; cdc <wait_init_complete_DBS1+0x16c>
     188:	e59f1b68 	ldr	r1, [pc, #2920]	; cf8 <wait_init_complete_DBS1+0x188>
     18c:	e5810000 	str	r0, [r1]
     190:	e59f0b44 	ldr	r0, [pc, #2884]	; cdc <wait_init_complete_DBS1+0x16c>
     194:	e59f1b60 	ldr	r1, [pc, #2912]	; cfc <wait_init_complete_DBS1+0x18c>
     198:	e5810000 	str	r0, [r1]
     19c:	e59f0b38 	ldr	r0, [pc, #2872]	; cdc <wait_init_complete_DBS1+0x16c>
     1a0:	e59f1b58 	ldr	r1, [pc, #2904]	; d00 <wait_init_complete_DBS1+0x190>
     1a4:	e5810000 	str	r0, [r1]
     1a8:	e59f0b2c 	ldr	r0, [pc, #2860]	; cdc <wait_init_complete_DBS1+0x16c>
     1ac:	e59f1b50 	ldr	r1, [pc, #2896]	; d04 <wait_init_complete_DBS1+0x194>
     1b0:	e5810000 	str	r0, [r1]
     1b4:	e59f0b20 	ldr	r0, [pc, #2848]	; cdc <wait_init_complete_DBS1+0x16c>
     1b8:	e59f1b48 	ldr	r1, [pc, #2888]	; d08 <wait_init_complete_DBS1+0x198>
     1bc:	e5810000 	str	r0, [r1]
     1c0:	e59f0b14 	ldr	r0, [pc, #2836]	; cdc <wait_init_complete_DBS1+0x16c>
     1c4:	e59f1b40 	ldr	r1, [pc, #2880]	; d0c <wait_init_complete_DBS1+0x19c>
     1c8:	e5810000 	str	r0, [r1]
     1cc:	e59f0b08 	ldr	r0, [pc, #2824]	; cdc <wait_init_complete_DBS1+0x16c>
     1d0:	e59f1b38 	ldr	r1, [pc, #2872]	; d10 <wait_init_complete_DBS1+0x1a0>
     1d4:	e5810000 	str	r0, [r1]
     1d8:	e59f0afc 	ldr	r0, [pc, #2812]	; cdc <wait_init_complete_DBS1+0x16c>
     1dc:	e59f1b30 	ldr	r1, [pc, #2864]	; d14 <wait_init_complete_DBS1+0x1a4>
     1e0:	e5810000 	str	r0, [r1]
     1e4:	e59f0af0 	ldr	r0, [pc, #2800]	; cdc <wait_init_complete_DBS1+0x16c>
     1e8:	e59f1b28 	ldr	r1, [pc, #2856]	; d18 <wait_init_complete_DBS1+0x1a8>
     1ec:	e5810000 	str	r0, [r1]
     1f0:	e59f0ae4 	ldr	r0, [pc, #2788]	; cdc <wait_init_complete_DBS1+0x16c>
     1f4:	e59f1b20 	ldr	r1, [pc, #2848]	; d1c <wait_init_complete_DBS1+0x1ac>
     1f8:	e5810000 	str	r0, [r1]
     1fc:	e3a00000 	mov	r0, #0
     200:	e59f1b18 	ldr	r1, [pc, #2840]	; d20 <wait_init_complete_DBS1+0x1b0>
     204:	e5810000 	str	r0, [r1]
     208:	e3a00001 	mov	r0, #1
     20c:	e59f1b10 	ldr	r1, [pc, #2832]	; d24 <wait_init_complete_DBS1+0x1b4>
     210:	e5810000 	str	r0, [r1]
     214:	e3a00028 	mov	r0, #40	; 0x28
     218:	e59f1b08 	ldr	r1, [pc, #2824]	; d28 <wait_init_complete_DBS1+0x1b8>
     21c:	e5810000 	str	r0, [r1]
     220:	e3a00012 	mov	r0, #18
     224:	e59f1b00 	ldr	r1, [pc, #2816]	; d2c <wait_init_complete_DBS1+0x1bc>
     228:	e5810000 	str	r0, [r1]
     22c:	e3a00027 	mov	r0, #39	; 0x27
     230:	e59f1af8 	ldr	r1, [pc, #2808]	; d30 <wait_init_complete_DBS1+0x1c0>
     234:	e5810000 	str	r0, [r1]
     238:	e59f0af4 	ldr	r0, [pc, #2804]	; d34 <wait_init_complete_DBS1+0x1c4>
     23c:	e59f1af4 	ldr	r1, [pc, #2804]	; d38 <wait_init_complete_DBS1+0x1c8>
     240:	e5810000 	str	r0, [r1]
     244:	e3a00087 	mov	r0, #135	; 0x87
     248:	e59f1aec 	ldr	r1, [pc, #2796]	; d3c <wait_init_complete_DBS1+0x1cc>
     24c:	e5810000 	str	r0, [r1]
     250:	e3a0005a 	mov	r0, #90	; 0x5a
     254:	e59f1ae4 	ldr	r1, [pc, #2788]	; d40 <wait_init_complete_DBS1+0x1d0>
     258:	e5810000 	str	r0, [r1]
     25c:	e59f0ae0 	ldr	r0, [pc, #2784]	; d44 <wait_init_complete_DBS1+0x1d4>
     260:	e59f1ae0 	ldr	r1, [pc, #2784]	; d48 <wait_init_complete_DBS1+0x1d8>
     264:	e5810000 	str	r0, [r1]
     268:	e3a00040 	mov	r0, #64	; 0x40
     26c:	e59f1ad8 	ldr	r1, [pc, #2776]	; d4c <wait_init_complete_DBS1+0x1dc>
     270:	e5810000 	str	r0, [r1]
     274:	e3a00010 	mov	r0, #16
     278:	e59f1ad0 	ldr	r1, [pc, #2768]	; d50 <wait_init_complete_DBS1+0x1e0>
     27c:	e5810000 	str	r0, [r1]
     280:	e3a00029 	mov	r0, #41	; 0x29
     284:	e59f1ac8 	ldr	r1, [pc, #2760]	; d54 <wait_init_complete_DBS1+0x1e4>
     288:	e5810000 	str	r0, [r1]
     28c:	e3a00029 	mov	r0, #41	; 0x29
     290:	e59f1ac0 	ldr	r1, [pc, #2752]	; d58 <wait_init_complete_DBS1+0x1e8>
     294:	e5810000 	str	r0, [r1]
     298:	e59f0abc 	ldr	r0, [pc, #2748]	; d5c <wait_init_complete_DBS1+0x1ec>
     29c:	e59f1abc 	ldr	r1, [pc, #2748]	; d60 <wait_init_complete_DBS1+0x1f0>
     2a0:	e5810000 	str	r0, [r1]
     2a4:	e59f0ab8 	ldr	r0, [pc, #2744]	; d64 <wait_init_complete_DBS1+0x1f4>
     2a8:	e59f1ab8 	ldr	r1, [pc, #2744]	; d68 <wait_init_complete_DBS1+0x1f8>
     2ac:	e5810000 	str	r0, [r1]
     2b0:	e59f0ab4 	ldr	r0, [pc, #2740]	; d6c <wait_init_complete_DBS1+0x1fc>
     2b4:	e59f1ab4 	ldr	r1, [pc, #2740]	; d70 <wait_init_complete_DBS1+0x200>
     2b8:	e5810000 	str	r0, [r1]
     2bc:	e59f0ab0 	ldr	r0, [pc, #2736]	; d74 <wait_init_complete_DBS1+0x204>
     2c0:	e59f1ab0 	ldr	r1, [pc, #2736]	; d78 <wait_init_complete_DBS1+0x208>
     2c4:	e5810000 	str	r0, [r1]
     2c8:	e59f0aac 	ldr	r0, [pc, #2732]	; d7c <wait_init_complete_DBS1+0x20c>
     2cc:	e59f1aac 	ldr	r1, [pc, #2732]	; d80 <wait_init_complete_DBS1+0x210>
     2d0:	e5810000 	str	r0, [r1]
     2d4:	e59f0aa8 	ldr	r0, [pc, #2728]	; d84 <wait_init_complete_DBS1+0x214>
     2d8:	e59f1aa8 	ldr	r1, [pc, #2728]	; d88 <wait_init_complete_DBS1+0x218>
     2dc:	e5810000 	str	r0, [r1]
     2e0:	e59f0aa4 	ldr	r0, [pc, #2724]	; d8c <wait_init_complete_DBS1+0x21c>
     2e4:	e59f1aa4 	ldr	r1, [pc, #2724]	; d90 <wait_init_complete_DBS1+0x220>
     2e8:	e5810000 	str	r0, [r1]
     2ec:	e59f0aa0 	ldr	r0, [pc, #2720]	; d94 <wait_init_complete_DBS1+0x224>
     2f0:	e59f1aa0 	ldr	r1, [pc, #2720]	; d98 <wait_init_complete_DBS1+0x228>
     2f4:	e5810000 	str	r0, [r1]
     2f8:	e59f0a9c 	ldr	r0, [pc, #2716]	; d9c <wait_init_complete_DBS1+0x22c>
     2fc:	e59f1a9c 	ldr	r1, [pc, #2716]	; da0 <wait_init_complete_DBS1+0x230>
     300:	e5810000 	str	r0, [r1]
     304:	e3a00003 	mov	r0, #3
     308:	e59f1a94 	ldr	r1, [pc, #2708]	; da4 <wait_init_complete_DBS1+0x234>
     30c:	e5810000 	str	r0, [r1]
     310:	e3a00002 	mov	r0, #2
     314:	e59f1a8c 	ldr	r1, [pc, #2700]	; da8 <wait_init_complete_DBS1+0x238>
     318:	e5810000 	str	r0, [r1]
     31c:	e3a00002 	mov	r0, #2
     320:	e59f1a84 	ldr	r1, [pc, #2692]	; dac <wait_init_complete_DBS1+0x23c>
     324:	e5810000 	str	r0, [r1]
     328:	e59f0a80 	ldr	r0, [pc, #2688]	; db0 <wait_init_complete_DBS1+0x240>
     32c:	e59f1a80 	ldr	r1, [pc, #2688]	; db4 <wait_init_complete_DBS1+0x244>
     330:	e5810000 	str	r0, [r1]
     334:	e59f0a74 	ldr	r0, [pc, #2676]	; db0 <wait_init_complete_DBS1+0x240>
     338:	e59f1a78 	ldr	r1, [pc, #2680]	; db8 <wait_init_complete_DBS1+0x248>
     33c:	e5810000 	str	r0, [r1]
     340:	e59f0a68 	ldr	r0, [pc, #2664]	; db0 <wait_init_complete_DBS1+0x240>
     344:	e59f1a70 	ldr	r1, [pc, #2672]	; dbc <wait_init_complete_DBS1+0x24c>
     348:	e5810000 	str	r0, [r1]
     34c:	e59f0a5c 	ldr	r0, [pc, #2652]	; db0 <wait_init_complete_DBS1+0x240>
     350:	e59f1a68 	ldr	r1, [pc, #2664]	; dc0 <wait_init_complete_DBS1+0x250>
     354:	e5810000 	str	r0, [r1]
     358:	e59f0a64 	ldr	r0, [pc, #2660]	; dc4 <wait_init_complete_DBS1+0x254>
     35c:	e59f1a64 	ldr	r1, [pc, #2660]	; dc8 <wait_init_complete_DBS1+0x258>
     360:	e5810000 	str	r0, [r1]
     364:	e3a00f71 	mov	r0, #452	; 0x1c4
     368:	e59f1a5c 	ldr	r1, [pc, #2652]	; dcc <wait_init_complete_DBS1+0x25c>
     36c:	e5810000 	str	r0, [r1]
     370:	e3a00003 	mov	r0, #3
     374:	e59f1a54 	ldr	r1, [pc, #2644]	; dd0 <wait_init_complete_DBS1+0x260>
     378:	e5810000 	str	r0, [r1]
     37c:	e59f0a50 	ldr	r0, [pc, #2640]	; dd4 <wait_init_complete_DBS1+0x264>
     380:	e59f1a50 	ldr	r1, [pc, #2640]	; dd8 <wait_init_complete_DBS1+0x268>
     384:	e5810000 	str	r0, [r1]
     388:	e59f0a4c 	ldr	r0, [pc, #2636]	; ddc <wait_init_complete_DBS1+0x26c>
     38c:	e59f1a4c 	ldr	r1, [pc, #2636]	; de0 <wait_init_complete_DBS1+0x270>
     390:	e5810000 	str	r0, [r1]
     394:	e3a00001 	mov	r0, #1
     398:	e59f1a44 	ldr	r1, [pc, #2628]	; de4 <wait_init_complete_DBS1+0x274>
     39c:	e5810000 	str	r0, [r1]
     3a0:	e59f0a40 	ldr	r0, [pc, #2624]	; de8 <wait_init_complete_DBS1+0x278>
     3a4:	e59f1a40 	ldr	r1, [pc, #2624]	; dec <wait_init_complete_DBS1+0x27c>
     3a8:	e5810000 	str	r0, [r1]
     3ac:	e59f0a3c 	ldr	r0, [pc, #2620]	; df0 <wait_init_complete_DBS1+0x280>
     3b0:	e59f1a3c 	ldr	r1, [pc, #2620]	; df4 <wait_init_complete_DBS1+0x284>
     3b4:	e5810000 	str	r0, [r1]
     3b8:	e3e00000 	mvn	r0, #0
     3bc:	e59f1a34 	ldr	r1, [pc, #2612]	; df8 <wait_init_complete_DBS1+0x288>
     3c0:	e5810000 	str	r0, [r1]
     3c4:	e3a00d12 	mov	r0, #1152	; 0x480
     3c8:	e59f1a2c 	ldr	r1, [pc, #2604]	; dfc <wait_init_complete_DBS1+0x28c>
     3cc:	e5810000 	str	r0, [r1]
     3d0:	e3a00c03 	mov	r0, #768	; 0x300
     3d4:	e59f1a24 	ldr	r1, [pc, #2596]	; e00 <wait_init_complete_DBS1+0x290>
     3d8:	e5810000 	str	r0, [r1]
     3dc:	e3a00d06 	mov	r0, #384	; 0x180
     3e0:	e59f1a1c 	ldr	r1, [pc, #2588]	; e04 <wait_init_complete_DBS1+0x294>
     3e4:	e5810000 	str	r0, [r1]
     3e8:	e3a00c06 	mov	r0, #1536	; 0x600
     3ec:	e59f1a14 	ldr	r1, [pc, #2580]	; e08 <wait_init_complete_DBS1+0x298>
     3f0:	e5810000 	str	r0, [r1]
     3f4:	e3a00d12 	mov	r0, #1152	; 0x480
     3f8:	e59f1a0c 	ldr	r1, [pc, #2572]	; e0c <wait_init_complete_DBS1+0x29c>
     3fc:	e5810000 	str	r0, [r1]
     400:	e3a00c03 	mov	r0, #768	; 0x300
     404:	e59f1a04 	ldr	r1, [pc, #2564]	; e10 <wait_init_complete_DBS1+0x2a0>
     408:	e5810000 	str	r0, [r1]
     40c:	e3a00d06 	mov	r0, #384	; 0x180
     410:	e59f19fc 	ldr	r1, [pc, #2556]	; e14 <wait_init_complete_DBS1+0x2a4>
     414:	e5810000 	str	r0, [r1]
     418:	e3a00b01 	mov	r0, #1024	; 0x400
     41c:	e59f19f4 	ldr	r1, [pc, #2548]	; e18 <wait_init_complete_DBS1+0x2a8>
     420:	e5810000 	str	r0, [r1]
     424:	e3a00c03 	mov	r0, #768	; 0x300
     428:	e59f19ec 	ldr	r1, [pc, #2540]	; e1c <wait_init_complete_DBS1+0x2ac>
     42c:	e5810000 	str	r0, [r1]
     430:	e3a00c02 	mov	r0, #512	; 0x200
     434:	e59f19e4 	ldr	r1, [pc, #2532]	; e20 <wait_init_complete_DBS1+0x2b0>
     438:	e5810000 	str	r0, [r1]
     43c:	e3a00c01 	mov	r0, #256	; 0x100
     440:	e59f19dc 	ldr	r1, [pc, #2524]	; e24 <wait_init_complete_DBS1+0x2b4>
     444:	e5810000 	str	r0, [r1]
     448:	e3a00c03 	mov	r0, #768	; 0x300
     44c:	e59f19d4 	ldr	r1, [pc, #2516]	; e28 <wait_init_complete_DBS1+0x2b8>
     450:	e5810000 	str	r0, [r1]
     454:	e3a00d09 	mov	r0, #576	; 0x240
     458:	e59f19cc 	ldr	r1, [pc, #2508]	; e2c <wait_init_complete_DBS1+0x2bc>
     45c:	e5810000 	str	r0, [r1]
     460:	e3a00d06 	mov	r0, #384	; 0x180
     464:	e59f19c4 	ldr	r1, [pc, #2500]	; e30 <wait_init_complete_DBS1+0x2c0>
     468:	e5810000 	str	r0, [r1]
     46c:	e3a000c0 	mov	r0, #192	; 0xc0
     470:	e59f19bc 	ldr	r1, [pc, #2492]	; e34 <wait_init_complete_DBS1+0x2c4>
     474:	e5810000 	str	r0, [r1]
     478:	e3a00c02 	mov	r0, #512	; 0x200
     47c:	e59f19b4 	ldr	r1, [pc, #2484]	; e38 <wait_init_complete_DBS1+0x2c8>
     480:	e5810000 	str	r0, [r1]
     484:	e3a00d06 	mov	r0, #384	; 0x180
     488:	e59f19ac 	ldr	r1, [pc, #2476]	; e3c <wait_init_complete_DBS1+0x2cc>
     48c:	e5810000 	str	r0, [r1]
     490:	e3a00c01 	mov	r0, #256	; 0x100
     494:	e59f19a4 	ldr	r1, [pc, #2468]	; e40 <wait_init_complete_DBS1+0x2d0>
     498:	e5810000 	str	r0, [r1]
     49c:	e3a00080 	mov	r0, #128	; 0x80
     4a0:	e59f199c 	ldr	r1, [pc, #2460]	; e44 <wait_init_complete_DBS1+0x2d4>
     4a4:	e5810000 	str	r0, [r1]
     4a8:	e3a00c01 	mov	r0, #256	; 0x100
     4ac:	e59f1994 	ldr	r1, [pc, #2452]	; e48 <wait_init_complete_DBS1+0x2d8>
     4b0:	e5810000 	str	r0, [r1]
     4b4:	e3a000c0 	mov	r0, #192	; 0xc0
     4b8:	e59f198c 	ldr	r1, [pc, #2444]	; e4c <wait_init_complete_DBS1+0x2dc>
     4bc:	e5810000 	str	r0, [r1]
     4c0:	e3a00080 	mov	r0, #128	; 0x80
     4c4:	e59f1984 	ldr	r1, [pc, #2436]	; e50 <wait_init_complete_DBS1+0x2e0>
     4c8:	e5810000 	str	r0, [r1]
     4cc:	e3a00040 	mov	r0, #64	; 0x40
     4d0:	e59f197c 	ldr	r1, [pc, #2428]	; e54 <wait_init_complete_DBS1+0x2e4>
     4d4:	e5810000 	str	r0, [r1]
     4d8:	e59f0978 	ldr	r0, [pc, #2424]	; e58 <wait_init_complete_DBS1+0x2e8>
     4dc:	e59f1978 	ldr	r1, [pc, #2424]	; e5c <wait_init_complete_DBS1+0x2ec>
     4e0:	e5810000 	str	r0, [r1]
     4e4:	e59f0974 	ldr	r0, [pc, #2420]	; e60 <wait_init_complete_DBS1+0x2f0>
     4e8:	e59f1974 	ldr	r1, [pc, #2420]	; e64 <wait_init_complete_DBS1+0x2f4>
     4ec:	e5810000 	str	r0, [r1]
     4f0:	e59f0970 	ldr	r0, [pc, #2416]	; e68 <wait_init_complete_DBS1+0x2f8>
     4f4:	e59f1970 	ldr	r1, [pc, #2416]	; e6c <wait_init_complete_DBS1+0x2fc>
     4f8:	e5810000 	str	r0, [r1]
     4fc:	e3a00001 	mov	r0, #1
     500:	e59f1968 	ldr	r1, [pc, #2408]	; e70 <wait_init_complete_DBS1+0x300>
     504:	e5810000 	str	r0, [r1]
     508:	e3a00002 	mov	r0, #2
     50c:	e59f1960 	ldr	r1, [pc, #2400]	; e74 <wait_init_complete_DBS1+0x304>
     510:	e5810000 	str	r0, [r1]
     514:	e3a00002 	mov	r0, #2
     518:	e59f1958 	ldr	r1, [pc, #2392]	; e78 <wait_init_complete_DBS1+0x308>
     51c:	e5810000 	str	r0, [r1]
     520:	e3a00001 	mov	r0, #1
     524:	e59f1950 	ldr	r1, [pc, #2384]	; e7c <wait_init_complete_DBS1+0x30c>
     528:	e5810000 	str	r0, [r1]
     52c:	e3a00041 	mov	r0, #65	; 0x41
     530:	e59f1948 	ldr	r1, [pc, #2376]	; e80 <wait_init_complete_DBS1+0x310>
     534:	e5810000 	str	r0, [r1]
     538:	e3a00011 	mov	r0, #17
     53c:	e59f1940 	ldr	r1, [pc, #2368]	; e84 <wait_init_complete_DBS1+0x314>
     540:	e5810000 	str	r0, [r1]
     544:	e3a00011 	mov	r0, #17
     548:	e59f1938 	ldr	r1, [pc, #2360]	; e88 <wait_init_complete_DBS1+0x318>
     54c:	e5810000 	str	r0, [r1]
     550:	e3a00011 	mov	r0, #17
     554:	e59f1930 	ldr	r1, [pc, #2352]	; e8c <wait_init_complete_DBS1+0x31c>
     558:	e5810000 	str	r0, [r1]
     55c:	e3a00011 	mov	r0, #17
     560:	e59f1928 	ldr	r1, [pc, #2344]	; e90 <wait_init_complete_DBS1+0x320>
     564:	e5810000 	str	r0, [r1]
     568:	e59f0924 	ldr	r0, [pc, #2340]	; e94 <wait_init_complete_DBS1+0x324>
     56c:	e59f1924 	ldr	r1, [pc, #2340]	; e98 <wait_init_complete_DBS1+0x328>
     570:	e5810000 	str	r0, [r1]
     574:	e59f0918 	ldr	r0, [pc, #2328]	; e94 <wait_init_complete_DBS1+0x324>
     578:	e59f191c 	ldr	r1, [pc, #2332]	; e9c <wait_init_complete_DBS1+0x32c>
     57c:	e5810000 	str	r0, [r1]
     580:	e59f090c 	ldr	r0, [pc, #2316]	; e94 <wait_init_complete_DBS1+0x324>
     584:	e59f1914 	ldr	r1, [pc, #2324]	; ea0 <wait_init_complete_DBS1+0x330>
     588:	e5810000 	str	r0, [r1]
     58c:	e59f0900 	ldr	r0, [pc, #2304]	; e94 <wait_init_complete_DBS1+0x324>
     590:	e59f190c 	ldr	r1, [pc, #2316]	; ea4 <wait_init_complete_DBS1+0x334>
     594:	e5810000 	str	r0, [r1]
     598:	e3a06001 	mov	r6, #1

0000059c <wait_init_complete>:
     59c:	e59f0904 	ldr	r0, [pc, #2308]	; ea8 <wait_init_complete_DBS1+0x338>
     5a0:	e5907000 	ldr	r7, [r0]
     5a4:	e0067007 	and	r7, r6, r7
     5a8:	e1560007 	cmp	r6, r7
     5ac:	1afffffa 	bne	59c <wait_init_complete>
     5b0:	e59f08f4 	ldr	r0, [pc, #2292]	; eac <wait_init_complete_DBS1+0x33c>
     5b4:	e5907000 	ldr	r7, [r0]
     5b8:	e0067007 	and	r7, r6, r7
     5bc:	e1560007 	cmp	r6, r7
     5c0:	1afffff5 	bne	59c <wait_init_complete>
     5c4:	e59f08e4 	ldr	r0, [pc, #2276]	; eb0 <wait_init_complete_DBS1+0x340>
     5c8:	e5907000 	ldr	r7, [r0]
     5cc:	e0067007 	and	r7, r6, r7
     5d0:	e1560007 	cmp	r6, r7
     5d4:	1afffff0 	bne	59c <wait_init_complete>
     5d8:	e59f08d4 	ldr	r0, [pc, #2260]	; eb4 <wait_init_complete_DBS1+0x344>
     5dc:	e5907000 	ldr	r7, [r0]
     5e0:	e0067007 	and	r7, r6, r7
     5e4:	e1560007 	cmp	r6, r7
     5e8:	1affffeb 	bne	59c <wait_init_complete>
     5ec:	e59f087c 	ldr	r0, [pc, #2172]	; e70 <wait_init_complete_DBS1+0x300>
     5f0:	e59f08c0 	ldr	r0, [pc, #2240]	; eb8 <wait_init_complete_DBS1+0x348>
     5f4:	e59f18c0 	ldr	r1, [pc, #2240]	; ebc <wait_init_complete_DBS1+0x34c>
     5f8:	e5810000 	str	r0, [r1]
     5fc:	e59f08bc 	ldr	r0, [pc, #2236]	; ec0 <wait_init_complete_DBS1+0x350>
     600:	e59f18b4 	ldr	r1, [pc, #2228]	; ebc <wait_init_complete_DBS1+0x34c>
     604:	e5810000 	str	r0, [r1]
     608:	e59f08b4 	ldr	r0, [pc, #2228]	; ec4 <wait_init_complete_DBS1+0x354>
     60c:	e59f18a8 	ldr	r1, [pc, #2216]	; ebc <wait_init_complete_DBS1+0x34c>
     610:	e5810000 	str	r0, [r1]
     614:	e59f08ac 	ldr	r0, [pc, #2220]	; ec8 <wait_init_complete_DBS1+0x358>
     618:	e59f189c 	ldr	r1, [pc, #2204]	; ebc <wait_init_complete_DBS1+0x34c>
     61c:	e5810000 	str	r0, [r1]
     620:	e59f08a4 	ldr	r0, [pc, #2212]	; ecc <wait_init_complete_DBS1+0x35c>
     624:	e59f1890 	ldr	r1, [pc, #2192]	; ebc <wait_init_complete_DBS1+0x34c>
     628:	e5810000 	str	r0, [r1]
     62c:	e59f089c 	ldr	r0, [pc, #2204]	; ed0 <wait_init_complete_DBS1+0x360>
     630:	e59f1884 	ldr	r1, [pc, #2180]	; ebc <wait_init_complete_DBS1+0x34c>
     634:	e5810000 	str	r0, [r1]
     638:	e59f0894 	ldr	r0, [pc, #2196]	; ed4 <wait_init_complete_DBS1+0x364>
     63c:	e59f1878 	ldr	r1, [pc, #2168]	; ebc <wait_init_complete_DBS1+0x34c>
     640:	e5810000 	str	r0, [r1]
     644:	e59f088c 	ldr	r0, [pc, #2188]	; ed8 <wait_init_complete_DBS1+0x368>
     648:	e59f186c 	ldr	r1, [pc, #2156]	; ebc <wait_init_complete_DBS1+0x34c>
     64c:	e5810000 	str	r0, [r1]
     650:	e59f0884 	ldr	r0, [pc, #2180]	; edc <wait_init_complete_DBS1+0x36c>
     654:	e59f1884 	ldr	r1, [pc, #2180]	; ee0 <wait_init_complete_DBS1+0x370>
     658:	e5810000 	str	r0, [r1]
     65c:	e59f0880 	ldr	r0, [pc, #2176]	; ee4 <wait_init_complete_DBS1+0x374>
     660:	e59f1880 	ldr	r1, [pc, #2176]	; ee8 <wait_init_complete_DBS1+0x378>
     664:	e5810000 	str	r0, [r1]
     668:	e59f087c 	ldr	r0, [pc, #2172]	; eec <wait_init_complete_DBS1+0x37c>
     66c:	e59f187c 	ldr	r1, [pc, #2172]	; ef0 <wait_init_complete_DBS1+0x380>
     670:	e5810000 	str	r0, [r1]
     674:	e3a00801 	mov	r0, #65536	; 0x10000
     678:	e59f1874 	ldr	r1, [pc, #2164]	; ef4 <wait_init_complete_DBS1+0x384>
     67c:	e5810000 	str	r0, [r1]
     680:	e3a00001 	mov	r0, #1
     684:	e59f186c 	ldr	r1, [pc, #2156]	; ef8 <wait_init_complete_DBS1+0x388>
     688:	e5810000 	str	r0, [r1]
     68c:	e59f0868 	ldr	r0, [pc, #2152]	; efc <wait_init_complete_DBS1+0x38c>
     690:	e59f1868 	ldr	r1, [pc, #2152]	; f00 <wait_init_complete_DBS1+0x390>
     694:	e5810000 	str	r0, [r1]
     698:	e59f085c 	ldr	r0, [pc, #2140]	; efc <wait_init_complete_DBS1+0x38c>
     69c:	e59f1860 	ldr	r1, [pc, #2144]	; f04 <wait_init_complete_DBS1+0x394>
     6a0:	e5810000 	str	r0, [r1]
     6a4:	e59f0850 	ldr	r0, [pc, #2128]	; efc <wait_init_complete_DBS1+0x38c>
     6a8:	e59f1858 	ldr	r1, [pc, #2136]	; f08 <wait_init_complete_DBS1+0x398>
     6ac:	e5810000 	str	r0, [r1]
     6b0:	e59f0844 	ldr	r0, [pc, #2116]	; efc <wait_init_complete_DBS1+0x38c>
     6b4:	e59f1850 	ldr	r1, [pc, #2128]	; f0c <wait_init_complete_DBS1+0x39c>
     6b8:	e5810000 	str	r0, [r1]
     6bc:	e3a00001 	mov	r0, #1
     6c0:	e59f1848 	ldr	r1, [pc, #2120]	; f10 <wait_init_complete_DBS1+0x3a0>
     6c4:	e5810000 	str	r0, [r1]
     6c8:	e3a00001 	mov	r0, #1
     6cc:	e59f1840 	ldr	r1, [pc, #2112]	; f14 <wait_init_complete_DBS1+0x3a4>
     6d0:	e5810000 	str	r0, [r1]
     6d4:	e3a00000 	mov	r0, #0
     6d8:	e59f1838 	ldr	r1, [pc, #2104]	; f18 <wait_init_complete_DBS1+0x3a8>
     6dc:	e5810000 	str	r0, [r1]
     6e0:	e59f05e0 	ldr	r0, [pc, #1504]	; cc8 <wait_init_complete_DBS1+0x158>
     6e4:	e59f1830 	ldr	r1, [pc, #2096]	; f1c <wait_init_complete_DBS1+0x3ac>
     6e8:	e5810000 	str	r0, [r1]
     6ec:	e59f05d4 	ldr	r0, [pc, #1492]	; cc8 <wait_init_complete_DBS1+0x158>
     6f0:	e59f1828 	ldr	r1, [pc, #2088]	; f20 <wait_init_complete_DBS1+0x3b0>
     6f4:	e5810000 	str	r0, [r1]
     6f8:	e3a0000a 	mov	r0, #10
     6fc:	e59f1820 	ldr	r1, [pc, #2080]	; f24 <wait_init_complete_DBS1+0x3b4>
     700:	e5810000 	str	r0, [r1]
     704:	e3a0000a 	mov	r0, #10
     708:	e59f1818 	ldr	r1, [pc, #2072]	; f28 <wait_init_complete_DBS1+0x3b8>
     70c:	e5810000 	str	r0, [r1]
     710:	e59f05c4 	ldr	r0, [pc, #1476]	; cdc <wait_init_complete_DBS1+0x16c>
     714:	e59f1810 	ldr	r1, [pc, #2064]	; f2c <wait_init_complete_DBS1+0x3bc>
     718:	e5810000 	str	r0, [r1]
     71c:	e59f05b8 	ldr	r0, [pc, #1464]	; cdc <wait_init_complete_DBS1+0x16c>
     720:	e59f1808 	ldr	r1, [pc, #2056]	; f30 <wait_init_complete_DBS1+0x3c0>
     724:	e5810000 	str	r0, [r1]
     728:	e59f05ac 	ldr	r0, [pc, #1452]	; cdc <wait_init_complete_DBS1+0x16c>
     72c:	e59f1800 	ldr	r1, [pc, #2048]	; f34 <wait_init_complete_DBS1+0x3c4>
     730:	e5810000 	str	r0, [r1]
     734:	e59f05a0 	ldr	r0, [pc, #1440]	; cdc <wait_init_complete_DBS1+0x16c>
     738:	e59f17f8 	ldr	r1, [pc, #2040]	; f38 <wait_init_complete_DBS1+0x3c8>
     73c:	e5810000 	str	r0, [r1]
     740:	e59f0594 	ldr	r0, [pc, #1428]	; cdc <wait_init_complete_DBS1+0x16c>
     744:	e59f17f0 	ldr	r1, [pc, #2032]	; f3c <wait_init_complete_DBS1+0x3cc>
     748:	e5810000 	str	r0, [r1]
     74c:	e59f0588 	ldr	r0, [pc, #1416]	; cdc <wait_init_complete_DBS1+0x16c>
     750:	e59f17e8 	ldr	r1, [pc, #2024]	; f40 <wait_init_complete_DBS1+0x3d0>
     754:	e5810000 	str	r0, [r1]
     758:	e59f057c 	ldr	r0, [pc, #1404]	; cdc <wait_init_complete_DBS1+0x16c>
     75c:	e59f17e0 	ldr	r1, [pc, #2016]	; f44 <wait_init_complete_DBS1+0x3d4>
     760:	e5810000 	str	r0, [r1]
     764:	e59f0570 	ldr	r0, [pc, #1392]	; cdc <wait_init_complete_DBS1+0x16c>
     768:	e59f17d8 	ldr	r1, [pc, #2008]	; f48 <wait_init_complete_DBS1+0x3d8>
     76c:	e5810000 	str	r0, [r1]
     770:	e59f0564 	ldr	r0, [pc, #1380]	; cdc <wait_init_complete_DBS1+0x16c>
     774:	e59f17d0 	ldr	r1, [pc, #2000]	; f4c <wait_init_complete_DBS1+0x3dc>
     778:	e5810000 	str	r0, [r1]
     77c:	e59f0558 	ldr	r0, [pc, #1368]	; cdc <wait_init_complete_DBS1+0x16c>
     780:	e59f17c8 	ldr	r1, [pc, #1992]	; f50 <wait_init_complete_DBS1+0x3e0>
     784:	e5810000 	str	r0, [r1]
     788:	e59f054c 	ldr	r0, [pc, #1356]	; cdc <wait_init_complete_DBS1+0x16c>
     78c:	e59f17c0 	ldr	r1, [pc, #1984]	; f54 <wait_init_complete_DBS1+0x3e4>
     790:	e5810000 	str	r0, [r1]
     794:	e59f0540 	ldr	r0, [pc, #1344]	; cdc <wait_init_complete_DBS1+0x16c>
     798:	e59f17b8 	ldr	r1, [pc, #1976]	; f58 <wait_init_complete_DBS1+0x3e8>
     79c:	e5810000 	str	r0, [r1]
     7a0:	e59f0534 	ldr	r0, [pc, #1332]	; cdc <wait_init_complete_DBS1+0x16c>
     7a4:	e59f17b0 	ldr	r1, [pc, #1968]	; f5c <wait_init_complete_DBS1+0x3ec>
     7a8:	e5810000 	str	r0, [r1]
     7ac:	e59f0528 	ldr	r0, [pc, #1320]	; cdc <wait_init_complete_DBS1+0x16c>
     7b0:	e59f17a8 	ldr	r1, [pc, #1960]	; f60 <wait_init_complete_DBS1+0x3f0>
     7b4:	e5810000 	str	r0, [r1]
     7b8:	e59f051c 	ldr	r0, [pc, #1308]	; cdc <wait_init_complete_DBS1+0x16c>
     7bc:	e59f17a0 	ldr	r1, [pc, #1952]	; f64 <wait_init_complete_DBS1+0x3f4>
     7c0:	e5810000 	str	r0, [r1]
     7c4:	e59f0510 	ldr	r0, [pc, #1296]	; cdc <wait_init_complete_DBS1+0x16c>
     7c8:	e59f1798 	ldr	r1, [pc, #1944]	; f68 <wait_init_complete_DBS1+0x3f8>
     7cc:	e5810000 	str	r0, [r1]
     7d0:	e3a00000 	mov	r0, #0
     7d4:	e59f1790 	ldr	r1, [pc, #1936]	; f6c <wait_init_complete_DBS1+0x3fc>
     7d8:	e5810000 	str	r0, [r1]
     7dc:	e3a00001 	mov	r0, #1
     7e0:	e59f1788 	ldr	r1, [pc, #1928]	; f70 <wait_init_complete_DBS1+0x400>
     7e4:	e5810000 	str	r0, [r1]
     7e8:	e3a00028 	mov	r0, #40	; 0x28
     7ec:	e59f1780 	ldr	r1, [pc, #1920]	; f74 <wait_init_complete_DBS1+0x404>
     7f0:	e5810000 	str	r0, [r1]
     7f4:	e3a00012 	mov	r0, #18
     7f8:	e59f1778 	ldr	r1, [pc, #1912]	; f78 <wait_init_complete_DBS1+0x408>
     7fc:	e5810000 	str	r0, [r1]
     800:	e3a00027 	mov	r0, #39	; 0x27
     804:	e59f1770 	ldr	r1, [pc, #1904]	; f7c <wait_init_complete_DBS1+0x40c>
     808:	e5810000 	str	r0, [r1]
     80c:	e59f0520 	ldr	r0, [pc, #1312]	; d34 <wait_init_complete_DBS1+0x1c4>
     810:	e59f1768 	ldr	r1, [pc, #1896]	; f80 <wait_init_complete_DBS1+0x410>
     814:	e5810000 	str	r0, [r1]
     818:	e3a00087 	mov	r0, #135	; 0x87
     81c:	e59f1760 	ldr	r1, [pc, #1888]	; f84 <wait_init_complete_DBS1+0x414>
     820:	e5810000 	str	r0, [r1]
     824:	e3a0005a 	mov	r0, #90	; 0x5a
     828:	e59f1758 	ldr	r1, [pc, #1880]	; f88 <wait_init_complete_DBS1+0x418>
     82c:	e5810000 	str	r0, [r1]
     830:	e59f050c 	ldr	r0, [pc, #1292]	; d44 <wait_init_complete_DBS1+0x1d4>
     834:	e59f1750 	ldr	r1, [pc, #1872]	; f8c <wait_init_complete_DBS1+0x41c>
     838:	e5810000 	str	r0, [r1]
     83c:	e3a00040 	mov	r0, #64	; 0x40
     840:	e59f1748 	ldr	r1, [pc, #1864]	; f90 <wait_init_complete_DBS1+0x420>
     844:	e5810000 	str	r0, [r1]
     848:	e3a00010 	mov	r0, #16
     84c:	e59f1740 	ldr	r1, [pc, #1856]	; f94 <wait_init_complete_DBS1+0x424>
     850:	e5810000 	str	r0, [r1]
     854:	e3a00029 	mov	r0, #41	; 0x29
     858:	e59f1738 	ldr	r1, [pc, #1848]	; f98 <wait_init_complete_DBS1+0x428>
     85c:	e5810000 	str	r0, [r1]
     860:	e3a00029 	mov	r0, #41	; 0x29
     864:	e59f1730 	ldr	r1, [pc, #1840]	; f9c <wait_init_complete_DBS1+0x42c>
     868:	e5810000 	str	r0, [r1]
     86c:	e59f04e8 	ldr	r0, [pc, #1256]	; d5c <wait_init_complete_DBS1+0x1ec>
     870:	e59f1728 	ldr	r1, [pc, #1832]	; fa0 <wait_init_complete_DBS1+0x430>
     874:	e5810000 	str	r0, [r1]
     878:	e59f04e4 	ldr	r0, [pc, #1252]	; d64 <wait_init_complete_DBS1+0x1f4>
     87c:	e59f1720 	ldr	r1, [pc, #1824]	; fa4 <wait_init_complete_DBS1+0x434>
     880:	e5810000 	str	r0, [r1]
     884:	e59f04e0 	ldr	r0, [pc, #1248]	; d6c <wait_init_complete_DBS1+0x1fc>
     888:	e59f1718 	ldr	r1, [pc, #1816]	; fa8 <wait_init_complete_DBS1+0x438>
     88c:	e5810000 	str	r0, [r1]
     890:	e59f04dc 	ldr	r0, [pc, #1244]	; d74 <wait_init_complete_DBS1+0x204>
     894:	e59f1710 	ldr	r1, [pc, #1808]	; fac <wait_init_complete_DBS1+0x43c>
     898:	e5810000 	str	r0, [r1]
     89c:	e59f04d8 	ldr	r0, [pc, #1240]	; d7c <wait_init_complete_DBS1+0x20c>
     8a0:	e59f1708 	ldr	r1, [pc, #1800]	; fb0 <wait_init_complete_DBS1+0x440>
     8a4:	e5810000 	str	r0, [r1]
     8a8:	e59f04d4 	ldr	r0, [pc, #1236]	; d84 <wait_init_complete_DBS1+0x214>
     8ac:	e59f1700 	ldr	r1, [pc, #1792]	; fb4 <wait_init_complete_DBS1+0x444>
     8b0:	e5810000 	str	r0, [r1]
     8b4:	e59f04d0 	ldr	r0, [pc, #1232]	; d8c <wait_init_complete_DBS1+0x21c>
     8b8:	e59f16f8 	ldr	r1, [pc, #1784]	; fb8 <wait_init_complete_DBS1+0x448>
     8bc:	e5810000 	str	r0, [r1]
     8c0:	e59f04cc 	ldr	r0, [pc, #1228]	; d94 <wait_init_complete_DBS1+0x224>
     8c4:	e59f16f0 	ldr	r1, [pc, #1776]	; fbc <wait_init_complete_DBS1+0x44c>
     8c8:	e5810000 	str	r0, [r1]
     8cc:	e59f04c8 	ldr	r0, [pc, #1224]	; d9c <wait_init_complete_DBS1+0x22c>
     8d0:	e59f16e8 	ldr	r1, [pc, #1768]	; fc0 <wait_init_complete_DBS1+0x450>
     8d4:	e5810000 	str	r0, [r1]
     8d8:	e3a00003 	mov	r0, #3
     8dc:	e59f16e0 	ldr	r1, [pc, #1760]	; fc4 <wait_init_complete_DBS1+0x454>
     8e0:	e5810000 	str	r0, [r1]
     8e4:	e3a00002 	mov	r0, #2
     8e8:	e59f16d8 	ldr	r1, [pc, #1752]	; fc8 <wait_init_complete_DBS1+0x458>
     8ec:	e5810000 	str	r0, [r1]
     8f0:	e3a00002 	mov	r0, #2
     8f4:	e59f16d0 	ldr	r1, [pc, #1744]	; fcc <wait_init_complete_DBS1+0x45c>
     8f8:	e5810000 	str	r0, [r1]
     8fc:	e59f04ac 	ldr	r0, [pc, #1196]	; db0 <wait_init_complete_DBS1+0x240>
     900:	e59f16c8 	ldr	r1, [pc, #1736]	; fd0 <wait_init_complete_DBS1+0x460>
     904:	e5810000 	str	r0, [r1]
     908:	e59f04a0 	ldr	r0, [pc, #1184]	; db0 <wait_init_complete_DBS1+0x240>
     90c:	e59f16c0 	ldr	r1, [pc, #1728]	; fd4 <wait_init_complete_DBS1+0x464>
     910:	e5810000 	str	r0, [r1]
     914:	e59f0494 	ldr	r0, [pc, #1172]	; db0 <wait_init_complete_DBS1+0x240>
     918:	e59f16b8 	ldr	r1, [pc, #1720]	; fd8 <wait_init_complete_DBS1+0x468>
     91c:	e5810000 	str	r0, [r1]
     920:	e59f0488 	ldr	r0, [pc, #1160]	; db0 <wait_init_complete_DBS1+0x240>
     924:	e59f16b0 	ldr	r1, [pc, #1712]	; fdc <wait_init_complete_DBS1+0x46c>
     928:	e5810000 	str	r0, [r1]
     92c:	e59f0490 	ldr	r0, [pc, #1168]	; dc4 <wait_init_complete_DBS1+0x254>
     930:	e59f16a8 	ldr	r1, [pc, #1704]	; fe0 <wait_init_complete_DBS1+0x470>
     934:	e5810000 	str	r0, [r1]
     938:	e3a00f71 	mov	r0, #452	; 0x1c4
     93c:	e59f16a0 	ldr	r1, [pc, #1696]	; fe4 <wait_init_complete_DBS1+0x474>
     940:	e5810000 	str	r0, [r1]
     944:	e3a00003 	mov	r0, #3
     948:	e59f1698 	ldr	r1, [pc, #1688]	; fe8 <wait_init_complete_DBS1+0x478>
     94c:	e5810000 	str	r0, [r1]
     950:	e59f047c 	ldr	r0, [pc, #1148]	; dd4 <wait_init_complete_DBS1+0x264>
     954:	e59f1690 	ldr	r1, [pc, #1680]	; fec <wait_init_complete_DBS1+0x47c>
     958:	e5810000 	str	r0, [r1]
     95c:	e59f0478 	ldr	r0, [pc, #1144]	; ddc <wait_init_complete_DBS1+0x26c>
     960:	e59f1688 	ldr	r1, [pc, #1672]	; ff0 <wait_init_complete_DBS1+0x480>
     964:	e5810000 	str	r0, [r1]
     968:	e3a00001 	mov	r0, #1
     96c:	e59f1680 	ldr	r1, [pc, #1664]	; ff4 <wait_init_complete_DBS1+0x484>
     970:	e5810000 	str	r0, [r1]
     974:	e59f046c 	ldr	r0, [pc, #1132]	; de8 <wait_init_complete_DBS1+0x278>
     978:	e59f1678 	ldr	r1, [pc, #1656]	; ff8 <wait_init_complete_DBS1+0x488>
     97c:	e5810000 	str	r0, [r1]
     980:	e59f0468 	ldr	r0, [pc, #1128]	; df0 <wait_init_complete_DBS1+0x280>
     984:	e59f1670 	ldr	r1, [pc, #1648]	; ffc <wait_init_complete_DBS1+0x48c>
     988:	e5810000 	str	r0, [r1]
     98c:	e3e00000 	mvn	r0, #0
     990:	e59f1668 	ldr	r1, [pc, #1640]	; 1000 <wait_init_complete_DBS1+0x490>
     994:	e5810000 	str	r0, [r1]
     998:	e3a00d12 	mov	r0, #1152	; 0x480
     99c:	e59f1660 	ldr	r1, [pc, #1632]	; 1004 <wait_init_complete_DBS1+0x494>
     9a0:	e5810000 	str	r0, [r1]
     9a4:	e3a00c03 	mov	r0, #768	; 0x300
     9a8:	e59f1658 	ldr	r1, [pc, #1624]	; 1008 <wait_init_complete_DBS1+0x498>
     9ac:	e5810000 	str	r0, [r1]
     9b0:	e3a00d06 	mov	r0, #384	; 0x180
     9b4:	e59f1650 	ldr	r1, [pc, #1616]	; 100c <wait_init_complete_DBS1+0x49c>
     9b8:	e5810000 	str	r0, [r1]
     9bc:	e3a00c06 	mov	r0, #1536	; 0x600
     9c0:	e59f1648 	ldr	r1, [pc, #1608]	; 1010 <wait_init_complete_DBS1+0x4a0>
     9c4:	e5810000 	str	r0, [r1]
     9c8:	e3a00d12 	mov	r0, #1152	; 0x480
     9cc:	e59f1640 	ldr	r1, [pc, #1600]	; 1014 <wait_init_complete_DBS1+0x4a4>
     9d0:	e5810000 	str	r0, [r1]
     9d4:	e3a00c03 	mov	r0, #768	; 0x300
     9d8:	e59f1638 	ldr	r1, [pc, #1592]	; 1018 <wait_init_complete_DBS1+0x4a8>
     9dc:	e5810000 	str	r0, [r1]
     9e0:	e3a00d06 	mov	r0, #384	; 0x180
     9e4:	e59f1630 	ldr	r1, [pc, #1584]	; 101c <wait_init_complete_DBS1+0x4ac>
     9e8:	e5810000 	str	r0, [r1]
     9ec:	e3a00b01 	mov	r0, #1024	; 0x400
     9f0:	e59f1628 	ldr	r1, [pc, #1576]	; 1020 <wait_init_complete_DBS1+0x4b0>
     9f4:	e5810000 	str	r0, [r1]
     9f8:	e3a00c03 	mov	r0, #768	; 0x300
     9fc:	e59f1620 	ldr	r1, [pc, #1568]	; 1024 <wait_init_complete_DBS1+0x4b4>
     a00:	e5810000 	str	r0, [r1]
     a04:	e3a00c02 	mov	r0, #512	; 0x200
     a08:	e59f1618 	ldr	r1, [pc, #1560]	; 1028 <wait_init_complete_DBS1+0x4b8>
     a0c:	e5810000 	str	r0, [r1]
     a10:	e3a00c01 	mov	r0, #256	; 0x100
     a14:	e59f1610 	ldr	r1, [pc, #1552]	; 102c <wait_init_complete_DBS1+0x4bc>
     a18:	e5810000 	str	r0, [r1]
     a1c:	e3a00c03 	mov	r0, #768	; 0x300
     a20:	e59f1608 	ldr	r1, [pc, #1544]	; 1030 <wait_init_complete_DBS1+0x4c0>
     a24:	e5810000 	str	r0, [r1]
     a28:	e3a00d09 	mov	r0, #576	; 0x240
     a2c:	e59f1600 	ldr	r1, [pc, #1536]	; 1034 <wait_init_complete_DBS1+0x4c4>
     a30:	e5810000 	str	r0, [r1]
     a34:	e3a00d06 	mov	r0, #384	; 0x180
     a38:	e59f15f8 	ldr	r1, [pc, #1528]	; 1038 <wait_init_complete_DBS1+0x4c8>
     a3c:	e5810000 	str	r0, [r1]
     a40:	e3a000c0 	mov	r0, #192	; 0xc0
     a44:	e59f15f0 	ldr	r1, [pc, #1520]	; 103c <wait_init_complete_DBS1+0x4cc>
     a48:	e5810000 	str	r0, [r1]
     a4c:	e3a00c02 	mov	r0, #512	; 0x200
     a50:	e59f15e8 	ldr	r1, [pc, #1512]	; 1040 <wait_init_complete_DBS1+0x4d0>
     a54:	e5810000 	str	r0, [r1]
     a58:	e3a00d06 	mov	r0, #384	; 0x180
     a5c:	e59f15e0 	ldr	r1, [pc, #1504]	; 1044 <wait_init_complete_DBS1+0x4d4>
     a60:	e5810000 	str	r0, [r1]
     a64:	e3a00c01 	mov	r0, #256	; 0x100
     a68:	e59f15d8 	ldr	r1, [pc, #1496]	; 1048 <wait_init_complete_DBS1+0x4d8>
     a6c:	e5810000 	str	r0, [r1]
     a70:	e3a00080 	mov	r0, #128	; 0x80
     a74:	e59f15d0 	ldr	r1, [pc, #1488]	; 104c <wait_init_complete_DBS1+0x4dc>
     a78:	e5810000 	str	r0, [r1]
     a7c:	e3a00c01 	mov	r0, #256	; 0x100
     a80:	e59f15c8 	ldr	r1, [pc, #1480]	; 1050 <wait_init_complete_DBS1+0x4e0>
     a84:	e5810000 	str	r0, [r1]
     a88:	e3a000c0 	mov	r0, #192	; 0xc0
     a8c:	e59f15c0 	ldr	r1, [pc, #1472]	; 1054 <wait_init_complete_DBS1+0x4e4>
     a90:	e5810000 	str	r0, [r1]
     a94:	e3a00080 	mov	r0, #128	; 0x80
     a98:	e59f15b8 	ldr	r1, [pc, #1464]	; 1058 <wait_init_complete_DBS1+0x4e8>
     a9c:	e5810000 	str	r0, [r1]
     aa0:	e3a00040 	mov	r0, #64	; 0x40
     aa4:	e59f15b0 	ldr	r1, [pc, #1456]	; 105c <wait_init_complete_DBS1+0x4ec>
     aa8:	e5810000 	str	r0, [r1]
     aac:	e59f03a4 	ldr	r0, [pc, #932]	; e58 <wait_init_complete_DBS1+0x2e8>
     ab0:	e59f15a8 	ldr	r1, [pc, #1448]	; 1060 <wait_init_complete_DBS1+0x4f0>
     ab4:	e5810000 	str	r0, [r1]
     ab8:	e59f03a0 	ldr	r0, [pc, #928]	; e60 <wait_init_complete_DBS1+0x2f0>
     abc:	e59f15a0 	ldr	r1, [pc, #1440]	; 1064 <wait_init_complete_DBS1+0x4f4>
     ac0:	e5810000 	str	r0, [r1]
     ac4:	e59f039c 	ldr	r0, [pc, #924]	; e68 <wait_init_complete_DBS1+0x2f8>
     ac8:	e59f1598 	ldr	r1, [pc, #1432]	; 1068 <wait_init_complete_DBS1+0x4f8>
     acc:	e5810000 	str	r0, [r1]
     ad0:	e3a00001 	mov	r0, #1
     ad4:	e59f1590 	ldr	r1, [pc, #1424]	; 106c <wait_init_complete_DBS1+0x4fc>
     ad8:	e5810000 	str	r0, [r1]
     adc:	e3a00002 	mov	r0, #2
     ae0:	e59f1588 	ldr	r1, [pc, #1416]	; 1070 <wait_init_complete_DBS1+0x500>
     ae4:	e5810000 	str	r0, [r1]
     ae8:	e3a00002 	mov	r0, #2
     aec:	e59f1580 	ldr	r1, [pc, #1408]	; 1074 <wait_init_complete_DBS1+0x504>
     af0:	e5810000 	str	r0, [r1]
     af4:	e3a00001 	mov	r0, #1
     af8:	e59f1578 	ldr	r1, [pc, #1400]	; 1078 <wait_init_complete_DBS1+0x508>
     afc:	e5810000 	str	r0, [r1]
     b00:	e3a00041 	mov	r0, #65	; 0x41
     b04:	e59f1570 	ldr	r1, [pc, #1392]	; 107c <wait_init_complete_DBS1+0x50c>
     b08:	e5810000 	str	r0, [r1]
     b0c:	e3a00011 	mov	r0, #17
     b10:	e59f1568 	ldr	r1, [pc, #1384]	; 1080 <wait_init_complete_DBS1+0x510>
     b14:	e5810000 	str	r0, [r1]
     b18:	e3a00011 	mov	r0, #17
     b1c:	e59f1560 	ldr	r1, [pc, #1376]	; 1084 <wait_init_complete_DBS1+0x514>
     b20:	e5810000 	str	r0, [r1]
     b24:	e3a00011 	mov	r0, #17
     b28:	e59f1558 	ldr	r1, [pc, #1368]	; 1088 <wait_init_complete_DBS1+0x518>
     b2c:	e5810000 	str	r0, [r1]
     b30:	e3a00011 	mov	r0, #17
     b34:	e59f1550 	ldr	r1, [pc, #1360]	; 108c <wait_init_complete_DBS1+0x51c>
     b38:	e5810000 	str	r0, [r1]
     b3c:	e59f0350 	ldr	r0, [pc, #848]	; e94 <wait_init_complete_DBS1+0x324>
     b40:	e59f1548 	ldr	r1, [pc, #1352]	; 1090 <wait_init_complete_DBS1+0x520>
     b44:	e5810000 	str	r0, [r1]
     b48:	e59f0344 	ldr	r0, [pc, #836]	; e94 <wait_init_complete_DBS1+0x324>
     b4c:	e59f1540 	ldr	r1, [pc, #1344]	; 1094 <wait_init_complete_DBS1+0x524>
     b50:	e5810000 	str	r0, [r1]
     b54:	e59f0338 	ldr	r0, [pc, #824]	; e94 <wait_init_complete_DBS1+0x324>
     b58:	e59f1538 	ldr	r1, [pc, #1336]	; 1098 <wait_init_complete_DBS1+0x528>
     b5c:	e5810000 	str	r0, [r1]
     b60:	e59f032c 	ldr	r0, [pc, #812]	; e94 <wait_init_complete_DBS1+0x324>
     b64:	e59f1530 	ldr	r1, [pc, #1328]	; 109c <wait_init_complete_DBS1+0x52c>
     b68:	e5810000 	str	r0, [r1]
     b6c:	e3a06001 	mov	r6, #1

00000b70 <wait_init_complete_DBS1>:
     b70:	e59f0528 	ldr	r0, [pc, #1320]	; 10a0 <wait_init_complete_DBS1+0x530>
     b74:	e5907000 	ldr	r7, [r0]
     b78:	e0067007 	and	r7, r6, r7
     b7c:	e1560007 	cmp	r6, r7
     b80:	1afffffa 	bne	b70 <wait_init_complete_DBS1>
     b84:	e59f0518 	ldr	r0, [pc, #1304]	; 10a4 <wait_init_complete_DBS1+0x534>
     b88:	e5907000 	ldr	r7, [r0]
     b8c:	e0067007 	and	r7, r6, r7
     b90:	e1560007 	cmp	r6, r7
     b94:	1afffff5 	bne	b70 <wait_init_complete_DBS1>
     b98:	e59f0508 	ldr	r0, [pc, #1288]	; 10a8 <wait_init_complete_DBS1+0x538>
     b9c:	e5907000 	ldr	r7, [r0]
     ba0:	e0067007 	and	r7, r6, r7
     ba4:	e1560007 	cmp	r6, r7
     ba8:	1afffff0 	bne	b70 <wait_init_complete_DBS1>
     bac:	e59f04f8 	ldr	r0, [pc, #1272]	; 10ac <wait_init_complete_DBS1+0x53c>
     bb0:	e5907000 	ldr	r7, [r0]
     bb4:	e0067007 	and	r7, r6, r7
     bb8:	e1560007 	cmp	r6, r7
     bbc:	1affffeb 	bne	b70 <wait_init_complete_DBS1>
     bc0:	e59f04a4 	ldr	r0, [pc, #1188]	; 106c <wait_init_complete_DBS1+0x4fc>
     bc4:	e59f02ec 	ldr	r0, [pc, #748]	; eb8 <wait_init_complete_DBS1+0x348>
     bc8:	e59f14e0 	ldr	r1, [pc, #1248]	; 10b0 <wait_init_complete_DBS1+0x540>
     bcc:	e5810000 	str	r0, [r1]
     bd0:	e59f02e8 	ldr	r0, [pc, #744]	; ec0 <wait_init_complete_DBS1+0x350>
     bd4:	e59f14d4 	ldr	r1, [pc, #1236]	; 10b0 <wait_init_complete_DBS1+0x540>
     bd8:	e5810000 	str	r0, [r1]
     bdc:	e59f02e0 	ldr	r0, [pc, #736]	; ec4 <wait_init_complete_DBS1+0x354>
     be0:	e59f14c8 	ldr	r1, [pc, #1224]	; 10b0 <wait_init_complete_DBS1+0x540>
     be4:	e5810000 	str	r0, [r1]
     be8:	e59f02d8 	ldr	r0, [pc, #728]	; ec8 <wait_init_complete_DBS1+0x358>
     bec:	e59f14bc 	ldr	r1, [pc, #1212]	; 10b0 <wait_init_complete_DBS1+0x540>
     bf0:	e5810000 	str	r0, [r1]
     bf4:	e59f02d0 	ldr	r0, [pc, #720]	; ecc <wait_init_complete_DBS1+0x35c>
     bf8:	e59f14b0 	ldr	r1, [pc, #1200]	; 10b0 <wait_init_complete_DBS1+0x540>
     bfc:	e5810000 	str	r0, [r1]
     c00:	e59f02c8 	ldr	r0, [pc, #712]	; ed0 <wait_init_complete_DBS1+0x360>
     c04:	e59f14a4 	ldr	r1, [pc, #1188]	; 10b0 <wait_init_complete_DBS1+0x540>
     c08:	e5810000 	str	r0, [r1]
     c0c:	e59f02c0 	ldr	r0, [pc, #704]	; ed4 <wait_init_complete_DBS1+0x364>
     c10:	e59f1498 	ldr	r1, [pc, #1176]	; 10b0 <wait_init_complete_DBS1+0x540>
     c14:	e5810000 	str	r0, [r1]
     c18:	e59f02b8 	ldr	r0, [pc, #696]	; ed8 <wait_init_complete_DBS1+0x368>
     c1c:	e59f148c 	ldr	r1, [pc, #1164]	; 10b0 <wait_init_complete_DBS1+0x540>
     c20:	e5810000 	str	r0, [r1]
     c24:	e59f02b0 	ldr	r0, [pc, #688]	; edc <wait_init_complete_DBS1+0x36c>
     c28:	e59f1484 	ldr	r1, [pc, #1156]	; 10b4 <wait_init_complete_DBS1+0x544>
     c2c:	e5810000 	str	r0, [r1]
     c30:	e59f02ac 	ldr	r0, [pc, #684]	; ee4 <wait_init_complete_DBS1+0x374>
     c34:	e59f147c 	ldr	r1, [pc, #1148]	; 10b8 <wait_init_complete_DBS1+0x548>
     c38:	e5810000 	str	r0, [r1]
     c3c:	e59f02a8 	ldr	r0, [pc, #680]	; eec <wait_init_complete_DBS1+0x37c>
     c40:	e59f1474 	ldr	r1, [pc, #1140]	; 10bc <wait_init_complete_DBS1+0x54c>
     c44:	e5810000 	str	r0, [r1]
     c48:	e3a00801 	mov	r0, #65536	; 0x10000
     c4c:	e59f146c 	ldr	r1, [pc, #1132]	; 10c0 <wait_init_complete_DBS1+0x550>
     c50:	e5810000 	str	r0, [r1]
     c54:	e3a00001 	mov	r0, #1
     c58:	e59f1464 	ldr	r1, [pc, #1124]	; 10c4 <wait_init_complete_DBS1+0x554>
     c5c:	e5810000 	str	r0, [r1]
     c60:	e59f0294 	ldr	r0, [pc, #660]	; efc <wait_init_complete_DBS1+0x38c>
     c64:	e59f145c 	ldr	r1, [pc, #1116]	; 10c8 <wait_init_complete_DBS1+0x558>
     c68:	e5810000 	str	r0, [r1]
     c6c:	e59f0288 	ldr	r0, [pc, #648]	; efc <wait_init_complete_DBS1+0x38c>
     c70:	e59f1454 	ldr	r1, [pc, #1108]	; 10cc <wait_init_complete_DBS1+0x55c>
     c74:	e5810000 	str	r0, [r1]
     c78:	e59f027c 	ldr	r0, [pc, #636]	; efc <wait_init_complete_DBS1+0x38c>
     c7c:	e59f144c 	ldr	r1, [pc, #1100]	; 10d0 <wait_init_complete_DBS1+0x560>
     c80:	e5810000 	str	r0, [r1]
     c84:	e59f0270 	ldr	r0, [pc, #624]	; efc <wait_init_complete_DBS1+0x38c>
     c88:	e59f1444 	ldr	r1, [pc, #1092]	; 10d4 <wait_init_complete_DBS1+0x564>
     c8c:	e5810000 	str	r0, [r1]
     c90:	e3a00001 	mov	r0, #1
     c94:	e59f143c 	ldr	r1, [pc, #1084]	; 10d8 <wait_init_complete_DBS1+0x568>
     c98:	e5810000 	str	r0, [r1]
     c9c:	e3a00001 	mov	r0, #1
     ca0:	e59f126c 	ldr	r1, [pc, #620]	; f14 <wait_init_complete_DBS1+0x3a4>
     ca4:	e5810000 	str	r0, [r1]
     ca8:	e3a00000 	mov	r0, #0
     cac:	e59f1264 	ldr	r1, [pc, #612]	; f18 <wait_init_complete_DBS1+0x3a8>
     cb0:	e5810000 	str	r0, [r1]
     cb4:	ea000108 	b	10dc <i2c1InterruptHandler>
     cb8:	e6152e10 	.word	0xe6152e10
     cbc:	e6150000 	.word	0xe6150000
     cc0:	e6152d10 	.word	0xe6152d10
     cc4:	00003fff 	.word	0x00003fff
     cc8:	00001234 	.word	0x00001234
     ccc:	e6790100 	.word	0xe6790100
     cd0:	e6790108 	.word	0xe6790108
     cd4:	e6790020 	.word	0xe6790020
     cd8:	e6790024 	.word	0xe6790024
     cdc:	0e030a01 	.word	0x0e030a01
     ce0:	e6790030 	.word	0xe6790030
     ce4:	e6790070 	.word	0xe6790070
     ce8:	e6790034 	.word	0xe6790034
     cec:	e6790074 	.word	0xe6790074
     cf0:	e6790040 	.word	0xe6790040
     cf4:	e6790080 	.word	0xe6790080
     cf8:	e6790044 	.word	0xe6790044
     cfc:	e6790084 	.word	0xe6790084
     d00:	e6790050 	.word	0xe6790050
     d04:	e6790090 	.word	0xe6790090
     d08:	e6790054 	.word	0xe6790054
     d0c:	e6790094 	.word	0xe6790094
     d10:	e6790060 	.word	0xe6790060
     d14:	e67900a0 	.word	0xe67900a0
     d18:	e6790064 	.word	0xe6790064
     d1c:	e67900a4 	.word	0xe67900a4
     d20:	e6790104 	.word	0xe6790104
     d24:	e6790010 	.word	0xe6790010
     d28:	e6790300 	.word	0xe6790300
     d2c:	e6790304 	.word	0xe6790304
     d30:	e679030c 	.word	0xe679030c
     d34:	002d0027 	.word	0x002d0027
     d38:	e6790310 	.word	0xe6790310
     d3c:	e6790314 	.word	0xe6790314
     d40:	e6790318 	.word	0xe6790318
     d44:	00100010 	.word	0x00100010
     d48:	e679031c 	.word	0xe679031c
     d4c:	e6790320 	.word	0xe6790320
     d50:	e6790324 	.word	0xe6790324
     d54:	e6790328 	.word	0xe6790328
     d58:	e679032c 	.word	0xe679032c
     d5c:	00310031 	.word	0x00310031
     d60:	e6790330 	.word	0xe6790330
     d64:	00000116 	.word	0x00000116
     d68:	e6790334 	.word	0xe6790334
     d6c:	00130013 	.word	0x00130013
     d70:	e6790338 	.word	0xe6790338
     d74:	00200010 	.word	0x00200010
     d78:	e679033c 	.word	0xe679033c
     d7c:	0d400a0e 	.word	0x0d400a0e
     d80:	e6790340 	.word	0xe6790340
     d84:	081e0000 	.word	0x081e0000
     d88:	e6790344 	.word	0xe6790344
     d8c:	01290129 	.word	0x01290129
     d90:	e6790350 	.word	0xe6790350
     d94:	00080008 	.word	0x00080008
     d98:	e6790354 	.word	0xe6790354
     d9c:	08550040 	.word	0x08550040
     da0:	e6790358 	.word	0xe6790358
     da4:	e679035c 	.word	0xe679035c
     da8:	e6790400 	.word	0xe6790400
     dac:	e6790404 	.word	0xe6790404
     db0:	00004444 	.word	0x00004444
     db4:	e6790438 	.word	0xe6790438
     db8:	e679043c 	.word	0xe679043c
     dbc:	e6790440 	.word	0xe6790440
     dc0:	e6790444 	.word	0xe6790444
     dc4:	00104214 	.word	0x00104214
     dc8:	e6790904 	.word	0xe6790904
     dcc:	e6790908 	.word	0xe6790908
     dd0:	e679090c 	.word	0xe679090c
     dd4:	000f0037 	.word	0x000f0037
     dd8:	e6791000 	.word	0xe6791000
     ddc:	00001010 	.word	0x00001010
     de0:	e6791004 	.word	0xe6791004
     de4:	e6791010 	.word	0xe6791010
     de8:	f7311111 	.word	0xf7311111
     dec:	e6791020 	.word	0xe6791020
     df0:	00001834 	.word	0x00001834
     df4:	e6791024 	.word	0xe6791024
     df8:	e6791030 	.word	0xe6791030
     dfc:	e6791034 	.word	0xe6791034
     e00:	e6791038 	.word	0xe6791038
     e04:	e679103c 	.word	0xe679103c
     e08:	e6791070 	.word	0xe6791070
     e0c:	e6791074 	.word	0xe6791074
     e10:	e6791078 	.word	0xe6791078
     e14:	e679107c 	.word	0xe679107c
     e18:	e67910c0 	.word	0xe67910c0
     e1c:	e67910c4 	.word	0xe67910c4
     e20:	e67910c8 	.word	0xe67910c8
     e24:	e67910cc 	.word	0xe67910cc
     e28:	e6791100 	.word	0xe6791100
     e2c:	e6791104 	.word	0xe6791104
     e30:	e6791108 	.word	0xe6791108
     e34:	e679110c 	.word	0xe679110c
     e38:	e6791110 	.word	0xe6791110
     e3c:	e6791114 	.word	0xe6791114
     e40:	e6791118 	.word	0xe6791118
     e44:	e679111c 	.word	0xe679111c
     e48:	e6791120 	.word	0xe6791120
     e4c:	e6791124 	.word	0xe6791124
     e50:	e6791128 	.word	0xe6791128
     e54:	e679112c 	.word	0xe679112c
     e58:	220e110a 	.word	0x220e110a
     e5c:	e6791700 	.word	0xe6791700
     e60:	0b0d0a0c 	.word	0x0b0d0a0c
     e64:	e6791708 	.word	0xe6791708
     e68:	111f1fff 	.word	0x111f1fff
     e6c:	e679170c 	.word	0xe679170c
     e70:	e6790000 	.word	0xe6790000
     e74:	e6790004 	.word	0xe6790004
     e78:	e6790008 	.word	0xe6790008
     e7c:	e679000c 	.word	0xe679000c
     e80:	e6790014 	.word	0xe6790014
     e84:	e6790604 	.word	0xe6790604
     e88:	e6790644 	.word	0xe6790644
     e8c:	e6790684 	.word	0xe6790684
     e90:	e67906c4 	.word	0xe67906c4
     e94:	0000cf01 	.word	0x0000cf01
     e98:	e679061c 	.word	0xe679061c
     e9c:	e679065c 	.word	0xe679065c
     ea0:	e679069c 	.word	0xe679069c
     ea4:	e67906dc 	.word	0xe67906dc
     ea8:	e6790600 	.word	0xe6790600
     eac:	e6790640 	.word	0xe6790640
     eb0:	e6790680 	.word	0xe6790680
     eb4:	e67906c0 	.word	0xe67906c0
     eb8:	08840000 	.word	0x08840000
     ebc:	e6790208 	.word	0xe6790208
     ec0:	08840001 	.word	0x08840001
     ec4:	01840001 	.word	0x01840001
     ec8:	0e840aff 	.word	0x0e840aff
     ecc:	0e840154 	.word	0x0e840154
     ed0:	0e84022e 	.word	0x0e84022e
     ed4:	0d84004f 	.word	0x0d84004f
     ed8:	0d840051 	.word	0x0d840051
     edc:	70000100 	.word	0x70000100
     ee0:	e6790804 	.word	0xe6790804
     ee4:	18010001 	.word	0x18010001
     ee8:	e6790800 	.word	0xe6790800
     eec:	00081860 	.word	0x00081860
     ef0:	e6790414 	.word	0xe6790414
     ef4:	e6790418 	.word	0xe6790418
     ef8:	e6790204 	.word	0xe6790204
     efc:	0000a55a 	.word	0x0000a55a
     f00:	e6790620 	.word	0xe6790620
     f04:	e6790660 	.word	0xe6790660
     f08:	e67906a0 	.word	0xe67906a0
     f0c:	e67906e0 	.word	0xe67906e0
     f10:	e6790200 	.word	0xe6790200
     f14:	e67f0024 	.word	0xe67f0024
     f18:	e67f0018 	.word	0xe67f0018
     f1c:	e6798100 	.word	0xe6798100
     f20:	e6798108 	.word	0xe6798108
     f24:	e6798020 	.word	0xe6798020
     f28:	e6798024 	.word	0xe6798024
     f2c:	e6798030 	.word	0xe6798030
     f30:	e6798070 	.word	0xe6798070
     f34:	e6798034 	.word	0xe6798034
     f38:	e6798074 	.word	0xe6798074
     f3c:	e6798040 	.word	0xe6798040
     f40:	e6798080 	.word	0xe6798080
     f44:	e6798044 	.word	0xe6798044
     f48:	e6798084 	.word	0xe6798084
     f4c:	e6798050 	.word	0xe6798050
     f50:	e6798090 	.word	0xe6798090
     f54:	e6798054 	.word	0xe6798054
     f58:	e6798094 	.word	0xe6798094
     f5c:	e6798060 	.word	0xe6798060
     f60:	e67980a0 	.word	0xe67980a0
     f64:	e6798064 	.word	0xe6798064
     f68:	e67980a4 	.word	0xe67980a4
     f6c:	e6798104 	.word	0xe6798104
     f70:	e6798010 	.word	0xe6798010
     f74:	e6798300 	.word	0xe6798300
     f78:	e6798304 	.word	0xe6798304
     f7c:	e679830c 	.word	0xe679830c
     f80:	e6798310 	.word	0xe6798310
     f84:	e6798314 	.word	0xe6798314
     f88:	e6798318 	.word	0xe6798318
     f8c:	e679831c 	.word	0xe679831c
     f90:	e6798320 	.word	0xe6798320
     f94:	e6798324 	.word	0xe6798324
     f98:	e6798328 	.word	0xe6798328
     f9c:	e679832c 	.word	0xe679832c
     fa0:	e6798330 	.word	0xe6798330
     fa4:	e6798334 	.word	0xe6798334
     fa8:	e6798338 	.word	0xe6798338
     fac:	e679833c 	.word	0xe679833c
     fb0:	e6798340 	.word	0xe6798340
     fb4:	e6798344 	.word	0xe6798344
     fb8:	e6798350 	.word	0xe6798350
     fbc:	e6798354 	.word	0xe6798354
     fc0:	e6798358 	.word	0xe6798358
     fc4:	e679835c 	.word	0xe679835c
     fc8:	e6798400 	.word	0xe6798400
     fcc:	e6798404 	.word	0xe6798404
     fd0:	e6798438 	.word	0xe6798438
     fd4:	e679843c 	.word	0xe679843c
     fd8:	e6798440 	.word	0xe6798440
     fdc:	e6798444 	.word	0xe6798444
     fe0:	e6798904 	.word	0xe6798904
     fe4:	e6798908 	.word	0xe6798908
     fe8:	e679890c 	.word	0xe679890c
     fec:	e6799000 	.word	0xe6799000
     ff0:	e6799004 	.word	0xe6799004
     ff4:	e6799010 	.word	0xe6799010
     ff8:	e6799020 	.word	0xe6799020
     ffc:	e6799024 	.word	0xe6799024
    1000:	e6799030 	.word	0xe6799030
    1004:	e6799034 	.word	0xe6799034
    1008:	e6799038 	.word	0xe6799038
    100c:	e679903c 	.word	0xe679903c
    1010:	e6799070 	.word	0xe6799070
    1014:	e6799074 	.word	0xe6799074
    1018:	e6799078 	.word	0xe6799078
    101c:	e679907c 	.word	0xe679907c
    1020:	e67990c0 	.word	0xe67990c0
    1024:	e67990c4 	.word	0xe67990c4
    1028:	e67990c8 	.word	0xe67990c8
    102c:	e67990cc 	.word	0xe67990cc
    1030:	e6799100 	.word	0xe6799100
    1034:	e6799104 	.word	0xe6799104
    1038:	e6799108 	.word	0xe6799108
    103c:	e679910c 	.word	0xe679910c
    1040:	e6799110 	.word	0xe6799110
    1044:	e6799114 	.word	0xe6799114
    1048:	e6799118 	.word	0xe6799118
    104c:	e679911c 	.word	0xe679911c
    1050:	e6799120 	.word	0xe6799120
    1054:	e6799124 	.word	0xe6799124
    1058:	e6799128 	.word	0xe6799128
    105c:	e679912c 	.word	0xe679912c
    1060:	e6799700 	.word	0xe6799700
    1064:	e6799708 	.word	0xe6799708
    1068:	e679970c 	.word	0xe679970c
    106c:	e6798000 	.word	0xe6798000
    1070:	e6798004 	.word	0xe6798004
    1074:	e6798008 	.word	0xe6798008
    1078:	e679800c 	.word	0xe679800c
    107c:	e6798014 	.word	0xe6798014
    1080:	e6798604 	.word	0xe6798604
    1084:	e6798644 	.word	0xe6798644
    1088:	e6798684 	.word	0xe6798684
    108c:	e67986c4 	.word	0xe67986c4
    1090:	e679861c 	.word	0xe679861c
    1094:	e679865c 	.word	0xe679865c
    1098:	e679869c 	.word	0xe679869c
    109c:	e67986dc 	.word	0xe67986dc
    10a0:	e6798600 	.word	0xe6798600
    10a4:	e6798640 	.word	0xe6798640
    10a8:	e6798680 	.word	0xe6798680
    10ac:	e67986c0 	.word	0xe67986c0
    10b0:	e6798208 	.word	0xe6798208
    10b4:	e6798804 	.word	0xe6798804
    10b8:	e6798800 	.word	0xe6798800
    10bc:	e6798414 	.word	0xe6798414
    10c0:	e6798418 	.word	0xe6798418
    10c4:	e6798204 	.word	0xe6798204
    10c8:	e6798620 	.word	0xe6798620
    10cc:	e6798660 	.word	0xe6798660
    10d0:	e67986a0 	.word	0xe67986a0
    10d4:	e67986e0 	.word	0xe67986e0
    10d8:	e6798200 	.word	0xe6798200

000010dc <i2c1InterruptHandler>:
    10dc:	e92d4070 	push	{r4, r5, r6, lr}
    10e0:	e3a00902 	mov	r0, #32768	; 0x8000
    10e4:	e34e0650 	movt	r0, #58960	; 0xe650
    10e8:	eb000daf 	bl	47ac <I2C_slaveGetInterruptStatus>
    10ec:	e1a04000 	mov	r4, r0
    10f0:	e3100002 	tst	r0, #2
    10f4:	0a00000a 	beq	1124 <i2c1InterruptHandler+0x48>
    10f8:	e3003000 	movw	r3, #0
    10fc:	e34e3630 	movt	r3, #58928	; 0xe630
    1100:	e5932000 	ldr	r2, [r3]
    1104:	e5933000 	ldr	r3, [r3]
    1108:	e3530000 	cmp	r3, #0
    110c:	0a000009 	beq	1138 <i2c1InterruptHandler+0x5c>
    1110:	e3003000 	movw	r3, #0
    1114:	e34e3630 	movt	r3, #58928	; 0xe630
    1118:	e5933000 	ldr	r3, [r3]
    111c:	e3530001 	cmp	r3, #1
    1120:	0a00000f 	beq	1164 <i2c1InterruptHandler+0x88>
    1124:	e1a01004 	mov	r1, r4
    1128:	e3a00902 	mov	r0, #32768	; 0x8000
    112c:	e34e0650 	movt	r0, #58960	; 0xe650
    1130:	eb000da0 	bl	47b8 <I2C_slaveClearInterruptStatus>
    1134:	e8bd8070 	pop	{r4, r5, r6, pc}
    1138:	e3005000 	movw	r5, #0
    113c:	e34e5630 	movt	r5, #58928	; 0xe630
    1140:	e5956000 	ldr	r6, [r5]
    1144:	e2863001 	add	r3, r6, #1
    1148:	e5853000 	str	r3, [r5]
    114c:	e3a00902 	mov	r0, #32768	; 0x8000
    1150:	e34e0650 	movt	r0, #58960	; 0xe650
    1154:	eb000da2 	bl	47e4 <I2C_slaveReceiveMultipleByteStop>
    1158:	e0855106 	add	r5, r5, r6, lsl #2
    115c:	e5850004 	str	r0, [r5, #4]
    1160:	eaffffef 	b	1124 <i2c1InterruptHandler+0x48>
    1164:	e3005000 	movw	r5, #0
    1168:	e34e5630 	movt	r5, #58928	; 0xe630
    116c:	e5956000 	ldr	r6, [r5]
    1170:	e2863001 	add	r3, r6, #1
    1174:	e5853000 	str	r3, [r5]
    1178:	e3a00902 	mov	r0, #32768	; 0x8000
    117c:	e34e0650 	movt	r0, #58960	; 0xe650
    1180:	eb000d9d 	bl	47fc <I2C_slaveReceiveMultipleByteFinish>
    1184:	e0855106 	add	r5, r5, r6, lsl #2
    1188:	e5850004 	str	r0, [r5, #4]
    118c:	eaffffe4 	b	1124 <i2c1InterruptHandler+0x48>

00001190 <i2c0InterruptHandler>:
    1190:	e92d4010 	push	{r4, lr}
    1194:	e3a00000 	mov	r0, #0
    1198:	e34e0650 	movt	r0, #58960	; 0xe650
    119c:	eb000e6d 	bl	4b58 <I2C_masterGetInterruptStatus>
    11a0:	e1a04000 	mov	r4, r0
    11a4:	e3100001 	tst	r0, #1
    11a8:	1a00000b 	bne	11dc <i2c0InterruptHandler+0x4c>
    11ac:	e3100008 	tst	r0, #8
    11b0:	1a00000d 	bne	11ec <i2c0InterruptHandler+0x5c>
    11b4:	e3140010 	tst	r4, #16
    11b8:	13003000 	movwne	r3, #0
    11bc:	134e3630 	movtne	r3, #58928	; 0xe630
    11c0:	13a02001 	movne	r2, #1
    11c4:	15c32010 	strbne	r2, [r3, #16]
    11c8:	e1a01004 	mov	r1, r4
    11cc:	e3a00000 	mov	r0, #0
    11d0:	e34e0650 	movt	r0, #58960	; 0xe650
    11d4:	eb000e62 	bl	4b64 <I2C_masterClearInterruptStatus>
    11d8:	e8bd8010 	pop	{r4, pc}
    11dc:	e3a00000 	mov	r0, #0
    11e0:	e34e0650 	movt	r0, #58960	; 0xe650
    11e4:	eb000eb5 	bl	4cc0 <I2C_masterDisableStartGeneration>
    11e8:	eafffff1 	b	11b4 <i2c0InterruptHandler+0x24>
    11ec:	e3003000 	movw	r3, #0
    11f0:	e34e3630 	movt	r3, #58928	; 0xe630
    11f4:	e593200c 	ldr	r2, [r3, #12]
    11f8:	e2821001 	add	r1, r2, #1
    11fc:	e583100c 	str	r1, [r3, #12]
    1200:	e30638cc 	movw	r3, #26828	; 0x68cc
    1204:	e3403000 	movt	r3, #0
    1208:	e7931102 	ldr	r1, [r3, r2, lsl #2]
    120c:	e3a00000 	mov	r0, #0
    1210:	e34e0650 	movt	r0, #58960	; 0xe650
    1214:	eb000e5b 	bl	4b88 <I2C_masterSendMultipleByteNext>
    1218:	eaffffe5 	b	11b4 <i2c0InterruptHandler+0x24>

0000121c <master_tx_100kHz>:
    121c:	e92d4070 	push	{r4, r5, r6, lr}
    1220:	e30658cc 	movw	r5, #26828	; 0x68cc
    1224:	e3405000 	movt	r5, #0
    1228:	e3a04000 	mov	r4, #0
    122c:	e34e4650 	movt	r4, #58960	; 0xe650
    1230:	e2851008 	add	r1, r5, #8
    1234:	e1a00004 	mov	r0, r4
    1238:	eb000d84 	bl	4850 <I2C_masterInit>
    123c:	e3e01000 	mvn	r1, #0
    1240:	e1a00004 	mov	r0, r4
    1244:	eb000e46 	bl	4b64 <I2C_masterClearInterruptStatus>
    1248:	e3a01019 	mov	r1, #25
    124c:	e1a00004 	mov	r0, r4
    1250:	eb000e38 	bl	4b38 <I2C_masterEnableInterrupt>
    1254:	e1a00004 	mov	r0, r4
    1258:	eb000e2e 	bl	4b18 <I2C_masterEnable>
    125c:	e3a06902 	mov	r6, #32768	; 0x8000
    1260:	e34e6650 	movt	r6, #58960	; 0xe650
    1264:	e2851010 	add	r1, r5, #16
    1268:	e1a00006 	mov	r0, r6
    126c:	eb000c8e 	bl	44ac <I2C_slaveInit>
    1270:	e3e01000 	mvn	r1, #0
    1274:	e1a00006 	mov	r0, r6
    1278:	eb000d4e 	bl	47b8 <I2C_slaveClearInterruptStatus>
    127c:	e3a01013 	mov	r1, #19
    1280:	e1a00006 	mov	r0, r6
    1284:	eb000d40 	bl	478c <I2C_slaveEnableInterrupt>
    1288:	e1a00006 	mov	r0, r6
    128c:	eb000d34 	bl	4764 <I2C_slaveEnable>
    1290:	eb00015f 	bl	1814 <GIC_enable>
    1294:	e3011190 	movw	r1, #4496	; 0x1190
    1298:	e3401000 	movt	r1, #0
    129c:	e300010e 	movw	r0, #270	; 0x10e
    12a0:	eb0001b0 	bl	1968 <GIC_setInterruptHandler>
    12a4:	e30110dc 	movw	r1, #4316	; 0x10dc
    12a8:	e3401000 	movt	r1, #0
    12ac:	e300010f 	movw	r0, #271	; 0x10f
    12b0:	eb0001ac 	bl	1968 <GIC_setInterruptHandler>
    12b4:	e300010e 	movw	r0, #270	; 0x10e
    12b8:	eb00016c 	bl	1870 <GIC_enableInterrupt>
    12bc:	e300010f 	movw	r0, #271	; 0x10f
    12c0:	eb00016a 	bl	1870 <GIC_enableInterrupt>
    12c4:	e3003000 	movw	r3, #0
    12c8:	e34e3630 	movt	r3, #58928	; 0xe630
    12cc:	e593200c 	ldr	r2, [r3, #12]
    12d0:	e2821001 	add	r1, r2, #1
    12d4:	e583100c 	str	r1, [r3, #12]
    12d8:	e7951102 	ldr	r1, [r5, r2, lsl #2]
    12dc:	e1a00004 	mov	r0, r4
    12e0:	eb000e23 	bl	4b74 <I2C_masterSendMultipleByteStart>
    12e4:	e3002000 	movw	r2, #0
    12e8:	e34e2630 	movt	r2, #58928	; 0xe630
    12ec:	e5d23010 	ldrb	r3, [r2, #16]
    12f0:	e31300ff 	tst	r3, #255	; 0xff
    12f4:	0afffffc 	beq	12ec <master_tx_100kHz+0xd0>
    12f8:	e3003000 	movw	r3, #0
    12fc:	e34e3630 	movt	r3, #58928	; 0xe630
    1300:	e5933004 	ldr	r3, [r3, #4]
    1304:	e35300aa 	cmp	r3, #170	; 0xaa
    1308:	1a000005 	bne	1324 <master_tx_100kHz+0x108>
    130c:	e3003000 	movw	r3, #0
    1310:	e34e3630 	movt	r3, #58928	; 0xe630
    1314:	e5930008 	ldr	r0, [r3, #8]
    1318:	e2500055 	subs	r0, r0, #85	; 0x55
    131c:	13a00001 	movne	r0, #1
    1320:	e8bd8070 	pop	{r4, r5, r6, pc}
    1324:	e3a00001 	mov	r0, #1
    1328:	e8bd8070 	pop	{r4, r5, r6, pc}

0000132c <i2c1InterruptHandler>:
    132c:	e92d4010 	push	{r4, lr}
    1330:	e3a00902 	mov	r0, #32768	; 0x8000
    1334:	e34e0650 	movt	r0, #58960	; 0xe650
    1338:	eb000d1b 	bl	47ac <I2C_slaveGetInterruptStatus>
    133c:	e1a04000 	mov	r4, r0
    1340:	e3100008 	tst	r0, #8
    1344:	1a000004 	bne	135c <i2c1InterruptHandler+0x30>
    1348:	e1a01004 	mov	r1, r4
    134c:	e3a00902 	mov	r0, #32768	; 0x8000
    1350:	e34e0650 	movt	r0, #58960	; 0xe650
    1354:	eb000d17 	bl	47b8 <I2C_slaveClearInterruptStatus>
    1358:	e8bd8010 	pop	{r4, pc}
    135c:	e3003014 	movw	r3, #20
    1360:	e34e3630 	movt	r3, #58928	; 0xe630
    1364:	e5932000 	ldr	r2, [r3]
    1368:	e2821001 	add	r1, r2, #1
    136c:	e5831000 	str	r1, [r3]
    1370:	e30638e4 	movw	r3, #26852	; 0x68e4
    1374:	e3403000 	movt	r3, #0
    1378:	e7d31102 	ldrb	r1, [r3, r2, lsl #2]
    137c:	e3a00902 	mov	r0, #32768	; 0x8000
    1380:	e34e0650 	movt	r0, #58960	; 0xe650
    1384:	eb000d1f 	bl	4808 <I2C_slaveSetData>
    1388:	eaffffee 	b	1348 <i2c1InterruptHandler+0x1c>

0000138c <i2c0InterruptHandler>:
    138c:	e92d4070 	push	{r4, r5, r6, lr}
    1390:	e3a00000 	mov	r0, #0
    1394:	e34e0650 	movt	r0, #58960	; 0xe650
    1398:	eb000dee 	bl	4b58 <I2C_masterGetInterruptStatus>
    139c:	e1a04000 	mov	r4, r0
    13a0:	e3100001 	tst	r0, #1
    13a4:	1a000017 	bne	1408 <i2c0InterruptHandler+0x7c>
    13a8:	e3100002 	tst	r0, #2
    13ac:	0a000018 	beq	1414 <i2c0InterruptHandler+0x88>
    13b0:	e3003014 	movw	r3, #20
    13b4:	e34e3630 	movt	r3, #58928	; 0xe630
    13b8:	e5932004 	ldr	r2, [r3, #4]
    13bc:	e5933004 	ldr	r3, [r3, #4]
    13c0:	e3530000 	cmp	r3, #0
    13c4:	0a00001c 	beq	143c <i2c0InterruptHandler+0xb0>
    13c8:	e3003014 	movw	r3, #20
    13cc:	e34e3630 	movt	r3, #58928	; 0xe630
    13d0:	e5933004 	ldr	r3, [r3, #4]
    13d4:	e3530001 	cmp	r3, #1
    13d8:	1a00000d 	bne	1414 <i2c0InterruptHandler+0x88>
    13dc:	e3005014 	movw	r5, #20
    13e0:	e34e5630 	movt	r5, #58928	; 0xe630
    13e4:	e5956004 	ldr	r6, [r5, #4]
    13e8:	e2863001 	add	r3, r6, #1
    13ec:	e5853004 	str	r3, [r5, #4]
    13f0:	e3a00000 	mov	r0, #0
    13f4:	e34e0650 	movt	r0, #58960	; 0xe650
    13f8:	eb000df5 	bl	4bd4 <I2C_masterReceiveMultipleByteFinish>
    13fc:	e0855106 	add	r5, r5, r6, lsl #2
    1400:	e5850008 	str	r0, [r5, #8]
    1404:	ea000002 	b	1414 <i2c0InterruptHandler+0x88>
    1408:	e3a00000 	mov	r0, #0
    140c:	e34e0650 	movt	r0, #58960	; 0xe650
    1410:	eb000e2a 	bl	4cc0 <I2C_masterDisableStartGeneration>
    1414:	e3140010 	tst	r4, #16
    1418:	13003014 	movwne	r3, #20
    141c:	134e3630 	movtne	r3, #58928	; 0xe630
    1420:	13a02001 	movne	r2, #1
    1424:	15c32010 	strbne	r2, [r3, #16]
    1428:	e1a01004 	mov	r1, r4
    142c:	e3a00000 	mov	r0, #0
    1430:	e34e0650 	movt	r0, #58960	; 0xe650
    1434:	eb000dca 	bl	4b64 <I2C_masterClearInterruptStatus>
    1438:	e8bd8070 	pop	{r4, r5, r6, pc}
    143c:	e3005014 	movw	r5, #20
    1440:	e34e5630 	movt	r5, #58928	; 0xe630
    1444:	e5956004 	ldr	r6, [r5, #4]
    1448:	e2863001 	add	r3, r6, #1
    144c:	e5853004 	str	r3, [r5, #4]
    1450:	e3a00000 	mov	r0, #0
    1454:	e34e0650 	movt	r0, #58960	; 0xe650
    1458:	eb000dd7 	bl	4bbc <I2C_masterReceiveMultipleByteStop>
    145c:	e0855106 	add	r5, r5, r6, lsl #2
    1460:	e5850008 	str	r0, [r5, #8]
    1464:	eaffffea 	b	1414 <i2c0InterruptHandler+0x88>

00001468 <master_rx>:
    1468:	e92d4070 	push	{r4, r5, r6, lr}
    146c:	e30668e4 	movw	r6, #26852	; 0x68e4
    1470:	e3406000 	movt	r6, #0
    1474:	e3a04000 	mov	r4, #0
    1478:	e34e4650 	movt	r4, #58960	; 0xe650
    147c:	e2861008 	add	r1, r6, #8
    1480:	e1a00004 	mov	r0, r4
    1484:	eb000cf1 	bl	4850 <I2C_masterInit>
    1488:	e3e01000 	mvn	r1, #0
    148c:	e1a00004 	mov	r0, r4
    1490:	eb000db3 	bl	4b64 <I2C_masterClearInterruptStatus>
    1494:	e3a01013 	mov	r1, #19
    1498:	e1a00004 	mov	r0, r4
    149c:	eb000da5 	bl	4b38 <I2C_masterEnableInterrupt>
    14a0:	e1a00004 	mov	r0, r4
    14a4:	eb000d9b 	bl	4b18 <I2C_masterEnable>
    14a8:	e3a05902 	mov	r5, #32768	; 0x8000
    14ac:	e34e5650 	movt	r5, #58960	; 0xe650
    14b0:	e2861010 	add	r1, r6, #16
    14b4:	e1a00005 	mov	r0, r5
    14b8:	eb000bfb 	bl	44ac <I2C_slaveInit>
    14bc:	e3e01000 	mvn	r1, #0
    14c0:	e1a00005 	mov	r0, r5
    14c4:	eb000cbb 	bl	47b8 <I2C_slaveClearInterruptStatus>
    14c8:	e3a01019 	mov	r1, #25
    14cc:	e1a00005 	mov	r0, r5
    14d0:	eb000cad 	bl	478c <I2C_slaveEnableInterrupt>
    14d4:	e1a00005 	mov	r0, r5
    14d8:	eb000ca1 	bl	4764 <I2C_slaveEnable>
    14dc:	e3003014 	movw	r3, #20
    14e0:	e34e3630 	movt	r3, #58928	; 0xe630
    14e4:	e5932000 	ldr	r2, [r3]
    14e8:	e2821001 	add	r1, r2, #1
    14ec:	e5831000 	str	r1, [r3]
    14f0:	e7d61102 	ldrb	r1, [r6, r2, lsl #2]
    14f4:	e1a00005 	mov	r0, r5
    14f8:	eb000cc2 	bl	4808 <I2C_slaveSetData>
    14fc:	eb0000c4 	bl	1814 <GIC_enable>
    1500:	e301138c 	movw	r1, #5004	; 0x138c
    1504:	e3401000 	movt	r1, #0
    1508:	e300010e 	movw	r0, #270	; 0x10e
    150c:	eb000115 	bl	1968 <GIC_setInterruptHandler>
    1510:	e301132c 	movw	r1, #4908	; 0x132c
    1514:	e3401000 	movt	r1, #0
    1518:	e300010f 	movw	r0, #271	; 0x10f
    151c:	eb000111 	bl	1968 <GIC_setInterruptHandler>
    1520:	e300010e 	movw	r0, #270	; 0x10e
    1524:	eb0000d1 	bl	1870 <GIC_enableInterrupt>
    1528:	e300010f 	movw	r0, #271	; 0x10f
    152c:	eb0000cf 	bl	1870 <GIC_enableInterrupt>
    1530:	e1a00004 	mov	r0, r4
    1534:	eb000d99 	bl	4ba0 <I2C_masterReceiveStart>
    1538:	e3002014 	movw	r2, #20
    153c:	e34e2630 	movt	r2, #58928	; 0xe630
    1540:	e5d23010 	ldrb	r3, [r2, #16]
    1544:	e31300ff 	tst	r3, #255	; 0xff
    1548:	0afffffc 	beq	1540 <master_rx+0xd8>
    154c:	e3003014 	movw	r3, #20
    1550:	e34e3630 	movt	r3, #58928	; 0xe630
    1554:	e5933008 	ldr	r3, [r3, #8]
    1558:	e35300aa 	cmp	r3, #170	; 0xaa
    155c:	1a000005 	bne	1578 <master_rx+0x110>
    1560:	e3003014 	movw	r3, #20
    1564:	e34e3630 	movt	r3, #58928	; 0xe630
    1568:	e593000c 	ldr	r0, [r3, #12]
    156c:	e2500055 	subs	r0, r0, #85	; 0x55
    1570:	13a00001 	movne	r0, #1
    1574:	e8bd8070 	pop	{r4, r5, r6, pc}
    1578:	e3a00001 	mov	r0, #1
    157c:	e8bd8070 	pop	{r4, r5, r6, pc}

00001580 <i2c1InterruptHandler>:
    1580:	e92d4070 	push	{r4, r5, r6, lr}
    1584:	e3a00902 	mov	r0, #32768	; 0x8000
    1588:	e34e0650 	movt	r0, #58960	; 0xe650
    158c:	eb000c86 	bl	47ac <I2C_slaveGetInterruptStatus>
    1590:	e1a04000 	mov	r4, r0
    1594:	e3100002 	tst	r0, #2
    1598:	0a00000a 	beq	15c8 <i2c1InterruptHandler+0x48>
    159c:	e3003028 	movw	r3, #40	; 0x28
    15a0:	e34e3630 	movt	r3, #58928	; 0xe630
    15a4:	e5932000 	ldr	r2, [r3]
    15a8:	e5933000 	ldr	r3, [r3]
    15ac:	e3530000 	cmp	r3, #0
    15b0:	0a000009 	beq	15dc <i2c1InterruptHandler+0x5c>
    15b4:	e3003028 	movw	r3, #40	; 0x28
    15b8:	e34e3630 	movt	r3, #58928	; 0xe630
    15bc:	e5933000 	ldr	r3, [r3]
    15c0:	e3530001 	cmp	r3, #1
    15c4:	0a00000f 	beq	1608 <i2c1InterruptHandler+0x88>
    15c8:	e1a01004 	mov	r1, r4
    15cc:	e3a00902 	mov	r0, #32768	; 0x8000
    15d0:	e34e0650 	movt	r0, #58960	; 0xe650
    15d4:	eb000c77 	bl	47b8 <I2C_slaveClearInterruptStatus>
    15d8:	e8bd8070 	pop	{r4, r5, r6, pc}
    15dc:	e3005028 	movw	r5, #40	; 0x28
    15e0:	e34e5630 	movt	r5, #58928	; 0xe630
    15e4:	e5956000 	ldr	r6, [r5]
    15e8:	e2863001 	add	r3, r6, #1
    15ec:	e5853000 	str	r3, [r5]
    15f0:	e3a00902 	mov	r0, #32768	; 0x8000
    15f4:	e34e0650 	movt	r0, #58960	; 0xe650
    15f8:	eb000c79 	bl	47e4 <I2C_slaveReceiveMultipleByteStop>
    15fc:	e0855106 	add	r5, r5, r6, lsl #2
    1600:	e5850004 	str	r0, [r5, #4]
    1604:	eaffffef 	b	15c8 <i2c1InterruptHandler+0x48>
    1608:	e3005028 	movw	r5, #40	; 0x28
    160c:	e34e5630 	movt	r5, #58928	; 0xe630
    1610:	e5956000 	ldr	r6, [r5]
    1614:	e2863001 	add	r3, r6, #1
    1618:	e5853000 	str	r3, [r5]
    161c:	e3a00902 	mov	r0, #32768	; 0x8000
    1620:	e34e0650 	movt	r0, #58960	; 0xe650
    1624:	eb000c74 	bl	47fc <I2C_slaveReceiveMultipleByteFinish>
    1628:	e0855106 	add	r5, r5, r6, lsl #2
    162c:	e5850004 	str	r0, [r5, #4]
    1630:	eaffffe4 	b	15c8 <i2c1InterruptHandler+0x48>

00001634 <i2c0InterruptHandler>:
    1634:	e92d4010 	push	{r4, lr}
    1638:	e3a00000 	mov	r0, #0
    163c:	e34e0650 	movt	r0, #58960	; 0xe650
    1640:	eb000d44 	bl	4b58 <I2C_masterGetInterruptStatus>
    1644:	e1a04000 	mov	r4, r0
    1648:	e3100001 	tst	r0, #1
    164c:	0a000010 	beq	1694 <i2c0InterruptHandler+0x60>
    1650:	e3003028 	movw	r3, #40	; 0x28
    1654:	e34e3630 	movt	r3, #58928	; 0xe630
    1658:	e5d3300c 	ldrb	r3, [r3, #12]
    165c:	e31300ff 	tst	r3, #255	; 0xff
    1660:	0a000003 	beq	1674 <i2c0InterruptHandler+0x40>
    1664:	e3a00000 	mov	r0, #0
    1668:	e34e0650 	movt	r0, #58960	; 0xe650
    166c:	eb000d93 	bl	4cc0 <I2C_masterDisableStartGeneration>
    1670:	ea000009 	b	169c <i2c0InterruptHandler+0x68>
    1674:	e3a00000 	mov	r0, #0
    1678:	e34e0650 	movt	r0, #58960	; 0xe650
    167c:	eb000d97 	bl	4ce0 <I2C_masterDisableStartByteTransmit>
    1680:	e3003028 	movw	r3, #40	; 0x28
    1684:	e34e3630 	movt	r3, #58928	; 0xe630
    1688:	e3a02001 	mov	r2, #1
    168c:	e5c3200c 	strb	r2, [r3, #12]
    1690:	ea000001 	b	169c <i2c0InterruptHandler+0x68>
    1694:	e3100008 	tst	r0, #8
    1698:	1a000009 	bne	16c4 <i2c0InterruptHandler+0x90>
    169c:	e3140010 	tst	r4, #16
    16a0:	13003028 	movwne	r3, #40	; 0x28
    16a4:	134e3630 	movtne	r3, #58928	; 0xe630
    16a8:	13a02001 	movne	r2, #1
    16ac:	15c32014 	strbne	r2, [r3, #20]
    16b0:	e1a01004 	mov	r1, r4
    16b4:	e3a00000 	mov	r0, #0
    16b8:	e34e0650 	movt	r0, #58960	; 0xe650
    16bc:	eb000d28 	bl	4b64 <I2C_masterClearInterruptStatus>
    16c0:	e8bd8010 	pop	{r4, pc}
    16c4:	e3003028 	movw	r3, #40	; 0x28
    16c8:	e34e3630 	movt	r3, #58928	; 0xe630
    16cc:	e5932010 	ldr	r2, [r3, #16]
    16d0:	e2821001 	add	r1, r2, #1
    16d4:	e5831010 	str	r1, [r3, #16]
    16d8:	e30638fc 	movw	r3, #26876	; 0x68fc
    16dc:	e3403000 	movt	r3, #0
    16e0:	e7931102 	ldr	r1, [r3, r2, lsl #2]
    16e4:	e3a00000 	mov	r0, #0
    16e8:	e34e0650 	movt	r0, #58960	; 0xe650
    16ec:	eb000d25 	bl	4b88 <I2C_masterSendMultipleByteNext>
    16f0:	eaffffe9 	b	169c <i2c0InterruptHandler+0x68>

000016f4 <master_send_start_byte>:
    16f4:	e92d4070 	push	{r4, r5, r6, lr}
    16f8:	e30658fc 	movw	r5, #26876	; 0x68fc
    16fc:	e3405000 	movt	r5, #0
    1700:	e3a04000 	mov	r4, #0
    1704:	e34e4650 	movt	r4, #58960	; 0xe650
    1708:	e2851008 	add	r1, r5, #8
    170c:	e1a00004 	mov	r0, r4
    1710:	eb000c4e 	bl	4850 <I2C_masterInit>
    1714:	e3e01000 	mvn	r1, #0
    1718:	e1a00004 	mov	r0, r4
    171c:	eb000d10 	bl	4b64 <I2C_masterClearInterruptStatus>
    1720:	e3a01019 	mov	r1, #25
    1724:	e1a00004 	mov	r0, r4
    1728:	eb000d02 	bl	4b38 <I2C_masterEnableInterrupt>
    172c:	e1a00004 	mov	r0, r4
    1730:	eb000cf8 	bl	4b18 <I2C_masterEnable>
    1734:	e3a01011 	mov	r1, #17
    1738:	e1a00004 	mov	r0, r4
    173c:	eb000c10 	bl	4784 <I2C_slaveSetAddress>
    1740:	e3a06902 	mov	r6, #32768	; 0x8000
    1744:	e34e6650 	movt	r6, #58960	; 0xe650
    1748:	e2851010 	add	r1, r5, #16
    174c:	e1a00006 	mov	r0, r6
    1750:	eb000b55 	bl	44ac <I2C_slaveInit>
    1754:	e3e01000 	mvn	r1, #0
    1758:	e1a00006 	mov	r0, r6
    175c:	eb000c15 	bl	47b8 <I2C_slaveClearInterruptStatus>
    1760:	e3a01013 	mov	r1, #19
    1764:	e1a00006 	mov	r0, r6
    1768:	eb000c07 	bl	478c <I2C_slaveEnableInterrupt>
    176c:	e1a00006 	mov	r0, r6
    1770:	eb000bfb 	bl	4764 <I2C_slaveEnable>
    1774:	eb000026 	bl	1814 <GIC_enable>
    1778:	e3011634 	movw	r1, #5684	; 0x1634
    177c:	e3401000 	movt	r1, #0
    1780:	e300010e 	movw	r0, #270	; 0x10e
    1784:	eb000077 	bl	1968 <GIC_setInterruptHandler>
    1788:	e3011580 	movw	r1, #5504	; 0x1580
    178c:	e3401000 	movt	r1, #0
    1790:	e300010f 	movw	r0, #271	; 0x10f
    1794:	eb000073 	bl	1968 <GIC_setInterruptHandler>
    1798:	e300010e 	movw	r0, #270	; 0x10e
    179c:	eb000033 	bl	1870 <GIC_enableInterrupt>
    17a0:	e300010f 	movw	r0, #271	; 0x10f
    17a4:	eb000031 	bl	1870 <GIC_enableInterrupt>
    17a8:	e3003028 	movw	r3, #40	; 0x28
    17ac:	e34e3630 	movt	r3, #58928	; 0xe630
    17b0:	e5932010 	ldr	r2, [r3, #16]
    17b4:	e2821001 	add	r1, r2, #1
    17b8:	e5831010 	str	r1, [r3, #16]
    17bc:	e7951102 	ldr	r1, [r5, r2, lsl #2]
    17c0:	e1a00004 	mov	r0, r4
    17c4:	eb000cea 	bl	4b74 <I2C_masterSendMultipleByteStart>
    17c8:	e3002028 	movw	r2, #40	; 0x28
    17cc:	e34e2630 	movt	r2, #58928	; 0xe630
    17d0:	e5d23014 	ldrb	r3, [r2, #20]
    17d4:	e31300ff 	tst	r3, #255	; 0xff
    17d8:	0afffffc 	beq	17d0 <master_send_start_byte+0xdc>
    17dc:	e3003028 	movw	r3, #40	; 0x28
    17e0:	e34e3630 	movt	r3, #58928	; 0xe630
    17e4:	e5933004 	ldr	r3, [r3, #4]
    17e8:	e35300aa 	cmp	r3, #170	; 0xaa
    17ec:	1a000005 	bne	1808 <master_send_start_byte+0x114>
    17f0:	e3003028 	movw	r3, #40	; 0x28
    17f4:	e34e3630 	movt	r3, #58928	; 0xe630
    17f8:	e5930008 	ldr	r0, [r3, #8]
    17fc:	e2500055 	subs	r0, r0, #85	; 0x55
    1800:	13a00001 	movne	r0, #1
    1804:	e8bd8070 	pop	{r4, r5, r6, pc}
    1808:	e3a00001 	mov	r0, #1
    180c:	e8bd8070 	pop	{r4, r5, r6, pc}

00001810 <GIC_defaultHandler>:
    1810:	eafffffe 	b	1810 <GIC_defaultHandler>

00001814 <GIC_enable>:
    1814:	e10f0000 	mrs	r0, CPSR
    1818:	e3800080 	orr	r0, r0, #128	; 0x80
    181c:	e121f000 	msr	CPSR_c, r0
    1820:	f10c0080 	cpsid	i
    1824:	e3a03000 	mov	r3, #0
    1828:	e34f3010 	movt	r3, #61456	; 0xf010
    182c:	e3a02000 	mov	r2, #0
    1830:	e5832014 	str	r2, [r3, #20]
    1834:	e34f2010 	movt	r2, #61456	; 0xf010
    1838:	e5923014 	ldr	r3, [r2, #20]
    183c:	e3130006 	tst	r3, #6
    1840:	1afffffc 	bne	1838 <GIC_enable+0x24>
    1844:	e3a010f8 	mov	r1, #248	; 0xf8
    1848:	ee041f16 	mcr	15, 0, r1, cr4, cr6, {0}
    184c:	e3a0320f 	mov	r3, #-268435456	; 0xf0000000
    1850:	e3a02003 	mov	r2, #3
    1854:	e5832000 	str	r2, [r3]
    1858:	ee1c1ffc 	mrc	15, 0, r1, cr12, cr12, {7}
    185c:	e3a02003 	mov	r2, #3
    1860:	e1811002 	orr	r1, r1, r2
    1864:	ee0c1ffc 	mcr	15, 0, r1, cr12, cr12, {7}
    1868:	e12fff1e 	bx	lr

0000186c <GIC_configInterrupt>:
    186c:	e12fff1e 	bx	lr

00001870 <GIC_enableInterrupt>:
    1870:	e92d4030 	push	{r4, r5, lr}
    1874:	e280341e 	add	r3, r0, #503316480	; 0x1e000000
    1878:	e2833b03 	add	r3, r3, #3072	; 0xc00
    187c:	e1a03183 	lsl	r3, r3, #3
    1880:	e3a04000 	mov	r4, #0
    1884:	e3a05000 	mov	r5, #0
    1888:	e1c340f0 	strd	r4, [r3]
    188c:	e1a032a0 	lsr	r3, r0, #5
    1890:	e283330f 	add	r3, r3, #1006632960	; 0x3c000000
    1894:	e2833020 	add	r3, r3, #32
    1898:	e1a03103 	lsl	r3, r3, #2
    189c:	e5932000 	ldr	r2, [r3]
    18a0:	e200101f 	and	r1, r0, #31
    18a4:	e3a0e001 	mov	lr, #1
    18a8:	e1a0111e 	lsl	r1, lr, r1
    18ac:	e1822001 	orr	r2, r2, r1
    18b0:	e5832000 	str	r2, [r3]
    18b4:	e5932c80 	ldr	r2, [r3, #3200]	; 0xc80
    18b8:	e1c22001 	bic	r2, r2, r1
    18bc:	e5832c80 	str	r2, [r3, #3200]	; 0xc80
    18c0:	e3c02003 	bic	r2, r0, #3
    18c4:	e282220f 	add	r2, r2, #-268435456	; 0xf0000000
    18c8:	e592c400 	ldr	ip, [r2, #1024]	; 0x400
    18cc:	e2004003 	and	r4, r0, #3
    18d0:	e1a04184 	lsl	r4, r4, #3
    18d4:	e1ccc41e 	bic	ip, ip, lr, lsl r4
    18d8:	e582c400 	str	ip, [r2, #1024]	; 0x400
    18dc:	e1a02220 	lsr	r2, r0, #4
    18e0:	e282230f 	add	r2, r2, #1006632960	; 0x3c000000
    18e4:	e2822c03 	add	r2, r2, #768	; 0x300
    18e8:	e1a02102 	lsl	r2, r2, #2
    18ec:	e592c000 	ldr	ip, [r2]
    18f0:	e200000f 	and	r0, r0, #15
    18f4:	e1a00e10 	lsl	r0, r0, lr
    18f8:	e18c001e 	orr	r0, ip, lr, lsl r0
    18fc:	e5820000 	str	r0, [r2]
    1900:	e5932080 	ldr	r2, [r3, #128]	; 0x80
    1904:	e1811002 	orr	r1, r1, r2
    1908:	e5831080 	str	r1, [r3, #128]	; 0x80
    190c:	e8bd8030 	pop	{r4, r5, pc}

00001910 <GIC_disableInterrupt>:
    1910:	e1a032a0 	lsr	r3, r0, #5
    1914:	e283330f 	add	r3, r3, #1006632960	; 0x3c000000
    1918:	e2833060 	add	r3, r3, #96	; 0x60
    191c:	e1a03103 	lsl	r3, r3, #2
    1920:	e5932000 	ldr	r2, [r3]
    1924:	e200001f 	and	r0, r0, #31
    1928:	e3a01001 	mov	r1, #1
    192c:	e1820011 	orr	r0, r2, r1, lsl r0
    1930:	e5830000 	str	r0, [r3]
    1934:	e12fff1e 	bx	lr

00001938 <GIC_endInterrupt>:
    1938:	e3500ff2 	cmp	r0, #968	; 0x3c8
    193c:	812fff1e 	bxhi	lr
    1940:	ee0c0f3c 	mcr	15, 0, r0, cr12, cr12, {1}
    1944:	f57ff04f 	dsb	sy
    1948:	e12fff1e 	bx	lr

0000194c <GIC_getACKID>:
    194c:	e92d4010 	push	{r4, lr}
    1950:	ee1c4f1c 	mrc	15, 0, r4, cr12, cr12, {0}
    1954:	f57ff04f 	dsb	sy
    1958:	e1a00004 	mov	r0, r4
    195c:	ebfffff5 	bl	1938 <GIC_endInterrupt>
    1960:	e1a00004 	mov	r0, r4
    1964:	e8bd8010 	pop	{r4, pc}

00001968 <GIC_setInterruptHandler>:
    1968:	e3500ff2 	cmp	r0, #968	; 0x3c8
    196c:	93003210 	movwls	r3, #528	; 0x210
    1970:	934e3630 	movtls	r3, #58928	; 0xe630
    1974:	97831100 	strls	r1, [r3, r0, lsl #2]
    1978:	e12fff1e 	bx	lr

0000197c <GIC_executeInterruptHandler>:
    197c:	e3500ff2 	cmp	r0, #968	; 0x3c8
    1980:	812fff1e 	bxhi	lr
    1984:	e92d4010 	push	{r4, lr}
    1988:	e3003210 	movw	r3, #528	; 0x210
    198c:	e34e3630 	movt	r3, #58928	; 0xe630
    1990:	e7933100 	ldr	r3, [r3, r0, lsl #2]
    1994:	e12fff33 	blx	r3
    1998:	e8bd8010 	pop	{r4, pc}

0000199c <i2c1InterruptHandler>:
    199c:	e92d4070 	push	{r4, r5, r6, lr}
    19a0:	e3a00902 	mov	r0, #32768	; 0x8000
    19a4:	e34e0650 	movt	r0, #58960	; 0xe650
    19a8:	eb000b7f 	bl	47ac <I2C_slaveGetInterruptStatus>
    19ac:	e1a04000 	mov	r4, r0
    19b0:	e3100002 	tst	r0, #2
    19b4:	0a00000a 	beq	19e4 <i2c1InterruptHandler+0x48>
    19b8:	e3003040 	movw	r3, #64	; 0x40
    19bc:	e34e3630 	movt	r3, #58928	; 0xe630
    19c0:	e5932000 	ldr	r2, [r3]
    19c4:	e5933000 	ldr	r3, [r3]
    19c8:	e3530000 	cmp	r3, #0
    19cc:	0a000009 	beq	19f8 <i2c1InterruptHandler+0x5c>
    19d0:	e3003040 	movw	r3, #64	; 0x40
    19d4:	e34e3630 	movt	r3, #58928	; 0xe630
    19d8:	e5933000 	ldr	r3, [r3]
    19dc:	e3530001 	cmp	r3, #1
    19e0:	0a00000f 	beq	1a24 <i2c1InterruptHandler+0x88>
    19e4:	e1a01004 	mov	r1, r4
    19e8:	e3a00902 	mov	r0, #32768	; 0x8000
    19ec:	e34e0650 	movt	r0, #58960	; 0xe650
    19f0:	eb000b70 	bl	47b8 <I2C_slaveClearInterruptStatus>
    19f4:	e8bd8070 	pop	{r4, r5, r6, pc}
    19f8:	e3005040 	movw	r5, #64	; 0x40
    19fc:	e34e5630 	movt	r5, #58928	; 0xe630
    1a00:	e5956000 	ldr	r6, [r5]
    1a04:	e2863001 	add	r3, r6, #1
    1a08:	e5853000 	str	r3, [r5]
    1a0c:	e3a00902 	mov	r0, #32768	; 0x8000
    1a10:	e34e0650 	movt	r0, #58960	; 0xe650
    1a14:	eb000b72 	bl	47e4 <I2C_slaveReceiveMultipleByteStop>
    1a18:	e0855106 	add	r5, r5, r6, lsl #2
    1a1c:	e5850004 	str	r0, [r5, #4]
    1a20:	eaffffef 	b	19e4 <i2c1InterruptHandler+0x48>
    1a24:	e3005040 	movw	r5, #64	; 0x40
    1a28:	e34e5630 	movt	r5, #58928	; 0xe630
    1a2c:	e5956000 	ldr	r6, [r5]
    1a30:	e2863001 	add	r3, r6, #1
    1a34:	e5853000 	str	r3, [r5]
    1a38:	e3a00902 	mov	r0, #32768	; 0x8000
    1a3c:	e34e0650 	movt	r0, #58960	; 0xe650
    1a40:	eb000b6d 	bl	47fc <I2C_slaveReceiveMultipleByteFinish>
    1a44:	e0855106 	add	r5, r5, r6, lsl #2
    1a48:	e5850004 	str	r0, [r5, #4]
    1a4c:	eaffffe4 	b	19e4 <i2c1InterruptHandler+0x48>

00001a50 <i2c0InterruptHandler>:
    1a50:	e92d4010 	push	{r4, lr}
    1a54:	e3a00000 	mov	r0, #0
    1a58:	e34e0650 	movt	r0, #58960	; 0xe650
    1a5c:	eb000c3d 	bl	4b58 <I2C_masterGetInterruptStatus>
    1a60:	e1a04000 	mov	r4, r0
    1a64:	e3100001 	tst	r0, #1
    1a68:	1a00000b 	bne	1a9c <i2c0InterruptHandler+0x4c>
    1a6c:	e3100008 	tst	r0, #8
    1a70:	1a00000d 	bne	1aac <i2c0InterruptHandler+0x5c>
    1a74:	e3140010 	tst	r4, #16
    1a78:	13003040 	movwne	r3, #64	; 0x40
    1a7c:	134e3630 	movtne	r3, #58928	; 0xe630
    1a80:	13a02001 	movne	r2, #1
    1a84:	15c32010 	strbne	r2, [r3, #16]
    1a88:	e1a01004 	mov	r1, r4
    1a8c:	e3a00000 	mov	r0, #0
    1a90:	e34e0650 	movt	r0, #58960	; 0xe650
    1a94:	eb000c32 	bl	4b64 <I2C_masterClearInterruptStatus>
    1a98:	e8bd8010 	pop	{r4, pc}
    1a9c:	e3a00000 	mov	r0, #0
    1aa0:	e34e0650 	movt	r0, #58960	; 0xe650
    1aa4:	eb000c85 	bl	4cc0 <I2C_masterDisableStartGeneration>
    1aa8:	eafffff1 	b	1a74 <i2c0InterruptHandler+0x24>
    1aac:	e3003040 	movw	r3, #64	; 0x40
    1ab0:	e34e3630 	movt	r3, #58928	; 0xe630
    1ab4:	e593200c 	ldr	r2, [r3, #12]
    1ab8:	e2821001 	add	r1, r2, #1
    1abc:	e583100c 	str	r1, [r3, #12]
    1ac0:	e3063914 	movw	r3, #26900	; 0x6914
    1ac4:	e3403000 	movt	r3, #0
    1ac8:	e7931102 	ldr	r1, [r3, r2, lsl #2]
    1acc:	e3a00000 	mov	r0, #0
    1ad0:	e34e0650 	movt	r0, #58960	; 0xe650
    1ad4:	eb000c2b 	bl	4b88 <I2C_masterSendMultipleByteNext>
    1ad8:	eaffffe5 	b	1a74 <i2c0InterruptHandler+0x24>

00001adc <master_tx>:
    1adc:	e92d4070 	push	{r4, r5, r6, lr}
    1ae0:	e3065914 	movw	r5, #26900	; 0x6914
    1ae4:	e3405000 	movt	r5, #0
    1ae8:	e3a04000 	mov	r4, #0
    1aec:	e34e4650 	movt	r4, #58960	; 0xe650
    1af0:	e2851008 	add	r1, r5, #8
    1af4:	e1a00004 	mov	r0, r4
    1af8:	eb000b54 	bl	4850 <I2C_masterInit>
    1afc:	e3e01000 	mvn	r1, #0
    1b00:	e1a00004 	mov	r0, r4
    1b04:	eb000c16 	bl	4b64 <I2C_masterClearInterruptStatus>
    1b08:	e3a01019 	mov	r1, #25
    1b0c:	e1a00004 	mov	r0, r4
    1b10:	eb000c08 	bl	4b38 <I2C_masterEnableInterrupt>
    1b14:	e1a00004 	mov	r0, r4
    1b18:	eb000bfe 	bl	4b18 <I2C_masterEnable>
    1b1c:	e3a06902 	mov	r6, #32768	; 0x8000
    1b20:	e34e6650 	movt	r6, #58960	; 0xe650
    1b24:	e2851010 	add	r1, r5, #16
    1b28:	e1a00006 	mov	r0, r6
    1b2c:	eb000a5e 	bl	44ac <I2C_slaveInit>
    1b30:	e3e01000 	mvn	r1, #0
    1b34:	e1a00006 	mov	r0, r6
    1b38:	eb000b1e 	bl	47b8 <I2C_slaveClearInterruptStatus>
    1b3c:	e3a01013 	mov	r1, #19
    1b40:	e1a00006 	mov	r0, r6
    1b44:	eb000b10 	bl	478c <I2C_slaveEnableInterrupt>
    1b48:	e1a00006 	mov	r0, r6
    1b4c:	eb000b04 	bl	4764 <I2C_slaveEnable>
    1b50:	ebffff2f 	bl	1814 <GIC_enable>
    1b54:	e3011a50 	movw	r1, #6736	; 0x1a50
    1b58:	e3401000 	movt	r1, #0
    1b5c:	e300010e 	movw	r0, #270	; 0x10e
    1b60:	ebffff80 	bl	1968 <GIC_setInterruptHandler>
    1b64:	e301199c 	movw	r1, #6556	; 0x199c
    1b68:	e3401000 	movt	r1, #0
    1b6c:	e300010f 	movw	r0, #271	; 0x10f
    1b70:	ebffff7c 	bl	1968 <GIC_setInterruptHandler>
    1b74:	e300010e 	movw	r0, #270	; 0x10e
    1b78:	ebffff3c 	bl	1870 <GIC_enableInterrupt>
    1b7c:	e300010f 	movw	r0, #271	; 0x10f
    1b80:	ebffff3a 	bl	1870 <GIC_enableInterrupt>
    1b84:	e3003040 	movw	r3, #64	; 0x40
    1b88:	e34e3630 	movt	r3, #58928	; 0xe630
    1b8c:	e593200c 	ldr	r2, [r3, #12]
    1b90:	e2821001 	add	r1, r2, #1
    1b94:	e583100c 	str	r1, [r3, #12]
    1b98:	e7951102 	ldr	r1, [r5, r2, lsl #2]
    1b9c:	e1a00004 	mov	r0, r4
    1ba0:	eb000bf3 	bl	4b74 <I2C_masterSendMultipleByteStart>
    1ba4:	e3002040 	movw	r2, #64	; 0x40
    1ba8:	e34e2630 	movt	r2, #58928	; 0xe630
    1bac:	e5d23010 	ldrb	r3, [r2, #16]
    1bb0:	e31300ff 	tst	r3, #255	; 0xff
    1bb4:	0afffffc 	beq	1bac <master_tx+0xd0>
    1bb8:	e3003040 	movw	r3, #64	; 0x40
    1bbc:	e34e3630 	movt	r3, #58928	; 0xe630
    1bc0:	e5933004 	ldr	r3, [r3, #4]
    1bc4:	e35300aa 	cmp	r3, #170	; 0xaa
    1bc8:	1a000005 	bne	1be4 <master_tx+0x108>
    1bcc:	e3003040 	movw	r3, #64	; 0x40
    1bd0:	e34e3630 	movt	r3, #58928	; 0xe630
    1bd4:	e5930008 	ldr	r0, [r3, #8]
    1bd8:	e2500055 	subs	r0, r0, #85	; 0x55
    1bdc:	13a00001 	movne	r0, #1
    1be0:	e8bd8070 	pop	{r4, r5, r6, pc}
    1be4:	e3a00001 	mov	r0, #1
    1be8:	e8bd8070 	pop	{r4, r5, r6, pc}

00001bec <I2C_modelEnable>:
    1bec:	e92d4010 	push	{r4, lr}
    1bf0:	e92d0402 	push	{r1, sl}
    1bf4:	e3a01001 	mov	r1, #1
    1bf8:	e34a155a 	movt	r1, #42330	; 0xa55a
    1bfc:	e00aa001 	and	sl, sl, r1
    1c00:	e18aa001 	orr	sl, sl, r1
    1c04:	e3a00014 	mov	r0, #20
    1c08:	eb000ced 	bl	4fc4 <Sim_Delay>
    1c0c:	e8bd0402 	pop	{r1, sl}
    1c10:	e8bd8010 	pop	{r4, pc}

00001c14 <I2C_modelDisable>:
    1c14:	e92d4010 	push	{r4, lr}
    1c18:	e52da004 	push	{sl}		; (str sl, [sp, #-4]!)
    1c1c:	e3a0a000 	mov	sl, #0
    1c20:	e34aa55a 	movt	sl, #42330	; 0xa55a
    1c24:	e3a00014 	mov	r0, #20
    1c28:	eb000ce5 	bl	4fc4 <Sim_Delay>
    1c2c:	e49da004 	pop	{sl}		; (ldr sl, [sp], #4)
    1c30:	e8bd8010 	pop	{r4, pc}

00001c34 <I2C_modelConnect>:
    1c34:	e92d4010 	push	{r4, lr}
    1c38:	e92d0403 	push	{r0, r1, sl}
    1c3c:	e3a0a000 	mov	sl, #0
    1c40:	e1a00600 	lsl	r0, r0, #12
    1c44:	e1a01401 	lsl	r1, r1, #8
    1c48:	e18aa000 	orr	sl, sl, r0
    1c4c:	e18aa001 	orr	sl, sl, r1
    1c50:	e38aa001 	orr	sl, sl, #1
    1c54:	e34aa55a 	movt	sl, #42330	; 0xa55a
    1c58:	e3a00014 	mov	r0, #20
    1c5c:	eb000cd8 	bl	4fc4 <Sim_Delay>
    1c60:	e8bd0403 	pop	{r0, r1, sl}
    1c64:	e8bd8010 	pop	{r4, pc}

00001c68 <I2C_configPins>:
    1c68:	e92d4010 	push	{r4, lr}
    1c6c:	e30f2ffc 	movw	r2, #65532	; 0xfffc
    1c70:	e3a01c09 	mov	r1, #2304	; 0x900
    1c74:	e34e1605 	movt	r1, #58885	; 0xe605
    1c78:	e3a00b02 	mov	r0, #2048	; 0x800
    1c7c:	e34e0605 	movt	r0, #58885	; 0xe605
    1c80:	eb000d01 	bl	508c <PFC_SetMultipleBit>
    1c84:	e8bd8010 	pop	{r4, pc}

00001c88 <I2C_releasePins>:
    1c88:	e92d4010 	push	{r4, lr}
    1c8c:	e30f2ffc 	movw	r2, #65532	; 0xfffc
    1c90:	e3a01c09 	mov	r1, #2304	; 0x900
    1c94:	e34e1605 	movt	r1, #58885	; 0xe605
    1c98:	e3a00b02 	mov	r0, #2048	; 0x800
    1c9c:	e34e0605 	movt	r0, #58885	; 0xe605
    1ca0:	eb000cff 	bl	50a4 <PFC_ClearMultipleBit>
    1ca4:	e8bd8010 	pop	{r4, pc}

00001ca8 <I2C_reset>:
    1ca8:	e92d4010 	push	{r4, lr}
    1cac:	e3a04000 	mov	r4, #0
    1cb0:	e34f4ffc 	movt	r4, #65532	; 0xfffc
    1cb4:	e1a01004 	mov	r1, r4
    1cb8:	e3020c14 	movw	r0, #11284	; 0x2c14
    1cbc:	e34e0615 	movt	r0, #58901	; 0xe615
    1cc0:	eb000485 	bl	2edc <CPG_SetMultipleBit>
    1cc4:	e1a01004 	mov	r1, r4
    1cc8:	e3020c94 	movw	r0, #11412	; 0x2c94
    1ccc:	e34e0615 	movt	r0, #58901	; 0xe615
    1cd0:	eb000481 	bl	2edc <CPG_SetMultipleBit>
    1cd4:	e8bd8010 	pop	{r4, pc}

00001cd8 <i2c1InterruptHandler>:
    1cd8:	e92d4070 	push	{r4, r5, r6, lr}
    1cdc:	e3a00902 	mov	r0, #32768	; 0x8000
    1ce0:	e34e0650 	movt	r0, #58960	; 0xe650
    1ce4:	eb000ab0 	bl	47ac <I2C_slaveGetInterruptStatus>
    1ce8:	e1a04000 	mov	r4, r0
    1cec:	e3100002 	tst	r0, #2
    1cf0:	0a00000a 	beq	1d20 <i2c1InterruptHandler+0x48>
    1cf4:	e3003054 	movw	r3, #84	; 0x54
    1cf8:	e34e3630 	movt	r3, #58928	; 0xe630
    1cfc:	e5932000 	ldr	r2, [r3]
    1d00:	e5933000 	ldr	r3, [r3]
    1d04:	e3530000 	cmp	r3, #0
    1d08:	0a000009 	beq	1d34 <i2c1InterruptHandler+0x5c>
    1d0c:	e3003054 	movw	r3, #84	; 0x54
    1d10:	e34e3630 	movt	r3, #58928	; 0xe630
    1d14:	e5933000 	ldr	r3, [r3]
    1d18:	e3530001 	cmp	r3, #1
    1d1c:	0a00000f 	beq	1d60 <i2c1InterruptHandler+0x88>
    1d20:	e1a01004 	mov	r1, r4
    1d24:	e3a00902 	mov	r0, #32768	; 0x8000
    1d28:	e34e0650 	movt	r0, #58960	; 0xe650
    1d2c:	eb000aa1 	bl	47b8 <I2C_slaveClearInterruptStatus>
    1d30:	e8bd8070 	pop	{r4, r5, r6, pc}
    1d34:	e3005054 	movw	r5, #84	; 0x54
    1d38:	e34e5630 	movt	r5, #58928	; 0xe630
    1d3c:	e5956000 	ldr	r6, [r5]
    1d40:	e2863001 	add	r3, r6, #1
    1d44:	e5853000 	str	r3, [r5]
    1d48:	e3a00902 	mov	r0, #32768	; 0x8000
    1d4c:	e34e0650 	movt	r0, #58960	; 0xe650
    1d50:	eb000aa3 	bl	47e4 <I2C_slaveReceiveMultipleByteStop>
    1d54:	e0855106 	add	r5, r5, r6, lsl #2
    1d58:	e5850004 	str	r0, [r5, #4]
    1d5c:	eaffffef 	b	1d20 <i2c1InterruptHandler+0x48>
    1d60:	e3005054 	movw	r5, #84	; 0x54
    1d64:	e34e5630 	movt	r5, #58928	; 0xe630
    1d68:	e5956000 	ldr	r6, [r5]
    1d6c:	e2863001 	add	r3, r6, #1
    1d70:	e5853000 	str	r3, [r5]
    1d74:	e3a00902 	mov	r0, #32768	; 0x8000
    1d78:	e34e0650 	movt	r0, #58960	; 0xe650
    1d7c:	eb000a9e 	bl	47fc <I2C_slaveReceiveMultipleByteFinish>
    1d80:	e0855106 	add	r5, r5, r6, lsl #2
    1d84:	e5850004 	str	r0, [r5, #4]
    1d88:	eaffffe4 	b	1d20 <i2c1InterruptHandler+0x48>

00001d8c <i2c0InterruptHandler>:
    1d8c:	e92d4010 	push	{r4, lr}
    1d90:	e3a00000 	mov	r0, #0
    1d94:	e34e0650 	movt	r0, #58960	; 0xe650
    1d98:	eb000b6e 	bl	4b58 <I2C_masterGetInterruptStatus>
    1d9c:	e1a04000 	mov	r4, r0
    1da0:	e3100001 	tst	r0, #1
    1da4:	1a00000b 	bne	1dd8 <i2c0InterruptHandler+0x4c>
    1da8:	e3100008 	tst	r0, #8
    1dac:	1a00000d 	bne	1de8 <i2c0InterruptHandler+0x5c>
    1db0:	e3140010 	tst	r4, #16
    1db4:	13003054 	movwne	r3, #84	; 0x54
    1db8:	134e3630 	movtne	r3, #58928	; 0xe630
    1dbc:	13a02001 	movne	r2, #1
    1dc0:	15c32010 	strbne	r2, [r3, #16]
    1dc4:	e1a01004 	mov	r1, r4
    1dc8:	e3a00000 	mov	r0, #0
    1dcc:	e34e0650 	movt	r0, #58960	; 0xe650
    1dd0:	eb000b63 	bl	4b64 <I2C_masterClearInterruptStatus>
    1dd4:	e8bd8010 	pop	{r4, pc}
    1dd8:	e3a00000 	mov	r0, #0
    1ddc:	e34e0650 	movt	r0, #58960	; 0xe650
    1de0:	eb000bb6 	bl	4cc0 <I2C_masterDisableStartGeneration>
    1de4:	eafffff1 	b	1db0 <i2c0InterruptHandler+0x24>
    1de8:	e3003054 	movw	r3, #84	; 0x54
    1dec:	e34e3630 	movt	r3, #58928	; 0xe630
    1df0:	e593200c 	ldr	r2, [r3, #12]
    1df4:	e2821001 	add	r1, r2, #1
    1df8:	e583100c 	str	r1, [r3, #12]
    1dfc:	e306392c 	movw	r3, #26924	; 0x692c
    1e00:	e3403000 	movt	r3, #0
    1e04:	e7931102 	ldr	r1, [r3, r2, lsl #2]
    1e08:	e3a00000 	mov	r0, #0
    1e0c:	e34e0650 	movt	r0, #58960	; 0xe650
    1e10:	eb000b5c 	bl	4b88 <I2C_masterSendMultipleByteNext>
    1e14:	eaffffe5 	b	1db0 <i2c0InterruptHandler+0x24>

00001e18 <master_tx_250kHz_var_duty>:
    1e18:	e92d4070 	push	{r4, r5, r6, lr}
    1e1c:	e306592c 	movw	r5, #26924	; 0x692c
    1e20:	e3405000 	movt	r5, #0
    1e24:	e3a04000 	mov	r4, #0
    1e28:	e34e4650 	movt	r4, #58960	; 0xe650
    1e2c:	e2851008 	add	r1, r5, #8
    1e30:	e1a00004 	mov	r0, r4
    1e34:	eb000a85 	bl	4850 <I2C_masterInit>
    1e38:	e3e01000 	mvn	r1, #0
    1e3c:	e1a00004 	mov	r0, r4
    1e40:	eb000b47 	bl	4b64 <I2C_masterClearInterruptStatus>
    1e44:	e3a01019 	mov	r1, #25
    1e48:	e1a00004 	mov	r0, r4
    1e4c:	eb000b39 	bl	4b38 <I2C_masterEnableInterrupt>
    1e50:	e1a00004 	mov	r0, r4
    1e54:	eb000b2f 	bl	4b18 <I2C_masterEnable>
    1e58:	e3a06902 	mov	r6, #32768	; 0x8000
    1e5c:	e34e6650 	movt	r6, #58960	; 0xe650
    1e60:	e2851010 	add	r1, r5, #16
    1e64:	e1a00006 	mov	r0, r6
    1e68:	eb00098f 	bl	44ac <I2C_slaveInit>
    1e6c:	e3e01000 	mvn	r1, #0
    1e70:	e1a00006 	mov	r0, r6
    1e74:	eb000a4f 	bl	47b8 <I2C_slaveClearInterruptStatus>
    1e78:	e3a01013 	mov	r1, #19
    1e7c:	e1a00006 	mov	r0, r6
    1e80:	eb000a41 	bl	478c <I2C_slaveEnableInterrupt>
    1e84:	e1a00006 	mov	r0, r6
    1e88:	eb000a35 	bl	4764 <I2C_slaveEnable>
    1e8c:	ebfffe60 	bl	1814 <GIC_enable>
    1e90:	e3011d8c 	movw	r1, #7564	; 0x1d8c
    1e94:	e3401000 	movt	r1, #0
    1e98:	e300010e 	movw	r0, #270	; 0x10e
    1e9c:	ebfffeb1 	bl	1968 <GIC_setInterruptHandler>
    1ea0:	e3011cd8 	movw	r1, #7384	; 0x1cd8
    1ea4:	e3401000 	movt	r1, #0
    1ea8:	e300010f 	movw	r0, #271	; 0x10f
    1eac:	ebfffead 	bl	1968 <GIC_setInterruptHandler>
    1eb0:	e300010e 	movw	r0, #270	; 0x10e
    1eb4:	ebfffe6d 	bl	1870 <GIC_enableInterrupt>
    1eb8:	e300010f 	movw	r0, #271	; 0x10f
    1ebc:	ebfffe6b 	bl	1870 <GIC_enableInterrupt>
    1ec0:	e3003054 	movw	r3, #84	; 0x54
    1ec4:	e34e3630 	movt	r3, #58928	; 0xe630
    1ec8:	e593200c 	ldr	r2, [r3, #12]
    1ecc:	e2821001 	add	r1, r2, #1
    1ed0:	e583100c 	str	r1, [r3, #12]
    1ed4:	e7951102 	ldr	r1, [r5, r2, lsl #2]
    1ed8:	e1a00004 	mov	r0, r4
    1edc:	eb000b24 	bl	4b74 <I2C_masterSendMultipleByteStart>
    1ee0:	e3002054 	movw	r2, #84	; 0x54
    1ee4:	e34e2630 	movt	r2, #58928	; 0xe630
    1ee8:	e5d23010 	ldrb	r3, [r2, #16]
    1eec:	e31300ff 	tst	r3, #255	; 0xff
    1ef0:	0afffffc 	beq	1ee8 <master_tx_250kHz_var_duty+0xd0>
    1ef4:	e3003054 	movw	r3, #84	; 0x54
    1ef8:	e34e3630 	movt	r3, #58928	; 0xe630
    1efc:	e5933004 	ldr	r3, [r3, #4]
    1f00:	e35300aa 	cmp	r3, #170	; 0xaa
    1f04:	1a000005 	bne	1f20 <master_tx_250kHz_var_duty+0x108>
    1f08:	e3003054 	movw	r3, #84	; 0x54
    1f0c:	e34e3630 	movt	r3, #58928	; 0xe630
    1f10:	e5930008 	ldr	r0, [r3, #8]
    1f14:	e2500055 	subs	r0, r0, #85	; 0x55
    1f18:	13a00001 	movne	r0, #1
    1f1c:	e8bd8070 	pop	{r4, r5, r6, pc}
    1f20:	e3a00001 	mov	r0, #1
    1f24:	e8bd8070 	pop	{r4, r5, r6, pc}

00001f28 <i2c1InterruptHandler>:
    1f28:	e92d4070 	push	{r4, r5, r6, lr}
    1f2c:	e3a00902 	mov	r0, #32768	; 0x8000
    1f30:	e34e0650 	movt	r0, #58960	; 0xe650
    1f34:	eb000a1c 	bl	47ac <I2C_slaveGetInterruptStatus>
    1f38:	e1a04000 	mov	r4, r0
    1f3c:	e3100002 	tst	r0, #2
    1f40:	0a00000a 	beq	1f70 <i2c1InterruptHandler+0x48>
    1f44:	e3003068 	movw	r3, #104	; 0x68
    1f48:	e34e3630 	movt	r3, #58928	; 0xe630
    1f4c:	e5932000 	ldr	r2, [r3]
    1f50:	e5933000 	ldr	r3, [r3]
    1f54:	e3530000 	cmp	r3, #0
    1f58:	0a000009 	beq	1f84 <i2c1InterruptHandler+0x5c>
    1f5c:	e3003068 	movw	r3, #104	; 0x68
    1f60:	e34e3630 	movt	r3, #58928	; 0xe630
    1f64:	e5933000 	ldr	r3, [r3]
    1f68:	e3530001 	cmp	r3, #1
    1f6c:	0a00000f 	beq	1fb0 <i2c1InterruptHandler+0x88>
    1f70:	e1a01004 	mov	r1, r4
    1f74:	e3a00902 	mov	r0, #32768	; 0x8000
    1f78:	e34e0650 	movt	r0, #58960	; 0xe650
    1f7c:	eb000a0d 	bl	47b8 <I2C_slaveClearInterruptStatus>
    1f80:	e8bd8070 	pop	{r4, r5, r6, pc}
    1f84:	e3005068 	movw	r5, #104	; 0x68
    1f88:	e34e5630 	movt	r5, #58928	; 0xe630
    1f8c:	e5956000 	ldr	r6, [r5]
    1f90:	e2863001 	add	r3, r6, #1
    1f94:	e5853000 	str	r3, [r5]
    1f98:	e3a00902 	mov	r0, #32768	; 0x8000
    1f9c:	e34e0650 	movt	r0, #58960	; 0xe650
    1fa0:	eb000a0f 	bl	47e4 <I2C_slaveReceiveMultipleByteStop>
    1fa4:	e0855106 	add	r5, r5, r6, lsl #2
    1fa8:	e5850004 	str	r0, [r5, #4]
    1fac:	eaffffef 	b	1f70 <i2c1InterruptHandler+0x48>
    1fb0:	e3005068 	movw	r5, #104	; 0x68
    1fb4:	e34e5630 	movt	r5, #58928	; 0xe630
    1fb8:	e5956000 	ldr	r6, [r5]
    1fbc:	e2863001 	add	r3, r6, #1
    1fc0:	e5853000 	str	r3, [r5]
    1fc4:	e3a00902 	mov	r0, #32768	; 0x8000
    1fc8:	e34e0650 	movt	r0, #58960	; 0xe650
    1fcc:	eb000a0a 	bl	47fc <I2C_slaveReceiveMultipleByteFinish>
    1fd0:	e0855106 	add	r5, r5, r6, lsl #2
    1fd4:	e5850004 	str	r0, [r5, #4]
    1fd8:	eaffffe4 	b	1f70 <i2c1InterruptHandler+0x48>

00001fdc <i2c0InterruptHandler>:
    1fdc:	e92d4010 	push	{r4, lr}
    1fe0:	e3a00000 	mov	r0, #0
    1fe4:	e34e0650 	movt	r0, #58960	; 0xe650
    1fe8:	eb000ada 	bl	4b58 <I2C_masterGetInterruptStatus>
    1fec:	e1a04000 	mov	r4, r0
    1ff0:	e3100001 	tst	r0, #1
    1ff4:	1a00000b 	bne	2028 <i2c0InterruptHandler+0x4c>
    1ff8:	e3100008 	tst	r0, #8
    1ffc:	1a00000d 	bne	2038 <i2c0InterruptHandler+0x5c>
    2000:	e3140010 	tst	r4, #16
    2004:	13003068 	movwne	r3, #104	; 0x68
    2008:	134e3630 	movtne	r3, #58928	; 0xe630
    200c:	13a02001 	movne	r2, #1
    2010:	15c32010 	strbne	r2, [r3, #16]
    2014:	e1a01004 	mov	r1, r4
    2018:	e3a00000 	mov	r0, #0
    201c:	e34e0650 	movt	r0, #58960	; 0xe650
    2020:	eb000acf 	bl	4b64 <I2C_masterClearInterruptStatus>
    2024:	e8bd8010 	pop	{r4, pc}
    2028:	e3a00000 	mov	r0, #0
    202c:	e34e0650 	movt	r0, #58960	; 0xe650
    2030:	eb000b22 	bl	4cc0 <I2C_masterDisableStartGeneration>
    2034:	eafffff1 	b	2000 <i2c0InterruptHandler+0x24>
    2038:	e3003068 	movw	r3, #104	; 0x68
    203c:	e34e3630 	movt	r3, #58928	; 0xe630
    2040:	e593200c 	ldr	r2, [r3, #12]
    2044:	e2821001 	add	r1, r2, #1
    2048:	e583100c 	str	r1, [r3, #12]
    204c:	e3063944 	movw	r3, #26948	; 0x6944
    2050:	e3403000 	movt	r3, #0
    2054:	e7931102 	ldr	r1, [r3, r2, lsl #2]
    2058:	e3a00000 	mov	r0, #0
    205c:	e34e0650 	movt	r0, #58960	; 0xe650
    2060:	eb000ac8 	bl	4b88 <I2C_masterSendMultipleByteNext>
    2064:	eaffffe5 	b	2000 <i2c0InterruptHandler+0x24>

00002068 <master_tx_300kHz_var_duty>:
    2068:	e92d4070 	push	{r4, r5, r6, lr}
    206c:	e3065944 	movw	r5, #26948	; 0x6944
    2070:	e3405000 	movt	r5, #0
    2074:	e3a04000 	mov	r4, #0
    2078:	e34e4650 	movt	r4, #58960	; 0xe650
    207c:	e2851008 	add	r1, r5, #8
    2080:	e1a00004 	mov	r0, r4
    2084:	eb0009f1 	bl	4850 <I2C_masterInit>
    2088:	e3e01000 	mvn	r1, #0
    208c:	e1a00004 	mov	r0, r4
    2090:	eb000ab3 	bl	4b64 <I2C_masterClearInterruptStatus>
    2094:	e3a01019 	mov	r1, #25
    2098:	e1a00004 	mov	r0, r4
    209c:	eb000aa5 	bl	4b38 <I2C_masterEnableInterrupt>
    20a0:	e1a00004 	mov	r0, r4
    20a4:	eb000a9b 	bl	4b18 <I2C_masterEnable>
    20a8:	e3a06902 	mov	r6, #32768	; 0x8000
    20ac:	e34e6650 	movt	r6, #58960	; 0xe650
    20b0:	e2851010 	add	r1, r5, #16
    20b4:	e1a00006 	mov	r0, r6
    20b8:	eb0008fb 	bl	44ac <I2C_slaveInit>
    20bc:	e3e01000 	mvn	r1, #0
    20c0:	e1a00006 	mov	r0, r6
    20c4:	eb0009bb 	bl	47b8 <I2C_slaveClearInterruptStatus>
    20c8:	e3a01013 	mov	r1, #19
    20cc:	e1a00006 	mov	r0, r6
    20d0:	eb0009ad 	bl	478c <I2C_slaveEnableInterrupt>
    20d4:	e1a00006 	mov	r0, r6
    20d8:	eb0009a1 	bl	4764 <I2C_slaveEnable>
    20dc:	ebfffdcc 	bl	1814 <GIC_enable>
    20e0:	e3011fdc 	movw	r1, #8156	; 0x1fdc
    20e4:	e3401000 	movt	r1, #0
    20e8:	e300010e 	movw	r0, #270	; 0x10e
    20ec:	ebfffe1d 	bl	1968 <GIC_setInterruptHandler>
    20f0:	e3011f28 	movw	r1, #7976	; 0x1f28
    20f4:	e3401000 	movt	r1, #0
    20f8:	e300010f 	movw	r0, #271	; 0x10f
    20fc:	ebfffe19 	bl	1968 <GIC_setInterruptHandler>
    2100:	e300010e 	movw	r0, #270	; 0x10e
    2104:	ebfffdd9 	bl	1870 <GIC_enableInterrupt>
    2108:	e300010f 	movw	r0, #271	; 0x10f
    210c:	ebfffdd7 	bl	1870 <GIC_enableInterrupt>
    2110:	e3003068 	movw	r3, #104	; 0x68
    2114:	e34e3630 	movt	r3, #58928	; 0xe630
    2118:	e593200c 	ldr	r2, [r3, #12]
    211c:	e2821001 	add	r1, r2, #1
    2120:	e583100c 	str	r1, [r3, #12]
    2124:	e7951102 	ldr	r1, [r5, r2, lsl #2]
    2128:	e1a00004 	mov	r0, r4
    212c:	eb000a90 	bl	4b74 <I2C_masterSendMultipleByteStart>
    2130:	e3002068 	movw	r2, #104	; 0x68
    2134:	e34e2630 	movt	r2, #58928	; 0xe630
    2138:	e5d23010 	ldrb	r3, [r2, #16]
    213c:	e31300ff 	tst	r3, #255	; 0xff
    2140:	0afffffc 	beq	2138 <master_tx_300kHz_var_duty+0xd0>
    2144:	e3003068 	movw	r3, #104	; 0x68
    2148:	e34e3630 	movt	r3, #58928	; 0xe630
    214c:	e5933004 	ldr	r3, [r3, #4]
    2150:	e35300aa 	cmp	r3, #170	; 0xaa
    2154:	1a000005 	bne	2170 <master_tx_300kHz_var_duty+0x108>
    2158:	e3003068 	movw	r3, #104	; 0x68
    215c:	e34e3630 	movt	r3, #58928	; 0xe630
    2160:	e5930008 	ldr	r0, [r3, #8]
    2164:	e2500055 	subs	r0, r0, #85	; 0x55
    2168:	13a00001 	movne	r0, #1
    216c:	e8bd8070 	pop	{r4, r5, r6, pc}
    2170:	e3a00001 	mov	r0, #1
    2174:	e8bd8070 	pop	{r4, r5, r6, pc}

00002178 <i2c1InterruptHandler>:
    2178:	e92d4070 	push	{r4, r5, r6, lr}
    217c:	e3a00902 	mov	r0, #32768	; 0x8000
    2180:	e34e0650 	movt	r0, #58960	; 0xe650
    2184:	eb000988 	bl	47ac <I2C_slaveGetInterruptStatus>
    2188:	e1a04000 	mov	r4, r0
    218c:	e3100002 	tst	r0, #2
    2190:	0a00000a 	beq	21c0 <i2c1InterruptHandler+0x48>
    2194:	e300307c 	movw	r3, #124	; 0x7c
    2198:	e34e3630 	movt	r3, #58928	; 0xe630
    219c:	e5932000 	ldr	r2, [r3]
    21a0:	e5933000 	ldr	r3, [r3]
    21a4:	e3530000 	cmp	r3, #0
    21a8:	0a000009 	beq	21d4 <i2c1InterruptHandler+0x5c>
    21ac:	e300307c 	movw	r3, #124	; 0x7c
    21b0:	e34e3630 	movt	r3, #58928	; 0xe630
    21b4:	e5933000 	ldr	r3, [r3]
    21b8:	e3530001 	cmp	r3, #1
    21bc:	0a00000f 	beq	2200 <i2c1InterruptHandler+0x88>
    21c0:	e1a01004 	mov	r1, r4
    21c4:	e3a00902 	mov	r0, #32768	; 0x8000
    21c8:	e34e0650 	movt	r0, #58960	; 0xe650
    21cc:	eb000979 	bl	47b8 <I2C_slaveClearInterruptStatus>
    21d0:	e8bd8070 	pop	{r4, r5, r6, pc}
    21d4:	e300507c 	movw	r5, #124	; 0x7c
    21d8:	e34e5630 	movt	r5, #58928	; 0xe630
    21dc:	e5956000 	ldr	r6, [r5]
    21e0:	e2863001 	add	r3, r6, #1
    21e4:	e5853000 	str	r3, [r5]
    21e8:	e3a00902 	mov	r0, #32768	; 0x8000
    21ec:	e34e0650 	movt	r0, #58960	; 0xe650
    21f0:	eb00097b 	bl	47e4 <I2C_slaveReceiveMultipleByteStop>
    21f4:	e0855106 	add	r5, r5, r6, lsl #2
    21f8:	e5850004 	str	r0, [r5, #4]
    21fc:	eaffffef 	b	21c0 <i2c1InterruptHandler+0x48>
    2200:	e300507c 	movw	r5, #124	; 0x7c
    2204:	e34e5630 	movt	r5, #58928	; 0xe630
    2208:	e5956000 	ldr	r6, [r5]
    220c:	e2863001 	add	r3, r6, #1
    2210:	e5853000 	str	r3, [r5]
    2214:	e3a00902 	mov	r0, #32768	; 0x8000
    2218:	e34e0650 	movt	r0, #58960	; 0xe650
    221c:	eb000976 	bl	47fc <I2C_slaveReceiveMultipleByteFinish>
    2220:	e0855106 	add	r5, r5, r6, lsl #2
    2224:	e5850004 	str	r0, [r5, #4]
    2228:	eaffffe4 	b	21c0 <i2c1InterruptHandler+0x48>

0000222c <i2c0InterruptHandler>:
    222c:	e92d4010 	push	{r4, lr}
    2230:	e3a00000 	mov	r0, #0
    2234:	e34e0650 	movt	r0, #58960	; 0xe650
    2238:	eb000a46 	bl	4b58 <I2C_masterGetInterruptStatus>
    223c:	e1a04000 	mov	r4, r0
    2240:	e3100001 	tst	r0, #1
    2244:	1a00000b 	bne	2278 <i2c0InterruptHandler+0x4c>
    2248:	e3100008 	tst	r0, #8
    224c:	1a00000d 	bne	2288 <i2c0InterruptHandler+0x5c>
    2250:	e3140010 	tst	r4, #16
    2254:	1300307c 	movwne	r3, #124	; 0x7c
    2258:	134e3630 	movtne	r3, #58928	; 0xe630
    225c:	13a02001 	movne	r2, #1
    2260:	15c32010 	strbne	r2, [r3, #16]
    2264:	e1a01004 	mov	r1, r4
    2268:	e3a00000 	mov	r0, #0
    226c:	e34e0650 	movt	r0, #58960	; 0xe650
    2270:	eb000a3b 	bl	4b64 <I2C_masterClearInterruptStatus>
    2274:	e8bd8010 	pop	{r4, pc}
    2278:	e3a00000 	mov	r0, #0
    227c:	e34e0650 	movt	r0, #58960	; 0xe650
    2280:	eb000a8e 	bl	4cc0 <I2C_masterDisableStartGeneration>
    2284:	eafffff1 	b	2250 <i2c0InterruptHandler+0x24>
    2288:	e300307c 	movw	r3, #124	; 0x7c
    228c:	e34e3630 	movt	r3, #58928	; 0xe630
    2290:	e593200c 	ldr	r2, [r3, #12]
    2294:	e2821001 	add	r1, r2, #1
    2298:	e583100c 	str	r1, [r3, #12]
    229c:	e306395c 	movw	r3, #26972	; 0x695c
    22a0:	e3403000 	movt	r3, #0
    22a4:	e7931102 	ldr	r1, [r3, r2, lsl #2]
    22a8:	e3a00000 	mov	r0, #0
    22ac:	e34e0650 	movt	r0, #58960	; 0xe650
    22b0:	eb000a34 	bl	4b88 <I2C_masterSendMultipleByteNext>
    22b4:	eaffffe5 	b	2250 <i2c0InterruptHandler+0x24>

000022b8 <master_tx_100kHz_var_duty>:
    22b8:	e92d4070 	push	{r4, r5, r6, lr}
    22bc:	e306595c 	movw	r5, #26972	; 0x695c
    22c0:	e3405000 	movt	r5, #0
    22c4:	e3a04000 	mov	r4, #0
    22c8:	e34e4650 	movt	r4, #58960	; 0xe650
    22cc:	e2851008 	add	r1, r5, #8
    22d0:	e1a00004 	mov	r0, r4
    22d4:	eb00095d 	bl	4850 <I2C_masterInit>
    22d8:	e3e01000 	mvn	r1, #0
    22dc:	e1a00004 	mov	r0, r4
    22e0:	eb000a1f 	bl	4b64 <I2C_masterClearInterruptStatus>
    22e4:	e3a01019 	mov	r1, #25
    22e8:	e1a00004 	mov	r0, r4
    22ec:	eb000a11 	bl	4b38 <I2C_masterEnableInterrupt>
    22f0:	e1a00004 	mov	r0, r4
    22f4:	eb000a07 	bl	4b18 <I2C_masterEnable>
    22f8:	e3a06902 	mov	r6, #32768	; 0x8000
    22fc:	e34e6650 	movt	r6, #58960	; 0xe650
    2300:	e2851010 	add	r1, r5, #16
    2304:	e1a00006 	mov	r0, r6
    2308:	eb000867 	bl	44ac <I2C_slaveInit>
    230c:	e3e01000 	mvn	r1, #0
    2310:	e1a00006 	mov	r0, r6
    2314:	eb000927 	bl	47b8 <I2C_slaveClearInterruptStatus>
    2318:	e3a01013 	mov	r1, #19
    231c:	e1a00006 	mov	r0, r6
    2320:	eb000919 	bl	478c <I2C_slaveEnableInterrupt>
    2324:	e1a00006 	mov	r0, r6
    2328:	eb00090d 	bl	4764 <I2C_slaveEnable>
    232c:	ebfffd38 	bl	1814 <GIC_enable>
    2330:	e302122c 	movw	r1, #8748	; 0x222c
    2334:	e3401000 	movt	r1, #0
    2338:	e300010e 	movw	r0, #270	; 0x10e
    233c:	ebfffd89 	bl	1968 <GIC_setInterruptHandler>
    2340:	e3021178 	movw	r1, #8568	; 0x2178
    2344:	e3401000 	movt	r1, #0
    2348:	e300010f 	movw	r0, #271	; 0x10f
    234c:	ebfffd85 	bl	1968 <GIC_setInterruptHandler>
    2350:	e300010e 	movw	r0, #270	; 0x10e
    2354:	ebfffd45 	bl	1870 <GIC_enableInterrupt>
    2358:	e300010f 	movw	r0, #271	; 0x10f
    235c:	ebfffd43 	bl	1870 <GIC_enableInterrupt>
    2360:	e300307c 	movw	r3, #124	; 0x7c
    2364:	e34e3630 	movt	r3, #58928	; 0xe630
    2368:	e593200c 	ldr	r2, [r3, #12]
    236c:	e2821001 	add	r1, r2, #1
    2370:	e583100c 	str	r1, [r3, #12]
    2374:	e7951102 	ldr	r1, [r5, r2, lsl #2]
    2378:	e1a00004 	mov	r0, r4
    237c:	eb0009fc 	bl	4b74 <I2C_masterSendMultipleByteStart>
    2380:	e300207c 	movw	r2, #124	; 0x7c
    2384:	e34e2630 	movt	r2, #58928	; 0xe630
    2388:	e5d23010 	ldrb	r3, [r2, #16]
    238c:	e31300ff 	tst	r3, #255	; 0xff
    2390:	0afffffc 	beq	2388 <master_tx_100kHz_var_duty+0xd0>
    2394:	e300307c 	movw	r3, #124	; 0x7c
    2398:	e34e3630 	movt	r3, #58928	; 0xe630
    239c:	e5933004 	ldr	r3, [r3, #4]
    23a0:	e35300aa 	cmp	r3, #170	; 0xaa
    23a4:	1a000005 	bne	23c0 <master_tx_100kHz_var_duty+0x108>
    23a8:	e300307c 	movw	r3, #124	; 0x7c
    23ac:	e34e3630 	movt	r3, #58928	; 0xe630
    23b0:	e5930008 	ldr	r0, [r3, #8]
    23b4:	e2500055 	subs	r0, r0, #85	; 0x55
    23b8:	13a00001 	movne	r0, #1
    23bc:	e8bd8070 	pop	{r4, r5, r6, pc}
    23c0:	e3a00001 	mov	r0, #1
    23c4:	e8bd8070 	pop	{r4, r5, r6, pc}

000023c8 <main>:
    23c8:	e92d4ff0 	push	{r4, r5, r6, r7, r8, r9, sl, fp, lr}
    23cc:	e24dd06c 	sub	sp, sp, #108	; 0x6c
    23d0:	ebfffe24 	bl	1c68 <I2C_configPins>
    23d4:	e3015134 	movw	r5, #4404	; 0x1134
    23d8:	e34e5630 	movt	r5, #58928	; 0xe630
    23dc:	e1a0600d 	mov	r6, sp
    23e0:	e285b068 	add	fp, r5, #104	; 0x68
    23e4:	e1a07006 	mov	r7, r6
    23e8:	e3a0a064 	mov	sl, #100	; 0x64
    23ec:	e3a09001 	mov	r9, #1
    23f0:	e3a08000 	mov	r8, #0
    23f4:	ebfffe2b 	bl	1ca8 <I2C_reset>
    23f8:	e1a0000a 	mov	r0, sl
    23fc:	eb000af0 	bl	4fc4 <Sim_Delay>
    2400:	e1a01009 	mov	r1, r9
    2404:	e1a00008 	mov	r0, r8
    2408:	ebfffe09 	bl	1c34 <I2C_modelConnect>
    240c:	e4953004 	ldr	r3, [r5], #4
    2410:	e12fff33 	blx	r3
    2414:	e1a04000 	mov	r4, r0
    2418:	e4870004 	str	r0, [r7], #4
    241c:	e3500001 	cmp	r0, #1
    2420:	0a000009 	beq	244c <main+0x84>
    2424:	e155000b 	cmp	r5, fp
    2428:	1afffff1 	bne	23f4 <main+0x2c>
    242c:	ebfffdf8 	bl	1c14 <I2C_modelDisable>
    2430:	ebfffe14 	bl	1c88 <I2C_releasePins>
    2434:	eb000ade 	bl	4fb4 <Sim_Stop>
    2438:	eafffffe 	b	2438 <main+0x70>
    243c:	e3a04000 	mov	r4, #0
    2440:	e1a00004 	mov	r0, r4
    2444:	eb000abd 	bl	4f40 <Sim_Dump>
    2448:	eafffff9 	b	2434 <main+0x6c>
    244c:	ebfffdf0 	bl	1c14 <I2C_modelDisable>
    2450:	ebfffe0c 	bl	1c88 <I2C_releasePins>
    2454:	e59d3000 	ldr	r3, [sp]
    2458:	e3530001 	cmp	r3, #1
    245c:	0afffff6 	beq	243c <main+0x74>
    2460:	e5b63004 	ldr	r3, [r6, #4]!
    2464:	e3530001 	cmp	r3, #1
    2468:	0afffff4 	beq	2440 <main+0x78>
    246c:	e2844001 	add	r4, r4, #1
    2470:	e354001a 	cmp	r4, #26
    2474:	1afffff9 	bne	2460 <main+0x98>
    2478:	eaffffed 	b	2434 <main+0x6c>

0000247c <sdmac1ch1InterruptHandler>:
    247c:	e3a03a01 	mov	r3, #4096	; 0x1000
    2480:	e34e3730 	movt	r3, #59184	; 0xe730
    2484:	e593300c 	ldr	r3, [r3, #12]
    2488:	e3130002 	tst	r3, #2
    248c:	012fff1e 	bxeq	lr
    2490:	e3002090 	movw	r2, #144	; 0x90
    2494:	e34e2630 	movt	r2, #58928	; 0xe630
    2498:	e5923000 	ldr	r3, [r2]
    249c:	e2833001 	add	r3, r3, #1
    24a0:	e5823000 	str	r3, [r2]
    24a4:	e3530001 	cmp	r3, #1
    24a8:	8a000014 	bhi	2500 <sdmac1ch1InterruptHandler+0x84>
    24ac:	e3a03a01 	mov	r3, #4096	; 0x1000
    24b0:	e34e3730 	movt	r3, #59184	; 0xe730
    24b4:	e593200c 	ldr	r2, [r3, #12]
    24b8:	e7c0201f 	bfc	r2, #0, #1
    24bc:	e583200c 	str	r2, [r3, #12]
    24c0:	e3002090 	movw	r2, #144	; 0x90
    24c4:	e34e2630 	movt	r2, #58928	; 0xe630
    24c8:	e4921004 	ldr	r1, [r2], #4
    24cc:	e0822181 	add	r2, r2, r1, lsl #3
    24d0:	e5832004 	str	r2, [r3, #4]
    24d4:	e5932008 	ldr	r2, [r3, #8]
    24d8:	e3a01002 	mov	r1, #2
    24dc:	e7d72011 	bfi	r2, r1, #0, #24
    24e0:	e5832008 	str	r2, [r3, #8]
    24e4:	e593200c 	ldr	r2, [r3, #12]
    24e8:	e7c1209f 	bfc	r2, #1, #1
    24ec:	e583200c 	str	r2, [r3, #12]
    24f0:	e593200c 	ldr	r2, [r3, #12]
    24f4:	e3822001 	orr	r2, r2, #1
    24f8:	e583200c 	str	r2, [r3, #12]
    24fc:	e12fff1e 	bx	lr
    2500:	e92d4010 	push	{r4, lr}
    2504:	e3a03a01 	mov	r3, #4096	; 0x1000
    2508:	e34e3730 	movt	r3, #59184	; 0xe730
    250c:	e593200c 	ldr	r2, [r3, #12]
    2510:	e7c0201f 	bfc	r2, #0, #1
    2514:	e583200c 	str	r2, [r3, #12]
    2518:	e593200c 	ldr	r2, [r3, #12]
    251c:	e7c1209f 	bfc	r2, #1, #1
    2520:	e583200c 	str	r2, [r3, #12]
    2524:	e3a03000 	mov	r3, #0
    2528:	e34e3735 	movt	r3, #59189	; 0xe735
    252c:	e3a02000 	mov	r2, #0
    2530:	e5832060 	str	r2, [r3, #96]	; 0x60
    2534:	e3a00902 	mov	r0, #32768	; 0x8000
    2538:	e34e0650 	movt	r0, #58960	; 0xe650
    253c:	eb0008b7 	bl	4820 <I2C_slaveDisableDMAReceive>
    2540:	e3003090 	movw	r3, #144	; 0x90
    2544:	e34e3630 	movt	r3, #58928	; 0xe630
    2548:	e3a02001 	mov	r2, #1
    254c:	e5c32014 	strb	r2, [r3, #20]
    2550:	e8bd8010 	pop	{r4, pc}

00002554 <sdmac1ch0InterruptHandler>:
    2554:	e3a03000 	mov	r3, #0
    2558:	e34e3730 	movt	r3, #59184	; 0xe730
    255c:	e593300c 	ldr	r3, [r3, #12]
    2560:	e3130002 	tst	r3, #2
    2564:	012fff1e 	bxeq	lr
    2568:	e92d4010 	push	{r4, lr}
    256c:	e3a03000 	mov	r3, #0
    2570:	e34e3730 	movt	r3, #59184	; 0xe730
    2574:	e593200c 	ldr	r2, [r3, #12]
    2578:	e7c0201f 	bfc	r2, #0, #1
    257c:	e583200c 	str	r2, [r3, #12]
    2580:	e593200c 	ldr	r2, [r3, #12]
    2584:	e7c1209f 	bfc	r2, #1, #1
    2588:	e583200c 	str	r2, [r3, #12]
    258c:	e3a00000 	mov	r0, #0
    2590:	e34e0650 	movt	r0, #58960	; 0xe650
    2594:	eb0009b9 	bl	4c80 <I2C_masterDisableDMATransmit>
    2598:	e3003090 	movw	r3, #144	; 0x90
    259c:	e34e3630 	movt	r3, #58928	; 0xe630
    25a0:	e3a02001 	mov	r2, #1
    25a4:	e5c32015 	strb	r2, [r3, #21]
    25a8:	e8bd8010 	pop	{r4, pc}

000025ac <i2c1InterruptHandler>:
    25ac:	e92d4010 	push	{r4, lr}
    25b0:	e3a00902 	mov	r0, #32768	; 0x8000
    25b4:	e34e0650 	movt	r0, #58960	; 0xe650
    25b8:	eb00087b 	bl	47ac <I2C_slaveGetInterruptStatus>
    25bc:	e1a04000 	mov	r4, r0
    25c0:	e3100002 	tst	r0, #2
    25c4:	0a000004 	beq	25dc <i2c1InterruptHandler+0x30>
    25c8:	e3003090 	movw	r3, #144	; 0x90
    25cc:	e34e3630 	movt	r3, #58928	; 0xe630
    25d0:	e5d33016 	ldrb	r3, [r3, #22]
    25d4:	e31300ff 	tst	r3, #255	; 0xff
    25d8:	0a000004 	beq	25f0 <i2c1InterruptHandler+0x44>
    25dc:	e1a01004 	mov	r1, r4
    25e0:	e3a00902 	mov	r0, #32768	; 0x8000
    25e4:	e34e0650 	movt	r0, #58960	; 0xe650
    25e8:	eb000872 	bl	47b8 <I2C_slaveClearInterruptStatus>
    25ec:	e8bd8010 	pop	{r4, pc}
    25f0:	e3a00902 	mov	r0, #32768	; 0x8000
    25f4:	e34e0650 	movt	r0, #58960	; 0xe650
    25f8:	eb000884 	bl	4810 <I2C_slaveEnableDMAReceive>
    25fc:	e3003090 	movw	r3, #144	; 0x90
    2600:	e34e3630 	movt	r3, #58928	; 0xe630
    2604:	e3a02001 	mov	r2, #1
    2608:	e5c32016 	strb	r2, [r3, #22]
    260c:	eafffff2 	b	25dc <i2c1InterruptHandler+0x30>

00002610 <i2c0InterruptHandler>:
    2610:	e92d4010 	push	{r4, lr}
    2614:	e3a00000 	mov	r0, #0
    2618:	e34e0650 	movt	r0, #58960	; 0xe650
    261c:	eb00094d 	bl	4b58 <I2C_masterGetInterruptStatus>
    2620:	e1a04000 	mov	r4, r0
    2624:	e3100001 	tst	r0, #1
    2628:	1a00000e 	bne	2668 <i2c0InterruptHandler+0x58>
    262c:	e3100008 	tst	r0, #8
    2630:	0a00000f 	beq	2674 <i2c0InterruptHandler+0x64>
    2634:	e3003090 	movw	r3, #144	; 0x90
    2638:	e34e3630 	movt	r3, #58928	; 0xe630
    263c:	e5d33017 	ldrb	r3, [r3, #23]
    2640:	e31300ff 	tst	r3, #255	; 0xff
    2644:	1a000017 	bne	26a8 <i2c0InterruptHandler+0x98>
    2648:	e3a03000 	mov	r3, #0
    264c:	e34e3735 	movt	r3, #59189	; 0xe735
    2650:	e3a02001 	mov	r2, #1
    2654:	e5832060 	str	r2, [r3, #96]	; 0x60
    2658:	e3003090 	movw	r3, #144	; 0x90
    265c:	e34e3630 	movt	r3, #58928	; 0xe630
    2660:	e5c32017 	strb	r2, [r3, #23]
    2664:	ea000002 	b	2674 <i2c0InterruptHandler+0x64>
    2668:	e3a00000 	mov	r0, #0
    266c:	e34e0650 	movt	r0, #58960	; 0xe650
    2670:	eb000992 	bl	4cc0 <I2C_masterDisableStartGeneration>
    2674:	e3140010 	tst	r4, #16
    2678:	0a000005 	beq	2694 <i2c0InterruptHandler+0x84>
    267c:	e3003090 	movw	r3, #144	; 0x90
    2680:	e34e3630 	movt	r3, #58928	; 0xe630
    2684:	e5d31015 	ldrb	r1, [r3, #21]
    2688:	e5d32014 	ldrb	r2, [r3, #20]
    268c:	e0022001 	and	r2, r2, r1
    2690:	e5c32018 	strb	r2, [r3, #24]
    2694:	e1a01004 	mov	r1, r4
    2698:	e3a00000 	mov	r0, #0
    269c:	e34e0650 	movt	r0, #58960	; 0xe650
    26a0:	eb00092f 	bl	4b64 <I2C_masterClearInterruptStatus>
    26a4:	e8bd8010 	pop	{r4, pc}
    26a8:	e3a00000 	mov	r0, #0
    26ac:	e34e0650 	movt	r0, #58960	; 0xe650
    26b0:	eb000936 	bl	4b90 <I2C_masterSendMultipleByteStop>
    26b4:	eaffffee 	b	2674 <i2c0InterruptHandler+0x64>

000026b8 <master_tx_dma_continuous>:
    26b8:	e92d41f0 	push	{r4, r5, r6, r7, r8, lr}
    26bc:	e3a01009 	mov	r1, #9
    26c0:	e3020c1c 	movw	r0, #11292	; 0x2c1c
    26c4:	e34e0615 	movt	r0, #58901	; 0xe615
    26c8:	eb0001f1 	bl	2e94 <CPG_SetBit>
    26cc:	e3a01009 	mov	r1, #9
    26d0:	e3020c9c 	movw	r0, #11420	; 0x2c9c
    26d4:	e34e0615 	movt	r0, #58901	; 0xe615
    26d8:	eb0001ed 	bl	2e94 <CPG_SetBit>
    26dc:	e3a04000 	mov	r4, #0
    26e0:	e34e4735 	movt	r4, #59189	; 0xe735
    26e4:	e3a01002 	mov	r1, #2
    26e8:	e1a00004 	mov	r0, r4
    26ec:	eb001036 	bl	67cc <DMAC_initDescriptorMemory>
    26f0:	e3066974 	movw	r6, #26996	; 0x6974
    26f4:	e3406000 	movt	r6, #0
    26f8:	e2863004 	add	r3, r6, #4
    26fc:	e5843800 	str	r3, [r4, #2048]	; 0x800
    2700:	e3a03024 	mov	r3, #36	; 0x24
    2704:	e34e3650 	movt	r3, #58960	; 0xe650
    2708:	e5843804 	str	r3, [r4, #2052]	; 0x804
    270c:	e5942808 	ldr	r2, [r4, #2056]	; 0x808
    2710:	e3a05002 	mov	r5, #2
    2714:	e7d72015 	bfi	r2, r5, #0, #24
    2718:	e5842808 	str	r2, [r4, #2056]	; 0x808
    271c:	e594280c 	ldr	r2, [r4, #2060]	; 0x80c
    2720:	e7cb251f 	bfc	r2, #10, #2
    2724:	e584280c 	str	r2, [r4, #2060]	; 0x80c
    2728:	e594280c 	ldr	r2, [r4, #2060]	; 0x80c
    272c:	e3a07001 	mov	r7, #1
    2730:	e7c92417 	bfi	r2, r7, #8, #2
    2734:	e584280c 	str	r2, [r4, #2060]	; 0x80c
    2738:	e594280c 	ldr	r2, [r4, #2060]	; 0x80c
    273c:	e7c72315 	bfi	r2, r5, #6, #2
    2740:	e584280c 	str	r2, [r4, #2060]	; 0x80c
    2744:	e594280c 	ldr	r2, [r4, #2060]	; 0x80c
    2748:	e7c32015 	bfi	r2, r5, #0, #4
    274c:	e584280c 	str	r2, [r4, #2060]	; 0x80c
    2750:	e594180c 	ldr	r1, [r4, #2060]	; 0x80c
    2754:	e3a02091 	mov	r2, #145	; 0x91
    2758:	e7d71812 	bfi	r1, r2, #16, #8
    275c:	e584180c 	str	r1, [r4, #2060]	; 0x80c
    2760:	e286100c 	add	r1, r6, #12
    2764:	e5841810 	str	r1, [r4, #2064]	; 0x810
    2768:	e5843814 	str	r3, [r4, #2068]	; 0x814
    276c:	e5943818 	ldr	r3, [r4, #2072]	; 0x818
    2770:	e7d73015 	bfi	r3, r5, #0, #24
    2774:	e5843818 	str	r3, [r4, #2072]	; 0x818
    2778:	e594381c 	ldr	r3, [r4, #2076]	; 0x81c
    277c:	e7cb351f 	bfc	r3, #10, #2
    2780:	e584381c 	str	r3, [r4, #2076]	; 0x81c
    2784:	e594381c 	ldr	r3, [r4, #2076]	; 0x81c
    2788:	e7c93417 	bfi	r3, r7, #8, #2
    278c:	e584381c 	str	r3, [r4, #2076]	; 0x81c
    2790:	e594381c 	ldr	r3, [r4, #2076]	; 0x81c
    2794:	e7c73315 	bfi	r3, r5, #6, #2
    2798:	e584381c 	str	r3, [r4, #2076]	; 0x81c
    279c:	e594381c 	ldr	r3, [r4, #2076]	; 0x81c
    27a0:	e7c33015 	bfi	r3, r5, #0, #4
    27a4:	e584381c 	str	r3, [r4, #2076]	; 0x81c
    27a8:	e594381c 	ldr	r3, [r4, #2076]	; 0x81c
    27ac:	e7d73812 	bfi	r3, r2, #16, #8
    27b0:	e584381c 	str	r3, [r4, #2076]	; 0x81c
    27b4:	e3a03000 	mov	r3, #0
    27b8:	e34e3730 	movt	r3, #59184	; 0xe730
    27bc:	e593200c 	ldr	r2, [r3, #12]
    27c0:	e7dd2e17 	bfi	r2, r7, #28, #2
    27c4:	e583200c 	str	r2, [r3, #12]
    27c8:	e593200c 	ldr	r2, [r3, #12]
    27cc:	e382240f 	orr	r2, r2, #251658240	; 0xf000000
    27d0:	e583200c 	str	r2, [r3, #12]
    27d4:	e593200c 	ldr	r2, [r3, #12]
    27d8:	e3822501 	orr	r2, r2, #4194304	; 0x400000
    27dc:	e583200c 	str	r2, [r3, #12]
    27e0:	e593201c 	ldr	r2, [r3, #28]
    27e4:	e7df2c17 	bfi	r2, r7, #24, #8
    27e8:	e583201c 	str	r2, [r3, #28]
    27ec:	e593201c 	ldr	r2, [r3, #28]
    27f0:	e3822902 	orr	r2, r2, #32768	; 0x8000
    27f4:	e583201c 	str	r2, [r3, #28]
    27f8:	e593200c 	ldr	r2, [r3, #12]
    27fc:	e3822004 	orr	r2, r2, #4
    2800:	e583200c 	str	r2, [r3, #12]
    2804:	e593200c 	ldr	r2, [r3, #12]
    2808:	e1822007 	orr	r2, r2, r7
    280c:	e583200c 	str	r2, [r3, #12]
    2810:	e3a04000 	mov	r4, #0
    2814:	e34e4650 	movt	r4, #58960	; 0xe650
    2818:	e2861010 	add	r1, r6, #16
    281c:	e1a00004 	mov	r0, r4
    2820:	eb00080a 	bl	4850 <I2C_masterInit>
    2824:	e1a01007 	mov	r1, r7
    2828:	e1a00004 	mov	r0, r4
    282c:	eb0008eb 	bl	4be0 <I2C_masterSetDMAContinuousTransferCount>
    2830:	e1a01005 	mov	r1, r5
    2834:	e1a00004 	mov	r0, r4
    2838:	eb0008f0 	bl	4c00 <I2C_masterSetDMAContinuousTransmitBlockCount>
    283c:	e1a00004 	mov	r0, r4
    2840:	eb0008fa 	bl	4c30 <I2C_masterEnableDMAContinuousTransmit>
    2844:	e1a00004 	mov	r0, r4
    2848:	eb000908 	bl	4c70 <I2C_masterEnableDMATransmit>
    284c:	e3e01000 	mvn	r1, #0
    2850:	e1a00004 	mov	r0, r4
    2854:	eb0008c2 	bl	4b64 <I2C_masterClearInterruptStatus>
    2858:	e3e01000 	mvn	r1, #0
    285c:	e1a00004 	mov	r0, r4
    2860:	eb0008b4 	bl	4b38 <I2C_masterEnableInterrupt>
    2864:	e1a00004 	mov	r0, r4
    2868:	eb0008aa 	bl	4b18 <I2C_masterEnable>
    286c:	e3a03a01 	mov	r3, #4096	; 0x1000
    2870:	e34e3730 	movt	r3, #59184	; 0xe730
    2874:	e3082024 	movw	r2, #32804	; 0x8024
    2878:	e34e2650 	movt	r2, #58960	; 0xe650
    287c:	e5832000 	str	r2, [r3]
    2880:	e3008090 	movw	r8, #144	; 0x90
    2884:	e34e8630 	movt	r8, #58928	; 0xe630
    2888:	e1a02008 	mov	r2, r8
    288c:	e4921004 	ldr	r1, [r2], #4
    2890:	e0822181 	add	r2, r2, r1, lsl #3
    2894:	e5832004 	str	r2, [r3, #4]
    2898:	e5932008 	ldr	r2, [r3, #8]
    289c:	e7d72015 	bfi	r2, r5, #0, #24
    28a0:	e5832008 	str	r2, [r3, #8]
    28a4:	e593200c 	ldr	r2, [r3, #12]
    28a8:	e7cf2717 	bfi	r2, r7, #14, #2
    28ac:	e583200c 	str	r2, [r3, #12]
    28b0:	e593200c 	ldr	r2, [r3, #12]
    28b4:	e7cd261f 	bfc	r2, #12, #2
    28b8:	e583200c 	str	r2, [r3, #12]
    28bc:	e593200c 	ldr	r2, [r3, #12]
    28c0:	e3a01008 	mov	r1, #8
    28c4:	e7cb2411 	bfi	r2, r1, #8, #4
    28c8:	e583200c 	str	r2, [r3, #12]
    28cc:	e593200c 	ldr	r2, [r3, #12]
    28d0:	e7d52a1f 	bfc	r2, #20, #2
    28d4:	e583200c 	str	r2, [r3, #12]
    28d8:	e593200c 	ldr	r2, [r3, #12]
    28dc:	e7c42195 	bfi	r2, r5, #3, #2
    28e0:	e583200c 	str	r2, [r3, #12]
    28e4:	e3a020a2 	mov	r2, #162	; 0xa2
    28e8:	e1c324b0 	strh	r2, [r3, #64]	; 0x40
    28ec:	e593200c 	ldr	r2, [r3, #12]
    28f0:	e3822004 	orr	r2, r2, #4
    28f4:	e583200c 	str	r2, [r3, #12]
    28f8:	e593200c 	ldr	r2, [r3, #12]
    28fc:	e1822007 	orr	r2, r2, r7
    2900:	e583200c 	str	r2, [r3, #12]
    2904:	e3a05902 	mov	r5, #32768	; 0x8000
    2908:	e34e5650 	movt	r5, #58960	; 0xe650
    290c:	e2861018 	add	r1, r6, #24
    2910:	e1a00005 	mov	r0, r5
    2914:	eb0006e4 	bl	44ac <I2C_slaveInit>
    2918:	e3e01000 	mvn	r1, #0
    291c:	e1a00005 	mov	r0, r5
    2920:	eb0007a4 	bl	47b8 <I2C_slaveClearInterruptStatus>
    2924:	e3e01000 	mvn	r1, #0
    2928:	e1a00005 	mov	r0, r5
    292c:	eb000796 	bl	478c <I2C_slaveEnableInterrupt>
    2930:	e1a00005 	mov	r0, r5
    2934:	eb00078a 	bl	4764 <I2C_slaveEnable>
    2938:	ebfffbb5 	bl	1814 <GIC_enable>
    293c:	e3021610 	movw	r1, #9744	; 0x2610
    2940:	e3401000 	movt	r1, #0
    2944:	e300010e 	movw	r0, #270	; 0x10e
    2948:	ebfffc06 	bl	1968 <GIC_setInterruptHandler>
    294c:	e30215ac 	movw	r1, #9644	; 0x25ac
    2950:	e3401000 	movt	r1, #0
    2954:	e300010f 	movw	r0, #271	; 0x10f
    2958:	ebfffc02 	bl	1968 <GIC_setInterruptHandler>
    295c:	e3021554 	movw	r1, #9556	; 0x2554
    2960:	e3401000 	movt	r1, #0
    2964:	e3a00040 	mov	r0, #64	; 0x40
    2968:	ebfffbfe 	bl	1968 <GIC_setInterruptHandler>
    296c:	e302147c 	movw	r1, #9340	; 0x247c
    2970:	e3401000 	movt	r1, #0
    2974:	e3a00041 	mov	r0, #65	; 0x41
    2978:	ebfffbfa 	bl	1968 <GIC_setInterruptHandler>
    297c:	e300010e 	movw	r0, #270	; 0x10e
    2980:	ebfffbba 	bl	1870 <GIC_enableInterrupt>
    2984:	e300010f 	movw	r0, #271	; 0x10f
    2988:	ebfffbb8 	bl	1870 <GIC_enableInterrupt>
    298c:	e3a00040 	mov	r0, #64	; 0x40
    2990:	ebfffbb6 	bl	1870 <GIC_enableInterrupt>
    2994:	e3a00041 	mov	r0, #65	; 0x41
    2998:	ebfffbb4 	bl	1870 <GIC_enableInterrupt>
    299c:	e5983000 	ldr	r3, [r8]
    29a0:	e7961183 	ldr	r1, [r6, r3, lsl #3]
    29a4:	e1a00004 	mov	r0, r4
    29a8:	eb000871 	bl	4b74 <I2C_masterSendMultipleByteStart>
    29ac:	e1a02008 	mov	r2, r8
    29b0:	e5d23018 	ldrb	r3, [r2, #24]
    29b4:	e31300ff 	tst	r3, #255	; 0xff
    29b8:	0afffffc 	beq	29b0 <master_tx_dma_continuous+0x2f8>
    29bc:	e3a00000 	mov	r0, #0
    29c0:	e34e0650 	movt	r0, #58960	; 0xe650
    29c4:	eb000857 	bl	4b28 <I2C_masterDisable>
    29c8:	e3a00902 	mov	r0, #32768	; 0x8000
    29cc:	e34e0650 	movt	r0, #58960	; 0xe650
    29d0:	eb000767 	bl	4774 <I2C_slaveDisable>
    29d4:	e3003090 	movw	r3, #144	; 0x90
    29d8:	e34e3630 	movt	r3, #58928	; 0xe630
    29dc:	e5d33004 	ldrb	r3, [r3, #4]
    29e0:	e35300aa 	cmp	r3, #170	; 0xaa
    29e4:	1a00000f 	bne	2a28 <master_tx_dma_continuous+0x370>
    29e8:	e3003090 	movw	r3, #144	; 0x90
    29ec:	e34e3630 	movt	r3, #58928	; 0xe630
    29f0:	e5d33008 	ldrb	r3, [r3, #8]
    29f4:	e3530055 	cmp	r3, #85	; 0x55
    29f8:	1a00000c 	bne	2a30 <master_tx_dma_continuous+0x378>
    29fc:	e3003090 	movw	r3, #144	; 0x90
    2a00:	e34e3630 	movt	r3, #58928	; 0xe630
    2a04:	e5d3300c 	ldrb	r3, [r3, #12]
    2a08:	e3530055 	cmp	r3, #85	; 0x55
    2a0c:	1a000009 	bne	2a38 <master_tx_dma_continuous+0x380>
    2a10:	e3003090 	movw	r3, #144	; 0x90
    2a14:	e34e3630 	movt	r3, #58928	; 0xe630
    2a18:	e5d30010 	ldrb	r0, [r3, #16]
    2a1c:	e25000aa 	subs	r0, r0, #170	; 0xaa
    2a20:	13a00001 	movne	r0, #1
    2a24:	e8bd81f0 	pop	{r4, r5, r6, r7, r8, pc}
    2a28:	e3a00001 	mov	r0, #1
    2a2c:	e8bd81f0 	pop	{r4, r5, r6, r7, r8, pc}
    2a30:	e3a00001 	mov	r0, #1
    2a34:	e8bd81f0 	pop	{r4, r5, r6, r7, r8, pc}
    2a38:	e3a00001 	mov	r0, #1
    2a3c:	e8bd81f0 	pop	{r4, r5, r6, r7, r8, pc}

00002a40 <sdmac1ch1InterruptHandler>:
    2a40:	e3a03a01 	mov	r3, #4096	; 0x1000
    2a44:	e34e3730 	movt	r3, #59184	; 0xe730
    2a48:	e593300c 	ldr	r3, [r3, #12]
    2a4c:	e3130002 	tst	r3, #2
    2a50:	012fff1e 	bxeq	lr
    2a54:	e92d4010 	push	{r4, lr}
    2a58:	e3a03a01 	mov	r3, #4096	; 0x1000
    2a5c:	e34e3730 	movt	r3, #59184	; 0xe730
    2a60:	e593200c 	ldr	r2, [r3, #12]
    2a64:	e7c0201f 	bfc	r2, #0, #1
    2a68:	e583200c 	str	r2, [r3, #12]
    2a6c:	e593200c 	ldr	r2, [r3, #12]
    2a70:	e7c1209f 	bfc	r2, #1, #1
    2a74:	e583200c 	str	r2, [r3, #12]
    2a78:	e3a03000 	mov	r3, #0
    2a7c:	e34e3735 	movt	r3, #59189	; 0xe735
    2a80:	e3a02000 	mov	r2, #0
    2a84:	e5832060 	str	r2, [r3, #96]	; 0x60
    2a88:	e3a00902 	mov	r0, #32768	; 0x8000
    2a8c:	e34e0650 	movt	r0, #58960	; 0xe650
    2a90:	eb000762 	bl	4820 <I2C_slaveDisableDMAReceive>
    2a94:	e30030ac 	movw	r3, #172	; 0xac
    2a98:	e34e3630 	movt	r3, #58928	; 0xe630
    2a9c:	e3a02001 	mov	r2, #1
    2aa0:	e5c32000 	strb	r2, [r3]
    2aa4:	e8bd8010 	pop	{r4, pc}

00002aa8 <sdmac1ch0InterruptHandler>:
    2aa8:	e3a03000 	mov	r3, #0
    2aac:	e34e3730 	movt	r3, #59184	; 0xe730
    2ab0:	e593300c 	ldr	r3, [r3, #12]
    2ab4:	e3130002 	tst	r3, #2
    2ab8:	012fff1e 	bxeq	lr
    2abc:	e92d4010 	push	{r4, lr}
    2ac0:	e3a03000 	mov	r3, #0
    2ac4:	e34e3730 	movt	r3, #59184	; 0xe730
    2ac8:	e593200c 	ldr	r2, [r3, #12]
    2acc:	e7c0201f 	bfc	r2, #0, #1
    2ad0:	e583200c 	str	r2, [r3, #12]
    2ad4:	e593200c 	ldr	r2, [r3, #12]
    2ad8:	e7c1209f 	bfc	r2, #1, #1
    2adc:	e583200c 	str	r2, [r3, #12]
    2ae0:	e3a00000 	mov	r0, #0
    2ae4:	e34e0650 	movt	r0, #58960	; 0xe650
    2ae8:	eb000864 	bl	4c80 <I2C_masterDisableDMATransmit>
    2aec:	e30030ac 	movw	r3, #172	; 0xac
    2af0:	e34e3630 	movt	r3, #58928	; 0xe630
    2af4:	e3a02001 	mov	r2, #1
    2af8:	e5c32001 	strb	r2, [r3, #1]
    2afc:	e8bd8010 	pop	{r4, pc}

00002b00 <i2c0InterruptHandler>:
    2b00:	e92d4070 	push	{r4, r5, r6, lr}
    2b04:	e3a00000 	mov	r0, #0
    2b08:	e34e0650 	movt	r0, #58960	; 0xe650
    2b0c:	eb000811 	bl	4b58 <I2C_masterGetInterruptStatus>
    2b10:	e1a04000 	mov	r4, r0
    2b14:	e3100001 	tst	r0, #1
    2b18:	1a000011 	bne	2b64 <i2c0InterruptHandler+0x64>
    2b1c:	e3100008 	tst	r0, #8
    2b20:	0a000012 	beq	2b70 <i2c0InterruptHandler+0x70>
    2b24:	e30030ac 	movw	r3, #172	; 0xac
    2b28:	e34e3630 	movt	r3, #58928	; 0xe630
    2b2c:	e5d33002 	ldrb	r3, [r3, #2]
    2b30:	e31300ff 	tst	r3, #255	; 0xff
    2b34:	1a00001a 	bne	2ba4 <i2c0InterruptHandler+0xa4>
    2b38:	e3a03000 	mov	r3, #0
    2b3c:	e34e3735 	movt	r3, #59189	; 0xe735
    2b40:	e3a05001 	mov	r5, #1
    2b44:	e5835060 	str	r5, [r3, #96]	; 0x60
    2b48:	e3a00000 	mov	r0, #0
    2b4c:	e34e0650 	movt	r0, #58960	; 0xe650
    2b50:	eb000846 	bl	4c70 <I2C_masterEnableDMATransmit>
    2b54:	e30030ac 	movw	r3, #172	; 0xac
    2b58:	e34e3630 	movt	r3, #58928	; 0xe630
    2b5c:	e5c35002 	strb	r5, [r3, #2]
    2b60:	ea000002 	b	2b70 <i2c0InterruptHandler+0x70>
    2b64:	e3a00000 	mov	r0, #0
    2b68:	e34e0650 	movt	r0, #58960	; 0xe650
    2b6c:	eb000853 	bl	4cc0 <I2C_masterDisableStartGeneration>
    2b70:	e3140010 	tst	r4, #16
    2b74:	0a000005 	beq	2b90 <i2c0InterruptHandler+0x90>
    2b78:	e30030ac 	movw	r3, #172	; 0xac
    2b7c:	e34e3630 	movt	r3, #58928	; 0xe630
    2b80:	e5d31001 	ldrb	r1, [r3, #1]
    2b84:	e5d32000 	ldrb	r2, [r3]
    2b88:	e0022001 	and	r2, r2, r1
    2b8c:	e5c32003 	strb	r2, [r3, #3]
    2b90:	e1a01004 	mov	r1, r4
    2b94:	e3a00000 	mov	r0, #0
    2b98:	e34e0650 	movt	r0, #58960	; 0xe650
    2b9c:	eb0007f0 	bl	4b64 <I2C_masterClearInterruptStatus>
    2ba0:	e8bd8070 	pop	{r4, r5, r6, pc}
    2ba4:	e3a00000 	mov	r0, #0
    2ba8:	e34e0650 	movt	r0, #58960	; 0xe650
    2bac:	eb0007f7 	bl	4b90 <I2C_masterSendMultipleByteStop>
    2bb0:	eaffffee 	b	2b70 <i2c0InterruptHandler+0x70>

00002bb4 <i2c1InterruptHandler>:
    2bb4:	e92d4010 	push	{r4, lr}
    2bb8:	e3a00902 	mov	r0, #32768	; 0x8000
    2bbc:	e34e0650 	movt	r0, #58960	; 0xe650
    2bc0:	eb0006f9 	bl	47ac <I2C_slaveGetInterruptStatus>
    2bc4:	e1a04000 	mov	r4, r0
    2bc8:	e3100002 	tst	r0, #2
    2bcc:	0a000004 	beq	2be4 <i2c1InterruptHandler+0x30>
    2bd0:	e30030ac 	movw	r3, #172	; 0xac
    2bd4:	e34e3630 	movt	r3, #58928	; 0xe630
    2bd8:	e5d33004 	ldrb	r3, [r3, #4]
    2bdc:	e31300ff 	tst	r3, #255	; 0xff
    2be0:	0a000004 	beq	2bf8 <i2c1InterruptHandler+0x44>
    2be4:	e1a01004 	mov	r1, r4
    2be8:	e3a00902 	mov	r0, #32768	; 0x8000
    2bec:	e34e0650 	movt	r0, #58960	; 0xe650
    2bf0:	eb0006f0 	bl	47b8 <I2C_slaveClearInterruptStatus>
    2bf4:	e8bd8010 	pop	{r4, pc}
    2bf8:	e3a00902 	mov	r0, #32768	; 0x8000
    2bfc:	e34e0650 	movt	r0, #58960	; 0xe650
    2c00:	eb000702 	bl	4810 <I2C_slaveEnableDMAReceive>
    2c04:	e30030ac 	movw	r3, #172	; 0xac
    2c08:	e34e3630 	movt	r3, #58928	; 0xe630
    2c0c:	e3a02001 	mov	r2, #1
    2c10:	e5c32004 	strb	r2, [r3, #4]
    2c14:	eafffff2 	b	2be4 <i2c1InterruptHandler+0x30>

00002c18 <master_tx_dma>:
    2c18:	e92d41f0 	push	{r4, r5, r6, r7, r8, lr}
    2c1c:	e3a01009 	mov	r1, #9
    2c20:	e3020c1c 	movw	r0, #11292	; 0x2c1c
    2c24:	e34e0615 	movt	r0, #58901	; 0xe615
    2c28:	eb000099 	bl	2e94 <CPG_SetBit>
    2c2c:	e3a01009 	mov	r1, #9
    2c30:	e3020c9c 	movw	r0, #11420	; 0x2c9c
    2c34:	e34e0615 	movt	r0, #58901	; 0xe615
    2c38:	eb000095 	bl	2e94 <CPG_SetBit>
    2c3c:	e3066994 	movw	r6, #27028	; 0x6994
    2c40:	e3406000 	movt	r6, #0
    2c44:	e2862004 	add	r2, r6, #4
    2c48:	e3a03000 	mov	r3, #0
    2c4c:	e34e3730 	movt	r3, #59184	; 0xe730
    2c50:	e5832000 	str	r2, [r3]
    2c54:	e3a02024 	mov	r2, #36	; 0x24
    2c58:	e34e2650 	movt	r2, #58960	; 0xe650
    2c5c:	e5832004 	str	r2, [r3, #4]
    2c60:	e5932008 	ldr	r2, [r3, #8]
    2c64:	e3a07001 	mov	r7, #1
    2c68:	e7d72017 	bfi	r2, r7, #0, #24
    2c6c:	e5832008 	str	r2, [r3, #8]
    2c70:	e593200c 	ldr	r2, [r3, #12]
    2c74:	e7cf271f 	bfc	r2, #14, #2
    2c78:	e583200c 	str	r2, [r3, #12]
    2c7c:	e593200c 	ldr	r2, [r3, #12]
    2c80:	e7cd2617 	bfi	r2, r7, #12, #2
    2c84:	e583200c 	str	r2, [r3, #12]
    2c88:	e593200c 	ldr	r2, [r3, #12]
    2c8c:	e3a08008 	mov	r8, #8
    2c90:	e7cb2418 	bfi	r2, r8, #8, #4
    2c94:	e583200c 	str	r2, [r3, #12]
    2c98:	e593200c 	ldr	r2, [r3, #12]
    2c9c:	e7d52a1f 	bfc	r2, #20, #2
    2ca0:	e583200c 	str	r2, [r3, #12]
    2ca4:	e593200c 	ldr	r2, [r3, #12]
    2ca8:	e3a05002 	mov	r5, #2
    2cac:	e7c42195 	bfi	r2, r5, #3, #2
    2cb0:	e583200c 	str	r2, [r3, #12]
    2cb4:	e3a02091 	mov	r2, #145	; 0x91
    2cb8:	e1c324b0 	strh	r2, [r3, #64]	; 0x40
    2cbc:	e593200c 	ldr	r2, [r3, #12]
    2cc0:	e3822004 	orr	r2, r2, #4
    2cc4:	e583200c 	str	r2, [r3, #12]
    2cc8:	e593200c 	ldr	r2, [r3, #12]
    2ccc:	e1822007 	orr	r2, r2, r7
    2cd0:	e583200c 	str	r2, [r3, #12]
    2cd4:	e3a04000 	mov	r4, #0
    2cd8:	e34e4650 	movt	r4, #58960	; 0xe650
    2cdc:	e0861008 	add	r1, r6, r8
    2ce0:	e1a00004 	mov	r0, r4
    2ce4:	eb0006d9 	bl	4850 <I2C_masterInit>
    2ce8:	e3e01000 	mvn	r1, #0
    2cec:	e1a00004 	mov	r0, r4
    2cf0:	eb00079b 	bl	4b64 <I2C_masterClearInterruptStatus>
    2cf4:	e3e01000 	mvn	r1, #0
    2cf8:	e1a00004 	mov	r0, r4
    2cfc:	eb00078d 	bl	4b38 <I2C_masterEnableInterrupt>
    2d00:	e1a00004 	mov	r0, r4
    2d04:	eb000783 	bl	4b18 <I2C_masterEnable>
    2d08:	e3a03a01 	mov	r3, #4096	; 0x1000
    2d0c:	e34e3730 	movt	r3, #59184	; 0xe730
    2d10:	e3082024 	movw	r2, #32804	; 0x8024
    2d14:	e34e2650 	movt	r2, #58960	; 0xe650
    2d18:	e5832000 	str	r2, [r3]
    2d1c:	e59f216c 	ldr	r2, [pc, #364]	; 2e90 <master_tx_dma+0x278>
    2d20:	e5832004 	str	r2, [r3, #4]
    2d24:	e5932008 	ldr	r2, [r3, #8]
    2d28:	e7d72015 	bfi	r2, r5, #0, #24
    2d2c:	e5832008 	str	r2, [r3, #8]
    2d30:	e593200c 	ldr	r2, [r3, #12]
    2d34:	e7cf2717 	bfi	r2, r7, #14, #2
    2d38:	e583200c 	str	r2, [r3, #12]
    2d3c:	e593200c 	ldr	r2, [r3, #12]
    2d40:	e7cd261f 	bfc	r2, #12, #2
    2d44:	e583200c 	str	r2, [r3, #12]
    2d48:	e593200c 	ldr	r2, [r3, #12]
    2d4c:	e7cb2418 	bfi	r2, r8, #8, #4
    2d50:	e583200c 	str	r2, [r3, #12]
    2d54:	e593200c 	ldr	r2, [r3, #12]
    2d58:	e7d52a1f 	bfc	r2, #20, #2
    2d5c:	e583200c 	str	r2, [r3, #12]
    2d60:	e593200c 	ldr	r2, [r3, #12]
    2d64:	e7c42195 	bfi	r2, r5, #3, #2
    2d68:	e583200c 	str	r2, [r3, #12]
    2d6c:	e3a020a2 	mov	r2, #162	; 0xa2
    2d70:	e1c324b0 	strh	r2, [r3, #64]	; 0x40
    2d74:	e593200c 	ldr	r2, [r3, #12]
    2d78:	e3822004 	orr	r2, r2, #4
    2d7c:	e583200c 	str	r2, [r3, #12]
    2d80:	e593200c 	ldr	r2, [r3, #12]
    2d84:	e1822007 	orr	r2, r2, r7
    2d88:	e583200c 	str	r2, [r3, #12]
    2d8c:	e3a05902 	mov	r5, #32768	; 0x8000
    2d90:	e34e5650 	movt	r5, #58960	; 0xe650
    2d94:	e2861010 	add	r1, r6, #16
    2d98:	e1a00005 	mov	r0, r5
    2d9c:	eb0005c2 	bl	44ac <I2C_slaveInit>
    2da0:	e3e01000 	mvn	r1, #0
    2da4:	e1a00005 	mov	r0, r5
    2da8:	eb000682 	bl	47b8 <I2C_slaveClearInterruptStatus>
    2dac:	e3e01000 	mvn	r1, #0
    2db0:	e1a00005 	mov	r0, r5
    2db4:	eb000674 	bl	478c <I2C_slaveEnableInterrupt>
    2db8:	e1a00005 	mov	r0, r5
    2dbc:	eb000668 	bl	4764 <I2C_slaveEnable>
    2dc0:	ebfffa93 	bl	1814 <GIC_enable>
    2dc4:	e3021bb4 	movw	r1, #11188	; 0x2bb4
    2dc8:	e3401000 	movt	r1, #0
    2dcc:	e300010f 	movw	r0, #271	; 0x10f
    2dd0:	ebfffae4 	bl	1968 <GIC_setInterruptHandler>
    2dd4:	e3021b00 	movw	r1, #11008	; 0x2b00
    2dd8:	e3401000 	movt	r1, #0
    2ddc:	e300010e 	movw	r0, #270	; 0x10e
    2de0:	ebfffae0 	bl	1968 <GIC_setInterruptHandler>
    2de4:	e3021aa8 	movw	r1, #10920	; 0x2aa8
    2de8:	e3401000 	movt	r1, #0
    2dec:	e3a00040 	mov	r0, #64	; 0x40
    2df0:	ebfffadc 	bl	1968 <GIC_setInterruptHandler>
    2df4:	e3021a40 	movw	r1, #10816	; 0x2a40
    2df8:	e3401000 	movt	r1, #0
    2dfc:	e3a00041 	mov	r0, #65	; 0x41
    2e00:	ebfffad8 	bl	1968 <GIC_setInterruptHandler>
    2e04:	e300010f 	movw	r0, #271	; 0x10f
    2e08:	ebfffa98 	bl	1870 <GIC_enableInterrupt>
    2e0c:	e300010e 	movw	r0, #270	; 0x10e
    2e10:	ebfffa96 	bl	1870 <GIC_enableInterrupt>
    2e14:	e3a00040 	mov	r0, #64	; 0x40
    2e18:	ebfffa94 	bl	1870 <GIC_enableInterrupt>
    2e1c:	e3a00041 	mov	r0, #65	; 0x41
    2e20:	ebfffa92 	bl	1870 <GIC_enableInterrupt>
    2e24:	e3a010aa 	mov	r1, #170	; 0xaa
    2e28:	e1a00004 	mov	r0, r4
    2e2c:	eb000750 	bl	4b74 <I2C_masterSendMultipleByteStart>
    2e30:	e30020ac 	movw	r2, #172	; 0xac
    2e34:	e34e2630 	movt	r2, #58928	; 0xe630
    2e38:	e5d23003 	ldrb	r3, [r2, #3]
    2e3c:	e31300ff 	tst	r3, #255	; 0xff
    2e40:	0afffffc 	beq	2e38 <master_tx_dma+0x220>
    2e44:	e3a00000 	mov	r0, #0
    2e48:	e34e0650 	movt	r0, #58960	; 0xe650
    2e4c:	eb000735 	bl	4b28 <I2C_masterDisable>
    2e50:	e3a00902 	mov	r0, #32768	; 0x8000
    2e54:	e34e0650 	movt	r0, #58960	; 0xe650
    2e58:	eb000645 	bl	4774 <I2C_slaveDisable>
    2e5c:	e30030ac 	movw	r3, #172	; 0xac
    2e60:	e34e3630 	movt	r3, #58928	; 0xe630
    2e64:	e5d33008 	ldrb	r3, [r3, #8]
    2e68:	e35300aa 	cmp	r3, #170	; 0xaa
    2e6c:	1a000005 	bne	2e88 <master_tx_dma+0x270>
    2e70:	e30030ac 	movw	r3, #172	; 0xac
    2e74:	e34e3630 	movt	r3, #58928	; 0xe630
    2e78:	e5d3000c 	ldrb	r0, [r3, #12]
    2e7c:	e2500055 	subs	r0, r0, #85	; 0x55
    2e80:	13a00001 	movne	r0, #1
    2e84:	e8bd81f0 	pop	{r4, r5, r6, r7, r8, pc}
    2e88:	e3a00001 	mov	r0, #1
    2e8c:	e8bd81f0 	pop	{r4, r5, r6, r7, r8, pc}
    2e90:	e63000b4 	.word	0xe63000b4

00002e94 <CPG_SetBit>:
    2e94:	e5903000 	ldr	r3, [r0]
    2e98:	e3a02001 	mov	r2, #1
    2e9c:	e1831112 	orr	r1, r3, r2, lsl r1
    2ea0:	e1e02001 	mvn	r2, r1
    2ea4:	e3a03000 	mov	r3, #0
    2ea8:	e34e3615 	movt	r3, #58901	; 0xe615
    2eac:	e5832000 	str	r2, [r3]
    2eb0:	e5801000 	str	r1, [r0]
    2eb4:	e12fff1e 	bx	lr

00002eb8 <CPG_ClearBit>:
    2eb8:	e5903000 	ldr	r3, [r0]
    2ebc:	e3a02001 	mov	r2, #1
    2ec0:	e1c31112 	bic	r1, r3, r2, lsl r1
    2ec4:	e1e02001 	mvn	r2, r1
    2ec8:	e3a03000 	mov	r3, #0
    2ecc:	e34e3615 	movt	r3, #58901	; 0xe615
    2ed0:	e5832000 	str	r2, [r3]
    2ed4:	e5801000 	str	r1, [r0]
    2ed8:	e12fff1e 	bx	lr

00002edc <CPG_SetMultipleBit>:
    2edc:	e5903000 	ldr	r3, [r0]
    2ee0:	e1831001 	orr	r1, r3, r1
    2ee4:	e1e02001 	mvn	r2, r1
    2ee8:	e3a03000 	mov	r3, #0
    2eec:	e34e3615 	movt	r3, #58901	; 0xe615
    2ef0:	e5832000 	str	r2, [r3]
    2ef4:	e5801000 	str	r1, [r0]
    2ef8:	e12fff1e 	bx	lr

00002efc <CPG_ClearMultipleBit>:
    2efc:	e5903000 	ldr	r3, [r0]
    2f00:	e1c31001 	bic	r1, r3, r1
    2f04:	e1e02001 	mvn	r2, r1
    2f08:	e3a03000 	mov	r3, #0
    2f0c:	e34e3615 	movt	r3, #58901	; 0xe615
    2f10:	e5832000 	str	r2, [r3]
    2f14:	e5801000 	str	r1, [r0]
    2f18:	e12fff1e 	bx	lr

00002f1c <CPG_WriteAnd>:
    2f1c:	e5903000 	ldr	r3, [r0]
    2f20:	e1833001 	orr	r3, r3, r1
    2f24:	e1e01001 	mvn	r1, r1
    2f28:	e3a02000 	mov	r2, #0
    2f2c:	e34e2615 	movt	r2, #58901	; 0xe615
    2f30:	e5821000 	str	r1, [r2]
    2f34:	e5803000 	str	r3, [r0]
    2f38:	e12fff1e 	bx	lr

00002f3c <CPG_WriteOr>:
    2f3c:	e5903000 	ldr	r3, [r0]
    2f40:	e0033001 	and	r3, r3, r1
    2f44:	e1e01001 	mvn	r1, r1
    2f48:	e3a02000 	mov	r2, #0
    2f4c:	e34e2615 	movt	r2, #58901	; 0xe615
    2f50:	e5821000 	str	r1, [r2]
    2f54:	e5803000 	str	r3, [r0]
    2f58:	e12fff1e 	bx	lr

00002f5c <i2c1InterruptHandler>:
    2f5c:	e92d4070 	push	{r4, r5, r6, lr}
    2f60:	e3a00902 	mov	r0, #32768	; 0x8000
    2f64:	e34e0650 	movt	r0, #58960	; 0xe650
    2f68:	eb00060f 	bl	47ac <I2C_slaveGetInterruptStatus>
    2f6c:	e1a04000 	mov	r4, r0
    2f70:	e3100002 	tst	r0, #2
    2f74:	1a000004 	bne	2f8c <i2c1InterruptHandler+0x30>
    2f78:	e1a01004 	mov	r1, r4
    2f7c:	e3a00902 	mov	r0, #32768	; 0x8000
    2f80:	e34e0650 	movt	r0, #58960	; 0xe650
    2f84:	eb00060b 	bl	47b8 <I2C_slaveClearInterruptStatus>
    2f88:	e8bd8070 	pop	{r4, r5, r6, pc}
    2f8c:	e30050bc 	movw	r5, #188	; 0xbc
    2f90:	e34e5630 	movt	r5, #58928	; 0xe630
    2f94:	e5956000 	ldr	r6, [r5]
    2f98:	e2863001 	add	r3, r6, #1
    2f9c:	e5853000 	str	r3, [r5]
    2fa0:	e3a00902 	mov	r0, #32768	; 0x8000
    2fa4:	e34e0650 	movt	r0, #58960	; 0xe650
    2fa8:	eb00060a 	bl	47d8 <I2C_slaveReceiveMultipleByteNext>
    2fac:	e0855106 	add	r5, r5, r6, lsl #2
    2fb0:	e5850004 	str	r0, [r5, #4]
    2fb4:	eaffffef 	b	2f78 <i2c1InterruptHandler+0x1c>

00002fb8 <i2c0InterruptHandler>:
    2fb8:	e92d4010 	push	{r4, lr}
    2fbc:	e3a00000 	mov	r0, #0
    2fc0:	e34e0650 	movt	r0, #58960	; 0xe650
    2fc4:	eb0006e3 	bl	4b58 <I2C_masterGetInterruptStatus>
    2fc8:	e1a04000 	mov	r4, r0
    2fcc:	e3100001 	tst	r0, #1
    2fd0:	1a00000a 	bne	3000 <i2c0InterruptHandler+0x48>
    2fd4:	e3100008 	tst	r0, #8
    2fd8:	0a00000b 	beq	300c <i2c0InterruptHandler+0x54>
    2fdc:	e30030bc 	movw	r3, #188	; 0xbc
    2fe0:	e34e3630 	movt	r3, #58928	; 0xe630
    2fe4:	e593300c 	ldr	r3, [r3, #12]
    2fe8:	e3530001 	cmp	r3, #1
    2fec:	9a000010 	bls	3034 <i2c0InterruptHandler+0x7c>
    2ff0:	e3a00000 	mov	r0, #0
    2ff4:	e34e0650 	movt	r0, #58960	; 0xe650
    2ff8:	eb0006e4 	bl	4b90 <I2C_masterSendMultipleByteStop>
    2ffc:	ea000002 	b	300c <i2c0InterruptHandler+0x54>
    3000:	e3a00000 	mov	r0, #0
    3004:	e34e0650 	movt	r0, #58960	; 0xe650
    3008:	eb00072c 	bl	4cc0 <I2C_masterDisableStartGeneration>
    300c:	e3140010 	tst	r4, #16
    3010:	130030bc 	movwne	r3, #188	; 0xbc
    3014:	134e3630 	movtne	r3, #58928	; 0xe630
    3018:	13a02001 	movne	r2, #1
    301c:	15c32010 	strbne	r2, [r3, #16]
    3020:	e1a01004 	mov	r1, r4
    3024:	e3a00000 	mov	r0, #0
    3028:	e34e0650 	movt	r0, #58960	; 0xe650
    302c:	eb0006cc 	bl	4b64 <I2C_masterClearInterruptStatus>
    3030:	e8bd8010 	pop	{r4, pc}
    3034:	e30030bc 	movw	r3, #188	; 0xbc
    3038:	e34e3630 	movt	r3, #58928	; 0xe630
    303c:	e593200c 	ldr	r2, [r3, #12]
    3040:	e2821001 	add	r1, r2, #1
    3044:	e583100c 	str	r1, [r3, #12]
    3048:	e30639ac 	movw	r3, #27052	; 0x69ac
    304c:	e3403000 	movt	r3, #0
    3050:	e7931102 	ldr	r1, [r3, r2, lsl #2]
    3054:	e3a00000 	mov	r0, #0
    3058:	e34e0650 	movt	r0, #58960	; 0xe650
    305c:	eb0006c9 	bl	4b88 <I2C_masterSendMultipleByteNext>
    3060:	eaffffe9 	b	300c <i2c0InterruptHandler+0x54>

00003064 <master_tx_fsb>:
    3064:	e92d4070 	push	{r4, r5, r6, lr}
    3068:	e30659ac 	movw	r5, #27052	; 0x69ac
    306c:	e3405000 	movt	r5, #0
    3070:	e3a04000 	mov	r4, #0
    3074:	e34e4650 	movt	r4, #58960	; 0xe650
    3078:	e2851008 	add	r1, r5, #8
    307c:	e1a00004 	mov	r0, r4
    3080:	eb0005f2 	bl	4850 <I2C_masterInit>
    3084:	e3e01000 	mvn	r1, #0
    3088:	e1a00004 	mov	r0, r4
    308c:	eb0006b4 	bl	4b64 <I2C_masterClearInterruptStatus>
    3090:	e3a01019 	mov	r1, #25
    3094:	e1a00004 	mov	r0, r4
    3098:	eb0006a6 	bl	4b38 <I2C_masterEnableInterrupt>
    309c:	e1a00004 	mov	r0, r4
    30a0:	eb00069c 	bl	4b18 <I2C_masterEnable>
    30a4:	e3a06902 	mov	r6, #32768	; 0x8000
    30a8:	e34e6650 	movt	r6, #58960	; 0xe650
    30ac:	e2851010 	add	r1, r5, #16
    30b0:	e1a00006 	mov	r0, r6
    30b4:	eb0004fc 	bl	44ac <I2C_slaveInit>
    30b8:	e3e01000 	mvn	r1, #0
    30bc:	e1a00006 	mov	r0, r6
    30c0:	eb0005bc 	bl	47b8 <I2C_slaveClearInterruptStatus>
    30c4:	e3a01013 	mov	r1, #19
    30c8:	e1a00006 	mov	r0, r6
    30cc:	eb0005ae 	bl	478c <I2C_slaveEnableInterrupt>
    30d0:	e1a00006 	mov	r0, r6
    30d4:	eb0005a2 	bl	4764 <I2C_slaveEnable>
    30d8:	ebfff9cd 	bl	1814 <GIC_enable>
    30dc:	e3021fb8 	movw	r1, #12216	; 0x2fb8
    30e0:	e3401000 	movt	r1, #0
    30e4:	e300010e 	movw	r0, #270	; 0x10e
    30e8:	ebfffa1e 	bl	1968 <GIC_setInterruptHandler>
    30ec:	e3021f5c 	movw	r1, #12124	; 0x2f5c
    30f0:	e3401000 	movt	r1, #0
    30f4:	e300010f 	movw	r0, #271	; 0x10f
    30f8:	ebfffa1a 	bl	1968 <GIC_setInterruptHandler>
    30fc:	e300010e 	movw	r0, #270	; 0x10e
    3100:	ebfff9da 	bl	1870 <GIC_enableInterrupt>
    3104:	e300010f 	movw	r0, #271	; 0x10f
    3108:	ebfff9d8 	bl	1870 <GIC_enableInterrupt>
    310c:	e30030bc 	movw	r3, #188	; 0xbc
    3110:	e34e3630 	movt	r3, #58928	; 0xe630
    3114:	e593200c 	ldr	r2, [r3, #12]
    3118:	e2821001 	add	r1, r2, #1
    311c:	e583100c 	str	r1, [r3, #12]
    3120:	e7951102 	ldr	r1, [r5, r2, lsl #2]
    3124:	e1a00004 	mov	r0, r4
    3128:	eb000691 	bl	4b74 <I2C_masterSendMultipleByteStart>
    312c:	e30020bc 	movw	r2, #188	; 0xbc
    3130:	e34e2630 	movt	r2, #58928	; 0xe630
    3134:	e5d23010 	ldrb	r3, [r2, #16]
    3138:	e31300ff 	tst	r3, #255	; 0xff
    313c:	0afffffc 	beq	3134 <master_tx_fsb+0xd0>
    3140:	e30030bc 	movw	r3, #188	; 0xbc
    3144:	e34e3630 	movt	r3, #58928	; 0xe630
    3148:	e5933004 	ldr	r3, [r3, #4]
    314c:	e35300aa 	cmp	r3, #170	; 0xaa
    3150:	1a000005 	bne	316c <master_tx_fsb+0x108>
    3154:	e30030bc 	movw	r3, #188	; 0xbc
    3158:	e34e3630 	movt	r3, #58928	; 0xe630
    315c:	e5930008 	ldr	r0, [r3, #8]
    3160:	e2500055 	subs	r0, r0, #85	; 0x55
    3164:	13a00001 	movne	r0, #1
    3168:	e8bd8070 	pop	{r4, r5, r6, pc}
    316c:	e3a00001 	mov	r0, #1
    3170:	e8bd8070 	pop	{r4, r5, r6, pc}

00003174 <i2c1InterruptHandler>:
    3174:	e92d41f0 	push	{r4, r5, r6, r7, r8, lr}
    3178:	e3a00902 	mov	r0, #32768	; 0x8000
    317c:	e34e0650 	movt	r0, #58960	; 0xe650
    3180:	eb000589 	bl	47ac <I2C_slaveGetInterruptStatus>
    3184:	e1a04000 	mov	r4, r0
    3188:	e3100002 	tst	r0, #2
    318c:	1a000006 	bne	31ac <i2c1InterruptHandler+0x38>
    3190:	e3140008 	tst	r4, #8
    3194:	1a000018 	bne	31fc <i2c1InterruptHandler+0x88>
    3198:	e1a01004 	mov	r1, r4
    319c:	e3a00902 	mov	r0, #32768	; 0x8000
    31a0:	e34e0650 	movt	r0, #58960	; 0xe650
    31a4:	eb000583 	bl	47b8 <I2C_slaveClearInterruptStatus>
    31a8:	e8bd81f0 	pop	{r4, r5, r6, r7, r8, pc}
    31ac:	e30050d0 	movw	r5, #208	; 0xd0
    31b0:	e34e5630 	movt	r5, #58928	; 0xe630
    31b4:	e5956000 	ldr	r6, [r5]
    31b8:	e2863001 	add	r3, r6, #1
    31bc:	e5853000 	str	r3, [r5]
    31c0:	e3a07902 	mov	r7, #32768	; 0x8000
    31c4:	e34e7650 	movt	r7, #58960	; 0xe650
    31c8:	e1a00007 	mov	r0, r7
    31cc:	eb000581 	bl	47d8 <I2C_slaveReceiveMultipleByteNext>
    31d0:	e0856106 	add	r6, r5, r6, lsl #2
    31d4:	e5860004 	str	r0, [r6, #4]
    31d8:	e595200c 	ldr	r2, [r5, #12]
    31dc:	e2823001 	add	r3, r2, #1
    31e0:	e585300c 	str	r3, [r5, #12]
    31e4:	e30639c4 	movw	r3, #27076	; 0x69c4
    31e8:	e3403000 	movt	r3, #0
    31ec:	e7d31102 	ldrb	r1, [r3, r2, lsl #2]
    31f0:	e1a00007 	mov	r0, r7
    31f4:	eb000583 	bl	4808 <I2C_slaveSetData>
    31f8:	eaffffe4 	b	3190 <i2c1InterruptHandler+0x1c>
    31fc:	e30030d0 	movw	r3, #208	; 0xd0
    3200:	e34e3630 	movt	r3, #58928	; 0xe630
    3204:	e593200c 	ldr	r2, [r3, #12]
    3208:	e2821001 	add	r1, r2, #1
    320c:	e583100c 	str	r1, [r3, #12]
    3210:	e30639c4 	movw	r3, #27076	; 0x69c4
    3214:	e3403000 	movt	r3, #0
    3218:	e7d31102 	ldrb	r1, [r3, r2, lsl #2]
    321c:	e3a00902 	mov	r0, #32768	; 0x8000
    3220:	e34e0650 	movt	r0, #58960	; 0xe650
    3224:	eb000577 	bl	4808 <I2C_slaveSetData>
    3228:	eaffffda 	b	3198 <i2c1InterruptHandler+0x24>

0000322c <i2c0InterruptHandler>:
    322c:	e92d4070 	push	{r4, r5, r6, lr}
    3230:	e3a00000 	mov	r0, #0
    3234:	e34e0650 	movt	r0, #58960	; 0xe650
    3238:	eb000646 	bl	4b58 <I2C_masterGetInterruptStatus>
    323c:	e1a04000 	mov	r4, r0
    3240:	e3100001 	tst	r0, #1
    3244:	1a000017 	bne	32a8 <i2c0InterruptHandler+0x7c>
    3248:	e3100002 	tst	r0, #2
    324c:	0a000018 	beq	32b4 <i2c0InterruptHandler+0x88>
    3250:	e30030d0 	movw	r3, #208	; 0xd0
    3254:	e34e3630 	movt	r3, #58928	; 0xe630
    3258:	e5932000 	ldr	r2, [r3]
    325c:	e5933000 	ldr	r3, [r3]
    3260:	e3530000 	cmp	r3, #0
    3264:	0a00001e 	beq	32e4 <i2c0InterruptHandler+0xb8>
    3268:	e30030d0 	movw	r3, #208	; 0xd0
    326c:	e34e3630 	movt	r3, #58928	; 0xe630
    3270:	e5933000 	ldr	r3, [r3]
    3274:	e3530001 	cmp	r3, #1
    3278:	1a00000d 	bne	32b4 <i2c0InterruptHandler+0x88>
    327c:	e30050d0 	movw	r5, #208	; 0xd0
    3280:	e34e5630 	movt	r5, #58928	; 0xe630
    3284:	e5956000 	ldr	r6, [r5]
    3288:	e2863001 	add	r3, r6, #1
    328c:	e5853000 	str	r3, [r5]
    3290:	e3a00000 	mov	r0, #0
    3294:	e34e0650 	movt	r0, #58960	; 0xe650
    3298:	eb00064d 	bl	4bd4 <I2C_masterReceiveMultipleByteFinish>
    329c:	e0855106 	add	r5, r5, r6, lsl #2
    32a0:	e5850004 	str	r0, [r5, #4]
    32a4:	ea000002 	b	32b4 <i2c0InterruptHandler+0x88>
    32a8:	e3a00000 	mov	r0, #0
    32ac:	e34e0650 	movt	r0, #58960	; 0xe650
    32b0:	eb000682 	bl	4cc0 <I2C_masterDisableStartGeneration>
    32b4:	e3140008 	tst	r4, #8
    32b8:	1a000014 	bne	3310 <i2c0InterruptHandler+0xe4>
    32bc:	e3140010 	tst	r4, #16
    32c0:	130030d0 	movwne	r3, #208	; 0xd0
    32c4:	134e3630 	movtne	r3, #58928	; 0xe630
    32c8:	13a02001 	movne	r2, #1
    32cc:	15c32010 	strbne	r2, [r3, #16]
    32d0:	e1a01004 	mov	r1, r4
    32d4:	e3a00000 	mov	r0, #0
    32d8:	e34e0650 	movt	r0, #58960	; 0xe650
    32dc:	eb000620 	bl	4b64 <I2C_masterClearInterruptStatus>
    32e0:	e8bd8070 	pop	{r4, r5, r6, pc}
    32e4:	e30050d0 	movw	r5, #208	; 0xd0
    32e8:	e34e5630 	movt	r5, #58928	; 0xe630
    32ec:	e5956000 	ldr	r6, [r5]
    32f0:	e2863001 	add	r3, r6, #1
    32f4:	e5853000 	str	r3, [r5]
    32f8:	e3a00000 	mov	r0, #0
    32fc:	e34e0650 	movt	r0, #58960	; 0xe650
    3300:	eb00062d 	bl	4bbc <I2C_masterReceiveMultipleByteStop>
    3304:	e0855106 	add	r5, r5, r6, lsl #2
    3308:	e5850004 	str	r0, [r5, #4]
    330c:	eaffffe8 	b	32b4 <i2c0InterruptHandler+0x88>
    3310:	e3a02001 	mov	r2, #1
    3314:	e3a01051 	mov	r1, #81	; 0x51
    3318:	e3a00000 	mov	r0, #0
    331c:	e34e0650 	movt	r0, #58960	; 0xe650
    3320:	eb00065a 	bl	4c90 <I2C_masterRestart>
    3324:	eaffffe4 	b	32bc <i2c0InterruptHandler+0x90>

00003328 <master_tx_rpt_master_rx>:
    3328:	e92d4070 	push	{r4, r5, r6, lr}
    332c:	e30659c4 	movw	r5, #27076	; 0x69c4
    3330:	e3405000 	movt	r5, #0
    3334:	e3a04000 	mov	r4, #0
    3338:	e34e4650 	movt	r4, #58960	; 0xe650
    333c:	e2851008 	add	r1, r5, #8
    3340:	e1a00004 	mov	r0, r4
    3344:	eb000541 	bl	4850 <I2C_masterInit>
    3348:	e3e01000 	mvn	r1, #0
    334c:	e1a00004 	mov	r0, r4
    3350:	eb000603 	bl	4b64 <I2C_masterClearInterruptStatus>
    3354:	e3a0101b 	mov	r1, #27
    3358:	e1a00004 	mov	r0, r4
    335c:	eb0005f5 	bl	4b38 <I2C_masterEnableInterrupt>
    3360:	e1a00004 	mov	r0, r4
    3364:	eb0005eb 	bl	4b18 <I2C_masterEnable>
    3368:	e3a06902 	mov	r6, #32768	; 0x8000
    336c:	e34e6650 	movt	r6, #58960	; 0xe650
    3370:	e2851010 	add	r1, r5, #16
    3374:	e1a00006 	mov	r0, r6
    3378:	eb00044b 	bl	44ac <I2C_slaveInit>
    337c:	e3e01000 	mvn	r1, #0
    3380:	e1a00006 	mov	r0, r6
    3384:	eb00050b 	bl	47b8 <I2C_slaveClearInterruptStatus>
    3388:	e3a0101b 	mov	r1, #27
    338c:	e1a00006 	mov	r0, r6
    3390:	eb0004fd 	bl	478c <I2C_slaveEnableInterrupt>
    3394:	e1a00006 	mov	r0, r6
    3398:	eb0004f1 	bl	4764 <I2C_slaveEnable>
    339c:	ebfff91c 	bl	1814 <GIC_enable>
    33a0:	e303122c 	movw	r1, #12844	; 0x322c
    33a4:	e3401000 	movt	r1, #0
    33a8:	e300010e 	movw	r0, #270	; 0x10e
    33ac:	ebfff96d 	bl	1968 <GIC_setInterruptHandler>
    33b0:	e3031174 	movw	r1, #12660	; 0x3174
    33b4:	e3401000 	movt	r1, #0
    33b8:	e300010f 	movw	r0, #271	; 0x10f
    33bc:	ebfff969 	bl	1968 <GIC_setInterruptHandler>
    33c0:	e300010e 	movw	r0, #270	; 0x10e
    33c4:	ebfff929 	bl	1870 <GIC_enableInterrupt>
    33c8:	e300010f 	movw	r0, #271	; 0x10f
    33cc:	ebfff927 	bl	1870 <GIC_enableInterrupt>
    33d0:	e30030d0 	movw	r3, #208	; 0xd0
    33d4:	e34e3630 	movt	r3, #58928	; 0xe630
    33d8:	e593200c 	ldr	r2, [r3, #12]
    33dc:	e2821001 	add	r1, r2, #1
    33e0:	e583100c 	str	r1, [r3, #12]
    33e4:	e7951102 	ldr	r1, [r5, r2, lsl #2]
    33e8:	e1a00004 	mov	r0, r4
    33ec:	eb0005e0 	bl	4b74 <I2C_masterSendMultipleByteStart>
    33f0:	e30020d0 	movw	r2, #208	; 0xd0
    33f4:	e34e2630 	movt	r2, #58928	; 0xe630
    33f8:	e5d23010 	ldrb	r3, [r2, #16]
    33fc:	e31300ff 	tst	r3, #255	; 0xff
    3400:	0afffffc 	beq	33f8 <master_tx_rpt_master_rx+0xd0>
    3404:	e30030d0 	movw	r3, #208	; 0xd0
    3408:	e34e3630 	movt	r3, #58928	; 0xe630
    340c:	e5933004 	ldr	r3, [r3, #4]
    3410:	e35300aa 	cmp	r3, #170	; 0xaa
    3414:	1a000005 	bne	3430 <master_tx_rpt_master_rx+0x108>
    3418:	e30030d0 	movw	r3, #208	; 0xd0
    341c:	e34e3630 	movt	r3, #58928	; 0xe630
    3420:	e5930008 	ldr	r0, [r3, #8]
    3424:	e2500055 	subs	r0, r0, #85	; 0x55
    3428:	13a00001 	movne	r0, #1
    342c:	e8bd8070 	pop	{r4, r5, r6, pc}
    3430:	e3a00001 	mov	r0, #1
    3434:	e8bd8070 	pop	{r4, r5, r6, pc}

00003438 <i2c1InterruptHandler>:
    3438:	e92d4070 	push	{r4, r5, r6, lr}
    343c:	e3a00902 	mov	r0, #32768	; 0x8000
    3440:	e34e0650 	movt	r0, #58960	; 0xe650
    3444:	eb0004d8 	bl	47ac <I2C_slaveGetInterruptStatus>
    3448:	e1a04000 	mov	r4, r0
    344c:	e3100002 	tst	r0, #2
    3450:	0a00000a 	beq	3480 <i2c1InterruptHandler+0x48>
    3454:	e30030e4 	movw	r3, #228	; 0xe4
    3458:	e34e3630 	movt	r3, #58928	; 0xe630
    345c:	e5932000 	ldr	r2, [r3]
    3460:	e5933000 	ldr	r3, [r3]
    3464:	e3530000 	cmp	r3, #0
    3468:	0a000009 	beq	3494 <i2c1InterruptHandler+0x5c>
    346c:	e30030e4 	movw	r3, #228	; 0xe4
    3470:	e34e3630 	movt	r3, #58928	; 0xe630
    3474:	e5933000 	ldr	r3, [r3]
    3478:	e3530001 	cmp	r3, #1
    347c:	0a00000f 	beq	34c0 <i2c1InterruptHandler+0x88>
    3480:	e1a01004 	mov	r1, r4
    3484:	e3a00902 	mov	r0, #32768	; 0x8000
    3488:	e34e0650 	movt	r0, #58960	; 0xe650
    348c:	eb0004c9 	bl	47b8 <I2C_slaveClearInterruptStatus>
    3490:	e8bd8070 	pop	{r4, r5, r6, pc}
    3494:	e30050e4 	movw	r5, #228	; 0xe4
    3498:	e34e5630 	movt	r5, #58928	; 0xe630
    349c:	e5956000 	ldr	r6, [r5]
    34a0:	e2863001 	add	r3, r6, #1
    34a4:	e5853000 	str	r3, [r5]
    34a8:	e3a00902 	mov	r0, #32768	; 0x8000
    34ac:	e34e0650 	movt	r0, #58960	; 0xe650
    34b0:	eb0004cb 	bl	47e4 <I2C_slaveReceiveMultipleByteStop>
    34b4:	e0855106 	add	r5, r5, r6, lsl #2
    34b8:	e5850004 	str	r0, [r5, #4]
    34bc:	eaffffef 	b	3480 <i2c1InterruptHandler+0x48>
    34c0:	e30050e4 	movw	r5, #228	; 0xe4
    34c4:	e34e5630 	movt	r5, #58928	; 0xe630
    34c8:	e5956000 	ldr	r6, [r5]
    34cc:	e2863001 	add	r3, r6, #1
    34d0:	e5853000 	str	r3, [r5]
    34d4:	e3a00902 	mov	r0, #32768	; 0x8000
    34d8:	e34e0650 	movt	r0, #58960	; 0xe650
    34dc:	eb0004c6 	bl	47fc <I2C_slaveReceiveMultipleByteFinish>
    34e0:	e0855106 	add	r5, r5, r6, lsl #2
    34e4:	e5850004 	str	r0, [r5, #4]
    34e8:	eaffffe4 	b	3480 <i2c1InterruptHandler+0x48>

000034ec <i2c0InterruptHandler>:
    34ec:	e92d4010 	push	{r4, lr}
    34f0:	e3a00000 	mov	r0, #0
    34f4:	e34e0650 	movt	r0, #58960	; 0xe650
    34f8:	eb000596 	bl	4b58 <I2C_masterGetInterruptStatus>
    34fc:	e1a04000 	mov	r4, r0
    3500:	e3100001 	tst	r0, #1
    3504:	1a00000b 	bne	3538 <i2c0InterruptHandler+0x4c>
    3508:	e3100008 	tst	r0, #8
    350c:	1a00000d 	bne	3548 <i2c0InterruptHandler+0x5c>
    3510:	e3140010 	tst	r4, #16
    3514:	130030e4 	movwne	r3, #228	; 0xe4
    3518:	134e3630 	movtne	r3, #58928	; 0xe630
    351c:	13a02001 	movne	r2, #1
    3520:	15c32010 	strbne	r2, [r3, #16]
    3524:	e1a01004 	mov	r1, r4
    3528:	e3a00000 	mov	r0, #0
    352c:	e34e0650 	movt	r0, #58960	; 0xe650
    3530:	eb00058b 	bl	4b64 <I2C_masterClearInterruptStatus>
    3534:	e8bd8010 	pop	{r4, pc}
    3538:	e3a00000 	mov	r0, #0
    353c:	e34e0650 	movt	r0, #58960	; 0xe650
    3540:	eb0005de 	bl	4cc0 <I2C_masterDisableStartGeneration>
    3544:	eafffff1 	b	3510 <i2c0InterruptHandler+0x24>
    3548:	e30030e4 	movw	r3, #228	; 0xe4
    354c:	e34e3630 	movt	r3, #58928	; 0xe630
    3550:	e593200c 	ldr	r2, [r3, #12]
    3554:	e2821001 	add	r1, r2, #1
    3558:	e583100c 	str	r1, [r3, #12]
    355c:	e30639dc 	movw	r3, #27100	; 0x69dc
    3560:	e3403000 	movt	r3, #0
    3564:	e7931102 	ldr	r1, [r3, r2, lsl #2]
    3568:	e3a00000 	mov	r0, #0
    356c:	e34e0650 	movt	r0, #58960	; 0xe650
    3570:	eb000584 	bl	4b88 <I2C_masterSendMultipleByteNext>
    3574:	eaffffe5 	b	3510 <i2c0InterruptHandler+0x24>

00003578 <master_tx_200kHz>:
    3578:	e92d4070 	push	{r4, r5, r6, lr}
    357c:	e30659dc 	movw	r5, #27100	; 0x69dc
    3580:	e3405000 	movt	r5, #0
    3584:	e3a04000 	mov	r4, #0
    3588:	e34e4650 	movt	r4, #58960	; 0xe650
    358c:	e2851008 	add	r1, r5, #8
    3590:	e1a00004 	mov	r0, r4
    3594:	eb0004ad 	bl	4850 <I2C_masterInit>
    3598:	e3e01000 	mvn	r1, #0
    359c:	e1a00004 	mov	r0, r4
    35a0:	eb00056f 	bl	4b64 <I2C_masterClearInterruptStatus>
    35a4:	e3a01019 	mov	r1, #25
    35a8:	e1a00004 	mov	r0, r4
    35ac:	eb000561 	bl	4b38 <I2C_masterEnableInterrupt>
    35b0:	e1a00004 	mov	r0, r4
    35b4:	eb000557 	bl	4b18 <I2C_masterEnable>
    35b8:	e3a06902 	mov	r6, #32768	; 0x8000
    35bc:	e34e6650 	movt	r6, #58960	; 0xe650
    35c0:	e2851010 	add	r1, r5, #16
    35c4:	e1a00006 	mov	r0, r6
    35c8:	eb0003b7 	bl	44ac <I2C_slaveInit>
    35cc:	e3e01000 	mvn	r1, #0
    35d0:	e1a00006 	mov	r0, r6
    35d4:	eb000477 	bl	47b8 <I2C_slaveClearInterruptStatus>
    35d8:	e3a01013 	mov	r1, #19
    35dc:	e1a00006 	mov	r0, r6
    35e0:	eb000469 	bl	478c <I2C_slaveEnableInterrupt>
    35e4:	e1a00006 	mov	r0, r6
    35e8:	eb00045d 	bl	4764 <I2C_slaveEnable>
    35ec:	ebfff888 	bl	1814 <GIC_enable>
    35f0:	e30314ec 	movw	r1, #13548	; 0x34ec
    35f4:	e3401000 	movt	r1, #0
    35f8:	e300010e 	movw	r0, #270	; 0x10e
    35fc:	ebfff8d9 	bl	1968 <GIC_setInterruptHandler>
    3600:	e3031438 	movw	r1, #13368	; 0x3438
    3604:	e3401000 	movt	r1, #0
    3608:	e300010f 	movw	r0, #271	; 0x10f
    360c:	ebfff8d5 	bl	1968 <GIC_setInterruptHandler>
    3610:	e300010e 	movw	r0, #270	; 0x10e
    3614:	ebfff895 	bl	1870 <GIC_enableInterrupt>
    3618:	e300010f 	movw	r0, #271	; 0x10f
    361c:	ebfff893 	bl	1870 <GIC_enableInterrupt>
    3620:	e30030e4 	movw	r3, #228	; 0xe4
    3624:	e34e3630 	movt	r3, #58928	; 0xe630
    3628:	e593200c 	ldr	r2, [r3, #12]
    362c:	e2821001 	add	r1, r2, #1
    3630:	e583100c 	str	r1, [r3, #12]
    3634:	e7951102 	ldr	r1, [r5, r2, lsl #2]
    3638:	e1a00004 	mov	r0, r4
    363c:	eb00054c 	bl	4b74 <I2C_masterSendMultipleByteStart>
    3640:	e30020e4 	movw	r2, #228	; 0xe4
    3644:	e34e2630 	movt	r2, #58928	; 0xe630
    3648:	e5d23010 	ldrb	r3, [r2, #16]
    364c:	e31300ff 	tst	r3, #255	; 0xff
    3650:	0afffffc 	beq	3648 <master_tx_200kHz+0xd0>
    3654:	e30030e4 	movw	r3, #228	; 0xe4
    3658:	e34e3630 	movt	r3, #58928	; 0xe630
    365c:	e5933004 	ldr	r3, [r3, #4]
    3660:	e35300aa 	cmp	r3, #170	; 0xaa
    3664:	1a000005 	bne	3680 <master_tx_200kHz+0x108>
    3668:	e30030e4 	movw	r3, #228	; 0xe4
    366c:	e34e3630 	movt	r3, #58928	; 0xe630
    3670:	e5930008 	ldr	r0, [r3, #8]
    3674:	e2500055 	subs	r0, r0, #85	; 0x55
    3678:	13a00001 	movne	r0, #1
    367c:	e8bd8070 	pop	{r4, r5, r6, pc}
    3680:	e3a00001 	mov	r0, #1
    3684:	e8bd8070 	pop	{r4, r5, r6, pc}

00003688 <i2c1InterruptHandler>:
    3688:	e92d4070 	push	{r4, r5, r6, lr}
    368c:	e3a00902 	mov	r0, #32768	; 0x8000
    3690:	e34e0650 	movt	r0, #58960	; 0xe650
    3694:	eb000444 	bl	47ac <I2C_slaveGetInterruptStatus>
    3698:	e1a04000 	mov	r4, r0
    369c:	e3100002 	tst	r0, #2
    36a0:	0a00000a 	beq	36d0 <i2c1InterruptHandler+0x48>
    36a4:	e30030f8 	movw	r3, #248	; 0xf8
    36a8:	e34e3630 	movt	r3, #58928	; 0xe630
    36ac:	e5932000 	ldr	r2, [r3]
    36b0:	e5933000 	ldr	r3, [r3]
    36b4:	e3530000 	cmp	r3, #0
    36b8:	0a000009 	beq	36e4 <i2c1InterruptHandler+0x5c>
    36bc:	e30030f8 	movw	r3, #248	; 0xf8
    36c0:	e34e3630 	movt	r3, #58928	; 0xe630
    36c4:	e5933000 	ldr	r3, [r3]
    36c8:	e3530001 	cmp	r3, #1
    36cc:	0a00000f 	beq	3710 <i2c1InterruptHandler+0x88>
    36d0:	e1a01004 	mov	r1, r4
    36d4:	e3a00902 	mov	r0, #32768	; 0x8000
    36d8:	e34e0650 	movt	r0, #58960	; 0xe650
    36dc:	eb000435 	bl	47b8 <I2C_slaveClearInterruptStatus>
    36e0:	e8bd8070 	pop	{r4, r5, r6, pc}
    36e4:	e30050f8 	movw	r5, #248	; 0xf8
    36e8:	e34e5630 	movt	r5, #58928	; 0xe630
    36ec:	e5956000 	ldr	r6, [r5]
    36f0:	e2863001 	add	r3, r6, #1
    36f4:	e5853000 	str	r3, [r5]
    36f8:	e3a00902 	mov	r0, #32768	; 0x8000
    36fc:	e34e0650 	movt	r0, #58960	; 0xe650
    3700:	eb000437 	bl	47e4 <I2C_slaveReceiveMultipleByteStop>
    3704:	e0855106 	add	r5, r5, r6, lsl #2
    3708:	e5850004 	str	r0, [r5, #4]
    370c:	eaffffef 	b	36d0 <i2c1InterruptHandler+0x48>
    3710:	e30050f8 	movw	r5, #248	; 0xf8
    3714:	e34e5630 	movt	r5, #58928	; 0xe630
    3718:	e5956000 	ldr	r6, [r5]
    371c:	e2863001 	add	r3, r6, #1
    3720:	e5853000 	str	r3, [r5]
    3724:	e3a00902 	mov	r0, #32768	; 0x8000
    3728:	e34e0650 	movt	r0, #58960	; 0xe650
    372c:	eb000432 	bl	47fc <I2C_slaveReceiveMultipleByteFinish>
    3730:	e0855106 	add	r5, r5, r6, lsl #2
    3734:	e5850004 	str	r0, [r5, #4]
    3738:	eaffffe4 	b	36d0 <i2c1InterruptHandler+0x48>

0000373c <i2c0InterruptHandler>:
    373c:	e92d4010 	push	{r4, lr}
    3740:	e3a00000 	mov	r0, #0
    3744:	e34e0650 	movt	r0, #58960	; 0xe650
    3748:	eb000502 	bl	4b58 <I2C_masterGetInterruptStatus>
    374c:	e1a04000 	mov	r4, r0
    3750:	e3100001 	tst	r0, #1
    3754:	1a00000b 	bne	3788 <i2c0InterruptHandler+0x4c>
    3758:	e3100008 	tst	r0, #8
    375c:	1a00000d 	bne	3798 <i2c0InterruptHandler+0x5c>
    3760:	e3140010 	tst	r4, #16
    3764:	130030f8 	movwne	r3, #248	; 0xf8
    3768:	134e3630 	movtne	r3, #58928	; 0xe630
    376c:	13a02001 	movne	r2, #1
    3770:	15c32010 	strbne	r2, [r3, #16]
    3774:	e1a01004 	mov	r1, r4
    3778:	e3a00000 	mov	r0, #0
    377c:	e34e0650 	movt	r0, #58960	; 0xe650
    3780:	eb0004f7 	bl	4b64 <I2C_masterClearInterruptStatus>
    3784:	e8bd8010 	pop	{r4, pc}
    3788:	e3a00000 	mov	r0, #0
    378c:	e34e0650 	movt	r0, #58960	; 0xe650
    3790:	eb00054a 	bl	4cc0 <I2C_masterDisableStartGeneration>
    3794:	eafffff1 	b	3760 <i2c0InterruptHandler+0x24>
    3798:	e30030f8 	movw	r3, #248	; 0xf8
    379c:	e34e3630 	movt	r3, #58928	; 0xe630
    37a0:	e593200c 	ldr	r2, [r3, #12]
    37a4:	e2821001 	add	r1, r2, #1
    37a8:	e583100c 	str	r1, [r3, #12]
    37ac:	e30639f4 	movw	r3, #27124	; 0x69f4
    37b0:	e3403000 	movt	r3, #0
    37b4:	e7931102 	ldr	r1, [r3, r2, lsl #2]
    37b8:	e3a00000 	mov	r0, #0
    37bc:	e34e0650 	movt	r0, #58960	; 0xe650
    37c0:	eb0004f0 	bl	4b88 <I2C_masterSendMultipleByteNext>
    37c4:	eaffffe5 	b	3760 <i2c0InterruptHandler+0x24>

000037c8 <master_tx_200kHz_var_duty>:
    37c8:	e92d4070 	push	{r4, r5, r6, lr}
    37cc:	e30659f4 	movw	r5, #27124	; 0x69f4
    37d0:	e3405000 	movt	r5, #0
    37d4:	e3a04000 	mov	r4, #0
    37d8:	e34e4650 	movt	r4, #58960	; 0xe650
    37dc:	e2851008 	add	r1, r5, #8
    37e0:	e1a00004 	mov	r0, r4
    37e4:	eb000419 	bl	4850 <I2C_masterInit>
    37e8:	e3e01000 	mvn	r1, #0
    37ec:	e1a00004 	mov	r0, r4
    37f0:	eb0004db 	bl	4b64 <I2C_masterClearInterruptStatus>
    37f4:	e3a01019 	mov	r1, #25
    37f8:	e1a00004 	mov	r0, r4
    37fc:	eb0004cd 	bl	4b38 <I2C_masterEnableInterrupt>
    3800:	e1a00004 	mov	r0, r4
    3804:	eb0004c3 	bl	4b18 <I2C_masterEnable>
    3808:	e3a06902 	mov	r6, #32768	; 0x8000
    380c:	e34e6650 	movt	r6, #58960	; 0xe650
    3810:	e2851010 	add	r1, r5, #16
    3814:	e1a00006 	mov	r0, r6
    3818:	eb000323 	bl	44ac <I2C_slaveInit>
    381c:	e3e01000 	mvn	r1, #0
    3820:	e1a00006 	mov	r0, r6
    3824:	eb0003e3 	bl	47b8 <I2C_slaveClearInterruptStatus>
    3828:	e3a01013 	mov	r1, #19
    382c:	e1a00006 	mov	r0, r6
    3830:	eb0003d5 	bl	478c <I2C_slaveEnableInterrupt>
    3834:	e1a00006 	mov	r0, r6
    3838:	eb0003c9 	bl	4764 <I2C_slaveEnable>
    383c:	ebfff7f4 	bl	1814 <GIC_enable>
    3840:	e303173c 	movw	r1, #14140	; 0x373c
    3844:	e3401000 	movt	r1, #0
    3848:	e300010e 	movw	r0, #270	; 0x10e
    384c:	ebfff845 	bl	1968 <GIC_setInterruptHandler>
    3850:	e3031688 	movw	r1, #13960	; 0x3688
    3854:	e3401000 	movt	r1, #0
    3858:	e300010f 	movw	r0, #271	; 0x10f
    385c:	ebfff841 	bl	1968 <GIC_setInterruptHandler>
    3860:	e300010e 	movw	r0, #270	; 0x10e
    3864:	ebfff801 	bl	1870 <GIC_enableInterrupt>
    3868:	e300010f 	movw	r0, #271	; 0x10f
    386c:	ebfff7ff 	bl	1870 <GIC_enableInterrupt>
    3870:	e30030f8 	movw	r3, #248	; 0xf8
    3874:	e34e3630 	movt	r3, #58928	; 0xe630
    3878:	e593200c 	ldr	r2, [r3, #12]
    387c:	e2821001 	add	r1, r2, #1
    3880:	e583100c 	str	r1, [r3, #12]
    3884:	e7951102 	ldr	r1, [r5, r2, lsl #2]
    3888:	e1a00004 	mov	r0, r4
    388c:	eb0004b8 	bl	4b74 <I2C_masterSendMultipleByteStart>
    3890:	e30020f8 	movw	r2, #248	; 0xf8
    3894:	e34e2630 	movt	r2, #58928	; 0xe630
    3898:	e5d23010 	ldrb	r3, [r2, #16]
    389c:	e31300ff 	tst	r3, #255	; 0xff
    38a0:	0afffffc 	beq	3898 <master_tx_200kHz_var_duty+0xd0>
    38a4:	e30030f8 	movw	r3, #248	; 0xf8
    38a8:	e34e3630 	movt	r3, #58928	; 0xe630
    38ac:	e5933004 	ldr	r3, [r3, #4]
    38b0:	e35300aa 	cmp	r3, #170	; 0xaa
    38b4:	1a000005 	bne	38d0 <master_tx_200kHz_var_duty+0x108>
    38b8:	e30030f8 	movw	r3, #248	; 0xf8
    38bc:	e34e3630 	movt	r3, #58928	; 0xe630
    38c0:	e5930008 	ldr	r0, [r3, #8]
    38c4:	e2500055 	subs	r0, r0, #85	; 0x55
    38c8:	13a00001 	movne	r0, #1
    38cc:	e8bd8070 	pop	{r4, r5, r6, pc}
    38d0:	e3a00001 	mov	r0, #1
    38d4:	e8bd8070 	pop	{r4, r5, r6, pc}

000038d8 <i2c1InterruptHandler>:
    38d8:	e92d4070 	push	{r4, r5, r6, lr}
    38dc:	e3a00902 	mov	r0, #32768	; 0x8000
    38e0:	e34e0650 	movt	r0, #58960	; 0xe650
    38e4:	eb0003b0 	bl	47ac <I2C_slaveGetInterruptStatus>
    38e8:	e1a04000 	mov	r4, r0
    38ec:	e3100002 	tst	r0, #2
    38f0:	0a00000a 	beq	3920 <i2c1InterruptHandler+0x48>
    38f4:	e300310c 	movw	r3, #268	; 0x10c
    38f8:	e34e3630 	movt	r3, #58928	; 0xe630
    38fc:	e5932000 	ldr	r2, [r3]
    3900:	e5933000 	ldr	r3, [r3]
    3904:	e3530000 	cmp	r3, #0
    3908:	0a000009 	beq	3934 <i2c1InterruptHandler+0x5c>
    390c:	e300310c 	movw	r3, #268	; 0x10c
    3910:	e34e3630 	movt	r3, #58928	; 0xe630
    3914:	e5933000 	ldr	r3, [r3]
    3918:	e3530001 	cmp	r3, #1
    391c:	0a00000f 	beq	3960 <i2c1InterruptHandler+0x88>
    3920:	e1a01004 	mov	r1, r4
    3924:	e3a00902 	mov	r0, #32768	; 0x8000
    3928:	e34e0650 	movt	r0, #58960	; 0xe650
    392c:	eb0003a1 	bl	47b8 <I2C_slaveClearInterruptStatus>
    3930:	e8bd8070 	pop	{r4, r5, r6, pc}
    3934:	e300510c 	movw	r5, #268	; 0x10c
    3938:	e34e5630 	movt	r5, #58928	; 0xe630
    393c:	e5956000 	ldr	r6, [r5]
    3940:	e2863001 	add	r3, r6, #1
    3944:	e5853000 	str	r3, [r5]
    3948:	e3a00902 	mov	r0, #32768	; 0x8000
    394c:	e34e0650 	movt	r0, #58960	; 0xe650
    3950:	eb0003a3 	bl	47e4 <I2C_slaveReceiveMultipleByteStop>
    3954:	e0855106 	add	r5, r5, r6, lsl #2
    3958:	e5850004 	str	r0, [r5, #4]
    395c:	eaffffef 	b	3920 <i2c1InterruptHandler+0x48>
    3960:	e300510c 	movw	r5, #268	; 0x10c
    3964:	e34e5630 	movt	r5, #58928	; 0xe630
    3968:	e5956000 	ldr	r6, [r5]
    396c:	e2863001 	add	r3, r6, #1
    3970:	e5853000 	str	r3, [r5]
    3974:	e3a00902 	mov	r0, #32768	; 0x8000
    3978:	e34e0650 	movt	r0, #58960	; 0xe650
    397c:	eb00039e 	bl	47fc <I2C_slaveReceiveMultipleByteFinish>
    3980:	e0855106 	add	r5, r5, r6, lsl #2
    3984:	e5850004 	str	r0, [r5, #4]
    3988:	eaffffe4 	b	3920 <i2c1InterruptHandler+0x48>

0000398c <i2c0InterruptHandler>:
    398c:	e92d4010 	push	{r4, lr}
    3990:	e3a00000 	mov	r0, #0
    3994:	e34e0650 	movt	r0, #58960	; 0xe650
    3998:	eb00046e 	bl	4b58 <I2C_masterGetInterruptStatus>
    399c:	e1a04000 	mov	r4, r0
    39a0:	e3100001 	tst	r0, #1
    39a4:	1a00000b 	bne	39d8 <i2c0InterruptHandler+0x4c>
    39a8:	e3100008 	tst	r0, #8
    39ac:	1a00000d 	bne	39e8 <i2c0InterruptHandler+0x5c>
    39b0:	e3140010 	tst	r4, #16
    39b4:	1300310c 	movwne	r3, #268	; 0x10c
    39b8:	134e3630 	movtne	r3, #58928	; 0xe630
    39bc:	13a02001 	movne	r2, #1
    39c0:	15c32010 	strbne	r2, [r3, #16]
    39c4:	e1a01004 	mov	r1, r4
    39c8:	e3a00000 	mov	r0, #0
    39cc:	e34e0650 	movt	r0, #58960	; 0xe650
    39d0:	eb000463 	bl	4b64 <I2C_masterClearInterruptStatus>
    39d4:	e8bd8010 	pop	{r4, pc}
    39d8:	e3a00000 	mov	r0, #0
    39dc:	e34e0650 	movt	r0, #58960	; 0xe650
    39e0:	eb0004b6 	bl	4cc0 <I2C_masterDisableStartGeneration>
    39e4:	eafffff1 	b	39b0 <i2c0InterruptHandler+0x24>
    39e8:	e300310c 	movw	r3, #268	; 0x10c
    39ec:	e34e3630 	movt	r3, #58928	; 0xe630
    39f0:	e593200c 	ldr	r2, [r3, #12]
    39f4:	e2821001 	add	r1, r2, #1
    39f8:	e583100c 	str	r1, [r3, #12]
    39fc:	e3063a0c 	movw	r3, #27148	; 0x6a0c
    3a00:	e3403000 	movt	r3, #0
    3a04:	e7931102 	ldr	r1, [r3, r2, lsl #2]
    3a08:	e3a00000 	mov	r0, #0
    3a0c:	e34e0650 	movt	r0, #58960	; 0xe650
    3a10:	eb00045c 	bl	4b88 <I2C_masterSendMultipleByteNext>
    3a14:	eaffffe5 	b	39b0 <i2c0InterruptHandler+0x24>

00003a18 <master_tx_300kHz>:
    3a18:	e92d4070 	push	{r4, r5, r6, lr}
    3a1c:	e3065a0c 	movw	r5, #27148	; 0x6a0c
    3a20:	e3405000 	movt	r5, #0
    3a24:	e3a04000 	mov	r4, #0
    3a28:	e34e4650 	movt	r4, #58960	; 0xe650
    3a2c:	e2851008 	add	r1, r5, #8
    3a30:	e1a00004 	mov	r0, r4
    3a34:	eb000385 	bl	4850 <I2C_masterInit>
    3a38:	e3e01000 	mvn	r1, #0
    3a3c:	e1a00004 	mov	r0, r4
    3a40:	eb000447 	bl	4b64 <I2C_masterClearInterruptStatus>
    3a44:	e3a01019 	mov	r1, #25
    3a48:	e1a00004 	mov	r0, r4
    3a4c:	eb000439 	bl	4b38 <I2C_masterEnableInterrupt>
    3a50:	e1a00004 	mov	r0, r4
    3a54:	eb00042f 	bl	4b18 <I2C_masterEnable>
    3a58:	e3a06902 	mov	r6, #32768	; 0x8000
    3a5c:	e34e6650 	movt	r6, #58960	; 0xe650
    3a60:	e2851010 	add	r1, r5, #16
    3a64:	e1a00006 	mov	r0, r6
    3a68:	eb00028f 	bl	44ac <I2C_slaveInit>
    3a6c:	e3e01000 	mvn	r1, #0
    3a70:	e1a00006 	mov	r0, r6
    3a74:	eb00034f 	bl	47b8 <I2C_slaveClearInterruptStatus>
    3a78:	e3a01013 	mov	r1, #19
    3a7c:	e1a00006 	mov	r0, r6
    3a80:	eb000341 	bl	478c <I2C_slaveEnableInterrupt>
    3a84:	e1a00006 	mov	r0, r6
    3a88:	eb000335 	bl	4764 <I2C_slaveEnable>
    3a8c:	ebfff760 	bl	1814 <GIC_enable>
    3a90:	e303198c 	movw	r1, #14732	; 0x398c
    3a94:	e3401000 	movt	r1, #0
    3a98:	e300010e 	movw	r0, #270	; 0x10e
    3a9c:	ebfff7b1 	bl	1968 <GIC_setInterruptHandler>
    3aa0:	e30318d8 	movw	r1, #14552	; 0x38d8
    3aa4:	e3401000 	movt	r1, #0
    3aa8:	e300010f 	movw	r0, #271	; 0x10f
    3aac:	ebfff7ad 	bl	1968 <GIC_setInterruptHandler>
    3ab0:	e300010e 	movw	r0, #270	; 0x10e
    3ab4:	ebfff76d 	bl	1870 <GIC_enableInterrupt>
    3ab8:	e300010f 	movw	r0, #271	; 0x10f
    3abc:	ebfff76b 	bl	1870 <GIC_enableInterrupt>
    3ac0:	e300310c 	movw	r3, #268	; 0x10c
    3ac4:	e34e3630 	movt	r3, #58928	; 0xe630
    3ac8:	e593200c 	ldr	r2, [r3, #12]
    3acc:	e2821001 	add	r1, r2, #1
    3ad0:	e583100c 	str	r1, [r3, #12]
    3ad4:	e7951102 	ldr	r1, [r5, r2, lsl #2]
    3ad8:	e1a00004 	mov	r0, r4
    3adc:	eb000424 	bl	4b74 <I2C_masterSendMultipleByteStart>
    3ae0:	e300210c 	movw	r2, #268	; 0x10c
    3ae4:	e34e2630 	movt	r2, #58928	; 0xe630
    3ae8:	e5d23010 	ldrb	r3, [r2, #16]
    3aec:	e31300ff 	tst	r3, #255	; 0xff
    3af0:	0afffffc 	beq	3ae8 <master_tx_300kHz+0xd0>
    3af4:	e300310c 	movw	r3, #268	; 0x10c
    3af8:	e34e3630 	movt	r3, #58928	; 0xe630
    3afc:	e5933004 	ldr	r3, [r3, #4]
    3b00:	e35300aa 	cmp	r3, #170	; 0xaa
    3b04:	1a000005 	bne	3b20 <master_tx_300kHz+0x108>
    3b08:	e300310c 	movw	r3, #268	; 0x10c
    3b0c:	e34e3630 	movt	r3, #58928	; 0xe630
    3b10:	e5930008 	ldr	r0, [r3, #8]
    3b14:	e2500055 	subs	r0, r0, #85	; 0x55
    3b18:	13a00001 	movne	r0, #1
    3b1c:	e8bd8070 	pop	{r4, r5, r6, pc}
    3b20:	e3a00001 	mov	r0, #1
    3b24:	e8bd8070 	pop	{r4, r5, r6, pc}

00003b28 <i2c1InterruptHandler>:
    3b28:	e92d4070 	push	{r4, r5, r6, lr}
    3b2c:	e3a00902 	mov	r0, #32768	; 0x8000
    3b30:	e34e0650 	movt	r0, #58960	; 0xe650
    3b34:	eb00031c 	bl	47ac <I2C_slaveGetInterruptStatus>
    3b38:	e1a04000 	mov	r4, r0
    3b3c:	e3100002 	tst	r0, #2
    3b40:	0a000023 	beq	3bd4 <i2c1InterruptHandler+0xac>
    3b44:	e3003120 	movw	r3, #288	; 0x120
    3b48:	e34e3630 	movt	r3, #58928	; 0xe630
    3b4c:	e5933000 	ldr	r3, [r3]
    3b50:	e3730001 	cmn	r3, #1
    3b54:	1a000014 	bne	3bac <i2c1InterruptHandler+0x84>
    3b58:	e3003120 	movw	r3, #288	; 0x120
    3b5c:	e34e3630 	movt	r3, #58928	; 0xe630
    3b60:	e5933000 	ldr	r3, [r3]
    3b64:	e3730001 	cmn	r3, #1
    3b68:	0a00001e 	beq	3be8 <i2c1InterruptHandler+0xc0>
    3b6c:	e3003120 	movw	r3, #288	; 0x120
    3b70:	e34e3630 	movt	r3, #58928	; 0xe630
    3b74:	e5933000 	ldr	r3, [r3]
    3b78:	e3530000 	cmp	r3, #0
    3b7c:	1a000014 	bne	3bd4 <i2c1InterruptHandler+0xac>
    3b80:	e3005120 	movw	r5, #288	; 0x120
    3b84:	e34e5630 	movt	r5, #58928	; 0xe630
    3b88:	e5956000 	ldr	r6, [r5]
    3b8c:	e2863001 	add	r3, r6, #1
    3b90:	e5853000 	str	r3, [r5]
    3b94:	e3a00902 	mov	r0, #32768	; 0x8000
    3b98:	e34e0650 	movt	r0, #58960	; 0xe650
    3b9c:	eb000316 	bl	47fc <I2C_slaveReceiveMultipleByteFinish>
    3ba0:	e0855106 	add	r5, r5, r6, lsl #2
    3ba4:	e5850004 	str	r0, [r5, #4]
    3ba8:	ea000009 	b	3bd4 <i2c1InterruptHandler+0xac>
    3bac:	e3005120 	movw	r5, #288	; 0x120
    3bb0:	e34e5630 	movt	r5, #58928	; 0xe630
    3bb4:	e5956000 	ldr	r6, [r5]
    3bb8:	e2863001 	add	r3, r6, #1
    3bbc:	e5853000 	str	r3, [r5]
    3bc0:	e3a00902 	mov	r0, #32768	; 0x8000
    3bc4:	e34e0650 	movt	r0, #58960	; 0xe650
    3bc8:	eb000302 	bl	47d8 <I2C_slaveReceiveMultipleByteNext>
    3bcc:	e0855106 	add	r5, r5, r6, lsl #2
    3bd0:	e5850004 	str	r0, [r5, #4]
    3bd4:	e1a01004 	mov	r1, r4
    3bd8:	e3a00902 	mov	r0, #32768	; 0x8000
    3bdc:	e34e0650 	movt	r0, #58960	; 0xe650
    3be0:	eb0002f4 	bl	47b8 <I2C_slaveClearInterruptStatus>
    3be4:	e8bd8070 	pop	{r4, r5, r6, pc}
    3be8:	e3005120 	movw	r5, #288	; 0x120
    3bec:	e34e5630 	movt	r5, #58928	; 0xe630
    3bf0:	e5956000 	ldr	r6, [r5]
    3bf4:	e2863001 	add	r3, r6, #1
    3bf8:	e5853000 	str	r3, [r5]
    3bfc:	e3a00902 	mov	r0, #32768	; 0x8000
    3c00:	e34e0650 	movt	r0, #58960	; 0xe650
    3c04:	eb0002f6 	bl	47e4 <I2C_slaveReceiveMultipleByteStop>
    3c08:	e0855106 	add	r5, r5, r6, lsl #2
    3c0c:	e5850004 	str	r0, [r5, #4]
    3c10:	eaffffef 	b	3bd4 <i2c1InterruptHandler+0xac>

00003c14 <i2c0InterruptHandler>:
    3c14:	e92d4010 	push	{r4, lr}
    3c18:	e3a00000 	mov	r0, #0
    3c1c:	e34e0650 	movt	r0, #58960	; 0xe650
    3c20:	eb0003cc 	bl	4b58 <I2C_masterGetInterruptStatus>
    3c24:	e1a04000 	mov	r4, r0
    3c28:	e3100001 	tst	r0, #1
    3c2c:	1a00000b 	bne	3c60 <i2c0InterruptHandler+0x4c>
    3c30:	e3100008 	tst	r0, #8
    3c34:	1a00000d 	bne	3c70 <i2c0InterruptHandler+0x5c>
    3c38:	e3140010 	tst	r4, #16
    3c3c:	13003120 	movwne	r3, #288	; 0x120
    3c40:	134e3630 	movtne	r3, #58928	; 0xe630
    3c44:	13a02001 	movne	r2, #1
    3c48:	15c3200c 	strbne	r2, [r3, #12]
    3c4c:	e1a01004 	mov	r1, r4
    3c50:	e3a00000 	mov	r0, #0
    3c54:	e34e0650 	movt	r0, #58960	; 0xe650
    3c58:	eb0003c1 	bl	4b64 <I2C_masterClearInterruptStatus>
    3c5c:	e8bd8010 	pop	{r4, pc}
    3c60:	e3a00000 	mov	r0, #0
    3c64:	e34e0650 	movt	r0, #58960	; 0xe650
    3c68:	eb000414 	bl	4cc0 <I2C_masterDisableStartGeneration>
    3c6c:	eafffff1 	b	3c38 <i2c0InterruptHandler+0x24>
    3c70:	e3003120 	movw	r3, #288	; 0x120
    3c74:	e34e3630 	movt	r3, #58928	; 0xe630
    3c78:	e5932008 	ldr	r2, [r3, #8]
    3c7c:	e2822001 	add	r2, r2, #1
    3c80:	e5832008 	str	r2, [r3, #8]
    3c84:	e3a01048 	mov	r1, #72	; 0x48
    3c88:	e3a00000 	mov	r0, #0
    3c8c:	e34e0650 	movt	r0, #58960	; 0xe650
    3c90:	eb0003bc 	bl	4b88 <I2C_masterSendMultipleByteNext>
    3c94:	eaffffe7 	b	3c38 <i2c0InterruptHandler+0x24>

00003c98 <master_tx_fbsc_check>:
    3c98:	e92d4ff8 	push	{r3, r4, r5, r6, r7, r8, r9, sl, fp, lr}
    3c9c:	ebfff6dc 	bl	1814 <GIC_enable>
    3ca0:	e3031c14 	movw	r1, #15380	; 0x3c14
    3ca4:	e3401000 	movt	r1, #0
    3ca8:	e300010e 	movw	r0, #270	; 0x10e
    3cac:	ebfff72d 	bl	1968 <GIC_setInterruptHandler>
    3cb0:	e3031b28 	movw	r1, #15144	; 0x3b28
    3cb4:	e3401000 	movt	r1, #0
    3cb8:	e300010f 	movw	r0, #271	; 0x10f
    3cbc:	ebfff729 	bl	1968 <GIC_setInterruptHandler>
    3cc0:	e300010e 	movw	r0, #270	; 0x10e
    3cc4:	ebfff6e9 	bl	1870 <GIC_enableInterrupt>
    3cc8:	e300010f 	movw	r0, #271	; 0x10f
    3ccc:	ebfff6e7 	bl	1870 <GIC_enableInterrupt>
    3cd0:	e3a06000 	mov	r6, #0
    3cd4:	e3004120 	movw	r4, #288	; 0x120
    3cd8:	e34e4630 	movt	r4, #58928	; 0xe630
    3cdc:	e1a09006 	mov	r9, r6
    3ce0:	e1a07006 	mov	r7, r6
    3ce4:	e3068a24 	movw	r8, #27172	; 0x6a24
    3ce8:	e3408000 	movt	r8, #0
    3cec:	e288a008 	add	sl, r8, #8
    3cf0:	e3a05902 	mov	r5, #32768	; 0x8000
    3cf4:	e34e5650 	movt	r5, #58960	; 0xe650
    3cf8:	e5847008 	str	r7, [r4, #8]
    3cfc:	e5847000 	str	r7, [r4]
    3d00:	e5c4900c 	strb	r9, [r4, #12]
    3d04:	e3a0b000 	mov	fp, #0
    3d08:	e34eb650 	movt	fp, #58960	; 0xe650
    3d0c:	e1a01008 	mov	r1, r8
    3d10:	e1a0000b 	mov	r0, fp
    3d14:	eb0002cd 	bl	4850 <I2C_masterInit>
    3d18:	e59b3038 	ldr	r3, [fp, #56]	; 0x38
    3d1c:	e7c43016 	bfi	r3, r6, #0, #5
    3d20:	e58b3038 	str	r3, [fp, #56]	; 0x38
    3d24:	e3e01000 	mvn	r1, #0
    3d28:	e1a0000b 	mov	r0, fp
    3d2c:	eb00038c 	bl	4b64 <I2C_masterClearInterruptStatus>
    3d30:	e3a01019 	mov	r1, #25
    3d34:	e1a0000b 	mov	r0, fp
    3d38:	eb00037e 	bl	4b38 <I2C_masterEnableInterrupt>
    3d3c:	e1a0000b 	mov	r0, fp
    3d40:	eb000374 	bl	4b18 <I2C_masterEnable>
    3d44:	e1a0100a 	mov	r1, sl
    3d48:	e1a00005 	mov	r0, r5
    3d4c:	eb0001d6 	bl	44ac <I2C_slaveInit>
    3d50:	e3e01000 	mvn	r1, #0
    3d54:	e1a00005 	mov	r0, r5
    3d58:	eb000296 	bl	47b8 <I2C_slaveClearInterruptStatus>
    3d5c:	e3a01013 	mov	r1, #19
    3d60:	e1a00005 	mov	r0, r5
    3d64:	eb000288 	bl	478c <I2C_slaveEnableInterrupt>
    3d68:	e1a00005 	mov	r0, r5
    3d6c:	eb00027c 	bl	4764 <I2C_slaveEnable>
    3d70:	e5943008 	ldr	r3, [r4, #8]
    3d74:	e2833001 	add	r3, r3, #1
    3d78:	e5843008 	str	r3, [r4, #8]
    3d7c:	e3a01048 	mov	r1, #72	; 0x48
    3d80:	e1a0000b 	mov	r0, fp
    3d84:	eb00037a 	bl	4b74 <I2C_masterSendMultipleByteStart>
    3d88:	e5d4300c 	ldrb	r3, [r4, #12]
    3d8c:	e31300ff 	tst	r3, #255	; 0xff
    3d90:	0afffffc 	beq	3d88 <master_tx_fbsc_check+0xf0>
    3d94:	e5943004 	ldr	r3, [r4, #4]
    3d98:	e3530048 	cmp	r3, #72	; 0x48
    3d9c:	1a000004 	bne	3db4 <master_tx_fbsc_check+0x11c>
    3da0:	e2866001 	add	r6, r6, #1
    3da4:	e3560020 	cmp	r6, #32
    3da8:	1affffd2 	bne	3cf8 <master_tx_fbsc_check+0x60>
    3dac:	e3a00000 	mov	r0, #0
    3db0:	e8bd8ff8 	pop	{r3, r4, r5, r6, r7, r8, r9, sl, fp, pc}
    3db4:	e3a00001 	mov	r0, #1
    3db8:	e8bd8ff8 	pop	{r3, r4, r5, r6, r7, r8, r9, sl, fp, pc}

00003dbc <i2c1InterruptHandler>:
    3dbc:	e92d4070 	push	{r4, r5, r6, lr}
    3dc0:	e3a00902 	mov	r0, #32768	; 0x8000
    3dc4:	e34e0650 	movt	r0, #58960	; 0xe650
    3dc8:	eb000277 	bl	47ac <I2C_slaveGetInterruptStatus>
    3dcc:	e1a04000 	mov	r4, r0
    3dd0:	e3100002 	tst	r0, #2
    3dd4:	0a00000a 	beq	3e04 <i2c1InterruptHandler+0x48>
    3dd8:	e3003130 	movw	r3, #304	; 0x130
    3ddc:	e34e3630 	movt	r3, #58928	; 0xe630
    3de0:	e5932000 	ldr	r2, [r3]
    3de4:	e5933000 	ldr	r3, [r3]
    3de8:	e3530000 	cmp	r3, #0
    3dec:	0a000009 	beq	3e18 <i2c1InterruptHandler+0x5c>
    3df0:	e3003130 	movw	r3, #304	; 0x130
    3df4:	e34e3630 	movt	r3, #58928	; 0xe630
    3df8:	e5933000 	ldr	r3, [r3]
    3dfc:	e3530001 	cmp	r3, #1
    3e00:	0a00000f 	beq	3e44 <i2c1InterruptHandler+0x88>
    3e04:	e1a01004 	mov	r1, r4
    3e08:	e3a00902 	mov	r0, #32768	; 0x8000
    3e0c:	e34e0650 	movt	r0, #58960	; 0xe650
    3e10:	eb000268 	bl	47b8 <I2C_slaveClearInterruptStatus>
    3e14:	e8bd8070 	pop	{r4, r5, r6, pc}
    3e18:	e3005130 	movw	r5, #304	; 0x130
    3e1c:	e34e5630 	movt	r5, #58928	; 0xe630
    3e20:	e5956000 	ldr	r6, [r5]
    3e24:	e2863001 	add	r3, r6, #1
    3e28:	e5853000 	str	r3, [r5]
    3e2c:	e3a00902 	mov	r0, #32768	; 0x8000
    3e30:	e34e0650 	movt	r0, #58960	; 0xe650
    3e34:	eb00026a 	bl	47e4 <I2C_slaveReceiveMultipleByteStop>
    3e38:	e0855106 	add	r5, r5, r6, lsl #2
    3e3c:	e5850004 	str	r0, [r5, #4]
    3e40:	eaffffef 	b	3e04 <i2c1InterruptHandler+0x48>
    3e44:	e3005130 	movw	r5, #304	; 0x130
    3e48:	e34e5630 	movt	r5, #58928	; 0xe630
    3e4c:	e5956000 	ldr	r6, [r5]
    3e50:	e2863001 	add	r3, r6, #1
    3e54:	e5853000 	str	r3, [r5]
    3e58:	e3a00902 	mov	r0, #32768	; 0x8000
    3e5c:	e34e0650 	movt	r0, #58960	; 0xe650
    3e60:	eb000265 	bl	47fc <I2C_slaveReceiveMultipleByteFinish>
    3e64:	e0855106 	add	r5, r5, r6, lsl #2
    3e68:	e5850004 	str	r0, [r5, #4]
    3e6c:	eaffffe4 	b	3e04 <i2c1InterruptHandler+0x48>

00003e70 <i2c0InterruptHandler>:
    3e70:	e92d4010 	push	{r4, lr}
    3e74:	e3a00000 	mov	r0, #0
    3e78:	e34e0650 	movt	r0, #58960	; 0xe650
    3e7c:	eb000335 	bl	4b58 <I2C_masterGetInterruptStatus>
    3e80:	e1a04000 	mov	r4, r0
    3e84:	e3100001 	tst	r0, #1
    3e88:	1a00000b 	bne	3ebc <i2c0InterruptHandler+0x4c>
    3e8c:	e3100008 	tst	r0, #8
    3e90:	1a00000d 	bne	3ecc <i2c0InterruptHandler+0x5c>
    3e94:	e3140010 	tst	r4, #16
    3e98:	13003130 	movwne	r3, #304	; 0x130
    3e9c:	134e3630 	movtne	r3, #58928	; 0xe630
    3ea0:	13a02001 	movne	r2, #1
    3ea4:	15c32010 	strbne	r2, [r3, #16]
    3ea8:	e1a01004 	mov	r1, r4
    3eac:	e3a00000 	mov	r0, #0
    3eb0:	e34e0650 	movt	r0, #58960	; 0xe650
    3eb4:	eb00032a 	bl	4b64 <I2C_masterClearInterruptStatus>
    3eb8:	e8bd8010 	pop	{r4, pc}
    3ebc:	e3a00000 	mov	r0, #0
    3ec0:	e34e0650 	movt	r0, #58960	; 0xe650
    3ec4:	eb00037d 	bl	4cc0 <I2C_masterDisableStartGeneration>
    3ec8:	eafffff1 	b	3e94 <i2c0InterruptHandler+0x24>
    3ecc:	e3003130 	movw	r3, #304	; 0x130
    3ed0:	e34e3630 	movt	r3, #58928	; 0xe630
    3ed4:	e593200c 	ldr	r2, [r3, #12]
    3ed8:	e2821001 	add	r1, r2, #1
    3edc:	e583100c 	str	r1, [r3, #12]
    3ee0:	e3063a34 	movw	r3, #27188	; 0x6a34
    3ee4:	e3403000 	movt	r3, #0
    3ee8:	e7931102 	ldr	r1, [r3, r2, lsl #2]
    3eec:	e3a00000 	mov	r0, #0
    3ef0:	e34e0650 	movt	r0, #58960	; 0xe650
    3ef4:	eb000323 	bl	4b88 <I2C_masterSendMultipleByteNext>
    3ef8:	eaffffe5 	b	3e94 <i2c0InterruptHandler+0x24>

00003efc <master_tx_50kHz_var_duty>:
    3efc:	e92d4070 	push	{r4, r5, r6, lr}
    3f00:	e3065a34 	movw	r5, #27188	; 0x6a34
    3f04:	e3405000 	movt	r5, #0
    3f08:	e3a04000 	mov	r4, #0
    3f0c:	e34e4650 	movt	r4, #58960	; 0xe650
    3f10:	e2851008 	add	r1, r5, #8
    3f14:	e1a00004 	mov	r0, r4
    3f18:	eb00024c 	bl	4850 <I2C_masterInit>
    3f1c:	e3e01000 	mvn	r1, #0
    3f20:	e1a00004 	mov	r0, r4
    3f24:	eb00030e 	bl	4b64 <I2C_masterClearInterruptStatus>
    3f28:	e3a01019 	mov	r1, #25
    3f2c:	e1a00004 	mov	r0, r4
    3f30:	eb000300 	bl	4b38 <I2C_masterEnableInterrupt>
    3f34:	e1a00004 	mov	r0, r4
    3f38:	eb0002f6 	bl	4b18 <I2C_masterEnable>
    3f3c:	e3a06902 	mov	r6, #32768	; 0x8000
    3f40:	e34e6650 	movt	r6, #58960	; 0xe650
    3f44:	e2851010 	add	r1, r5, #16
    3f48:	e1a00006 	mov	r0, r6
    3f4c:	eb000156 	bl	44ac <I2C_slaveInit>
    3f50:	e3e01000 	mvn	r1, #0
    3f54:	e1a00006 	mov	r0, r6
    3f58:	eb000216 	bl	47b8 <I2C_slaveClearInterruptStatus>
    3f5c:	e3a01013 	mov	r1, #19
    3f60:	e1a00006 	mov	r0, r6
    3f64:	eb000208 	bl	478c <I2C_slaveEnableInterrupt>
    3f68:	e1a00006 	mov	r0, r6
    3f6c:	eb0001fc 	bl	4764 <I2C_slaveEnable>
    3f70:	ebfff627 	bl	1814 <GIC_enable>
    3f74:	e3031e70 	movw	r1, #15984	; 0x3e70
    3f78:	e3401000 	movt	r1, #0
    3f7c:	e300010e 	movw	r0, #270	; 0x10e
    3f80:	ebfff678 	bl	1968 <GIC_setInterruptHandler>
    3f84:	e3031dbc 	movw	r1, #15804	; 0x3dbc
    3f88:	e3401000 	movt	r1, #0
    3f8c:	e300010f 	movw	r0, #271	; 0x10f
    3f90:	ebfff674 	bl	1968 <GIC_setInterruptHandler>
    3f94:	e300010e 	movw	r0, #270	; 0x10e
    3f98:	ebfff634 	bl	1870 <GIC_enableInterrupt>
    3f9c:	e300010f 	movw	r0, #271	; 0x10f
    3fa0:	ebfff632 	bl	1870 <GIC_enableInterrupt>
    3fa4:	e3003130 	movw	r3, #304	; 0x130
    3fa8:	e34e3630 	movt	r3, #58928	; 0xe630
    3fac:	e593200c 	ldr	r2, [r3, #12]
    3fb0:	e2821001 	add	r1, r2, #1
    3fb4:	e583100c 	str	r1, [r3, #12]
    3fb8:	e7951102 	ldr	r1, [r5, r2, lsl #2]
    3fbc:	e1a00004 	mov	r0, r4
    3fc0:	eb0002eb 	bl	4b74 <I2C_masterSendMultipleByteStart>
    3fc4:	e3002130 	movw	r2, #304	; 0x130
    3fc8:	e34e2630 	movt	r2, #58928	; 0xe630
    3fcc:	e5d23010 	ldrb	r3, [r2, #16]
    3fd0:	e31300ff 	tst	r3, #255	; 0xff
    3fd4:	0afffffc 	beq	3fcc <master_tx_50kHz_var_duty+0xd0>
    3fd8:	e3003130 	movw	r3, #304	; 0x130
    3fdc:	e34e3630 	movt	r3, #58928	; 0xe630
    3fe0:	e5933004 	ldr	r3, [r3, #4]
    3fe4:	e35300aa 	cmp	r3, #170	; 0xaa
    3fe8:	1a000005 	bne	4004 <master_tx_50kHz_var_duty+0x108>
    3fec:	e3003130 	movw	r3, #304	; 0x130
    3ff0:	e34e3630 	movt	r3, #58928	; 0xe630
    3ff4:	e5930008 	ldr	r0, [r3, #8]
    3ff8:	e2500055 	subs	r0, r0, #85	; 0x55
    3ffc:	13a00001 	movne	r0, #1
    4000:	e8bd8070 	pop	{r4, r5, r6, pc}
    4004:	e3a00001 	mov	r0, #1
    4008:	e8bd8070 	pop	{r4, r5, r6, pc}

0000400c <master_rx_delay>:
    400c:	e92d47f0 	push	{r4, r5, r6, r7, r8, r9, sl, lr}
    4010:	e3066a4c 	movw	r6, #27212	; 0x6a4c
    4014:	e3406000 	movt	r6, #0
    4018:	e3a04000 	mov	r4, #0
    401c:	e34e4650 	movt	r4, #58960	; 0xe650
    4020:	e1a01006 	mov	r1, r6
    4024:	e1a00004 	mov	r0, r4
    4028:	eb000208 	bl	4850 <I2C_masterInit>
    402c:	e3e01000 	mvn	r1, #0
    4030:	e1a00004 	mov	r0, r4
    4034:	eb0002ca 	bl	4b64 <I2C_masterClearInterruptStatus>
    4038:	e1a00004 	mov	r0, r4
    403c:	eb0002b5 	bl	4b18 <I2C_masterEnable>
    4040:	e3a05902 	mov	r5, #32768	; 0x8000
    4044:	e34e5650 	movt	r5, #58960	; 0xe650
    4048:	e2861008 	add	r1, r6, #8
    404c:	e1a00005 	mov	r0, r5
    4050:	eb000115 	bl	44ac <I2C_slaveInit>
    4054:	e3e01000 	mvn	r1, #0
    4058:	e1a00005 	mov	r0, r5
    405c:	eb0001d5 	bl	47b8 <I2C_slaveClearInterruptStatus>
    4060:	e1a00005 	mov	r0, r5
    4064:	eb0001be 	bl	4764 <I2C_slaveEnable>
    4068:	e3a010aa 	mov	r1, #170	; 0xaa
    406c:	e1a00005 	mov	r0, r5
    4070:	eb0001e4 	bl	4808 <I2C_slaveSetData>
    4074:	e1a00004 	mov	r0, r4
    4078:	eb0002c8 	bl	4ba0 <I2C_masterReceiveStart>
    407c:	e3a02902 	mov	r2, #32768	; 0x8000
    4080:	e34e2650 	movt	r2, #58960	; 0xe650
    4084:	e5923008 	ldr	r3, [r2, #8]
    4088:	e3130001 	tst	r3, #1
    408c:	0afffffc 	beq	4084 <master_rx_delay+0x78>
    4090:	e3a01001 	mov	r1, #1
    4094:	e3a00902 	mov	r0, #32768	; 0x8000
    4098:	e34e0650 	movt	r0, #58960	; 0xe650
    409c:	eb0001c5 	bl	47b8 <I2C_slaveClearInterruptStatus>
    40a0:	e3a02000 	mov	r2, #0
    40a4:	e34e2650 	movt	r2, #58960	; 0xe650
    40a8:	e592300c 	ldr	r3, [r2, #12]
    40ac:	e3130001 	tst	r3, #1
    40b0:	0afffffc 	beq	40a8 <master_rx_delay+0x9c>
    40b4:	e3a04000 	mov	r4, #0
    40b8:	e34e4650 	movt	r4, #58960	; 0xe650
    40bc:	e1a00004 	mov	r0, r4
    40c0:	eb0002fe 	bl	4cc0 <I2C_masterDisableStartGeneration>
    40c4:	e3a01003 	mov	r1, #3
    40c8:	e1a00004 	mov	r0, r4
    40cc:	eb0002a4 	bl	4b64 <I2C_masterClearInterruptStatus>
    40d0:	e3a06001 	mov	r6, #1
    40d4:	e3a05000 	mov	r5, #0
    40d8:	e34e5650 	movt	r5, #58960	; 0xe650
    40dc:	e3007144 	movw	r7, #324	; 0x144
    40e0:	e34e7630 	movt	r7, #58928	; 0xe630
    40e4:	e3a08e32 	mov	r8, #800	; 0x320
    40e8:	e3a04902 	mov	r4, #32768	; 0x8000
    40ec:	e34e4650 	movt	r4, #58960	; 0xe650
    40f0:	e59f9160 	ldr	r9, [pc, #352]	; 4258 <master_rx_delay+0x24c>
    40f4:	ea000000 	b	40fc <master_rx_delay+0xf0>
    40f8:	e2866001 	add	r6, r6, #1
    40fc:	e595300c 	ldr	r3, [r5, #12]
    4100:	e3130002 	tst	r3, #2
    4104:	0afffffc 	beq	40fc <master_rx_delay+0xf0>
    4108:	e3560000 	cmp	r6, #0
    410c:	0a00001a 	beq	417c <master_rx_delay+0x170>
    4110:	e3560001 	cmp	r6, #1
    4114:	0a00001c 	beq	418c <master_rx_delay+0x180>
    4118:	e3560002 	cmp	r6, #2
    411c:	0a00001e 	beq	419c <master_rx_delay+0x190>
    4120:	e1a00008 	mov	r0, r8
    4124:	eb0003a6 	bl	4fc4 <Sim_Delay>
    4128:	e3a01002 	mov	r1, #2
    412c:	e1a00005 	mov	r0, r5
    4130:	eb00028b 	bl	4b64 <I2C_masterClearInterruptStatus>
    4134:	e5943008 	ldr	r3, [r4, #8]
    4138:	e3130004 	tst	r3, #4
    413c:	0afffffc 	beq	4134 <master_rx_delay+0x128>
    4140:	e3a01004 	mov	r1, #4
    4144:	e1a00004 	mov	r0, r4
    4148:	eb00019a 	bl	47b8 <I2C_slaveClearInterruptStatus>
    414c:	e5943008 	ldr	r3, [r4, #8]
    4150:	e3130008 	tst	r3, #8
    4154:	0afffffc 	beq	414c <master_rx_delay+0x140>
    4158:	e3560001 	cmp	r6, #1
    415c:	8a000012 	bhi	41ac <master_rx_delay+0x1a0>
    4160:	e7d91106 	ldrb	r1, [r9, r6, lsl #2]
    4164:	e1a00004 	mov	r0, r4
    4168:	eb0001a6 	bl	4808 <I2C_slaveSetData>
    416c:	e3a01008 	mov	r1, #8
    4170:	e1a00004 	mov	r0, r4
    4174:	eb00018f 	bl	47b8 <I2C_slaveClearInterruptStatus>
    4178:	eaffffde 	b	40f8 <master_rx_delay+0xec>
    417c:	e1a00005 	mov	r0, r5
    4180:	eb00028a 	bl	4bb0 <I2C_masterReceiveMultipleByteNext>
    4184:	e5070004 	str	r0, [r7, #-4]
    4188:	eaffffe4 	b	4120 <master_rx_delay+0x114>
    418c:	e1a00005 	mov	r0, r5
    4190:	eb000289 	bl	4bbc <I2C_masterReceiveMultipleByteStop>
    4194:	e5870000 	str	r0, [r7]
    4198:	eaffffe0 	b	4120 <master_rx_delay+0x114>
    419c:	e1a00005 	mov	r0, r5
    41a0:	eb00028b 	bl	4bd4 <I2C_masterReceiveMultipleByteFinish>
    41a4:	e5870004 	str	r0, [r7, #4]
    41a8:	eaffffdc 	b	4120 <master_rx_delay+0x114>
    41ac:	e3a01008 	mov	r1, #8
    41b0:	e1a00004 	mov	r0, r4
    41b4:	eb00017f 	bl	47b8 <I2C_slaveClearInterruptStatus>
    41b8:	e2863001 	add	r3, r6, #1
    41bc:	e3530002 	cmp	r3, #2
    41c0:	9affffcc 	bls	40f8 <master_rx_delay+0xec>
    41c4:	e3a02902 	mov	r2, #32768	; 0x8000
    41c8:	e34e2650 	movt	r2, #58960	; 0xe650
    41cc:	e5923008 	ldr	r3, [r2, #8]
    41d0:	e3130010 	tst	r3, #16
    41d4:	0afffffc 	beq	41cc <master_rx_delay+0x1c0>
    41d8:	e3a01010 	mov	r1, #16
    41dc:	e3a00902 	mov	r0, #32768	; 0x8000
    41e0:	e34e0650 	movt	r0, #58960	; 0xe650
    41e4:	eb000173 	bl	47b8 <I2C_slaveClearInterruptStatus>
    41e8:	e3a02000 	mov	r2, #0
    41ec:	e34e2650 	movt	r2, #58960	; 0xe650
    41f0:	e592300c 	ldr	r3, [r2, #12]
    41f4:	e3130010 	tst	r3, #16
    41f8:	0afffffc 	beq	41f0 <master_rx_delay+0x1e4>
    41fc:	e3a04000 	mov	r4, #0
    4200:	e34e4650 	movt	r4, #58960	; 0xe650
    4204:	e3a01010 	mov	r1, #16
    4208:	e1a00004 	mov	r0, r4
    420c:	eb000254 	bl	4b64 <I2C_masterClearInterruptStatus>
    4210:	e1a00004 	mov	r0, r4
    4214:	eb000243 	bl	4b28 <I2C_masterDisable>
    4218:	e3a00902 	mov	r0, #32768	; 0x8000
    421c:	e34e0650 	movt	r0, #58960	; 0xe650
    4220:	eb000153 	bl	4774 <I2C_slaveDisable>
    4224:	e3003144 	movw	r3, #324	; 0x144
    4228:	e34e3630 	movt	r3, #58928	; 0xe630
    422c:	e5933000 	ldr	r3, [r3]
    4230:	e35300aa 	cmp	r3, #170	; 0xaa
    4234:	1a000005 	bne	4250 <master_rx_delay+0x244>
    4238:	e3003144 	movw	r3, #324	; 0x144
    423c:	e34e3630 	movt	r3, #58928	; 0xe630
    4240:	e5930004 	ldr	r0, [r3, #4]
    4244:	e2500055 	subs	r0, r0, #85	; 0x55
    4248:	13a00001 	movne	r0, #1
    424c:	e8bd87f0 	pop	{r4, r5, r6, r7, r8, r9, sl, pc}
    4250:	e3a00001 	mov	r0, #1
    4254:	e8bd87f0 	pop	{r4, r5, r6, r7, r8, r9, sl, pc}
    4258:	00006a5c 	.word	0x00006a5c

0000425c <i2c1InterruptHandler>:
    425c:	e92d4070 	push	{r4, r5, r6, lr}
    4260:	e3a00902 	mov	r0, #32768	; 0x8000
    4264:	e34e0650 	movt	r0, #58960	; 0xe650
    4268:	eb00014f 	bl	47ac <I2C_slaveGetInterruptStatus>
    426c:	e1a04000 	mov	r4, r0
    4270:	e3100002 	tst	r0, #2
    4274:	0a00000a 	beq	42a4 <i2c1InterruptHandler+0x48>
    4278:	e3003154 	movw	r3, #340	; 0x154
    427c:	e34e3630 	movt	r3, #58928	; 0xe630
    4280:	e5932000 	ldr	r2, [r3]
    4284:	e5933000 	ldr	r3, [r3]
    4288:	e3530000 	cmp	r3, #0
    428c:	0a000009 	beq	42b8 <i2c1InterruptHandler+0x5c>
    4290:	e3003154 	movw	r3, #340	; 0x154
    4294:	e34e3630 	movt	r3, #58928	; 0xe630
    4298:	e5933000 	ldr	r3, [r3]
    429c:	e3530001 	cmp	r3, #1
    42a0:	0a00000f 	beq	42e4 <i2c1InterruptHandler+0x88>
    42a4:	e1a01004 	mov	r1, r4
    42a8:	e3a00902 	mov	r0, #32768	; 0x8000
    42ac:	e34e0650 	movt	r0, #58960	; 0xe650
    42b0:	eb000140 	bl	47b8 <I2C_slaveClearInterruptStatus>
    42b4:	e8bd8070 	pop	{r4, r5, r6, pc}
    42b8:	e3005154 	movw	r5, #340	; 0x154
    42bc:	e34e5630 	movt	r5, #58928	; 0xe630
    42c0:	e5956000 	ldr	r6, [r5]
    42c4:	e2863001 	add	r3, r6, #1
    42c8:	e5853000 	str	r3, [r5]
    42cc:	e3a00902 	mov	r0, #32768	; 0x8000
    42d0:	e34e0650 	movt	r0, #58960	; 0xe650
    42d4:	eb000142 	bl	47e4 <I2C_slaveReceiveMultipleByteStop>
    42d8:	e0855106 	add	r5, r5, r6, lsl #2
    42dc:	e5850004 	str	r0, [r5, #4]
    42e0:	eaffffef 	b	42a4 <i2c1InterruptHandler+0x48>
    42e4:	e3005154 	movw	r5, #340	; 0x154
    42e8:	e34e5630 	movt	r5, #58928	; 0xe630
    42ec:	e5956000 	ldr	r6, [r5]
    42f0:	e2863001 	add	r3, r6, #1
    42f4:	e5853000 	str	r3, [r5]
    42f8:	e3a00902 	mov	r0, #32768	; 0x8000
    42fc:	e34e0650 	movt	r0, #58960	; 0xe650
    4300:	eb00013d 	bl	47fc <I2C_slaveReceiveMultipleByteFinish>
    4304:	e0855106 	add	r5, r5, r6, lsl #2
    4308:	e5850004 	str	r0, [r5, #4]
    430c:	eaffffe4 	b	42a4 <i2c1InterruptHandler+0x48>

00004310 <i2c0InterruptHandler>:
    4310:	e92d4010 	push	{r4, lr}
    4314:	e3a00000 	mov	r0, #0
    4318:	e34e0650 	movt	r0, #58960	; 0xe650
    431c:	eb00020d 	bl	4b58 <I2C_masterGetInterruptStatus>
    4320:	e1a04000 	mov	r4, r0
    4324:	e3100001 	tst	r0, #1
    4328:	1a00000b 	bne	435c <i2c0InterruptHandler+0x4c>
    432c:	e3100008 	tst	r0, #8
    4330:	1a00000d 	bne	436c <i2c0InterruptHandler+0x5c>
    4334:	e3140010 	tst	r4, #16
    4338:	13003154 	movwne	r3, #340	; 0x154
    433c:	134e3630 	movtne	r3, #58928	; 0xe630
    4340:	13a02001 	movne	r2, #1
    4344:	15c32010 	strbne	r2, [r3, #16]
    4348:	e1a01004 	mov	r1, r4
    434c:	e3a00000 	mov	r0, #0
    4350:	e34e0650 	movt	r0, #58960	; 0xe650
    4354:	eb000202 	bl	4b64 <I2C_masterClearInterruptStatus>
    4358:	e8bd8010 	pop	{r4, pc}
    435c:	e3a00000 	mov	r0, #0
    4360:	e34e0650 	movt	r0, #58960	; 0xe650
    4364:	eb000255 	bl	4cc0 <I2C_masterDisableStartGeneration>
    4368:	eafffff1 	b	4334 <i2c0InterruptHandler+0x24>
    436c:	e3003154 	movw	r3, #340	; 0x154
    4370:	e34e3630 	movt	r3, #58928	; 0xe630
    4374:	e593200c 	ldr	r2, [r3, #12]
    4378:	e2821001 	add	r1, r2, #1
    437c:	e583100c 	str	r1, [r3, #12]
    4380:	e3063a64 	movw	r3, #27236	; 0x6a64
    4384:	e3403000 	movt	r3, #0
    4388:	e7931102 	ldr	r1, [r3, r2, lsl #2]
    438c:	e3a00000 	mov	r0, #0
    4390:	e34e0650 	movt	r0, #58960	; 0xe650
    4394:	eb0001fb 	bl	4b88 <I2C_masterSendMultipleByteNext>
    4398:	eaffffe5 	b	4334 <i2c0InterruptHandler+0x24>

0000439c <master_tx_250kHz>:
    439c:	e92d4070 	push	{r4, r5, r6, lr}
    43a0:	e3065a64 	movw	r5, #27236	; 0x6a64
    43a4:	e3405000 	movt	r5, #0
    43a8:	e3a04000 	mov	r4, #0
    43ac:	e34e4650 	movt	r4, #58960	; 0xe650
    43b0:	e2851008 	add	r1, r5, #8
    43b4:	e1a00004 	mov	r0, r4
    43b8:	eb000124 	bl	4850 <I2C_masterInit>
    43bc:	e3e01000 	mvn	r1, #0
    43c0:	e1a00004 	mov	r0, r4
    43c4:	eb0001e6 	bl	4b64 <I2C_masterClearInterruptStatus>
    43c8:	e3a01019 	mov	r1, #25
    43cc:	e1a00004 	mov	r0, r4
    43d0:	eb0001d8 	bl	4b38 <I2C_masterEnableInterrupt>
    43d4:	e1a00004 	mov	r0, r4
    43d8:	eb0001ce 	bl	4b18 <I2C_masterEnable>
    43dc:	e3a06902 	mov	r6, #32768	; 0x8000
    43e0:	e34e6650 	movt	r6, #58960	; 0xe650
    43e4:	e2851010 	add	r1, r5, #16
    43e8:	e1a00006 	mov	r0, r6
    43ec:	eb00002e 	bl	44ac <I2C_slaveInit>
    43f0:	e3e01000 	mvn	r1, #0
    43f4:	e1a00006 	mov	r0, r6
    43f8:	eb0000ee 	bl	47b8 <I2C_slaveClearInterruptStatus>
    43fc:	e3a01013 	mov	r1, #19
    4400:	e1a00006 	mov	r0, r6
    4404:	eb0000e0 	bl	478c <I2C_slaveEnableInterrupt>
    4408:	e1a00006 	mov	r0, r6
    440c:	eb0000d4 	bl	4764 <I2C_slaveEnable>
    4410:	ebfff4ff 	bl	1814 <GIC_enable>
    4414:	e3041310 	movw	r1, #17168	; 0x4310
    4418:	e3401000 	movt	r1, #0
    441c:	e300010e 	movw	r0, #270	; 0x10e
    4420:	ebfff550 	bl	1968 <GIC_setInterruptHandler>
    4424:	e304125c 	movw	r1, #16988	; 0x425c
    4428:	e3401000 	movt	r1, #0
    442c:	e300010f 	movw	r0, #271	; 0x10f
    4430:	ebfff54c 	bl	1968 <GIC_setInterruptHandler>
    4434:	e300010e 	movw	r0, #270	; 0x10e
    4438:	ebfff50c 	bl	1870 <GIC_enableInterrupt>
    443c:	e300010f 	movw	r0, #271	; 0x10f
    4440:	ebfff50a 	bl	1870 <GIC_enableInterrupt>
    4444:	e3003154 	movw	r3, #340	; 0x154
    4448:	e34e3630 	movt	r3, #58928	; 0xe630
    444c:	e593200c 	ldr	r2, [r3, #12]
    4450:	e2821001 	add	r1, r2, #1
    4454:	e583100c 	str	r1, [r3, #12]
    4458:	e7951102 	ldr	r1, [r5, r2, lsl #2]
    445c:	e1a00004 	mov	r0, r4
    4460:	eb0001c3 	bl	4b74 <I2C_masterSendMultipleByteStart>
    4464:	e3002154 	movw	r2, #340	; 0x154
    4468:	e34e2630 	movt	r2, #58928	; 0xe630
    446c:	e5d23010 	ldrb	r3, [r2, #16]
    4470:	e31300ff 	tst	r3, #255	; 0xff
    4474:	0afffffc 	beq	446c <master_tx_250kHz+0xd0>
    4478:	e3003154 	movw	r3, #340	; 0x154
    447c:	e34e3630 	movt	r3, #58928	; 0xe630
    4480:	e5933004 	ldr	r3, [r3, #4]
    4484:	e35300aa 	cmp	r3, #170	; 0xaa
    4488:	1a000005 	bne	44a4 <master_tx_250kHz+0x108>
    448c:	e3003154 	movw	r3, #340	; 0x154
    4490:	e34e3630 	movt	r3, #58928	; 0xe630
    4494:	e5930008 	ldr	r0, [r3, #8]
    4498:	e2500055 	subs	r0, r0, #85	; 0x55
    449c:	13a00001 	movne	r0, #1
    44a0:	e8bd8070 	pop	{r4, r5, r6, pc}
    44a4:	e3a00001 	mov	r0, #1
    44a8:	e8bd8070 	pop	{r4, r5, r6, pc}

000044ac <I2C_slaveInit>:
    44ac:	e52de004 	push	{lr}		; (str lr, [sp, #-4]!)
    44b0:	e5d13000 	ldrb	r3, [r1]
    44b4:	e580301c 	str	r3, [r0, #28]
    44b8:	e5903000 	ldr	r3, [r0]
    44bc:	e3833008 	orr	r3, r3, #8
    44c0:	e5803000 	str	r3, [r0]
    44c4:	e5d13001 	ldrb	r3, [r1, #1]
    44c8:	e3530001 	cmp	r3, #1
    44cc:	e5903000 	ldr	r3, [r0]
    44d0:	03833010 	orreq	r3, r3, #16
    44d4:	17c4321f 	bfcne	r3, #4, #1
    44d8:	e5803000 	str	r3, [r0]
    44dc:	e5d13002 	ldrb	r3, [r1, #2]
    44e0:	e3530001 	cmp	r3, #1
    44e4:	e5903000 	ldr	r3, [r0]
    44e8:	03833002 	orreq	r3, r3, #2
    44ec:	17c1309f 	bfcne	r3, #1, #1
    44f0:	e5803000 	str	r3, [r0]
    44f4:	e3062a7c 	movw	r2, #27260	; 0x6a7c
    44f8:	e3402000 	movt	r2, #0
    44fc:	e5d1e005 	ldrb	lr, [r1, #5]
    4500:	e5d13004 	ldrb	r3, [r1, #4]
    4504:	e5d1c003 	ldrb	ip, [r1, #3]
    4508:	e08ee10e 	add	lr, lr, lr, lsl #2
    450c:	e0833103 	add	r3, r3, r3, lsl #2
    4510:	e0633183 	rsb	r3, r3, r3, lsl #3
    4514:	e1a03183 	lsl	r3, r3, #3
    4518:	e083318e 	add	r3, r3, lr, lsl #3
    451c:	e08cc10c 	add	ip, ip, ip, lsl #2
    4520:	e06cc18c 	rsb	ip, ip, ip, lsl #3
    4524:	e083320c 	add	r3, r3, ip, lsl #4
    4528:	e792c003 	ldr	ip, [r2, r3]
    452c:	e5903028 	ldr	r3, [r0, #40]	; 0x28
    4530:	e7c2311c 	bfi	r3, ip, #2, #1
    4534:	e5803028 	str	r3, [r0, #40]	; 0x28
    4538:	e5d1e005 	ldrb	lr, [r1, #5]
    453c:	e5d1c004 	ldrb	ip, [r1, #4]
    4540:	e5d13003 	ldrb	r3, [r1, #3]
    4544:	e08ee10e 	add	lr, lr, lr, lsl #2
    4548:	e0833103 	add	r3, r3, r3, lsl #2
    454c:	e0633183 	rsb	r3, r3, r3, lsl #3
    4550:	e1a03203 	lsl	r3, r3, #4
    4554:	e083318e 	add	r3, r3, lr, lsl #3
    4558:	e08cc10c 	add	ip, ip, ip, lsl #2
    455c:	e06cc18c 	rsb	ip, ip, ip, lsl #3
    4560:	e083318c 	add	r3, r3, ip, lsl #3
    4564:	e0823003 	add	r3, r2, r3
    4568:	e593c004 	ldr	ip, [r3, #4]
    456c:	e5903028 	ldr	r3, [r0, #40]	; 0x28
    4570:	e7c1309c 	bfi	r3, ip, #1, #1
    4574:	e5803028 	str	r3, [r0, #40]	; 0x28
    4578:	e5d1e005 	ldrb	lr, [r1, #5]
    457c:	e5d1c004 	ldrb	ip, [r1, #4]
    4580:	e5d13003 	ldrb	r3, [r1, #3]
    4584:	e08ee10e 	add	lr, lr, lr, lsl #2
    4588:	e0833103 	add	r3, r3, r3, lsl #2
    458c:	e0633183 	rsb	r3, r3, r3, lsl #3
    4590:	e1a03203 	lsl	r3, r3, #4
    4594:	e083318e 	add	r3, r3, lr, lsl #3
    4598:	e08cc10c 	add	ip, ip, ip, lsl #2
    459c:	e06cc18c 	rsb	ip, ip, ip, lsl #3
    45a0:	e083318c 	add	r3, r3, ip, lsl #3
    45a4:	e0823003 	add	r3, r2, r3
    45a8:	e593c008 	ldr	ip, [r3, #8]
    45ac:	e5903028 	ldr	r3, [r0, #40]	; 0x28
    45b0:	e7c0301c 	bfi	r3, ip, #0, #1
    45b4:	e5803028 	str	r3, [r0, #40]	; 0x28
    45b8:	e5d1e005 	ldrb	lr, [r1, #5]
    45bc:	e5d1c004 	ldrb	ip, [r1, #4]
    45c0:	e5d13003 	ldrb	r3, [r1, #3]
    45c4:	e08ee10e 	add	lr, lr, lr, lsl #2
    45c8:	e0833103 	add	r3, r3, r3, lsl #2
    45cc:	e0633183 	rsb	r3, r3, r3, lsl #3
    45d0:	e1a03203 	lsl	r3, r3, #4
    45d4:	e083318e 	add	r3, r3, lr, lsl #3
    45d8:	e08cc10c 	add	ip, ip, ip, lsl #2
    45dc:	e06cc18c 	rsb	ip, ip, ip, lsl #3
    45e0:	e083318c 	add	r3, r3, ip, lsl #3
    45e4:	e0823003 	add	r3, r2, r3
    45e8:	e593c00c 	ldr	ip, [r3, #12]
    45ec:	e5903038 	ldr	r3, [r0, #56]	; 0x38
    45f0:	e7c4301c 	bfi	r3, ip, #0, #5
    45f4:	e5803038 	str	r3, [r0, #56]	; 0x38
    45f8:	e5d1e005 	ldrb	lr, [r1, #5]
    45fc:	e5d1c004 	ldrb	ip, [r1, #4]
    4600:	e5d13003 	ldrb	r3, [r1, #3]
    4604:	e08ee10e 	add	lr, lr, lr, lsl #2
    4608:	e0833103 	add	r3, r3, r3, lsl #2
    460c:	e0633183 	rsb	r3, r3, r3, lsl #3
    4610:	e1a03203 	lsl	r3, r3, #4
    4614:	e083318e 	add	r3, r3, lr, lsl #3
    4618:	e08cc10c 	add	ip, ip, ip, lsl #2
    461c:	e06cc18c 	rsb	ip, ip, ip, lsl #3
    4620:	e083318c 	add	r3, r3, ip, lsl #3
    4624:	e0823003 	add	r3, r2, r3
    4628:	e593c010 	ldr	ip, [r3, #16]
    462c:	e5903018 	ldr	r3, [r0, #24]
    4630:	e7c2301c 	bfi	r3, ip, #0, #3
    4634:	e5803018 	str	r3, [r0, #24]
    4638:	e5d1e005 	ldrb	lr, [r1, #5]
    463c:	e5d1c004 	ldrb	ip, [r1, #4]
    4640:	e5d13003 	ldrb	r3, [r1, #3]
    4644:	e08ee10e 	add	lr, lr, lr, lsl #2
    4648:	e0833103 	add	r3, r3, r3, lsl #2
    464c:	e0633183 	rsb	r3, r3, r3, lsl #3
    4650:	e1a03203 	lsl	r3, r3, #4
    4654:	e083318e 	add	r3, r3, lr, lsl #3
    4658:	e08cc10c 	add	ip, ip, ip, lsl #2
    465c:	e06cc18c 	rsb	ip, ip, ip, lsl #3
    4660:	e083318c 	add	r3, r3, ip, lsl #3
    4664:	e0823003 	add	r3, r2, r3
    4668:	e593c014 	ldr	ip, [r3, #20]
    466c:	e5903018 	ldr	r3, [r0, #24]
    4670:	e7c8319c 	bfi	r3, ip, #3, #6
    4674:	e5803018 	str	r3, [r0, #24]
    4678:	e5d1e005 	ldrb	lr, [r1, #5]
    467c:	e5d1c004 	ldrb	ip, [r1, #4]
    4680:	e5d13003 	ldrb	r3, [r1, #3]
    4684:	e08ee10e 	add	lr, lr, lr, lsl #2
    4688:	e0833103 	add	r3, r3, r3, lsl #2
    468c:	e0633183 	rsb	r3, r3, r3, lsl #3
    4690:	e1a03203 	lsl	r3, r3, #4
    4694:	e083318e 	add	r3, r3, lr, lsl #3
    4698:	e08cc10c 	add	ip, ip, ip, lsl #2
    469c:	e06cc18c 	rsb	ip, ip, ip, lsl #3
    46a0:	e083318c 	add	r3, r3, ip, lsl #3
    46a4:	e0823003 	add	r3, r2, r3
    46a8:	e5933018 	ldr	r3, [r3, #24]
    46ac:	e580302c 	str	r3, [r0, #44]	; 0x2c
    46b0:	e5d1e005 	ldrb	lr, [r1, #5]
    46b4:	e5d1c004 	ldrb	ip, [r1, #4]
    46b8:	e5d13003 	ldrb	r3, [r1, #3]
    46bc:	e08ee10e 	add	lr, lr, lr, lsl #2
    46c0:	e0833103 	add	r3, r3, r3, lsl #2
    46c4:	e0633183 	rsb	r3, r3, r3, lsl #3
    46c8:	e1a03203 	lsl	r3, r3, #4
    46cc:	e083318e 	add	r3, r3, lr, lsl #3
    46d0:	e08cc10c 	add	ip, ip, ip, lsl #2
    46d4:	e06cc18c 	rsb	ip, ip, ip, lsl #3
    46d8:	e083318c 	add	r3, r3, ip, lsl #3
    46dc:	e0823003 	add	r3, r2, r3
    46e0:	e593301c 	ldr	r3, [r3, #28]
    46e4:	e5803030 	str	r3, [r0, #48]	; 0x30
    46e8:	e5d1e005 	ldrb	lr, [r1, #5]
    46ec:	e5d1c004 	ldrb	ip, [r1, #4]
    46f0:	e5d13003 	ldrb	r3, [r1, #3]
    46f4:	e08ee10e 	add	lr, lr, lr, lsl #2
    46f8:	e0833103 	add	r3, r3, r3, lsl #2
    46fc:	e0633183 	rsb	r3, r3, r3, lsl #3
    4700:	e1a03203 	lsl	r3, r3, #4
    4704:	e083318e 	add	r3, r3, lr, lsl #3
    4708:	e08cc10c 	add	ip, ip, ip, lsl #2
    470c:	e06cc18c 	rsb	ip, ip, ip, lsl #3
    4710:	e083318c 	add	r3, r3, ip, lsl #3
    4714:	e0823003 	add	r3, r2, r3
    4718:	e5933020 	ldr	r3, [r3, #32]
    471c:	e5803034 	str	r3, [r0, #52]	; 0x34
    4720:	e5d1e005 	ldrb	lr, [r1, #5]
    4724:	e5d1c004 	ldrb	ip, [r1, #4]
    4728:	e5d13003 	ldrb	r3, [r1, #3]
    472c:	e08ee10e 	add	lr, lr, lr, lsl #2
    4730:	e0833103 	add	r3, r3, r3, lsl #2
    4734:	e0633183 	rsb	r3, r3, r3, lsl #3
    4738:	e1a03203 	lsl	r3, r3, #4
    473c:	e083318e 	add	r3, r3, lr, lsl #3
    4740:	e08cc10c 	add	ip, ip, ip, lsl #2
    4744:	e06cc18c 	rsb	ip, ip, ip, lsl #3
    4748:	e083318c 	add	r3, r3, ip, lsl #3
    474c:	e0822003 	add	r2, r2, r3
    4750:	e5922024 	ldr	r2, [r2, #36]	; 0x24
    4754:	e5903028 	ldr	r3, [r0, #40]	; 0x28
    4758:	e7c73392 	bfi	r3, r2, #7, #1
    475c:	e5803028 	str	r3, [r0, #40]	; 0x28
    4760:	e49df004 	pop	{pc}		; (ldr pc, [sp], #4)

00004764 <I2C_slaveEnable>:
    4764:	e5903000 	ldr	r3, [r0]
    4768:	e3833004 	orr	r3, r3, #4
    476c:	e5803000 	str	r3, [r0]
    4770:	e12fff1e 	bx	lr

00004774 <I2C_slaveDisable>:
    4774:	e5903000 	ldr	r3, [r0]
    4778:	e7c2311f 	bfc	r3, #2, #1
    477c:	e5803000 	str	r3, [r0]
    4780:	e12fff1e 	bx	lr

00004784 <I2C_slaveSetAddress>:
    4784:	e580101c 	str	r1, [r0, #28]
    4788:	e12fff1e 	bx	lr

0000478c <I2C_slaveEnableInterrupt>:
    478c:	e5903010 	ldr	r3, [r0, #16]
    4790:	e1831001 	orr	r1, r3, r1
    4794:	e5801010 	str	r1, [r0, #16]
    4798:	e12fff1e 	bx	lr

0000479c <I2C_slaveDisableInterrupt>:
    479c:	e5903010 	ldr	r3, [r0, #16]
    47a0:	e1c31001 	bic	r1, r3, r1
    47a4:	e5801010 	str	r1, [r0, #16]
    47a8:	e12fff1e 	bx	lr

000047ac <I2C_slaveGetInterruptStatus>:
    47ac:	e5900008 	ldr	r0, [r0, #8]
    47b0:	e6ef0070 	uxtb	r0, r0
    47b4:	e12fff1e 	bx	lr

000047b8 <I2C_slaveClearInterruptStatus>:
    47b8:	e5903008 	ldr	r3, [r0, #8]
    47bc:	e1c31001 	bic	r1, r3, r1
    47c0:	e5801008 	str	r1, [r0, #8]
    47c4:	e12fff1e 	bx	lr

000047c8 <I2C_slaveForceNAK>:
    47c8:	e5903000 	ldr	r3, [r0]
    47cc:	e3833001 	orr	r3, r3, #1
    47d0:	e5803000 	str	r3, [r0]
    47d4:	e12fff1e 	bx	lr

000047d8 <I2C_slaveReceiveMultipleByteNext>:
    47d8:	e5900024 	ldr	r0, [r0, #36]	; 0x24
    47dc:	e6ef0070 	uxtb	r0, r0
    47e0:	e12fff1e 	bx	lr

000047e4 <I2C_slaveReceiveMultipleByteStop>:
    47e4:	e5903000 	ldr	r3, [r0]
    47e8:	e3833001 	orr	r3, r3, #1
    47ec:	e5803000 	str	r3, [r0]
    47f0:	e5900024 	ldr	r0, [r0, #36]	; 0x24
    47f4:	e6ef0070 	uxtb	r0, r0
    47f8:	e12fff1e 	bx	lr

000047fc <I2C_slaveReceiveMultipleByteFinish>:
    47fc:	e5900024 	ldr	r0, [r0, #36]	; 0x24
    4800:	e6ef0070 	uxtb	r0, r0
    4804:	e12fff1e 	bx	lr

00004808 <I2C_slaveSetData>:
    4808:	e5801024 	str	r1, [r0, #36]	; 0x24
    480c:	e12fff1e 	bx	lr

00004810 <I2C_slaveEnableDMAReceive>:
    4810:	e590303c 	ldr	r3, [r0, #60]	; 0x3c
    4814:	e3833008 	orr	r3, r3, #8
    4818:	e580303c 	str	r3, [r0, #60]	; 0x3c
    481c:	e12fff1e 	bx	lr

00004820 <I2C_slaveDisableDMAReceive>:
    4820:	e590303c 	ldr	r3, [r0, #60]	; 0x3c
    4824:	e7c3319f 	bfc	r3, #3, #1
    4828:	e580303c 	str	r3, [r0, #60]	; 0x3c
    482c:	e12fff1e 	bx	lr

00004830 <I2C_slaveEnableDMATransmit>:
    4830:	e590303c 	ldr	r3, [r0, #60]	; 0x3c
    4834:	e3833004 	orr	r3, r3, #4
    4838:	e580303c 	str	r3, [r0, #60]	; 0x3c
    483c:	e12fff1e 	bx	lr

00004840 <I2C_slaveDisableDMATransmit>:
    4840:	e590303c 	ldr	r3, [r0, #60]	; 0x3c
    4844:	e7c2311f 	bfc	r3, #2, #1
    4848:	e580303c 	str	r3, [r0, #60]	; 0x3c
    484c:	e12fff1e 	bx	lr

00004850 <I2C_masterInit>:
    4850:	e52de004 	push	{lr}		; (str lr, [sp, #-4]!)
    4854:	e5d12001 	ldrb	r2, [r1, #1]
    4858:	e5d13000 	ldrb	r3, [r1]
    485c:	e1833082 	orr	r3, r3, r2, lsl #1
    4860:	e5803020 	str	r3, [r0, #32]
    4864:	e5903004 	ldr	r3, [r0, #4]
    4868:	e3833080 	orr	r3, r3, #128	; 0x80
    486c:	e5803004 	str	r3, [r0, #4]
    4870:	e5d13002 	ldrb	r3, [r1, #2]
    4874:	e3530001 	cmp	r3, #1
    4878:	e5903004 	ldr	r3, [r0, #4]
    487c:	03833004 	orreq	r3, r3, #4
    4880:	17c2311f 	bfcne	r3, #2, #1
    4884:	e5803004 	str	r3, [r0, #4]
    4888:	e3062a7c 	movw	r2, #27260	; 0x6a7c
    488c:	e3402000 	movt	r2, #0
    4890:	e5d1e005 	ldrb	lr, [r1, #5]
    4894:	e5d13004 	ldrb	r3, [r1, #4]
    4898:	e5d1c003 	ldrb	ip, [r1, #3]
    489c:	e08ee10e 	add	lr, lr, lr, lsl #2
    48a0:	e0833103 	add	r3, r3, r3, lsl #2
    48a4:	e0633183 	rsb	r3, r3, r3, lsl #3
    48a8:	e1a03183 	lsl	r3, r3, #3
    48ac:	e083318e 	add	r3, r3, lr, lsl #3
    48b0:	e08cc10c 	add	ip, ip, ip, lsl #2
    48b4:	e06cc18c 	rsb	ip, ip, ip, lsl #3
    48b8:	e083320c 	add	r3, r3, ip, lsl #4
    48bc:	e792c003 	ldr	ip, [r2, r3]
    48c0:	e5903028 	ldr	r3, [r0, #40]	; 0x28
    48c4:	e7c2311c 	bfi	r3, ip, #2, #1
    48c8:	e5803028 	str	r3, [r0, #40]	; 0x28
    48cc:	e5d1e005 	ldrb	lr, [r1, #5]
    48d0:	e5d1c004 	ldrb	ip, [r1, #4]
    48d4:	e5d13003 	ldrb	r3, [r1, #3]
    48d8:	e08ee10e 	add	lr, lr, lr, lsl #2
    48dc:	e0833103 	add	r3, r3, r3, lsl #2
    48e0:	e0633183 	rsb	r3, r3, r3, lsl #3
    48e4:	e1a03203 	lsl	r3, r3, #4
    48e8:	e083318e 	add	r3, r3, lr, lsl #3
    48ec:	e08cc10c 	add	ip, ip, ip, lsl #2
    48f0:	e06cc18c 	rsb	ip, ip, ip, lsl #3
    48f4:	e083318c 	add	r3, r3, ip, lsl #3
    48f8:	e0823003 	add	r3, r2, r3
    48fc:	e593c004 	ldr	ip, [r3, #4]
    4900:	e5903028 	ldr	r3, [r0, #40]	; 0x28
    4904:	e7c1309c 	bfi	r3, ip, #1, #1
    4908:	e5803028 	str	r3, [r0, #40]	; 0x28
    490c:	e5d1e005 	ldrb	lr, [r1, #5]
    4910:	e5d1c004 	ldrb	ip, [r1, #4]
    4914:	e5d13003 	ldrb	r3, [r1, #3]
    4918:	e08ee10e 	add	lr, lr, lr, lsl #2
    491c:	e0833103 	add	r3, r3, r3, lsl #2
    4920:	e0633183 	rsb	r3, r3, r3, lsl #3
    4924:	e1a03203 	lsl	r3, r3, #4
    4928:	e083318e 	add	r3, r3, lr, lsl #3
    492c:	e08cc10c 	add	ip, ip, ip, lsl #2
    4930:	e06cc18c 	rsb	ip, ip, ip, lsl #3
    4934:	e083318c 	add	r3, r3, ip, lsl #3
    4938:	e0823003 	add	r3, r2, r3
    493c:	e593c008 	ldr	ip, [r3, #8]
    4940:	e5903028 	ldr	r3, [r0, #40]	; 0x28
    4944:	e7c0301c 	bfi	r3, ip, #0, #1
    4948:	e5803028 	str	r3, [r0, #40]	; 0x28
    494c:	e5d1e005 	ldrb	lr, [r1, #5]
    4950:	e5d1c004 	ldrb	ip, [r1, #4]
    4954:	e5d13003 	ldrb	r3, [r1, #3]
    4958:	e08ee10e 	add	lr, lr, lr, lsl #2
    495c:	e0833103 	add	r3, r3, r3, lsl #2
    4960:	e0633183 	rsb	r3, r3, r3, lsl #3
    4964:	e1a03203 	lsl	r3, r3, #4
    4968:	e083318e 	add	r3, r3, lr, lsl #3
    496c:	e08cc10c 	add	ip, ip, ip, lsl #2
    4970:	e06cc18c 	rsb	ip, ip, ip, lsl #3
    4974:	e083318c 	add	r3, r3, ip, lsl #3
    4978:	e0823003 	add	r3, r2, r3
    497c:	e593c00c 	ldr	ip, [r3, #12]
    4980:	e5903038 	ldr	r3, [r0, #56]	; 0x38
    4984:	e7c4301c 	bfi	r3, ip, #0, #5
    4988:	e5803038 	str	r3, [r0, #56]	; 0x38
    498c:	e5d1e005 	ldrb	lr, [r1, #5]
    4990:	e5d1c004 	ldrb	ip, [r1, #4]
    4994:	e5d13003 	ldrb	r3, [r1, #3]
    4998:	e08ee10e 	add	lr, lr, lr, lsl #2
    499c:	e0833103 	add	r3, r3, r3, lsl #2
    49a0:	e0633183 	rsb	r3, r3, r3, lsl #3
    49a4:	e1a03203 	lsl	r3, r3, #4
    49a8:	e083318e 	add	r3, r3, lr, lsl #3
    49ac:	e08cc10c 	add	ip, ip, ip, lsl #2
    49b0:	e06cc18c 	rsb	ip, ip, ip, lsl #3
    49b4:	e083318c 	add	r3, r3, ip, lsl #3
    49b8:	e0823003 	add	r3, r2, r3
    49bc:	e593c010 	ldr	ip, [r3, #16]
    49c0:	e5903018 	ldr	r3, [r0, #24]
    49c4:	e7c2301c 	bfi	r3, ip, #0, #3
    49c8:	e5803018 	str	r3, [r0, #24]
    49cc:	e5d1e005 	ldrb	lr, [r1, #5]
    49d0:	e5d1c004 	ldrb	ip, [r1, #4]
    49d4:	e5d13003 	ldrb	r3, [r1, #3]
    49d8:	e08ee10e 	add	lr, lr, lr, lsl #2
    49dc:	e0833103 	add	r3, r3, r3, lsl #2
    49e0:	e0633183 	rsb	r3, r3, r3, lsl #3
    49e4:	e1a03203 	lsl	r3, r3, #4
    49e8:	e083318e 	add	r3, r3, lr, lsl #3
    49ec:	e08cc10c 	add	ip, ip, ip, lsl #2
    49f0:	e06cc18c 	rsb	ip, ip, ip, lsl #3
    49f4:	e083318c 	add	r3, r3, ip, lsl #3
    49f8:	e0823003 	add	r3, r2, r3
    49fc:	e593c014 	ldr	ip, [r3, #20]
    4a00:	e5903018 	ldr	r3, [r0, #24]
    4a04:	e7c8319c 	bfi	r3, ip, #3, #6
    4a08:	e5803018 	str	r3, [r0, #24]
    4a0c:	e5d1e005 	ldrb	lr, [r1, #5]
    4a10:	e5d1c004 	ldrb	ip, [r1, #4]
    4a14:	e5d13003 	ldrb	r3, [r1, #3]
    4a18:	e08ee10e 	add	lr, lr, lr, lsl #2
    4a1c:	e0833103 	add	r3, r3, r3, lsl #2
    4a20:	e0633183 	rsb	r3, r3, r3, lsl #3
    4a24:	e1a03203 	lsl	r3, r3, #4
    4a28:	e083318e 	add	r3, r3, lr, lsl #3
    4a2c:	e08cc10c 	add	ip, ip, ip, lsl #2
    4a30:	e06cc18c 	rsb	ip, ip, ip, lsl #3
    4a34:	e083318c 	add	r3, r3, ip, lsl #3
    4a38:	e0823003 	add	r3, r2, r3
    4a3c:	e5933018 	ldr	r3, [r3, #24]
    4a40:	e580302c 	str	r3, [r0, #44]	; 0x2c
    4a44:	e5d1e005 	ldrb	lr, [r1, #5]
    4a48:	e5d1c004 	ldrb	ip, [r1, #4]
    4a4c:	e5d13003 	ldrb	r3, [r1, #3]
    4a50:	e08ee10e 	add	lr, lr, lr, lsl #2
    4a54:	e0833103 	add	r3, r3, r3, lsl #2
    4a58:	e0633183 	rsb	r3, r3, r3, lsl #3
    4a5c:	e1a03203 	lsl	r3, r3, #4
    4a60:	e083318e 	add	r3, r3, lr, lsl #3
    4a64:	e08cc10c 	add	ip, ip, ip, lsl #2
    4a68:	e06cc18c 	rsb	ip, ip, ip, lsl #3
    4a6c:	e083318c 	add	r3, r3, ip, lsl #3
    4a70:	e0823003 	add	r3, r2, r3
    4a74:	e593301c 	ldr	r3, [r3, #28]
    4a78:	e5803030 	str	r3, [r0, #48]	; 0x30
    4a7c:	e5d1e005 	ldrb	lr, [r1, #5]
    4a80:	e5d1c004 	ldrb	ip, [r1, #4]
    4a84:	e5d13003 	ldrb	r3, [r1, #3]
    4a88:	e08ee10e 	add	lr, lr, lr, lsl #2
    4a8c:	e0833103 	add	r3, r3, r3, lsl #2
    4a90:	e0633183 	rsb	r3, r3, r3, lsl #3
    4a94:	e1a03203 	lsl	r3, r3, #4
    4a98:	e083318e 	add	r3, r3, lr, lsl #3
    4a9c:	e08cc10c 	add	ip, ip, ip, lsl #2
    4aa0:	e06cc18c 	rsb	ip, ip, ip, lsl #3
    4aa4:	e083318c 	add	r3, r3, ip, lsl #3
    4aa8:	e0823003 	add	r3, r2, r3
    4aac:	e5933020 	ldr	r3, [r3, #32]
    4ab0:	e5803034 	str	r3, [r0, #52]	; 0x34
    4ab4:	e5d1e005 	ldrb	lr, [r1, #5]
    4ab8:	e5d1c004 	ldrb	ip, [r1, #4]
    4abc:	e5d13003 	ldrb	r3, [r1, #3]
    4ac0:	e08ee10e 	add	lr, lr, lr, lsl #2
    4ac4:	e0833103 	add	r3, r3, r3, lsl #2
    4ac8:	e0633183 	rsb	r3, r3, r3, lsl #3
    4acc:	e1a03203 	lsl	r3, r3, #4
    4ad0:	e083318e 	add	r3, r3, lr, lsl #3
    4ad4:	e08cc10c 	add	ip, ip, ip, lsl #2
    4ad8:	e06cc18c 	rsb	ip, ip, ip, lsl #3
    4adc:	e083318c 	add	r3, r3, ip, lsl #3
    4ae0:	e0822003 	add	r2, r2, r3
    4ae4:	e5922024 	ldr	r2, [r2, #36]	; 0x24
    4ae8:	e5903028 	ldr	r3, [r0, #40]	; 0x28
    4aec:	e7c73392 	bfi	r3, r2, #7, #1
    4af0:	e5803028 	str	r3, [r0, #40]	; 0x28
    4af4:	e49df004 	pop	{pc}		; (ldr pc, [sp], #4)

00004af8 <I2C_masterSetSlaveAddress>:
    4af8:	e5903020 	ldr	r3, [r0, #32]
    4afc:	e7c73091 	bfi	r3, r1, #1, #7
    4b00:	e5803020 	str	r3, [r0, #32]
    4b04:	e12fff1e 	bx	lr

00004b08 <I2C_masterSetMode>:
    4b08:	e5903020 	ldr	r3, [r0, #32]
    4b0c:	e7c03011 	bfi	r3, r1, #0, #1
    4b10:	e5803020 	str	r3, [r0, #32]
    4b14:	e12fff1e 	bx	lr

00004b18 <I2C_masterEnable>:
    4b18:	e5903004 	ldr	r3, [r0, #4]
    4b1c:	e3833008 	orr	r3, r3, #8
    4b20:	e5803004 	str	r3, [r0, #4]
    4b24:	e12fff1e 	bx	lr

00004b28 <I2C_masterDisable>:
    4b28:	e5903004 	ldr	r3, [r0, #4]
    4b2c:	e7c3319f 	bfc	r3, #3, #1
    4b30:	e5803004 	str	r3, [r0, #4]
    4b34:	e12fff1e 	bx	lr

00004b38 <I2C_masterEnableInterrupt>:
    4b38:	e5903014 	ldr	r3, [r0, #20]
    4b3c:	e1831001 	orr	r1, r3, r1
    4b40:	e5801014 	str	r1, [r0, #20]
    4b44:	e12fff1e 	bx	lr

00004b48 <I2C_masterDisableInterrupt>:
    4b48:	e5903014 	ldr	r3, [r0, #20]
    4b4c:	e1c31001 	bic	r1, r3, r1
    4b50:	e5801014 	str	r1, [r0, #20]
    4b54:	e12fff1e 	bx	lr

00004b58 <I2C_masterGetInterruptStatus>:
    4b58:	e590000c 	ldr	r0, [r0, #12]
    4b5c:	e6ef0070 	uxtb	r0, r0
    4b60:	e12fff1e 	bx	lr

00004b64 <I2C_masterClearInterruptStatus>:
    4b64:	e590300c 	ldr	r3, [r0, #12]
    4b68:	e1c31001 	bic	r1, r3, r1
    4b6c:	e580100c 	str	r1, [r0, #12]
    4b70:	e12fff1e 	bx	lr

00004b74 <I2C_masterSendMultipleByteStart>:
    4b74:	e5801024 	str	r1, [r0, #36]	; 0x24
    4b78:	e5903004 	ldr	r3, [r0, #4]
    4b7c:	e3833001 	orr	r3, r3, #1
    4b80:	e5803004 	str	r3, [r0, #4]
    4b84:	e12fff1e 	bx	lr

00004b88 <I2C_masterSendMultipleByteNext>:
    4b88:	e5801024 	str	r1, [r0, #36]	; 0x24
    4b8c:	e12fff1e 	bx	lr

00004b90 <I2C_masterSendMultipleByteStop>:
    4b90:	e5903004 	ldr	r3, [r0, #4]
    4b94:	e3833002 	orr	r3, r3, #2
    4b98:	e5803004 	str	r3, [r0, #4]
    4b9c:	e12fff1e 	bx	lr

00004ba0 <I2C_masterReceiveStart>:
    4ba0:	e5903004 	ldr	r3, [r0, #4]
    4ba4:	e3833001 	orr	r3, r3, #1
    4ba8:	e5803004 	str	r3, [r0, #4]
    4bac:	e12fff1e 	bx	lr

00004bb0 <I2C_masterReceiveMultipleByteNext>:
    4bb0:	e5900024 	ldr	r0, [r0, #36]	; 0x24
    4bb4:	e6ef0070 	uxtb	r0, r0
    4bb8:	e12fff1e 	bx	lr

00004bbc <I2C_masterReceiveMultipleByteStop>:
    4bbc:	e5903004 	ldr	r3, [r0, #4]
    4bc0:	e3833002 	orr	r3, r3, #2
    4bc4:	e5803004 	str	r3, [r0, #4]
    4bc8:	e5900024 	ldr	r0, [r0, #36]	; 0x24
    4bcc:	e6ef0070 	uxtb	r0, r0
    4bd0:	e12fff1e 	bx	lr

00004bd4 <I2C_masterReceiveMultipleByteFinish>:
    4bd4:	e5900024 	ldr	r0, [r0, #36]	; 0x24
    4bd8:	e6ef0070 	uxtb	r0, r0
    4bdc:	e12fff1e 	bx	lr

00004be0 <I2C_masterSetDMAContinuousTransferCount>:
    4be0:	e590303c 	ldr	r3, [r0, #60]	; 0x3c
    4be4:	e7df3c11 	bfi	r3, r1, #24, #8
    4be8:	e580303c 	str	r3, [r0, #60]	; 0x3c
    4bec:	e12fff1e 	bx	lr

00004bf0 <I2C_masterSetDMAContinuousReceiveBlockCount>:
    4bf0:	e590303c 	ldr	r3, [r0, #60]	; 0x3c
    4bf4:	e7d73811 	bfi	r3, r1, #16, #8
    4bf8:	e580303c 	str	r3, [r0, #60]	; 0x3c
    4bfc:	e12fff1e 	bx	lr

00004c00 <I2C_masterSetDMAContinuousTransmitBlockCount>:
    4c00:	e590303c 	ldr	r3, [r0, #60]	; 0x3c
    4c04:	e7cf3411 	bfi	r3, r1, #8, #8
    4c08:	e580303c 	str	r3, [r0, #60]	; 0x3c
    4c0c:	e12fff1e 	bx	lr

00004c10 <I2C_masterEnableDMAContinuousReceive>:
    4c10:	e590303c 	ldr	r3, [r0, #60]	; 0x3c
    4c14:	e3833040 	orr	r3, r3, #64	; 0x40
    4c18:	e580303c 	str	r3, [r0, #60]	; 0x3c
    4c1c:	e12fff1e 	bx	lr

00004c20 <I2C_masterDisableDMAContinuousReceive>:
    4c20:	e590303c 	ldr	r3, [r0, #60]	; 0x3c
    4c24:	e7c6331f 	bfc	r3, #6, #1
    4c28:	e580303c 	str	r3, [r0, #60]	; 0x3c
    4c2c:	e12fff1e 	bx	lr

00004c30 <I2C_masterEnableDMAContinuousTransmit>:
    4c30:	e590303c 	ldr	r3, [r0, #60]	; 0x3c
    4c34:	e3833080 	orr	r3, r3, #128	; 0x80
    4c38:	e580303c 	str	r3, [r0, #60]	; 0x3c
    4c3c:	e12fff1e 	bx	lr

00004c40 <I2C_masterDisableDMAContinuousTransmit>:
    4c40:	e590303c 	ldr	r3, [r0, #60]	; 0x3c
    4c44:	e7c7339f 	bfc	r3, #7, #1
    4c48:	e580303c 	str	r3, [r0, #60]	; 0x3c
    4c4c:	e12fff1e 	bx	lr

00004c50 <I2C_masterEnableDMAReceive>:
    4c50:	e590303c 	ldr	r3, [r0, #60]	; 0x3c
    4c54:	e3833002 	orr	r3, r3, #2
    4c58:	e580303c 	str	r3, [r0, #60]	; 0x3c
    4c5c:	e12fff1e 	bx	lr

00004c60 <I2C_masterDisableDMAReceive>:
    4c60:	e590303c 	ldr	r3, [r0, #60]	; 0x3c
    4c64:	e7c1309f 	bfc	r3, #1, #1
    4c68:	e580303c 	str	r3, [r0, #60]	; 0x3c
    4c6c:	e12fff1e 	bx	lr

00004c70 <I2C_masterEnableDMATransmit>:
    4c70:	e590303c 	ldr	r3, [r0, #60]	; 0x3c
    4c74:	e3833001 	orr	r3, r3, #1
    4c78:	e580303c 	str	r3, [r0, #60]	; 0x3c
    4c7c:	e12fff1e 	bx	lr

00004c80 <I2C_masterDisableDMATransmit>:
    4c80:	e590303c 	ldr	r3, [r0, #60]	; 0x3c
    4c84:	e7c0301f 	bfc	r3, #0, #1
    4c88:	e580303c 	str	r3, [r0, #60]	; 0x3c
    4c8c:	e12fff1e 	bx	lr

00004c90 <I2C_masterRestart>:
    4c90:	e1822081 	orr	r2, r2, r1, lsl #1
    4c94:	e5802020 	str	r2, [r0, #32]
    4c98:	e5903004 	ldr	r3, [r0, #4]
    4c9c:	e3833001 	orr	r3, r3, #1
    4ca0:	e5803004 	str	r3, [r0, #4]
    4ca4:	e12fff1e 	bx	lr

00004ca8 <I2C_slaveIsGeneralCall>:
    4ca8:	e5900008 	ldr	r0, [r0, #8]
    4cac:	e7e00350 	ubfx	r0, r0, #6, #1
    4cb0:	e12fff1e 	bx	lr

00004cb4 <I2C_masterIsArbitrationLost>:
    4cb4:	e590000c 	ldr	r0, [r0, #12]
    4cb8:	e7e002d0 	ubfx	r0, r0, #5, #1
    4cbc:	e12fff1e 	bx	lr

00004cc0 <I2C_masterDisableStartGeneration>:
    4cc0:	e5903004 	ldr	r3, [r0, #4]
    4cc4:	e7c0301f 	bfc	r3, #0, #1
    4cc8:	e5803004 	str	r3, [r0, #4]
    4ccc:	e12fff1e 	bx	lr

00004cd0 <I2C_masterEnableStartByteTransmit>:
    4cd0:	e5903004 	ldr	r3, [r0, #4]
    4cd4:	e3833004 	orr	r3, r3, #4
    4cd8:	e5803004 	str	r3, [r0, #4]
    4cdc:	e12fff1e 	bx	lr

00004ce0 <I2C_masterDisableStartByteTransmit>:
    4ce0:	e5903004 	ldr	r3, [r0, #4]
    4ce4:	e7c2311f 	bfc	r3, #2, #1
    4ce8:	e5803004 	str	r3, [r0, #4]
    4cec:	e12fff1e 	bx	lr

00004cf0 <i2c1InterruptHandler>:
    4cf0:	e92d4070 	push	{r4, r5, r6, lr}
    4cf4:	e3a00902 	mov	r0, #32768	; 0x8000
    4cf8:	e34e0650 	movt	r0, #58960	; 0xe650
    4cfc:	ebfffeaa 	bl	47ac <I2C_slaveGetInterruptStatus>
    4d00:	e1a04000 	mov	r4, r0
    4d04:	e3100002 	tst	r0, #2
    4d08:	0a00000a 	beq	4d38 <i2c1InterruptHandler+0x48>
    4d0c:	e3003168 	movw	r3, #360	; 0x168
    4d10:	e34e3630 	movt	r3, #58928	; 0xe630
    4d14:	e5932000 	ldr	r2, [r3]
    4d18:	e5933000 	ldr	r3, [r3]
    4d1c:	e3530000 	cmp	r3, #0
    4d20:	0a000009 	beq	4d4c <i2c1InterruptHandler+0x5c>
    4d24:	e3003168 	movw	r3, #360	; 0x168
    4d28:	e34e3630 	movt	r3, #58928	; 0xe630
    4d2c:	e5933000 	ldr	r3, [r3]
    4d30:	e3530001 	cmp	r3, #1
    4d34:	0a00000f 	beq	4d78 <i2c1InterruptHandler+0x88>
    4d38:	e1a01004 	mov	r1, r4
    4d3c:	e3a00902 	mov	r0, #32768	; 0x8000
    4d40:	e34e0650 	movt	r0, #58960	; 0xe650
    4d44:	ebfffe9b 	bl	47b8 <I2C_slaveClearInterruptStatus>
    4d48:	e8bd8070 	pop	{r4, r5, r6, pc}
    4d4c:	e3005168 	movw	r5, #360	; 0x168
    4d50:	e34e5630 	movt	r5, #58928	; 0xe630
    4d54:	e5956000 	ldr	r6, [r5]
    4d58:	e2863001 	add	r3, r6, #1
    4d5c:	e5853000 	str	r3, [r5]
    4d60:	e3a00902 	mov	r0, #32768	; 0x8000
    4d64:	e34e0650 	movt	r0, #58960	; 0xe650
    4d68:	ebfffe9d 	bl	47e4 <I2C_slaveReceiveMultipleByteStop>
    4d6c:	e0855106 	add	r5, r5, r6, lsl #2
    4d70:	e5850004 	str	r0, [r5, #4]
    4d74:	eaffffef 	b	4d38 <i2c1InterruptHandler+0x48>
    4d78:	e3005168 	movw	r5, #360	; 0x168
    4d7c:	e34e5630 	movt	r5, #58928	; 0xe630
    4d80:	e5956000 	ldr	r6, [r5]
    4d84:	e2863001 	add	r3, r6, #1
    4d88:	e5853000 	str	r3, [r5]
    4d8c:	e3a00902 	mov	r0, #32768	; 0x8000
    4d90:	e34e0650 	movt	r0, #58960	; 0xe650
    4d94:	ebfffe98 	bl	47fc <I2C_slaveReceiveMultipleByteFinish>
    4d98:	e0855106 	add	r5, r5, r6, lsl #2
    4d9c:	e5850004 	str	r0, [r5, #4]
    4da0:	eaffffe4 	b	4d38 <i2c1InterruptHandler+0x48>

00004da4 <i2c0InterruptHandler>:
    4da4:	e92d4010 	push	{r4, lr}
    4da8:	e3a00000 	mov	r0, #0
    4dac:	e34e0650 	movt	r0, #58960	; 0xe650
    4db0:	ebffff68 	bl	4b58 <I2C_masterGetInterruptStatus>
    4db4:	e1a04000 	mov	r4, r0
    4db8:	e3100001 	tst	r0, #1
    4dbc:	1a00000b 	bne	4df0 <i2c0InterruptHandler+0x4c>
    4dc0:	e3100008 	tst	r0, #8
    4dc4:	1a00000d 	bne	4e00 <i2c0InterruptHandler+0x5c>
    4dc8:	e3140010 	tst	r4, #16
    4dcc:	13003168 	movwne	r3, #360	; 0x168
    4dd0:	134e3630 	movtne	r3, #58928	; 0xe630
    4dd4:	13a02001 	movne	r2, #1
    4dd8:	15c32010 	strbne	r2, [r3, #16]
    4ddc:	e1a01004 	mov	r1, r4
    4de0:	e3a00000 	mov	r0, #0
    4de4:	e34e0650 	movt	r0, #58960	; 0xe650
    4de8:	ebffff5d 	bl	4b64 <I2C_masterClearInterruptStatus>
    4dec:	e8bd8010 	pop	{r4, pc}
    4df0:	e3a00000 	mov	r0, #0
    4df4:	e34e0650 	movt	r0, #58960	; 0xe650
    4df8:	ebffffb0 	bl	4cc0 <I2C_masterDisableStartGeneration>
    4dfc:	eafffff1 	b	4dc8 <i2c0InterruptHandler+0x24>
    4e00:	e3003168 	movw	r3, #360	; 0x168
    4e04:	e34e3630 	movt	r3, #58928	; 0xe630
    4e08:	e593200c 	ldr	r2, [r3, #12]
    4e0c:	e2821001 	add	r1, r2, #1
    4e10:	e583100c 	str	r1, [r3, #12]
    4e14:	e3063edc 	movw	r3, #28380	; 0x6edc
    4e18:	e3403000 	movt	r3, #0
    4e1c:	e7931102 	ldr	r1, [r3, r2, lsl #2]
    4e20:	e3a00000 	mov	r0, #0
    4e24:	e34e0650 	movt	r0, #58960	; 0xe650
    4e28:	ebffff56 	bl	4b88 <I2C_masterSendMultipleByteNext>
    4e2c:	eaffffe5 	b	4dc8 <i2c0InterruptHandler+0x24>

00004e30 <master_tx_400kHz>:
    4e30:	e92d4070 	push	{r4, r5, r6, lr}
    4e34:	e3065edc 	movw	r5, #28380	; 0x6edc
    4e38:	e3405000 	movt	r5, #0
    4e3c:	e3a04000 	mov	r4, #0
    4e40:	e34e4650 	movt	r4, #58960	; 0xe650
    4e44:	e2851008 	add	r1, r5, #8
    4e48:	e1a00004 	mov	r0, r4
    4e4c:	ebfffe7f 	bl	4850 <I2C_masterInit>
    4e50:	e3e01000 	mvn	r1, #0
    4e54:	e1a00004 	mov	r0, r4
    4e58:	ebffff41 	bl	4b64 <I2C_masterClearInterruptStatus>
    4e5c:	e3a01019 	mov	r1, #25
    4e60:	e1a00004 	mov	r0, r4
    4e64:	ebffff33 	bl	4b38 <I2C_masterEnableInterrupt>
    4e68:	e1a00004 	mov	r0, r4
    4e6c:	ebffff29 	bl	4b18 <I2C_masterEnable>
    4e70:	e3a06902 	mov	r6, #32768	; 0x8000
    4e74:	e34e6650 	movt	r6, #58960	; 0xe650
    4e78:	e2851010 	add	r1, r5, #16
    4e7c:	e1a00006 	mov	r0, r6
    4e80:	ebfffd89 	bl	44ac <I2C_slaveInit>
    4e84:	e3e01000 	mvn	r1, #0
    4e88:	e1a00006 	mov	r0, r6
    4e8c:	ebfffe49 	bl	47b8 <I2C_slaveClearInterruptStatus>
    4e90:	e3a01013 	mov	r1, #19
    4e94:	e1a00006 	mov	r0, r6
    4e98:	ebfffe3b 	bl	478c <I2C_slaveEnableInterrupt>
    4e9c:	e1a00006 	mov	r0, r6
    4ea0:	ebfffe2f 	bl	4764 <I2C_slaveEnable>
    4ea4:	ebfff25a 	bl	1814 <GIC_enable>
    4ea8:	e3041da4 	movw	r1, #19876	; 0x4da4
    4eac:	e3401000 	movt	r1, #0
    4eb0:	e300010e 	movw	r0, #270	; 0x10e
    4eb4:	ebfff2ab 	bl	1968 <GIC_setInterruptHandler>
    4eb8:	e3041cf0 	movw	r1, #19696	; 0x4cf0
    4ebc:	e3401000 	movt	r1, #0
    4ec0:	e300010f 	movw	r0, #271	; 0x10f
    4ec4:	ebfff2a7 	bl	1968 <GIC_setInterruptHandler>
    4ec8:	e300010e 	movw	r0, #270	; 0x10e
    4ecc:	ebfff267 	bl	1870 <GIC_enableInterrupt>
    4ed0:	e300010f 	movw	r0, #271	; 0x10f
    4ed4:	ebfff265 	bl	1870 <GIC_enableInterrupt>
    4ed8:	e3003168 	movw	r3, #360	; 0x168
    4edc:	e34e3630 	movt	r3, #58928	; 0xe630
    4ee0:	e593200c 	ldr	r2, [r3, #12]
    4ee4:	e2821001 	add	r1, r2, #1
    4ee8:	e583100c 	str	r1, [r3, #12]
    4eec:	e7951102 	ldr	r1, [r5, r2, lsl #2]
    4ef0:	e1a00004 	mov	r0, r4
    4ef4:	ebffff1e 	bl	4b74 <I2C_masterSendMultipleByteStart>
    4ef8:	e3002168 	movw	r2, #360	; 0x168
    4efc:	e34e2630 	movt	r2, #58928	; 0xe630
    4f00:	e5d23010 	ldrb	r3, [r2, #16]
    4f04:	e31300ff 	tst	r3, #255	; 0xff
    4f08:	0afffffc 	beq	4f00 <master_tx_400kHz+0xd0>
    4f0c:	e3003168 	movw	r3, #360	; 0x168
    4f10:	e34e3630 	movt	r3, #58928	; 0xe630
    4f14:	e5933004 	ldr	r3, [r3, #4]
    4f18:	e35300aa 	cmp	r3, #170	; 0xaa
    4f1c:	1a000005 	bne	4f38 <master_tx_400kHz+0x108>
    4f20:	e3003168 	movw	r3, #360	; 0x168
    4f24:	e34e3630 	movt	r3, #58928	; 0xe630
    4f28:	e5930008 	ldr	r0, [r3, #8]
    4f2c:	e2500055 	subs	r0, r0, #85	; 0x55
    4f30:	13a00001 	movne	r0, #1
    4f34:	e8bd8070 	pop	{r4, r5, r6, pc}
    4f38:	e3a00001 	mov	r0, #1
    4f3c:	e8bd8070 	pop	{r4, r5, r6, pc}

00004f40 <Sim_Dump>:
    4f40:	e300317c 	movw	r3, #380	; 0x17c
    4f44:	e34e3630 	movt	r3, #58928	; 0xe630
    4f48:	e5932000 	ldr	r2, [r3]
    4f4c:	e1a02102 	lsl	r2, r2, #2
    4f50:	e2822301 	add	r2, r2, #67108864	; 0x4000000
    4f54:	e5820000 	str	r0, [r2]
    4f58:	e5932000 	ldr	r2, [r3]
    4f5c:	e2822001 	add	r2, r2, #1
    4f60:	e5832000 	str	r2, [r3]
    4f64:	e12fff1e 	bx	lr

00004f68 <Sim_DumpCheck>:
    4f68:	e92d4010 	push	{r4, lr}
    4f6c:	e1a04000 	mov	r4, r0
    4f70:	ebfffff2 	bl	4f40 <Sim_Dump>
    4f74:	e300317c 	movw	r3, #380	; 0x17c
    4f78:	e34e3630 	movt	r3, #58928	; 0xe630
    4f7c:	e5933000 	ldr	r3, [r3]
    4f80:	e1a03103 	lsl	r3, r3, #2
    4f84:	e2833301 	add	r3, r3, #67108864	; 0x4000000
    4f88:	e2433004 	sub	r3, r3, #4
    4f8c:	e5933000 	ldr	r3, [r3]
    4f90:	e1530004 	cmp	r3, r4
    4f94:	1afffffd 	bne	4f90 <Sim_DumpCheck+0x28>
    4f98:	e8bd8010 	pop	{r4, pc}

00004f9c <Sim_DumpSkip>:
    4f9c:	e300317c 	movw	r3, #380	; 0x17c
    4fa0:	e34e3630 	movt	r3, #58928	; 0xe630
    4fa4:	e5932000 	ldr	r2, [r3]
    4fa8:	e0820000 	add	r0, r2, r0
    4fac:	e5830000 	str	r0, [r3]
    4fb0:	e12fff1e 	bx	lr

00004fb4 <Sim_Stop>:
    4fb4:	e3a0367f 	mov	r3, #133169152	; 0x7f00000
    4fb8:	e3a02000 	mov	r2, #0
    4fbc:	e5832000 	str	r2, [r3]
    4fc0:	e12fff1e 	bx	lr

00004fc4 <Sim_Delay>:
    4fc4:	e2403001 	sub	r3, r0, #1
    4fc8:	e3500000 	cmp	r0, #0
    4fcc:	012fff1e 	bxeq	lr
    4fd0:	e2433001 	sub	r3, r3, #1
    4fd4:	e3730001 	cmn	r3, #1
    4fd8:	1afffffc 	bne	4fd0 <Sim_Delay+0xc>
    4fdc:	e12fff1e 	bx	lr

00004fe0 <Sim_Judge>:
    4fe0:	e92d4010 	push	{r4, lr}
    4fe4:	e3500000 	cmp	r0, #0
    4fe8:	0a000005 	beq	5004 <Sim_Judge+0x24>
    4fec:	e3500001 	cmp	r0, #1
    4ff0:	0a000007 	beq	5014 <Sim_Judge+0x34>
    4ff4:	e30a0dde 	movw	r0, #44510	; 0xadde
    4ff8:	e34a0dde 	movt	r0, #44510	; 0xadde
    4ffc:	ebffffcf 	bl	4f40 <Sim_Dump>
    5000:	e8bd8010 	pop	{r4, pc}
    5004:	e30e0bbe 	movw	r0, #60350	; 0xebbe
    5008:	e34e0bbe 	movt	r0, #60350	; 0xebbe
    500c:	ebffffcb 	bl	4f40 <Sim_Dump>
    5010:	e8bd8010 	pop	{r4, pc}
    5014:	e30a0dde 	movw	r0, #44510	; 0xadde
    5018:	e34a0dde 	movt	r0, #44510	; 0xadde
    501c:	ebffffc7 	bl	4f40 <Sim_Dump>
    5020:	e8bd8010 	pop	{r4, pc}

00005024 <Sim_CopyToSRAM>:
    5024:	e12fff1e 	bx	lr

00005028 <Sim_SetCR52BAR>:
    5028:	e3a03000 	mov	r3, #0
    502c:	e34e3617 	movt	r3, #58903	; 0xe617
    5030:	e3a02000 	mov	r2, #0
    5034:	e5832334 	str	r2, [r3, #820]	; 0x334
    5038:	e5830334 	str	r0, [r3, #820]	; 0x334
    503c:	e5932334 	ldr	r2, [r3, #820]	; 0x334
    5040:	e3822010 	orr	r2, r2, #16
    5044:	e5832334 	str	r2, [r3, #820]	; 0x334
    5048:	e12fff1e 	bx	lr

0000504c <PFC_SetBit>:
    504c:	e5913000 	ldr	r3, [r1]
    5050:	e3a0c001 	mov	ip, #1
    5054:	e183221c 	orr	r2, r3, ip, lsl r2
    5058:	e1e03002 	mvn	r3, r2
    505c:	e5803000 	str	r3, [r0]
    5060:	e5812000 	str	r2, [r1]
    5064:	e12fff1e 	bx	lr

00005068 <PFC_ClearBit>:
    5068:	e5913000 	ldr	r3, [r1]
    506c:	e3a0c001 	mov	ip, #1
    5070:	e1c3221c 	bic	r2, r3, ip, lsl r2
    5074:	e1e03002 	mvn	r3, r2
    5078:	e5803000 	str	r3, [r0]
    507c:	e5913000 	ldr	r3, [r1]
    5080:	e0022003 	and	r2, r2, r3
    5084:	e5812000 	str	r2, [r1]
    5088:	e12fff1e 	bx	lr

0000508c <PFC_SetMultipleBit>:
    508c:	e5913000 	ldr	r3, [r1]
    5090:	e1832002 	orr	r2, r3, r2
    5094:	e1e03002 	mvn	r3, r2
    5098:	e5803000 	str	r3, [r0]
    509c:	e5812000 	str	r2, [r1]
    50a0:	e12fff1e 	bx	lr

000050a4 <PFC_ClearMultipleBit>:
    50a4:	e5913000 	ldr	r3, [r1]
    50a8:	e1c32002 	bic	r2, r3, r2
    50ac:	e1e03002 	mvn	r3, r2
    50b0:	e5803000 	str	r3, [r0]
    50b4:	e5812000 	str	r2, [r1]
    50b8:	e12fff1e 	bx	lr

000050bc <PFC_WriteOr>:
    50bc:	e5913000 	ldr	r3, [r1]
    50c0:	e1832002 	orr	r2, r3, r2
    50c4:	e1e03002 	mvn	r3, r2
    50c8:	e5803000 	str	r3, [r0]
    50cc:	e5812000 	str	r2, [r1]
    50d0:	e12fff1e 	bx	lr

000050d4 <PFC_WriteAnd>:
    50d4:	e5913000 	ldr	r3, [r1]
    50d8:	e0022003 	and	r2, r2, r3
    50dc:	e1e03002 	mvn	r3, r2
    50e0:	e5803000 	str	r3, [r0]
    50e4:	e5812000 	str	r2, [r1]
    50e8:	e12fff1e 	bx	lr

000050ec <i2c1InterruptHandler>:
    50ec:	e92d4070 	push	{r4, r5, r6, lr}
    50f0:	e3a00902 	mov	r0, #32768	; 0x8000
    50f4:	e34e0650 	movt	r0, #58960	; 0xe650
    50f8:	ebfffdab 	bl	47ac <I2C_slaveGetInterruptStatus>
    50fc:	e1a04000 	mov	r4, r0
    5100:	e3100002 	tst	r0, #2
    5104:	0a00000a 	beq	5134 <i2c1InterruptHandler+0x48>
    5108:	e3003180 	movw	r3, #384	; 0x180
    510c:	e34e3630 	movt	r3, #58928	; 0xe630
    5110:	e5932000 	ldr	r2, [r3]
    5114:	e5933000 	ldr	r3, [r3]
    5118:	e3530000 	cmp	r3, #0
    511c:	0a000009 	beq	5148 <i2c1InterruptHandler+0x5c>
    5120:	e3003180 	movw	r3, #384	; 0x180
    5124:	e34e3630 	movt	r3, #58928	; 0xe630
    5128:	e5933000 	ldr	r3, [r3]
    512c:	e3530001 	cmp	r3, #1
    5130:	0a00000f 	beq	5174 <i2c1InterruptHandler+0x88>
    5134:	e1a01004 	mov	r1, r4
    5138:	e3a00902 	mov	r0, #32768	; 0x8000
    513c:	e34e0650 	movt	r0, #58960	; 0xe650
    5140:	ebfffd9c 	bl	47b8 <I2C_slaveClearInterruptStatus>
    5144:	e8bd8070 	pop	{r4, r5, r6, pc}
    5148:	e3005180 	movw	r5, #384	; 0x180
    514c:	e34e5630 	movt	r5, #58928	; 0xe630
    5150:	e5956000 	ldr	r6, [r5]
    5154:	e2863001 	add	r3, r6, #1
    5158:	e5853000 	str	r3, [r5]
    515c:	e3a00902 	mov	r0, #32768	; 0x8000
    5160:	e34e0650 	movt	r0, #58960	; 0xe650
    5164:	ebfffd9e 	bl	47e4 <I2C_slaveReceiveMultipleByteStop>
    5168:	e0855106 	add	r5, r5, r6, lsl #2
    516c:	e5850004 	str	r0, [r5, #4]
    5170:	eaffffef 	b	5134 <i2c1InterruptHandler+0x48>
    5174:	e3005180 	movw	r5, #384	; 0x180
    5178:	e34e5630 	movt	r5, #58928	; 0xe630
    517c:	e5956000 	ldr	r6, [r5]
    5180:	e2863001 	add	r3, r6, #1
    5184:	e5853000 	str	r3, [r5]
    5188:	e3a00902 	mov	r0, #32768	; 0x8000
    518c:	e34e0650 	movt	r0, #58960	; 0xe650
    5190:	ebfffd99 	bl	47fc <I2C_slaveReceiveMultipleByteFinish>
    5194:	e0855106 	add	r5, r5, r6, lsl #2
    5198:	e5850004 	str	r0, [r5, #4]
    519c:	eaffffe4 	b	5134 <i2c1InterruptHandler+0x48>

000051a0 <i2c0InterruptHandler>:
    51a0:	e92d4010 	push	{r4, lr}
    51a4:	e3a00000 	mov	r0, #0
    51a8:	e34e0650 	movt	r0, #58960	; 0xe650
    51ac:	ebfffe69 	bl	4b58 <I2C_masterGetInterruptStatus>
    51b0:	e1a04000 	mov	r4, r0
    51b4:	e3100001 	tst	r0, #1
    51b8:	1a00000b 	bne	51ec <i2c0InterruptHandler+0x4c>
    51bc:	e3100008 	tst	r0, #8
    51c0:	1a00000d 	bne	51fc <i2c0InterruptHandler+0x5c>
    51c4:	e3140010 	tst	r4, #16
    51c8:	13003180 	movwne	r3, #384	; 0x180
    51cc:	134e3630 	movtne	r3, #58928	; 0xe630
    51d0:	13a02001 	movne	r2, #1
    51d4:	15c32010 	strbne	r2, [r3, #16]
    51d8:	e1a01004 	mov	r1, r4
    51dc:	e3a00000 	mov	r0, #0
    51e0:	e34e0650 	movt	r0, #58960	; 0xe650
    51e4:	ebfffe5e 	bl	4b64 <I2C_masterClearInterruptStatus>
    51e8:	e8bd8010 	pop	{r4, pc}
    51ec:	e3a00000 	mov	r0, #0
    51f0:	e34e0650 	movt	r0, #58960	; 0xe650
    51f4:	ebfffeb1 	bl	4cc0 <I2C_masterDisableStartGeneration>
    51f8:	eafffff1 	b	51c4 <i2c0InterruptHandler+0x24>
    51fc:	e3003180 	movw	r3, #384	; 0x180
    5200:	e34e3630 	movt	r3, #58928	; 0xe630
    5204:	e593200c 	ldr	r2, [r3, #12]
    5208:	e2821001 	add	r1, r2, #1
    520c:	e583100c 	str	r1, [r3, #12]
    5210:	e3063ef4 	movw	r3, #28404	; 0x6ef4
    5214:	e3403000 	movt	r3, #0
    5218:	e7931102 	ldr	r1, [r3, r2, lsl #2]
    521c:	e3a00000 	mov	r0, #0
    5220:	e34e0650 	movt	r0, #58960	; 0xe650
    5224:	ebfffe57 	bl	4b88 <I2C_masterSendMultipleByteNext>
    5228:	eaffffe5 	b	51c4 <i2c0InterruptHandler+0x24>

0000522c <master_general_call>:
    522c:	e92d4070 	push	{r4, r5, r6, lr}
    5230:	e3065ef4 	movw	r5, #28404	; 0x6ef4
    5234:	e3405000 	movt	r5, #0
    5238:	e3a04000 	mov	r4, #0
    523c:	e34e4650 	movt	r4, #58960	; 0xe650
    5240:	e2851008 	add	r1, r5, #8
    5244:	e1a00004 	mov	r0, r4
    5248:	ebfffd80 	bl	4850 <I2C_masterInit>
    524c:	e3e01000 	mvn	r1, #0
    5250:	e1a00004 	mov	r0, r4
    5254:	ebfffe42 	bl	4b64 <I2C_masterClearInterruptStatus>
    5258:	e3a01019 	mov	r1, #25
    525c:	e1a00004 	mov	r0, r4
    5260:	ebfffe34 	bl	4b38 <I2C_masterEnableInterrupt>
    5264:	e1a00004 	mov	r0, r4
    5268:	ebfffe2a 	bl	4b18 <I2C_masterEnable>
    526c:	e3a06902 	mov	r6, #32768	; 0x8000
    5270:	e34e6650 	movt	r6, #58960	; 0xe650
    5274:	e2851010 	add	r1, r5, #16
    5278:	e1a00006 	mov	r0, r6
    527c:	ebfffc8a 	bl	44ac <I2C_slaveInit>
    5280:	e3e01000 	mvn	r1, #0
    5284:	e1a00006 	mov	r0, r6
    5288:	ebfffd4a 	bl	47b8 <I2C_slaveClearInterruptStatus>
    528c:	e3a01013 	mov	r1, #19
    5290:	e1a00006 	mov	r0, r6
    5294:	ebfffd3c 	bl	478c <I2C_slaveEnableInterrupt>
    5298:	e1a00006 	mov	r0, r6
    529c:	ebfffd30 	bl	4764 <I2C_slaveEnable>
    52a0:	ebfff15b 	bl	1814 <GIC_enable>
    52a4:	e30511a0 	movw	r1, #20896	; 0x51a0
    52a8:	e3401000 	movt	r1, #0
    52ac:	e300010e 	movw	r0, #270	; 0x10e
    52b0:	ebfff1ac 	bl	1968 <GIC_setInterruptHandler>
    52b4:	e30510ec 	movw	r1, #20716	; 0x50ec
    52b8:	e3401000 	movt	r1, #0
    52bc:	e300010f 	movw	r0, #271	; 0x10f
    52c0:	ebfff1a8 	bl	1968 <GIC_setInterruptHandler>
    52c4:	e300010e 	movw	r0, #270	; 0x10e
    52c8:	ebfff168 	bl	1870 <GIC_enableInterrupt>
    52cc:	e300010f 	movw	r0, #271	; 0x10f
    52d0:	ebfff166 	bl	1870 <GIC_enableInterrupt>
    52d4:	e3003180 	movw	r3, #384	; 0x180
    52d8:	e34e3630 	movt	r3, #58928	; 0xe630
    52dc:	e593200c 	ldr	r2, [r3, #12]
    52e0:	e2821001 	add	r1, r2, #1
    52e4:	e583100c 	str	r1, [r3, #12]
    52e8:	e7951102 	ldr	r1, [r5, r2, lsl #2]
    52ec:	e1a00004 	mov	r0, r4
    52f0:	ebfffe1f 	bl	4b74 <I2C_masterSendMultipleByteStart>
    52f4:	e3002180 	movw	r2, #384	; 0x180
    52f8:	e34e2630 	movt	r2, #58928	; 0xe630
    52fc:	e5d23010 	ldrb	r3, [r2, #16]
    5300:	e31300ff 	tst	r3, #255	; 0xff
    5304:	0afffffc 	beq	52fc <master_general_call+0xd0>
    5308:	e3003180 	movw	r3, #384	; 0x180
    530c:	e34e3630 	movt	r3, #58928	; 0xe630
    5310:	e5933004 	ldr	r3, [r3, #4]
    5314:	e35300aa 	cmp	r3, #170	; 0xaa
    5318:	1a000005 	bne	5334 <master_general_call+0x108>
    531c:	e3003180 	movw	r3, #384	; 0x180
    5320:	e34e3630 	movt	r3, #58928	; 0xe630
    5324:	e5930008 	ldr	r0, [r3, #8]
    5328:	e2500055 	subs	r0, r0, #85	; 0x55
    532c:	13a00001 	movne	r0, #1
    5330:	e8bd8070 	pop	{r4, r5, r6, pc}
    5334:	e3a00001 	mov	r0, #1
    5338:	e8bd8070 	pop	{r4, r5, r6, pc}

0000533c <i2c1InterruptHandler>:
    533c:	e92d4070 	push	{r4, r5, r6, lr}
    5340:	e3a00902 	mov	r0, #32768	; 0x8000
    5344:	e34e0650 	movt	r0, #58960	; 0xe650
    5348:	ebfffd17 	bl	47ac <I2C_slaveGetInterruptStatus>
    534c:	e1a04000 	mov	r4, r0
    5350:	e3100002 	tst	r0, #2
    5354:	0a00000a 	beq	5384 <i2c1InterruptHandler+0x48>
    5358:	e3003194 	movw	r3, #404	; 0x194
    535c:	e34e3630 	movt	r3, #58928	; 0xe630
    5360:	e5932000 	ldr	r2, [r3]
    5364:	e5933000 	ldr	r3, [r3]
    5368:	e3530000 	cmp	r3, #0
    536c:	0a000009 	beq	5398 <i2c1InterruptHandler+0x5c>
    5370:	e3003194 	movw	r3, #404	; 0x194
    5374:	e34e3630 	movt	r3, #58928	; 0xe630
    5378:	e5933000 	ldr	r3, [r3]
    537c:	e3530001 	cmp	r3, #1
    5380:	0a00000f 	beq	53c4 <i2c1InterruptHandler+0x88>
    5384:	e1a01004 	mov	r1, r4
    5388:	e3a00902 	mov	r0, #32768	; 0x8000
    538c:	e34e0650 	movt	r0, #58960	; 0xe650
    5390:	ebfffd08 	bl	47b8 <I2C_slaveClearInterruptStatus>
    5394:	e8bd8070 	pop	{r4, r5, r6, pc}
    5398:	e3005194 	movw	r5, #404	; 0x194
    539c:	e34e5630 	movt	r5, #58928	; 0xe630
    53a0:	e5956000 	ldr	r6, [r5]
    53a4:	e2863001 	add	r3, r6, #1
    53a8:	e5853000 	str	r3, [r5]
    53ac:	e3a00902 	mov	r0, #32768	; 0x8000
    53b0:	e34e0650 	movt	r0, #58960	; 0xe650
    53b4:	ebfffd0a 	bl	47e4 <I2C_slaveReceiveMultipleByteStop>
    53b8:	e0855106 	add	r5, r5, r6, lsl #2
    53bc:	e5850004 	str	r0, [r5, #4]
    53c0:	eaffffef 	b	5384 <i2c1InterruptHandler+0x48>
    53c4:	e3005194 	movw	r5, #404	; 0x194
    53c8:	e34e5630 	movt	r5, #58928	; 0xe630
    53cc:	e5956000 	ldr	r6, [r5]
    53d0:	e2863001 	add	r3, r6, #1
    53d4:	e5853000 	str	r3, [r5]
    53d8:	e3a00902 	mov	r0, #32768	; 0x8000
    53dc:	e34e0650 	movt	r0, #58960	; 0xe650
    53e0:	ebfffd05 	bl	47fc <I2C_slaveReceiveMultipleByteFinish>
    53e4:	e0855106 	add	r5, r5, r6, lsl #2
    53e8:	e5850004 	str	r0, [r5, #4]
    53ec:	eaffffe4 	b	5384 <i2c1InterruptHandler+0x48>

000053f0 <i2c0InterruptHandler>:
    53f0:	e92d4010 	push	{r4, lr}
    53f4:	e3a00000 	mov	r0, #0
    53f8:	e34e0650 	movt	r0, #58960	; 0xe650
    53fc:	ebfffdd5 	bl	4b58 <I2C_masterGetInterruptStatus>
    5400:	e1a04000 	mov	r4, r0
    5404:	e3100001 	tst	r0, #1
    5408:	1a00000b 	bne	543c <i2c0InterruptHandler+0x4c>
    540c:	e3100008 	tst	r0, #8
    5410:	1a00000d 	bne	544c <i2c0InterruptHandler+0x5c>
    5414:	e3140010 	tst	r4, #16
    5418:	13003194 	movwne	r3, #404	; 0x194
    541c:	134e3630 	movtne	r3, #58928	; 0xe630
    5420:	13a02001 	movne	r2, #1
    5424:	15c32010 	strbne	r2, [r3, #16]
    5428:	e1a01004 	mov	r1, r4
    542c:	e3a00000 	mov	r0, #0
    5430:	e34e0650 	movt	r0, #58960	; 0xe650
    5434:	ebfffdca 	bl	4b64 <I2C_masterClearInterruptStatus>
    5438:	e8bd8010 	pop	{r4, pc}
    543c:	e3a00000 	mov	r0, #0
    5440:	e34e0650 	movt	r0, #58960	; 0xe650
    5444:	ebfffe1d 	bl	4cc0 <I2C_masterDisableStartGeneration>
    5448:	eafffff1 	b	5414 <i2c0InterruptHandler+0x24>
    544c:	e3003194 	movw	r3, #404	; 0x194
    5450:	e34e3630 	movt	r3, #58928	; 0xe630
    5454:	e593200c 	ldr	r2, [r3, #12]
    5458:	e2821001 	add	r1, r2, #1
    545c:	e583100c 	str	r1, [r3, #12]
    5460:	e3063f0c 	movw	r3, #28428	; 0x6f0c
    5464:	e3403000 	movt	r3, #0
    5468:	e7931102 	ldr	r1, [r3, r2, lsl #2]
    546c:	e3a00000 	mov	r0, #0
    5470:	e34e0650 	movt	r0, #58960	; 0xe650
    5474:	ebfffdc3 	bl	4b88 <I2C_masterSendMultipleByteNext>
    5478:	eaffffe5 	b	5414 <i2c0InterruptHandler+0x24>

0000547c <master_tx_1MHz_var_duty>:
    547c:	e92d4070 	push	{r4, r5, r6, lr}
    5480:	e3065f0c 	movw	r5, #28428	; 0x6f0c
    5484:	e3405000 	movt	r5, #0
    5488:	e3a04000 	mov	r4, #0
    548c:	e34e4650 	movt	r4, #58960	; 0xe650
    5490:	e2851008 	add	r1, r5, #8
    5494:	e1a00004 	mov	r0, r4
    5498:	ebfffcec 	bl	4850 <I2C_masterInit>
    549c:	e3e01000 	mvn	r1, #0
    54a0:	e1a00004 	mov	r0, r4
    54a4:	ebfffdae 	bl	4b64 <I2C_masterClearInterruptStatus>
    54a8:	e3a01019 	mov	r1, #25
    54ac:	e1a00004 	mov	r0, r4
    54b0:	ebfffda0 	bl	4b38 <I2C_masterEnableInterrupt>
    54b4:	e1a00004 	mov	r0, r4
    54b8:	ebfffd96 	bl	4b18 <I2C_masterEnable>
    54bc:	e3a06902 	mov	r6, #32768	; 0x8000
    54c0:	e34e6650 	movt	r6, #58960	; 0xe650
    54c4:	e2851010 	add	r1, r5, #16
    54c8:	e1a00006 	mov	r0, r6
    54cc:	ebfffbf6 	bl	44ac <I2C_slaveInit>
    54d0:	e3e01000 	mvn	r1, #0
    54d4:	e1a00006 	mov	r0, r6
    54d8:	ebfffcb6 	bl	47b8 <I2C_slaveClearInterruptStatus>
    54dc:	e3a01013 	mov	r1, #19
    54e0:	e1a00006 	mov	r0, r6
    54e4:	ebfffca8 	bl	478c <I2C_slaveEnableInterrupt>
    54e8:	e1a00006 	mov	r0, r6
    54ec:	ebfffc9c 	bl	4764 <I2C_slaveEnable>
    54f0:	ebfff0c7 	bl	1814 <GIC_enable>
    54f4:	e30513f0 	movw	r1, #21488	; 0x53f0
    54f8:	e3401000 	movt	r1, #0
    54fc:	e300010e 	movw	r0, #270	; 0x10e
    5500:	ebfff118 	bl	1968 <GIC_setInterruptHandler>
    5504:	e305133c 	movw	r1, #21308	; 0x533c
    5508:	e3401000 	movt	r1, #0
    550c:	e300010f 	movw	r0, #271	; 0x10f
    5510:	ebfff114 	bl	1968 <GIC_setInterruptHandler>
    5514:	e300010e 	movw	r0, #270	; 0x10e
    5518:	ebfff0d4 	bl	1870 <GIC_enableInterrupt>
    551c:	e300010f 	movw	r0, #271	; 0x10f
    5520:	ebfff0d2 	bl	1870 <GIC_enableInterrupt>
    5524:	e3003194 	movw	r3, #404	; 0x194
    5528:	e34e3630 	movt	r3, #58928	; 0xe630
    552c:	e593200c 	ldr	r2, [r3, #12]
    5530:	e2821001 	add	r1, r2, #1
    5534:	e583100c 	str	r1, [r3, #12]
    5538:	e7951102 	ldr	r1, [r5, r2, lsl #2]
    553c:	e1a00004 	mov	r0, r4
    5540:	ebfffd8b 	bl	4b74 <I2C_masterSendMultipleByteStart>
    5544:	e3002194 	movw	r2, #404	; 0x194
    5548:	e34e2630 	movt	r2, #58928	; 0xe630
    554c:	e5d23010 	ldrb	r3, [r2, #16]
    5550:	e31300ff 	tst	r3, #255	; 0xff
    5554:	0afffffc 	beq	554c <master_tx_1MHz_var_duty+0xd0>
    5558:	e3003194 	movw	r3, #404	; 0x194
    555c:	e34e3630 	movt	r3, #58928	; 0xe630
    5560:	e5933004 	ldr	r3, [r3, #4]
    5564:	e35300aa 	cmp	r3, #170	; 0xaa
    5568:	1a000005 	bne	5584 <master_tx_1MHz_var_duty+0x108>
    556c:	e3003194 	movw	r3, #404	; 0x194
    5570:	e34e3630 	movt	r3, #58928	; 0xe630
    5574:	e5930008 	ldr	r0, [r3, #8]
    5578:	e2500055 	subs	r0, r0, #85	; 0x55
    557c:	13a00001 	movne	r0, #1
    5580:	e8bd8070 	pop	{r4, r5, r6, pc}
    5584:	e3a00001 	mov	r0, #1
    5588:	e8bd8070 	pop	{r4, r5, r6, pc}

0000558c <i2c1InterruptHandler>:
    558c:	e92d4010 	push	{r4, lr}
    5590:	e3a00902 	mov	r0, #32768	; 0x8000
    5594:	e34e0650 	movt	r0, #58960	; 0xe650
    5598:	ebfffd6e 	bl	4b58 <I2C_masterGetInterruptStatus>
    559c:	e1a04000 	mov	r4, r0
    55a0:	e3100001 	tst	r0, #1
    55a4:	1a00000b 	bne	55d8 <i2c1InterruptHandler+0x4c>
    55a8:	e3100008 	tst	r0, #8
    55ac:	1a00000d 	bne	55e8 <i2c1InterruptHandler+0x5c>
    55b0:	e3140010 	tst	r4, #16
    55b4:	130031a8 	movwne	r3, #424	; 0x1a8
    55b8:	134e3630 	movtne	r3, #58928	; 0xe630
    55bc:	13a02001 	movne	r2, #1
    55c0:	15c32004 	strbne	r2, [r3, #4]
    55c4:	e1a01004 	mov	r1, r4
    55c8:	e3a00902 	mov	r0, #32768	; 0x8000
    55cc:	e34e0650 	movt	r0, #58960	; 0xe650
    55d0:	ebfffd63 	bl	4b64 <I2C_masterClearInterruptStatus>
    55d4:	e8bd8010 	pop	{r4, pc}
    55d8:	e3a00902 	mov	r0, #32768	; 0x8000
    55dc:	e34e0650 	movt	r0, #58960	; 0xe650
    55e0:	ebfffdb6 	bl	4cc0 <I2C_masterDisableStartGeneration>
    55e4:	eafffff1 	b	55b0 <i2c1InterruptHandler+0x24>
    55e8:	e30031a8 	movw	r3, #424	; 0x1a8
    55ec:	e34e3630 	movt	r3, #58928	; 0xe630
    55f0:	e5932000 	ldr	r2, [r3]
    55f4:	e2821001 	add	r1, r2, #1
    55f8:	e5831000 	str	r1, [r3]
    55fc:	e3063f24 	movw	r3, #28452	; 0x6f24
    5600:	e3403000 	movt	r3, #0
    5604:	e7931102 	ldr	r1, [r3, r2, lsl #2]
    5608:	e3a00902 	mov	r0, #32768	; 0x8000
    560c:	e34e0650 	movt	r0, #58960	; 0xe650
    5610:	ebfffd5c 	bl	4b88 <I2C_masterSendMultipleByteNext>
    5614:	eaffffe5 	b	55b0 <i2c1InterruptHandler+0x24>

00005618 <i2c0InterruptHandler>:
    5618:	e92d4070 	push	{r4, r5, r6, lr}
    561c:	e3a00000 	mov	r0, #0
    5620:	e34e0650 	movt	r0, #58960	; 0xe650
    5624:	ebfffd4b 	bl	4b58 <I2C_masterGetInterruptStatus>
    5628:	e1a01000 	mov	r1, r0
    562c:	e3100020 	tst	r0, #32
    5630:	130031a8 	movwne	r3, #424	; 0x1a8
    5634:	134e3630 	movtne	r3, #58928	; 0xe630
    5638:	13a02001 	movne	r2, #1
    563c:	15c32005 	strbne	r2, [r3, #5]
    5640:	e3a04000 	mov	r4, #0
    5644:	e34e4650 	movt	r4, #58960	; 0xe650
    5648:	e1a00004 	mov	r0, r4
    564c:	ebfffd44 	bl	4b64 <I2C_masterClearInterruptStatus>
    5650:	e1a00004 	mov	r0, r4
    5654:	ebfffc54 	bl	47ac <I2C_slaveGetInterruptStatus>
    5658:	e1a04000 	mov	r4, r0
    565c:	e3100002 	tst	r0, #2
    5660:	0a00000a 	beq	5690 <i2c0InterruptHandler+0x78>
    5664:	e30031a8 	movw	r3, #424	; 0x1a8
    5668:	e34e3630 	movt	r3, #58928	; 0xe630
    566c:	e5932008 	ldr	r2, [r3, #8]
    5670:	e5933008 	ldr	r3, [r3, #8]
    5674:	e3530000 	cmp	r3, #0
    5678:	0a000009 	beq	56a4 <i2c0InterruptHandler+0x8c>
    567c:	e30031a8 	movw	r3, #424	; 0x1a8
    5680:	e34e3630 	movt	r3, #58928	; 0xe630
    5684:	e5933008 	ldr	r3, [r3, #8]
    5688:	e3530001 	cmp	r3, #1
    568c:	0a00000f 	beq	56d0 <i2c0InterruptHandler+0xb8>
    5690:	e1a01004 	mov	r1, r4
    5694:	e3a00000 	mov	r0, #0
    5698:	e34e0650 	movt	r0, #58960	; 0xe650
    569c:	ebfffc45 	bl	47b8 <I2C_slaveClearInterruptStatus>
    56a0:	e8bd8070 	pop	{r4, r5, r6, pc}
    56a4:	e30051a8 	movw	r5, #424	; 0x1a8
    56a8:	e34e5630 	movt	r5, #58928	; 0xe630
    56ac:	e5956008 	ldr	r6, [r5, #8]
    56b0:	e2863001 	add	r3, r6, #1
    56b4:	e5853008 	str	r3, [r5, #8]
    56b8:	e3a00000 	mov	r0, #0
    56bc:	e34e0650 	movt	r0, #58960	; 0xe650
    56c0:	ebfffc47 	bl	47e4 <I2C_slaveReceiveMultipleByteStop>
    56c4:	e0855106 	add	r5, r5, r6, lsl #2
    56c8:	e585000c 	str	r0, [r5, #12]
    56cc:	eaffffef 	b	5690 <i2c0InterruptHandler+0x78>
    56d0:	e30051a8 	movw	r5, #424	; 0x1a8
    56d4:	e34e5630 	movt	r5, #58928	; 0xe630
    56d8:	e5956008 	ldr	r6, [r5, #8]
    56dc:	e2863001 	add	r3, r6, #1
    56e0:	e5853008 	str	r3, [r5, #8]
    56e4:	e3a00000 	mov	r0, #0
    56e8:	e34e0650 	movt	r0, #58960	; 0xe650
    56ec:	ebfffc42 	bl	47fc <I2C_slaveReceiveMultipleByteFinish>
    56f0:	e0855106 	add	r5, r5, r6, lsl #2
    56f4:	e585000c 	str	r0, [r5, #12]
    56f8:	eaffffe4 	b	5690 <i2c0InterruptHandler+0x78>

000056fc <master_arbitration_lost>:
    56fc:	e92d4070 	push	{r4, r5, r6, lr}
    5700:	e3065f24 	movw	r5, #28452	; 0x6f24
    5704:	e3405000 	movt	r5, #0
    5708:	e3a04000 	mov	r4, #0
    570c:	e34e4650 	movt	r4, #58960	; 0xe650
    5710:	e2851008 	add	r1, r5, #8
    5714:	e1a00004 	mov	r0, r4
    5718:	ebfffc4c 	bl	4850 <I2C_masterInit>
    571c:	e3e01000 	mvn	r1, #0
    5720:	e1a00004 	mov	r0, r4
    5724:	ebfffd0e 	bl	4b64 <I2C_masterClearInterruptStatus>
    5728:	e3e01000 	mvn	r1, #0
    572c:	e1a00004 	mov	r0, r4
    5730:	ebfffd00 	bl	4b38 <I2C_masterEnableInterrupt>
    5734:	e1a00004 	mov	r0, r4
    5738:	ebfffcf6 	bl	4b18 <I2C_masterEnable>
    573c:	e2851010 	add	r1, r5, #16
    5740:	e1a00004 	mov	r0, r4
    5744:	ebfffb58 	bl	44ac <I2C_slaveInit>
    5748:	e3e01000 	mvn	r1, #0
    574c:	e1a00004 	mov	r0, r4
    5750:	ebfffc18 	bl	47b8 <I2C_slaveClearInterruptStatus>
    5754:	e3e01000 	mvn	r1, #0
    5758:	e1a00004 	mov	r0, r4
    575c:	ebfffc0a 	bl	478c <I2C_slaveEnableInterrupt>
    5760:	e1a00004 	mov	r0, r4
    5764:	ebfffbfe 	bl	4764 <I2C_slaveEnable>
    5768:	e3a06902 	mov	r6, #32768	; 0x8000
    576c:	e34e6650 	movt	r6, #58960	; 0xe650
    5770:	e2851018 	add	r1, r5, #24
    5774:	e1a00006 	mov	r0, r6
    5778:	ebfffc34 	bl	4850 <I2C_masterInit>
    577c:	e3e01000 	mvn	r1, #0
    5780:	e1a00006 	mov	r0, r6
    5784:	ebfffcf6 	bl	4b64 <I2C_masterClearInterruptStatus>
    5788:	e3e01000 	mvn	r1, #0
    578c:	e1a00006 	mov	r0, r6
    5790:	ebfffce8 	bl	4b38 <I2C_masterEnableInterrupt>
    5794:	e1a00006 	mov	r0, r6
    5798:	ebfffcde 	bl	4b18 <I2C_masterEnable>
    579c:	ebfff01c 	bl	1814 <GIC_enable>
    57a0:	e3051618 	movw	r1, #22040	; 0x5618
    57a4:	e3401000 	movt	r1, #0
    57a8:	e300010e 	movw	r0, #270	; 0x10e
    57ac:	ebfff06d 	bl	1968 <GIC_setInterruptHandler>
    57b0:	e305158c 	movw	r1, #21900	; 0x558c
    57b4:	e3401000 	movt	r1, #0
    57b8:	e300010f 	movw	r0, #271	; 0x10f
    57bc:	ebfff069 	bl	1968 <GIC_setInterruptHandler>
    57c0:	e300010e 	movw	r0, #270	; 0x10e
    57c4:	ebfff029 	bl	1870 <GIC_enableInterrupt>
    57c8:	e300010f 	movw	r0, #271	; 0x10f
    57cc:	ebfff027 	bl	1870 <GIC_enableInterrupt>
    57d0:	e3a010aa 	mov	r1, #170	; 0xaa
    57d4:	e1a00006 	mov	r0, r6
    57d8:	ebfffce5 	bl	4b74 <I2C_masterSendMultipleByteStart>
    57dc:	e30031a8 	movw	r3, #424	; 0x1a8
    57e0:	e34e3630 	movt	r3, #58928	; 0xe630
    57e4:	e5932000 	ldr	r2, [r3]
    57e8:	e2821001 	add	r1, r2, #1
    57ec:	e5831000 	str	r1, [r3]
    57f0:	e7951102 	ldr	r1, [r5, r2, lsl #2]
    57f4:	e1a00004 	mov	r0, r4
    57f8:	ebfffcdd 	bl	4b74 <I2C_masterSendMultipleByteStart>
    57fc:	e30021a8 	movw	r2, #424	; 0x1a8
    5800:	e34e2630 	movt	r2, #58928	; 0xe630
    5804:	e5d23004 	ldrb	r3, [r2, #4]
    5808:	e31300ff 	tst	r3, #255	; 0xff
    580c:	0afffffc 	beq	5804 <master_arbitration_lost+0x108>
    5810:	e3a04000 	mov	r4, #0
    5814:	e34e4650 	movt	r4, #58960	; 0xe650
    5818:	e1a00004 	mov	r0, r4
    581c:	ebfffcc1 	bl	4b28 <I2C_masterDisable>
    5820:	e1a00004 	mov	r0, r4
    5824:	ebfffbd2 	bl	4774 <I2C_slaveDisable>
    5828:	e3a00902 	mov	r0, #32768	; 0x8000
    582c:	e34e0650 	movt	r0, #58960	; 0xe650
    5830:	ebfffcbc 	bl	4b28 <I2C_masterDisable>
    5834:	e30031a8 	movw	r3, #424	; 0x1a8
    5838:	e34e3630 	movt	r3, #58928	; 0xe630
    583c:	e593300c 	ldr	r3, [r3, #12]
    5840:	e35300aa 	cmp	r3, #170	; 0xaa
    5844:	1a000005 	bne	5860 <master_arbitration_lost+0x164>
    5848:	e30031a8 	movw	r3, #424	; 0x1a8
    584c:	e34e3630 	movt	r3, #58928	; 0xe630
    5850:	e5930010 	ldr	r0, [r3, #16]
    5854:	e2500055 	subs	r0, r0, #85	; 0x55
    5858:	13a00001 	movne	r0, #1
    585c:	e8bd8070 	pop	{r4, r5, r6, pc}
    5860:	e3a00001 	mov	r0, #1
    5864:	e8bd8070 	pop	{r4, r5, r6, pc}

00005868 <i2c1InterruptHandler>:
    5868:	e92d4070 	push	{r4, r5, r6, lr}
    586c:	e3a00902 	mov	r0, #32768	; 0x8000
    5870:	e34e0650 	movt	r0, #58960	; 0xe650
    5874:	ebfffbcc 	bl	47ac <I2C_slaveGetInterruptStatus>
    5878:	e1a04000 	mov	r4, r0
    587c:	e3100002 	tst	r0, #2
    5880:	0a00000a 	beq	58b0 <i2c1InterruptHandler+0x48>
    5884:	e30031bc 	movw	r3, #444	; 0x1bc
    5888:	e34e3630 	movt	r3, #58928	; 0xe630
    588c:	e5932000 	ldr	r2, [r3]
    5890:	e5933000 	ldr	r3, [r3]
    5894:	e3530000 	cmp	r3, #0
    5898:	0a000009 	beq	58c4 <i2c1InterruptHandler+0x5c>
    589c:	e30031bc 	movw	r3, #444	; 0x1bc
    58a0:	e34e3630 	movt	r3, #58928	; 0xe630
    58a4:	e5933000 	ldr	r3, [r3]
    58a8:	e3530001 	cmp	r3, #1
    58ac:	0a00000f 	beq	58f0 <i2c1InterruptHandler+0x88>
    58b0:	e1a01004 	mov	r1, r4
    58b4:	e3a00902 	mov	r0, #32768	; 0x8000
    58b8:	e34e0650 	movt	r0, #58960	; 0xe650
    58bc:	ebfffbbd 	bl	47b8 <I2C_slaveClearInterruptStatus>
    58c0:	e8bd8070 	pop	{r4, r5, r6, pc}
    58c4:	e30051bc 	movw	r5, #444	; 0x1bc
    58c8:	e34e5630 	movt	r5, #58928	; 0xe630
    58cc:	e5956000 	ldr	r6, [r5]
    58d0:	e2863001 	add	r3, r6, #1
    58d4:	e5853000 	str	r3, [r5]
    58d8:	e3a00902 	mov	r0, #32768	; 0x8000
    58dc:	e34e0650 	movt	r0, #58960	; 0xe650
    58e0:	ebfffbbf 	bl	47e4 <I2C_slaveReceiveMultipleByteStop>
    58e4:	e0855106 	add	r5, r5, r6, lsl #2
    58e8:	e5850004 	str	r0, [r5, #4]
    58ec:	eaffffef 	b	58b0 <i2c1InterruptHandler+0x48>
    58f0:	e30051bc 	movw	r5, #444	; 0x1bc
    58f4:	e34e5630 	movt	r5, #58928	; 0xe630
    58f8:	e5956000 	ldr	r6, [r5]
    58fc:	e2863001 	add	r3, r6, #1
    5900:	e5853000 	str	r3, [r5]
    5904:	e3a00902 	mov	r0, #32768	; 0x8000
    5908:	e34e0650 	movt	r0, #58960	; 0xe650
    590c:	ebfffbba 	bl	47fc <I2C_slaveReceiveMultipleByteFinish>
    5910:	e0855106 	add	r5, r5, r6, lsl #2
    5914:	e5850004 	str	r0, [r5, #4]
    5918:	eaffffe4 	b	58b0 <i2c1InterruptHandler+0x48>

0000591c <i2c0InterruptHandler>:
    591c:	e92d4010 	push	{r4, lr}
    5920:	e3a00000 	mov	r0, #0
    5924:	e34e0650 	movt	r0, #58960	; 0xe650
    5928:	ebfffc8a 	bl	4b58 <I2C_masterGetInterruptStatus>
    592c:	e1a04000 	mov	r4, r0
    5930:	e3100001 	tst	r0, #1
    5934:	1a00000b 	bne	5968 <i2c0InterruptHandler+0x4c>
    5938:	e3100008 	tst	r0, #8
    593c:	1a00000d 	bne	5978 <i2c0InterruptHandler+0x5c>
    5940:	e3140010 	tst	r4, #16
    5944:	130031bc 	movwne	r3, #444	; 0x1bc
    5948:	134e3630 	movtne	r3, #58928	; 0xe630
    594c:	13a02001 	movne	r2, #1
    5950:	15c32010 	strbne	r2, [r3, #16]
    5954:	e1a01004 	mov	r1, r4
    5958:	e3a00000 	mov	r0, #0
    595c:	e34e0650 	movt	r0, #58960	; 0xe650
    5960:	ebfffc7f 	bl	4b64 <I2C_masterClearInterruptStatus>
    5964:	e8bd8010 	pop	{r4, pc}
    5968:	e3a00000 	mov	r0, #0
    596c:	e34e0650 	movt	r0, #58960	; 0xe650
    5970:	ebfffcd2 	bl	4cc0 <I2C_masterDisableStartGeneration>
    5974:	eafffff1 	b	5940 <i2c0InterruptHandler+0x24>
    5978:	e30031bc 	movw	r3, #444	; 0x1bc
    597c:	e34e3630 	movt	r3, #58928	; 0xe630
    5980:	e593200c 	ldr	r2, [r3, #12]
    5984:	e2821001 	add	r1, r2, #1
    5988:	e583100c 	str	r1, [r3, #12]
    598c:	e3063f44 	movw	r3, #28484	; 0x6f44
    5990:	e3403000 	movt	r3, #0
    5994:	e7931102 	ldr	r1, [r3, r2, lsl #2]
    5998:	e3a00000 	mov	r0, #0
    599c:	e34e0650 	movt	r0, #58960	; 0xe650
    59a0:	ebfffc78 	bl	4b88 <I2C_masterSendMultipleByteNext>
    59a4:	eaffffe5 	b	5940 <i2c0InterruptHandler+0x24>

000059a8 <master_tx_400kHz_var_duty>:
    59a8:	e92d4070 	push	{r4, r5, r6, lr}
    59ac:	e3065f44 	movw	r5, #28484	; 0x6f44
    59b0:	e3405000 	movt	r5, #0
    59b4:	e3a04000 	mov	r4, #0
    59b8:	e34e4650 	movt	r4, #58960	; 0xe650
    59bc:	e2851008 	add	r1, r5, #8
    59c0:	e1a00004 	mov	r0, r4
    59c4:	ebfffba1 	bl	4850 <I2C_masterInit>
    59c8:	e3e01000 	mvn	r1, #0
    59cc:	e1a00004 	mov	r0, r4
    59d0:	ebfffc63 	bl	4b64 <I2C_masterClearInterruptStatus>
    59d4:	e3a01019 	mov	r1, #25
    59d8:	e1a00004 	mov	r0, r4
    59dc:	ebfffc55 	bl	4b38 <I2C_masterEnableInterrupt>
    59e0:	e1a00004 	mov	r0, r4
    59e4:	ebfffc4b 	bl	4b18 <I2C_masterEnable>
    59e8:	e3a06902 	mov	r6, #32768	; 0x8000
    59ec:	e34e6650 	movt	r6, #58960	; 0xe650
    59f0:	e2851010 	add	r1, r5, #16
    59f4:	e1a00006 	mov	r0, r6
    59f8:	ebfffaab 	bl	44ac <I2C_slaveInit>
    59fc:	e3e01000 	mvn	r1, #0
    5a00:	e1a00006 	mov	r0, r6
    5a04:	ebfffb6b 	bl	47b8 <I2C_slaveClearInterruptStatus>
    5a08:	e3a01013 	mov	r1, #19
    5a0c:	e1a00006 	mov	r0, r6
    5a10:	ebfffb5d 	bl	478c <I2C_slaveEnableInterrupt>
    5a14:	e1a00006 	mov	r0, r6
    5a18:	ebfffb51 	bl	4764 <I2C_slaveEnable>
    5a1c:	ebffef7c 	bl	1814 <GIC_enable>
    5a20:	e305191c 	movw	r1, #22812	; 0x591c
    5a24:	e3401000 	movt	r1, #0
    5a28:	e300010e 	movw	r0, #270	; 0x10e
    5a2c:	ebffefcd 	bl	1968 <GIC_setInterruptHandler>
    5a30:	e3051868 	movw	r1, #22632	; 0x5868
    5a34:	e3401000 	movt	r1, #0
    5a38:	e300010f 	movw	r0, #271	; 0x10f
    5a3c:	ebffefc9 	bl	1968 <GIC_setInterruptHandler>
    5a40:	e300010e 	movw	r0, #270	; 0x10e
    5a44:	ebffef89 	bl	1870 <GIC_enableInterrupt>
    5a48:	e300010f 	movw	r0, #271	; 0x10f
    5a4c:	ebffef87 	bl	1870 <GIC_enableInterrupt>
    5a50:	e30031bc 	movw	r3, #444	; 0x1bc
    5a54:	e34e3630 	movt	r3, #58928	; 0xe630
    5a58:	e593200c 	ldr	r2, [r3, #12]
    5a5c:	e2821001 	add	r1, r2, #1
    5a60:	e583100c 	str	r1, [r3, #12]
    5a64:	e7951102 	ldr	r1, [r5, r2, lsl #2]
    5a68:	e1a00004 	mov	r0, r4
    5a6c:	ebfffc40 	bl	4b74 <I2C_masterSendMultipleByteStart>
    5a70:	e30021bc 	movw	r2, #444	; 0x1bc
    5a74:	e34e2630 	movt	r2, #58928	; 0xe630
    5a78:	e5d23010 	ldrb	r3, [r2, #16]
    5a7c:	e31300ff 	tst	r3, #255	; 0xff
    5a80:	0afffffc 	beq	5a78 <master_tx_400kHz_var_duty+0xd0>
    5a84:	e30031bc 	movw	r3, #444	; 0x1bc
    5a88:	e34e3630 	movt	r3, #58928	; 0xe630
    5a8c:	e5933004 	ldr	r3, [r3, #4]
    5a90:	e35300aa 	cmp	r3, #170	; 0xaa
    5a94:	1a000005 	bne	5ab0 <master_tx_400kHz_var_duty+0x108>
    5a98:	e30031bc 	movw	r3, #444	; 0x1bc
    5a9c:	e34e3630 	movt	r3, #58928	; 0xe630
    5aa0:	e5930008 	ldr	r0, [r3, #8]
    5aa4:	e2500055 	subs	r0, r0, #85	; 0x55
    5aa8:	13a00001 	movne	r0, #1
    5aac:	e8bd8070 	pop	{r4, r5, r6, pc}
    5ab0:	e3a00001 	mov	r0, #1
    5ab4:	e8bd8070 	pop	{r4, r5, r6, pc}

00005ab8 <sdmac1ch1InterruptHandler>:
    5ab8:	e3a03a01 	mov	r3, #4096	; 0x1000
    5abc:	e34e3730 	movt	r3, #59184	; 0xe730
    5ac0:	e593300c 	ldr	r3, [r3, #12]
    5ac4:	e3130002 	tst	r3, #2
    5ac8:	012fff1e 	bxeq	lr
    5acc:	e92d4010 	push	{r4, lr}
    5ad0:	e3a03a01 	mov	r3, #4096	; 0x1000
    5ad4:	e34e3730 	movt	r3, #59184	; 0xe730
    5ad8:	e593200c 	ldr	r2, [r3, #12]
    5adc:	e7c0201f 	bfc	r2, #0, #1
    5ae0:	e583200c 	str	r2, [r3, #12]
    5ae4:	e593200c 	ldr	r2, [r3, #12]
    5ae8:	e7c1209f 	bfc	r2, #1, #1
    5aec:	e583200c 	str	r2, [r3, #12]
    5af0:	e3a00902 	mov	r0, #32768	; 0x8000
    5af4:	e34e0650 	movt	r0, #58960	; 0xe650
    5af8:	ebfffb50 	bl	4840 <I2C_slaveDisableDMATransmit>
    5afc:	e30031d0 	movw	r3, #464	; 0x1d0
    5b00:	e34e3630 	movt	r3, #58928	; 0xe630
    5b04:	e3a02001 	mov	r2, #1
    5b08:	e5c32000 	strb	r2, [r3]
    5b0c:	e8bd8010 	pop	{r4, pc}

00005b10 <sdmac1ch0InterruptHandler>:
    5b10:	e3a03000 	mov	r3, #0
    5b14:	e34e3730 	movt	r3, #59184	; 0xe730
    5b18:	e593300c 	ldr	r3, [r3, #12]
    5b1c:	e3130002 	tst	r3, #2
    5b20:	012fff1e 	bxeq	lr
    5b24:	e92d4010 	push	{r4, lr}
    5b28:	e3a03000 	mov	r3, #0
    5b2c:	e34e3730 	movt	r3, #59184	; 0xe730
    5b30:	e593200c 	ldr	r2, [r3, #12]
    5b34:	e7c0201f 	bfc	r2, #0, #1
    5b38:	e583200c 	str	r2, [r3, #12]
    5b3c:	e593200c 	ldr	r2, [r3, #12]
    5b40:	e7c1209f 	bfc	r2, #1, #1
    5b44:	e583200c 	str	r2, [r3, #12]
    5b48:	e3a03000 	mov	r3, #0
    5b4c:	e34e3735 	movt	r3, #59189	; 0xe735
    5b50:	e3a02000 	mov	r2, #0
    5b54:	e5832060 	str	r2, [r3, #96]	; 0x60
    5b58:	e1a00002 	mov	r0, r2
    5b5c:	e34e0650 	movt	r0, #58960	; 0xe650
    5b60:	ebfffc3e 	bl	4c60 <I2C_masterDisableDMAReceive>
    5b64:	e30031d0 	movw	r3, #464	; 0x1d0
    5b68:	e34e3630 	movt	r3, #58928	; 0xe630
    5b6c:	e3a02001 	mov	r2, #1
    5b70:	e5c32001 	strb	r2, [r3, #1]
    5b74:	e8bd8010 	pop	{r4, pc}

00005b78 <i2c0InterruptHandler>:
    5b78:	e92d4070 	push	{r4, r5, r6, lr}
    5b7c:	e3a00000 	mov	r0, #0
    5b80:	e34e0650 	movt	r0, #58960	; 0xe650
    5b84:	ebfffbf3 	bl	4b58 <I2C_masterGetInterruptStatus>
    5b88:	e1a04000 	mov	r4, r0
    5b8c:	e3100001 	tst	r0, #1
    5b90:	1a000011 	bne	5bdc <i2c0InterruptHandler+0x64>
    5b94:	e3100002 	tst	r0, #2
    5b98:	0a000012 	beq	5be8 <i2c0InterruptHandler+0x70>
    5b9c:	e30031d0 	movw	r3, #464	; 0x1d0
    5ba0:	e34e3630 	movt	r3, #58928	; 0xe630
    5ba4:	e5d33002 	ldrb	r3, [r3, #2]
    5ba8:	e31300ff 	tst	r3, #255	; 0xff
    5bac:	1a00001a 	bne	5c1c <i2c0InterruptHandler+0xa4>
    5bb0:	e3a03000 	mov	r3, #0
    5bb4:	e34e3735 	movt	r3, #59189	; 0xe735
    5bb8:	e3a05001 	mov	r5, #1
    5bbc:	e5835060 	str	r5, [r3, #96]	; 0x60
    5bc0:	e3a00000 	mov	r0, #0
    5bc4:	e34e0650 	movt	r0, #58960	; 0xe650
    5bc8:	ebfffc20 	bl	4c50 <I2C_masterEnableDMAReceive>
    5bcc:	e30031d0 	movw	r3, #464	; 0x1d0
    5bd0:	e34e3630 	movt	r3, #58928	; 0xe630
    5bd4:	e5c35002 	strb	r5, [r3, #2]
    5bd8:	ea000002 	b	5be8 <i2c0InterruptHandler+0x70>
    5bdc:	e3a00000 	mov	r0, #0
    5be0:	e34e0650 	movt	r0, #58960	; 0xe650
    5be4:	ebfffc35 	bl	4cc0 <I2C_masterDisableStartGeneration>
    5be8:	e3140010 	tst	r4, #16
    5bec:	0a000005 	beq	5c08 <i2c0InterruptHandler+0x90>
    5bf0:	e30031d0 	movw	r3, #464	; 0x1d0
    5bf4:	e34e3630 	movt	r3, #58928	; 0xe630
    5bf8:	e5d31000 	ldrb	r1, [r3]
    5bfc:	e5d32001 	ldrb	r2, [r3, #1]
    5c00:	e0022001 	and	r2, r2, r1
    5c04:	e5c32003 	strb	r2, [r3, #3]
    5c08:	e1a01004 	mov	r1, r4
    5c0c:	e3a00000 	mov	r0, #0
    5c10:	e34e0650 	movt	r0, #58960	; 0xe650
    5c14:	ebfffbd2 	bl	4b64 <I2C_masterClearInterruptStatus>
    5c18:	e8bd8070 	pop	{r4, r5, r6, pc}
    5c1c:	e3a00000 	mov	r0, #0
    5c20:	e34e0650 	movt	r0, #58960	; 0xe650
    5c24:	ebfffbd9 	bl	4b90 <I2C_masterSendMultipleByteStop>
    5c28:	eaffffee 	b	5be8 <i2c0InterruptHandler+0x70>

00005c2c <i2c1InterruptHandler>:
    5c2c:	e92d4010 	push	{r4, lr}
    5c30:	e3a00902 	mov	r0, #32768	; 0x8000
    5c34:	e34e0650 	movt	r0, #58960	; 0xe650
    5c38:	ebfffadb 	bl	47ac <I2C_slaveGetInterruptStatus>
    5c3c:	e1a04000 	mov	r4, r0
    5c40:	e3100008 	tst	r0, #8
    5c44:	0a000004 	beq	5c5c <i2c1InterruptHandler+0x30>
    5c48:	e30031d0 	movw	r3, #464	; 0x1d0
    5c4c:	e34e3630 	movt	r3, #58928	; 0xe630
    5c50:	e5d33004 	ldrb	r3, [r3, #4]
    5c54:	e31300ff 	tst	r3, #255	; 0xff
    5c58:	0a000004 	beq	5c70 <i2c1InterruptHandler+0x44>
    5c5c:	e1a01004 	mov	r1, r4
    5c60:	e3a00902 	mov	r0, #32768	; 0x8000
    5c64:	e34e0650 	movt	r0, #58960	; 0xe650
    5c68:	ebfffad2 	bl	47b8 <I2C_slaveClearInterruptStatus>
    5c6c:	e8bd8010 	pop	{r4, pc}
    5c70:	e3a00902 	mov	r0, #32768	; 0x8000
    5c74:	e34e0650 	movt	r0, #58960	; 0xe650
    5c78:	ebfffaec 	bl	4830 <I2C_slaveEnableDMATransmit>
    5c7c:	e30031d0 	movw	r3, #464	; 0x1d0
    5c80:	e34e3630 	movt	r3, #58928	; 0xe630
    5c84:	e3a02001 	mov	r2, #1
    5c88:	e5c32004 	strb	r2, [r3, #4]
    5c8c:	eafffff2 	b	5c5c <i2c1InterruptHandler+0x30>

00005c90 <master_rx_dma>:
    5c90:	e92d41f0 	push	{r4, r5, r6, r7, r8, lr}
    5c94:	e3a01009 	mov	r1, #9
    5c98:	e3020c1c 	movw	r0, #11292	; 0x2c1c
    5c9c:	e34e0615 	movt	r0, #58901	; 0xe615
    5ca0:	ebfff47b 	bl	2e94 <CPG_SetBit>
    5ca4:	e3a01009 	mov	r1, #9
    5ca8:	e3020c9c 	movw	r0, #11420	; 0x2c9c
    5cac:	e34e0615 	movt	r0, #58901	; 0xe615
    5cb0:	ebfff477 	bl	2e94 <CPG_SetBit>
    5cb4:	e3a03000 	mov	r3, #0
    5cb8:	e34e3730 	movt	r3, #59184	; 0xe730
    5cbc:	e3a02024 	mov	r2, #36	; 0x24
    5cc0:	e34e2650 	movt	r2, #58960	; 0xe650
    5cc4:	e5832000 	str	r2, [r3]
    5cc8:	e59f2240 	ldr	r2, [pc, #576]	; 5f10 <master_rx_dma+0x280>
    5ccc:	e5832004 	str	r2, [r3, #4]
    5cd0:	e5932008 	ldr	r2, [r3, #8]
    5cd4:	e3a05002 	mov	r5, #2
    5cd8:	e7d72015 	bfi	r2, r5, #0, #24
    5cdc:	e5832008 	str	r2, [r3, #8]
    5ce0:	e593200c 	ldr	r2, [r3, #12]
    5ce4:	e3a07001 	mov	r7, #1
    5ce8:	e7cf2717 	bfi	r2, r7, #14, #2
    5cec:	e583200c 	str	r2, [r3, #12]
    5cf0:	e593200c 	ldr	r2, [r3, #12]
    5cf4:	e7cd261f 	bfc	r2, #12, #2
    5cf8:	e583200c 	str	r2, [r3, #12]
    5cfc:	e593200c 	ldr	r2, [r3, #12]
    5d00:	e3a08008 	mov	r8, #8
    5d04:	e7cb2418 	bfi	r2, r8, #8, #4
    5d08:	e583200c 	str	r2, [r3, #12]
    5d0c:	e593200c 	ldr	r2, [r3, #12]
    5d10:	e7d52a1f 	bfc	r2, #20, #2
    5d14:	e583200c 	str	r2, [r3, #12]
    5d18:	e593200c 	ldr	r2, [r3, #12]
    5d1c:	e7c42195 	bfi	r2, r5, #3, #2
    5d20:	e583200c 	str	r2, [r3, #12]
    5d24:	e3a02090 	mov	r2, #144	; 0x90
    5d28:	e1c324b0 	strh	r2, [r3, #64]	; 0x40
    5d2c:	e593200c 	ldr	r2, [r3, #12]
    5d30:	e3822004 	orr	r2, r2, #4
    5d34:	e583200c 	str	r2, [r3, #12]
    5d38:	e593200c 	ldr	r2, [r3, #12]
    5d3c:	e1822007 	orr	r2, r2, r7
    5d40:	e583200c 	str	r2, [r3, #12]
    5d44:	e3066f5c 	movw	r6, #28508	; 0x6f5c
    5d48:	e3406000 	movt	r6, #0
    5d4c:	e3a04000 	mov	r4, #0
    5d50:	e34e4650 	movt	r4, #58960	; 0xe650
    5d54:	e1a01006 	mov	r1, r6
    5d58:	e1a00004 	mov	r0, r4
    5d5c:	ebfffabb 	bl	4850 <I2C_masterInit>
    5d60:	e3e01000 	mvn	r1, #0
    5d64:	e1a00004 	mov	r0, r4
    5d68:	ebfffb7d 	bl	4b64 <I2C_masterClearInterruptStatus>
    5d6c:	e3e01000 	mvn	r1, #0
    5d70:	e1a00004 	mov	r0, r4
    5d74:	ebfffb6f 	bl	4b38 <I2C_masterEnableInterrupt>
    5d78:	e1a00004 	mov	r0, r4
    5d7c:	ebfffb65 	bl	4b18 <I2C_masterEnable>
    5d80:	e286200c 	add	r2, r6, #12
    5d84:	e3a03a01 	mov	r3, #4096	; 0x1000
    5d88:	e34e3730 	movt	r3, #59184	; 0xe730
    5d8c:	e5832000 	str	r2, [r3]
    5d90:	e3082024 	movw	r2, #32804	; 0x8024
    5d94:	e34e2650 	movt	r2, #58960	; 0xe650
    5d98:	e5832004 	str	r2, [r3, #4]
    5d9c:	e5932008 	ldr	r2, [r3, #8]
    5da0:	e7d72017 	bfi	r2, r7, #0, #24
    5da4:	e5832008 	str	r2, [r3, #8]
    5da8:	e593200c 	ldr	r2, [r3, #12]
    5dac:	e7cf271f 	bfc	r2, #14, #2
    5db0:	e583200c 	str	r2, [r3, #12]
    5db4:	e593200c 	ldr	r2, [r3, #12]
    5db8:	e7cd2617 	bfi	r2, r7, #12, #2
    5dbc:	e583200c 	str	r2, [r3, #12]
    5dc0:	e593200c 	ldr	r2, [r3, #12]
    5dc4:	e7cb2418 	bfi	r2, r8, #8, #4
    5dc8:	e583200c 	str	r2, [r3, #12]
    5dcc:	e593200c 	ldr	r2, [r3, #12]
    5dd0:	e7d52a1f 	bfc	r2, #20, #2
    5dd4:	e583200c 	str	r2, [r3, #12]
    5dd8:	e593200c 	ldr	r2, [r3, #12]
    5ddc:	e7c42195 	bfi	r2, r5, #3, #2
    5de0:	e583200c 	str	r2, [r3, #12]
    5de4:	e3a020a3 	mov	r2, #163	; 0xa3
    5de8:	e1c324b0 	strh	r2, [r3, #64]	; 0x40
    5dec:	e593200c 	ldr	r2, [r3, #12]
    5df0:	e3822004 	orr	r2, r2, #4
    5df4:	e583200c 	str	r2, [r3, #12]
    5df8:	e593200c 	ldr	r2, [r3, #12]
    5dfc:	e1822007 	orr	r2, r2, r7
    5e00:	e583200c 	str	r2, [r3, #12]
    5e04:	e3a05902 	mov	r5, #32768	; 0x8000
    5e08:	e34e5650 	movt	r5, #58960	; 0xe650
    5e0c:	e2861010 	add	r1, r6, #16
    5e10:	e1a00005 	mov	r0, r5
    5e14:	ebfff9a4 	bl	44ac <I2C_slaveInit>
    5e18:	e3e01000 	mvn	r1, #0
    5e1c:	e1a00005 	mov	r0, r5
    5e20:	ebfffa64 	bl	47b8 <I2C_slaveClearInterruptStatus>
    5e24:	e3e01000 	mvn	r1, #0
    5e28:	e1a00005 	mov	r0, r5
    5e2c:	ebfffa56 	bl	478c <I2C_slaveEnableInterrupt>
    5e30:	e3a010aa 	mov	r1, #170	; 0xaa
    5e34:	e1a00005 	mov	r0, r5
    5e38:	ebfffa72 	bl	4808 <I2C_slaveSetData>
    5e3c:	e1a00005 	mov	r0, r5
    5e40:	ebfffa47 	bl	4764 <I2C_slaveEnable>
    5e44:	ebffee72 	bl	1814 <GIC_enable>
    5e48:	e3051c2c 	movw	r1, #23596	; 0x5c2c
    5e4c:	e3401000 	movt	r1, #0
    5e50:	e300010f 	movw	r0, #271	; 0x10f
    5e54:	ebffeec3 	bl	1968 <GIC_setInterruptHandler>
    5e58:	e3051b78 	movw	r1, #23416	; 0x5b78
    5e5c:	e3401000 	movt	r1, #0
    5e60:	e300010e 	movw	r0, #270	; 0x10e
    5e64:	ebffeebf 	bl	1968 <GIC_setInterruptHandler>
    5e68:	e3051b10 	movw	r1, #23312	; 0x5b10
    5e6c:	e3401000 	movt	r1, #0
    5e70:	e3a00040 	mov	r0, #64	; 0x40
    5e74:	ebffeebb 	bl	1968 <GIC_setInterruptHandler>
    5e78:	e3051ab8 	movw	r1, #23224	; 0x5ab8
    5e7c:	e3401000 	movt	r1, #0
    5e80:	e3a00041 	mov	r0, #65	; 0x41
    5e84:	ebffeeb7 	bl	1968 <GIC_setInterruptHandler>
    5e88:	e300010f 	movw	r0, #271	; 0x10f
    5e8c:	ebffee77 	bl	1870 <GIC_enableInterrupt>
    5e90:	e300010e 	movw	r0, #270	; 0x10e
    5e94:	ebffee75 	bl	1870 <GIC_enableInterrupt>
    5e98:	e3a00040 	mov	r0, #64	; 0x40
    5e9c:	ebffee73 	bl	1870 <GIC_enableInterrupt>
    5ea0:	e3a00041 	mov	r0, #65	; 0x41
    5ea4:	ebffee71 	bl	1870 <GIC_enableInterrupt>
    5ea8:	e1a00004 	mov	r0, r4
    5eac:	ebfffb3b 	bl	4ba0 <I2C_masterReceiveStart>
    5eb0:	e30021d0 	movw	r2, #464	; 0x1d0
    5eb4:	e34e2630 	movt	r2, #58928	; 0xe630
    5eb8:	e5d23003 	ldrb	r3, [r2, #3]
    5ebc:	e31300ff 	tst	r3, #255	; 0xff
    5ec0:	0afffffc 	beq	5eb8 <master_rx_dma+0x228>
    5ec4:	e3a00000 	mov	r0, #0
    5ec8:	e34e0650 	movt	r0, #58960	; 0xe650
    5ecc:	ebfffb15 	bl	4b28 <I2C_masterDisable>
    5ed0:	e3a00902 	mov	r0, #32768	; 0x8000
    5ed4:	e34e0650 	movt	r0, #58960	; 0xe650
    5ed8:	ebfffa25 	bl	4774 <I2C_slaveDisable>
    5edc:	e30031d0 	movw	r3, #464	; 0x1d0
    5ee0:	e34e3630 	movt	r3, #58928	; 0xe630
    5ee4:	e5d33008 	ldrb	r3, [r3, #8]
    5ee8:	e35300aa 	cmp	r3, #170	; 0xaa
    5eec:	1a000005 	bne	5f08 <master_rx_dma+0x278>
    5ef0:	e30031d0 	movw	r3, #464	; 0x1d0
    5ef4:	e34e3630 	movt	r3, #58928	; 0xe630
    5ef8:	e5d3000c 	ldrb	r0, [r3, #12]
    5efc:	e2500055 	subs	r0, r0, #85	; 0x55
    5f00:	13a00001 	movne	r0, #1
    5f04:	e8bd81f0 	pop	{r4, r5, r6, r7, r8, pc}
    5f08:	e3a00001 	mov	r0, #1
    5f0c:	e8bd81f0 	pop	{r4, r5, r6, r7, r8, pc}
    5f10:	e63001d8 	.word	0xe63001d8

00005f14 <UndefinedInstruction_Handler>:
    5f14:	e92d4010 	push	{r4, lr}
    5f18:	ebfffc25 	bl	4fb4 <Sim_Stop>
    5f1c:	eafffffe 	b	5f1c <UndefinedInstruction_Handler+0x8>

00005f20 <SupervisorCall_Handler>:
    5f20:	e92d4010 	push	{r4, lr}
    5f24:	ebfffc22 	bl	4fb4 <Sim_Stop>
    5f28:	eafffffe 	b	5f28 <SupervisorCall_Handler+0x8>

00005f2c <PrefetchAbort_Handler>:
    5f2c:	e92d4010 	push	{r4, lr}
    5f30:	ebfffc1f 	bl	4fb4 <Sim_Stop>
    5f34:	eafffffe 	b	5f34 <PrefetchAbort_Handler+0x8>

00005f38 <DataAbort_Handler>:
    5f38:	e92d4010 	push	{r4, lr}
    5f3c:	ebfffc1c 	bl	4fb4 <Sim_Stop>
    5f40:	eafffffe 	b	5f40 <DataAbort_Handler+0x8>

00005f44 <IRQ_Handler>:
    5f44:	e92d4010 	push	{r4, lr}
    5f48:	ebffee7f 	bl	194c <GIC_getACKID>
    5f4c:	ebffee8a 	bl	197c <GIC_executeInterruptHandler>
    5f50:	e8bd8010 	pop	{r4, pc}

00005f54 <i2c1InterruptHandler>:
    5f54:	e92d4070 	push	{r4, r5, r6, lr}
    5f58:	e3a00902 	mov	r0, #32768	; 0x8000
    5f5c:	e34e0650 	movt	r0, #58960	; 0xe650
    5f60:	ebfffa11 	bl	47ac <I2C_slaveGetInterruptStatus>
    5f64:	e1a04000 	mov	r4, r0
    5f68:	e3100002 	tst	r0, #2
    5f6c:	0a00000a 	beq	5f9c <i2c1InterruptHandler+0x48>
    5f70:	e30031e0 	movw	r3, #480	; 0x1e0
    5f74:	e34e3630 	movt	r3, #58928	; 0xe630
    5f78:	e5932000 	ldr	r2, [r3]
    5f7c:	e5933000 	ldr	r3, [r3]
    5f80:	e3530000 	cmp	r3, #0
    5f84:	0a000009 	beq	5fb0 <i2c1InterruptHandler+0x5c>
    5f88:	e30031e0 	movw	r3, #480	; 0x1e0
    5f8c:	e34e3630 	movt	r3, #58928	; 0xe630
    5f90:	e5933000 	ldr	r3, [r3]
    5f94:	e3530001 	cmp	r3, #1
    5f98:	0a00000f 	beq	5fdc <i2c1InterruptHandler+0x88>
    5f9c:	e1a01004 	mov	r1, r4
    5fa0:	e3a00902 	mov	r0, #32768	; 0x8000
    5fa4:	e34e0650 	movt	r0, #58960	; 0xe650
    5fa8:	ebfffa02 	bl	47b8 <I2C_slaveClearInterruptStatus>
    5fac:	e8bd8070 	pop	{r4, r5, r6, pc}
    5fb0:	e30051e0 	movw	r5, #480	; 0x1e0
    5fb4:	e34e5630 	movt	r5, #58928	; 0xe630
    5fb8:	e5956000 	ldr	r6, [r5]
    5fbc:	e2863001 	add	r3, r6, #1
    5fc0:	e5853000 	str	r3, [r5]
    5fc4:	e3a00902 	mov	r0, #32768	; 0x8000
    5fc8:	e34e0650 	movt	r0, #58960	; 0xe650
    5fcc:	ebfffa04 	bl	47e4 <I2C_slaveReceiveMultipleByteStop>
    5fd0:	e0855106 	add	r5, r5, r6, lsl #2
    5fd4:	e5850004 	str	r0, [r5, #4]
    5fd8:	eaffffef 	b	5f9c <i2c1InterruptHandler+0x48>
    5fdc:	e30051e0 	movw	r5, #480	; 0x1e0
    5fe0:	e34e5630 	movt	r5, #58928	; 0xe630
    5fe4:	e5956000 	ldr	r6, [r5]
    5fe8:	e2863001 	add	r3, r6, #1
    5fec:	e5853000 	str	r3, [r5]
    5ff0:	e3a00902 	mov	r0, #32768	; 0x8000
    5ff4:	e34e0650 	movt	r0, #58960	; 0xe650
    5ff8:	ebfff9ff 	bl	47fc <I2C_slaveReceiveMultipleByteFinish>
    5ffc:	e0855106 	add	r5, r5, r6, lsl #2
    6000:	e5850004 	str	r0, [r5, #4]
    6004:	eaffffe4 	b	5f9c <i2c1InterruptHandler+0x48>

00006008 <i2c0InterruptHandler>:
    6008:	e92d4010 	push	{r4, lr}
    600c:	e3a00000 	mov	r0, #0
    6010:	e34e0650 	movt	r0, #58960	; 0xe650
    6014:	ebfffacf 	bl	4b58 <I2C_masterGetInterruptStatus>
    6018:	e1a04000 	mov	r4, r0
    601c:	e3100001 	tst	r0, #1
    6020:	1a00000b 	bne	6054 <i2c0InterruptHandler+0x4c>
    6024:	e3100008 	tst	r0, #8
    6028:	1a00000d 	bne	6064 <i2c0InterruptHandler+0x5c>
    602c:	e3140010 	tst	r4, #16
    6030:	130031e0 	movwne	r3, #480	; 0x1e0
    6034:	134e3630 	movtne	r3, #58928	; 0xe630
    6038:	13a02001 	movne	r2, #1
    603c:	15c32010 	strbne	r2, [r3, #16]
    6040:	e1a01004 	mov	r1, r4
    6044:	e3a00000 	mov	r0, #0
    6048:	e34e0650 	movt	r0, #58960	; 0xe650
    604c:	ebfffac4 	bl	4b64 <I2C_masterClearInterruptStatus>
    6050:	e8bd8010 	pop	{r4, pc}
    6054:	e3a00000 	mov	r0, #0
    6058:	e34e0650 	movt	r0, #58960	; 0xe650
    605c:	ebfffb17 	bl	4cc0 <I2C_masterDisableStartGeneration>
    6060:	eafffff1 	b	602c <i2c0InterruptHandler+0x24>
    6064:	e30031e0 	movw	r3, #480	; 0x1e0
    6068:	e34e3630 	movt	r3, #58928	; 0xe630
    606c:	e593200c 	ldr	r2, [r3, #12]
    6070:	e2821001 	add	r1, r2, #1
    6074:	e583100c 	str	r1, [r3, #12]
    6078:	e3063f74 	movw	r3, #28532	; 0x6f74
    607c:	e3403000 	movt	r3, #0
    6080:	e7931102 	ldr	r1, [r3, r2, lsl #2]
    6084:	e3a00000 	mov	r0, #0
    6088:	e34e0650 	movt	r0, #58960	; 0xe650
    608c:	ebfffabd 	bl	4b88 <I2C_masterSendMultipleByteNext>
    6090:	eaffffe5 	b	602c <i2c0InterruptHandler+0x24>

00006094 <master_tx_50kHz>:
    6094:	e92d4070 	push	{r4, r5, r6, lr}
    6098:	e3065f74 	movw	r5, #28532	; 0x6f74
    609c:	e3405000 	movt	r5, #0
    60a0:	e3a04000 	mov	r4, #0
    60a4:	e34e4650 	movt	r4, #58960	; 0xe650
    60a8:	e2851008 	add	r1, r5, #8
    60ac:	e1a00004 	mov	r0, r4
    60b0:	ebfff9e6 	bl	4850 <I2C_masterInit>
    60b4:	e3e01000 	mvn	r1, #0
    60b8:	e1a00004 	mov	r0, r4
    60bc:	ebfffaa8 	bl	4b64 <I2C_masterClearInterruptStatus>
    60c0:	e3a01019 	mov	r1, #25
    60c4:	e1a00004 	mov	r0, r4
    60c8:	ebfffa9a 	bl	4b38 <I2C_masterEnableInterrupt>
    60cc:	e1a00004 	mov	r0, r4
    60d0:	ebfffa90 	bl	4b18 <I2C_masterEnable>
    60d4:	e3a06902 	mov	r6, #32768	; 0x8000
    60d8:	e34e6650 	movt	r6, #58960	; 0xe650
    60dc:	e2851010 	add	r1, r5, #16
    60e0:	e1a00006 	mov	r0, r6
    60e4:	ebfff8f0 	bl	44ac <I2C_slaveInit>
    60e8:	e3e01000 	mvn	r1, #0
    60ec:	e1a00006 	mov	r0, r6
    60f0:	ebfff9b0 	bl	47b8 <I2C_slaveClearInterruptStatus>
    60f4:	e3a01013 	mov	r1, #19
    60f8:	e1a00006 	mov	r0, r6
    60fc:	ebfff9a2 	bl	478c <I2C_slaveEnableInterrupt>
    6100:	e1a00006 	mov	r0, r6
    6104:	ebfff996 	bl	4764 <I2C_slaveEnable>
    6108:	ebffedc1 	bl	1814 <GIC_enable>
    610c:	e3061008 	movw	r1, #24584	; 0x6008
    6110:	e3401000 	movt	r1, #0
    6114:	e300010e 	movw	r0, #270	; 0x10e
    6118:	ebffee12 	bl	1968 <GIC_setInterruptHandler>
    611c:	e3051f54 	movw	r1, #24404	; 0x5f54
    6120:	e3401000 	movt	r1, #0
    6124:	e300010f 	movw	r0, #271	; 0x10f
    6128:	ebffee0e 	bl	1968 <GIC_setInterruptHandler>
    612c:	e300010e 	movw	r0, #270	; 0x10e
    6130:	ebffedce 	bl	1870 <GIC_enableInterrupt>
    6134:	e300010f 	movw	r0, #271	; 0x10f
    6138:	ebffedcc 	bl	1870 <GIC_enableInterrupt>
    613c:	e30031e0 	movw	r3, #480	; 0x1e0
    6140:	e34e3630 	movt	r3, #58928	; 0xe630
    6144:	e593200c 	ldr	r2, [r3, #12]
    6148:	e2821001 	add	r1, r2, #1
    614c:	e583100c 	str	r1, [r3, #12]
    6150:	e7951102 	ldr	r1, [r5, r2, lsl #2]
    6154:	e1a00004 	mov	r0, r4
    6158:	ebfffa85 	bl	4b74 <I2C_masterSendMultipleByteStart>
    615c:	e30021e0 	movw	r2, #480	; 0x1e0
    6160:	e34e2630 	movt	r2, #58928	; 0xe630
    6164:	e5d23010 	ldrb	r3, [r2, #16]
    6168:	e31300ff 	tst	r3, #255	; 0xff
    616c:	0afffffc 	beq	6164 <master_tx_50kHz+0xd0>
    6170:	e30031e0 	movw	r3, #480	; 0x1e0
    6174:	e34e3630 	movt	r3, #58928	; 0xe630
    6178:	e5933004 	ldr	r3, [r3, #4]
    617c:	e35300aa 	cmp	r3, #170	; 0xaa
    6180:	1a000005 	bne	619c <master_tx_50kHz+0x108>
    6184:	e30031e0 	movw	r3, #480	; 0x1e0
    6188:	e34e3630 	movt	r3, #58928	; 0xe630
    618c:	e5930008 	ldr	r0, [r3, #8]
    6190:	e2500055 	subs	r0, r0, #85	; 0x55
    6194:	13a00001 	movne	r0, #1
    6198:	e8bd8070 	pop	{r4, r5, r6, pc}
    619c:	e3a00001 	mov	r0, #1
    61a0:	e8bd8070 	pop	{r4, r5, r6, pc}

000061a4 <sdmac1ch1InterruptHandler>:
    61a4:	e3a03a01 	mov	r3, #4096	; 0x1000
    61a8:	e34e3730 	movt	r3, #59184	; 0xe730
    61ac:	e593300c 	ldr	r3, [r3, #12]
    61b0:	e3130002 	tst	r3, #2
    61b4:	012fff1e 	bxeq	lr
    61b8:	e30021f4 	movw	r2, #500	; 0x1f4
    61bc:	e34e2630 	movt	r2, #58928	; 0xe630
    61c0:	e5923000 	ldr	r3, [r2]
    61c4:	e2833001 	add	r3, r3, #1
    61c8:	e5823000 	str	r3, [r2]
    61cc:	e3530001 	cmp	r3, #1
    61d0:	8a000017 	bhi	6234 <sdmac1ch1InterruptHandler+0x90>
    61d4:	e3a03a01 	mov	r3, #4096	; 0x1000
    61d8:	e34e3730 	movt	r3, #59184	; 0xe730
    61dc:	e593200c 	ldr	r2, [r3, #12]
    61e0:	e7c0201f 	bfc	r2, #0, #1
    61e4:	e583200c 	str	r2, [r3, #12]
    61e8:	e30021f4 	movw	r2, #500	; 0x1f4
    61ec:	e34e2630 	movt	r2, #58928	; 0xe630
    61f0:	e5921000 	ldr	r1, [r2]
    61f4:	e3062f8c 	movw	r2, #28556	; 0x6f8c
    61f8:	e3402000 	movt	r2, #0
    61fc:	e0822181 	add	r2, r2, r1, lsl #3
    6200:	e2822004 	add	r2, r2, #4
    6204:	e5832000 	str	r2, [r3]
    6208:	e5932008 	ldr	r2, [r3, #8]
    620c:	e3a01002 	mov	r1, #2
    6210:	e7d72011 	bfi	r2, r1, #0, #24
    6214:	e5832008 	str	r2, [r3, #8]
    6218:	e593200c 	ldr	r2, [r3, #12]
    621c:	e7c1209f 	bfc	r2, #1, #1
    6220:	e583200c 	str	r2, [r3, #12]
    6224:	e593200c 	ldr	r2, [r3, #12]
    6228:	e3822001 	orr	r2, r2, #1
    622c:	e583200c 	str	r2, [r3, #12]
    6230:	e12fff1e 	bx	lr
    6234:	e92d4010 	push	{r4, lr}
    6238:	e3a03a01 	mov	r3, #4096	; 0x1000
    623c:	e34e3730 	movt	r3, #59184	; 0xe730
    6240:	e593200c 	ldr	r2, [r3, #12]
    6244:	e7c0201f 	bfc	r2, #0, #1
    6248:	e583200c 	str	r2, [r3, #12]
    624c:	e593200c 	ldr	r2, [r3, #12]
    6250:	e7c1209f 	bfc	r2, #1, #1
    6254:	e583200c 	str	r2, [r3, #12]
    6258:	e3a00902 	mov	r0, #32768	; 0x8000
    625c:	e34e0650 	movt	r0, #58960	; 0xe650
    6260:	ebfff976 	bl	4840 <I2C_slaveDisableDMATransmit>
    6264:	e30031f4 	movw	r3, #500	; 0x1f4
    6268:	e34e3630 	movt	r3, #58928	; 0xe630
    626c:	e3a02001 	mov	r2, #1
    6270:	e5c32004 	strb	r2, [r3, #4]
    6274:	e8bd8010 	pop	{r4, pc}

00006278 <sdmac1ch0InterruptHandler>:
    6278:	e3a03000 	mov	r3, #0
    627c:	e34e3730 	movt	r3, #59184	; 0xe730
    6280:	e593300c 	ldr	r3, [r3, #12]
    6284:	e3130002 	tst	r3, #2
    6288:	012fff1e 	bxeq	lr
    628c:	e92d4010 	push	{r4, lr}
    6290:	e3a03000 	mov	r3, #0
    6294:	e34e3730 	movt	r3, #59184	; 0xe730
    6298:	e593200c 	ldr	r2, [r3, #12]
    629c:	e7c0201f 	bfc	r2, #0, #1
    62a0:	e583200c 	str	r2, [r3, #12]
    62a4:	e593200c 	ldr	r2, [r3, #12]
    62a8:	e7c1209f 	bfc	r2, #1, #1
    62ac:	e583200c 	str	r2, [r3, #12]
    62b0:	e3a03000 	mov	r3, #0
    62b4:	e34e3735 	movt	r3, #59189	; 0xe735
    62b8:	e3a02000 	mov	r2, #0
    62bc:	e5832060 	str	r2, [r3, #96]	; 0x60
    62c0:	e1a00002 	mov	r0, r2
    62c4:	e34e0650 	movt	r0, #58960	; 0xe650
    62c8:	ebfffa64 	bl	4c60 <I2C_masterDisableDMAReceive>
    62cc:	e30031f4 	movw	r3, #500	; 0x1f4
    62d0:	e34e3630 	movt	r3, #58928	; 0xe630
    62d4:	e3a02001 	mov	r2, #1
    62d8:	e5c32005 	strb	r2, [r3, #5]
    62dc:	e8bd8010 	pop	{r4, pc}

000062e0 <i2c1InterruptHandler>:
    62e0:	e92d4070 	push	{r4, r5, r6, lr}
    62e4:	e3a00902 	mov	r0, #32768	; 0x8000
    62e8:	e34e0650 	movt	r0, #58960	; 0xe650
    62ec:	ebfff92e 	bl	47ac <I2C_slaveGetInterruptStatus>
    62f0:	e1a04000 	mov	r4, r0
    62f4:	e3100008 	tst	r0, #8
    62f8:	0a000004 	beq	6310 <i2c1InterruptHandler+0x30>
    62fc:	e30031f4 	movw	r3, #500	; 0x1f4
    6300:	e34e3630 	movt	r3, #58928	; 0xe630
    6304:	e5d33006 	ldrb	r3, [r3, #6]
    6308:	e31300ff 	tst	r3, #255	; 0xff
    630c:	0a00000b 	beq	6340 <i2c1InterruptHandler+0x60>
    6310:	e3140010 	tst	r4, #16
    6314:	0a000004 	beq	632c <i2c1InterruptHandler+0x4c>
    6318:	e30031f4 	movw	r3, #500	; 0x1f4
    631c:	e34e3630 	movt	r3, #58928	; 0xe630
    6320:	e5d33004 	ldrb	r3, [r3, #4]
    6324:	e31300ff 	tst	r3, #255	; 0xff
    6328:	0a00000f 	beq	636c <i2c1InterruptHandler+0x8c>
    632c:	e1a01004 	mov	r1, r4
    6330:	e3a00902 	mov	r0, #32768	; 0x8000
    6334:	e34e0650 	movt	r0, #58960	; 0xe650
    6338:	ebfff91e 	bl	47b8 <I2C_slaveClearInterruptStatus>
    633c:	e8bd8070 	pop	{r4, r5, r6, pc}
    6340:	e3a03000 	mov	r3, #0
    6344:	e34e3735 	movt	r3, #59189	; 0xe735
    6348:	e3a05001 	mov	r5, #1
    634c:	e5835060 	str	r5, [r3, #96]	; 0x60
    6350:	e3a00902 	mov	r0, #32768	; 0x8000
    6354:	e34e0650 	movt	r0, #58960	; 0xe650
    6358:	ebfff934 	bl	4830 <I2C_slaveEnableDMATransmit>
    635c:	e30031f4 	movw	r3, #500	; 0x1f4
    6360:	e34e3630 	movt	r3, #58928	; 0xe630
    6364:	e5c35006 	strb	r5, [r3, #6]
    6368:	eaffffe8 	b	6310 <i2c1InterruptHandler+0x30>
    636c:	e30031f4 	movw	r3, #500	; 0x1f4
    6370:	e34e3630 	movt	r3, #58928	; 0xe630
    6374:	e5932000 	ldr	r2, [r3]
    6378:	e3063f8c 	movw	r3, #28556	; 0x6f8c
    637c:	e3403000 	movt	r3, #0
    6380:	e7d31182 	ldrb	r1, [r3, r2, lsl #3]
    6384:	e3a00902 	mov	r0, #32768	; 0x8000
    6388:	e34e0650 	movt	r0, #58960	; 0xe650
    638c:	ebfff91d 	bl	4808 <I2C_slaveSetData>
    6390:	eaffffe5 	b	632c <i2c1InterruptHandler+0x4c>

00006394 <i2c0InterruptHandler>:
    6394:	e92d4010 	push	{r4, lr}
    6398:	e3a00000 	mov	r0, #0
    639c:	e34e0650 	movt	r0, #58960	; 0xe650
    63a0:	ebfff9ec 	bl	4b58 <I2C_masterGetInterruptStatus>
    63a4:	e1a04000 	mov	r4, r0
    63a8:	e3100001 	tst	r0, #1
    63ac:	1a00000e 	bne	63ec <i2c0InterruptHandler+0x58>
    63b0:	e3100002 	tst	r0, #2
    63b4:	0a00000f 	beq	63f8 <i2c0InterruptHandler+0x64>
    63b8:	e30031f4 	movw	r3, #500	; 0x1f4
    63bc:	e34e3630 	movt	r3, #58928	; 0xe630
    63c0:	e5d33007 	ldrb	r3, [r3, #7]
    63c4:	e31300ff 	tst	r3, #255	; 0xff
    63c8:	1a000017 	bne	642c <i2c0InterruptHandler+0x98>
    63cc:	e3a03000 	mov	r3, #0
    63d0:	e34e3735 	movt	r3, #59189	; 0xe735
    63d4:	e3a02001 	mov	r2, #1
    63d8:	e5832060 	str	r2, [r3, #96]	; 0x60
    63dc:	e30031f4 	movw	r3, #500	; 0x1f4
    63e0:	e34e3630 	movt	r3, #58928	; 0xe630
    63e4:	e5c32007 	strb	r2, [r3, #7]
    63e8:	ea000002 	b	63f8 <i2c0InterruptHandler+0x64>
    63ec:	e3a00000 	mov	r0, #0
    63f0:	e34e0650 	movt	r0, #58960	; 0xe650
    63f4:	ebfffa31 	bl	4cc0 <I2C_masterDisableStartGeneration>
    63f8:	e3140010 	tst	r4, #16
    63fc:	0a000005 	beq	6418 <i2c0InterruptHandler+0x84>
    6400:	e30031f4 	movw	r3, #500	; 0x1f4
    6404:	e34e3630 	movt	r3, #58928	; 0xe630
    6408:	e5d31004 	ldrb	r1, [r3, #4]
    640c:	e5d32005 	ldrb	r2, [r3, #5]
    6410:	e0022001 	and	r2, r2, r1
    6414:	e5c32008 	strb	r2, [r3, #8]
    6418:	e1a01004 	mov	r1, r4
    641c:	e3a00000 	mov	r0, #0
    6420:	e34e0650 	movt	r0, #58960	; 0xe650
    6424:	ebfff9ce 	bl	4b64 <I2C_masterClearInterruptStatus>
    6428:	e8bd8010 	pop	{r4, pc}
    642c:	e3a00000 	mov	r0, #0
    6430:	e34e0650 	movt	r0, #58960	; 0xe650
    6434:	ebfff9d5 	bl	4b90 <I2C_masterSendMultipleByteStop>
    6438:	eaffffee 	b	63f8 <i2c0InterruptHandler+0x64>

0000643c <master_rx_dma_continuous>:
    643c:	e92d41f0 	push	{r4, r5, r6, r7, r8, lr}
    6440:	e3a01009 	mov	r1, #9
    6444:	e3020c1c 	movw	r0, #11292	; 0x2c1c
    6448:	e34e0615 	movt	r0, #58901	; 0xe615
    644c:	ebfff290 	bl	2e94 <CPG_SetBit>
    6450:	e3a01009 	mov	r1, #9
    6454:	e3020c9c 	movw	r0, #11420	; 0x2c9c
    6458:	e34e0615 	movt	r0, #58901	; 0xe615
    645c:	ebfff28c 	bl	2e94 <CPG_SetBit>
    6460:	e3a04000 	mov	r4, #0
    6464:	e34e4735 	movt	r4, #59189	; 0xe735
    6468:	e3a01002 	mov	r1, #2
    646c:	e1a00004 	mov	r0, r4
    6470:	eb0000d5 	bl	67cc <DMAC_initDescriptorMemory>
    6474:	e3a03024 	mov	r3, #36	; 0x24
    6478:	e34e3650 	movt	r3, #58960	; 0xe650
    647c:	e5843800 	str	r3, [r4, #2048]	; 0x800
    6480:	e30071f4 	movw	r7, #500	; 0x1f4
    6484:	e34e7630 	movt	r7, #58928	; 0xe630
    6488:	e287200c 	add	r2, r7, #12
    648c:	e5842804 	str	r2, [r4, #2052]	; 0x804
    6490:	e5942808 	ldr	r2, [r4, #2056]	; 0x808
    6494:	e3a05002 	mov	r5, #2
    6498:	e7d72015 	bfi	r2, r5, #0, #24
    649c:	e5842808 	str	r2, [r4, #2056]	; 0x808
    64a0:	e594280c 	ldr	r2, [r4, #2060]	; 0x80c
    64a4:	e3a08001 	mov	r8, #1
    64a8:	e7cb2518 	bfi	r2, r8, #10, #2
    64ac:	e584280c 	str	r2, [r4, #2060]	; 0x80c
    64b0:	e594280c 	ldr	r2, [r4, #2060]	; 0x80c
    64b4:	e7c9241f 	bfc	r2, #8, #2
    64b8:	e584280c 	str	r2, [r4, #2060]	; 0x80c
    64bc:	e594280c 	ldr	r2, [r4, #2060]	; 0x80c
    64c0:	e7c72315 	bfi	r2, r5, #6, #2
    64c4:	e584280c 	str	r2, [r4, #2060]	; 0x80c
    64c8:	e594280c 	ldr	r2, [r4, #2060]	; 0x80c
    64cc:	e7c32015 	bfi	r2, r5, #0, #4
    64d0:	e584280c 	str	r2, [r4, #2060]	; 0x80c
    64d4:	e594180c 	ldr	r1, [r4, #2060]	; 0x80c
    64d8:	e3a02090 	mov	r2, #144	; 0x90
    64dc:	e7d71812 	bfi	r1, r2, #16, #8
    64e0:	e584180c 	str	r1, [r4, #2060]	; 0x80c
    64e4:	e5843810 	str	r3, [r4, #2064]	; 0x810
    64e8:	e2873014 	add	r3, r7, #20
    64ec:	e5843814 	str	r3, [r4, #2068]	; 0x814
    64f0:	e5943818 	ldr	r3, [r4, #2072]	; 0x818
    64f4:	e7d73015 	bfi	r3, r5, #0, #24
    64f8:	e5843818 	str	r3, [r4, #2072]	; 0x818
    64fc:	e594381c 	ldr	r3, [r4, #2076]	; 0x81c
    6500:	e7cb3518 	bfi	r3, r8, #10, #2
    6504:	e584381c 	str	r3, [r4, #2076]	; 0x81c
    6508:	e594381c 	ldr	r3, [r4, #2076]	; 0x81c
    650c:	e7c9341f 	bfc	r3, #8, #2
    6510:	e584381c 	str	r3, [r4, #2076]	; 0x81c
    6514:	e594381c 	ldr	r3, [r4, #2076]	; 0x81c
    6518:	e7c73315 	bfi	r3, r5, #6, #2
    651c:	e584381c 	str	r3, [r4, #2076]	; 0x81c
    6520:	e594381c 	ldr	r3, [r4, #2076]	; 0x81c
    6524:	e7c33015 	bfi	r3, r5, #0, #4
    6528:	e584381c 	str	r3, [r4, #2076]	; 0x81c
    652c:	e594381c 	ldr	r3, [r4, #2076]	; 0x81c
    6530:	e7d73812 	bfi	r3, r2, #16, #8
    6534:	e584381c 	str	r3, [r4, #2076]	; 0x81c
    6538:	e3a03000 	mov	r3, #0
    653c:	e34e3730 	movt	r3, #59184	; 0xe730
    6540:	e593200c 	ldr	r2, [r3, #12]
    6544:	e7dd2e18 	bfi	r2, r8, #28, #2
    6548:	e583200c 	str	r2, [r3, #12]
    654c:	e593200c 	ldr	r2, [r3, #12]
    6550:	e382240f 	orr	r2, r2, #251658240	; 0xf000000
    6554:	e583200c 	str	r2, [r3, #12]
    6558:	e593200c 	ldr	r2, [r3, #12]
    655c:	e3822501 	orr	r2, r2, #4194304	; 0x400000
    6560:	e583200c 	str	r2, [r3, #12]
    6564:	e593201c 	ldr	r2, [r3, #28]
    6568:	e7df2c18 	bfi	r2, r8, #24, #8
    656c:	e583201c 	str	r2, [r3, #28]
    6570:	e593201c 	ldr	r2, [r3, #28]
    6574:	e3822902 	orr	r2, r2, #32768	; 0x8000
    6578:	e583201c 	str	r2, [r3, #28]
    657c:	e593200c 	ldr	r2, [r3, #12]
    6580:	e3822004 	orr	r2, r2, #4
    6584:	e583200c 	str	r2, [r3, #12]
    6588:	e593200c 	ldr	r2, [r3, #12]
    658c:	e1822008 	orr	r2, r2, r8
    6590:	e583200c 	str	r2, [r3, #12]
    6594:	e3066f8c 	movw	r6, #28556	; 0x6f8c
    6598:	e3406000 	movt	r6, #0
    659c:	e3a04000 	mov	r4, #0
    65a0:	e34e4650 	movt	r4, #58960	; 0xe650
    65a4:	e2861010 	add	r1, r6, #16
    65a8:	e1a00004 	mov	r0, r4
    65ac:	ebfff8a7 	bl	4850 <I2C_masterInit>
    65b0:	e1a01008 	mov	r1, r8
    65b4:	e1a00004 	mov	r0, r4
    65b8:	ebfff988 	bl	4be0 <I2C_masterSetDMAContinuousTransferCount>
    65bc:	e1a01005 	mov	r1, r5
    65c0:	e1a00004 	mov	r0, r4
    65c4:	ebfff989 	bl	4bf0 <I2C_masterSetDMAContinuousReceiveBlockCount>
    65c8:	e1a00004 	mov	r0, r4
    65cc:	ebfff98f 	bl	4c10 <I2C_masterEnableDMAContinuousReceive>
    65d0:	e1a00004 	mov	r0, r4
    65d4:	ebfff99d 	bl	4c50 <I2C_masterEnableDMAReceive>
    65d8:	e3e01000 	mvn	r1, #0
    65dc:	e1a00004 	mov	r0, r4
    65e0:	ebfff95f 	bl	4b64 <I2C_masterClearInterruptStatus>
    65e4:	e3e01000 	mvn	r1, #0
    65e8:	e1a00004 	mov	r0, r4
    65ec:	ebfff951 	bl	4b38 <I2C_masterEnableInterrupt>
    65f0:	e1a00004 	mov	r0, r4
    65f4:	ebfff947 	bl	4b18 <I2C_masterEnable>
    65f8:	e5972000 	ldr	r2, [r7]
    65fc:	e0862182 	add	r2, r6, r2, lsl #3
    6600:	e2822004 	add	r2, r2, #4
    6604:	e3a03a01 	mov	r3, #4096	; 0x1000
    6608:	e34e3730 	movt	r3, #59184	; 0xe730
    660c:	e5832000 	str	r2, [r3]
    6610:	e3082024 	movw	r2, #32804	; 0x8024
    6614:	e34e2650 	movt	r2, #58960	; 0xe650
    6618:	e5832004 	str	r2, [r3, #4]
    661c:	e5932008 	ldr	r2, [r3, #8]
    6620:	e7d72015 	bfi	r2, r5, #0, #24
    6624:	e5832008 	str	r2, [r3, #8]
    6628:	e593200c 	ldr	r2, [r3, #12]
    662c:	e7cf271f 	bfc	r2, #14, #2
    6630:	e583200c 	str	r2, [r3, #12]
    6634:	e593200c 	ldr	r2, [r3, #12]
    6638:	e7cd2618 	bfi	r2, r8, #12, #2
    663c:	e583200c 	str	r2, [r3, #12]
    6640:	e593200c 	ldr	r2, [r3, #12]
    6644:	e3a01008 	mov	r1, #8
    6648:	e7cb2411 	bfi	r2, r1, #8, #4
    664c:	e583200c 	str	r2, [r3, #12]
    6650:	e593200c 	ldr	r2, [r3, #12]
    6654:	e7d52a1f 	bfc	r2, #20, #2
    6658:	e583200c 	str	r2, [r3, #12]
    665c:	e593200c 	ldr	r2, [r3, #12]
    6660:	e7c42195 	bfi	r2, r5, #3, #2
    6664:	e583200c 	str	r2, [r3, #12]
    6668:	e3a020a3 	mov	r2, #163	; 0xa3
    666c:	e1c324b0 	strh	r2, [r3, #64]	; 0x40
    6670:	e593200c 	ldr	r2, [r3, #12]
    6674:	e3822004 	orr	r2, r2, #4
    6678:	e583200c 	str	r2, [r3, #12]
    667c:	e593200c 	ldr	r2, [r3, #12]
    6680:	e1822008 	orr	r2, r2, r8
    6684:	e583200c 	str	r2, [r3, #12]
    6688:	e3a05902 	mov	r5, #32768	; 0x8000
    668c:	e34e5650 	movt	r5, #58960	; 0xe650
    6690:	e2861018 	add	r1, r6, #24
    6694:	e1a00005 	mov	r0, r5
    6698:	ebfff783 	bl	44ac <I2C_slaveInit>
    669c:	e3e01000 	mvn	r1, #0
    66a0:	e1a00005 	mov	r0, r5
    66a4:	ebfff843 	bl	47b8 <I2C_slaveClearInterruptStatus>
    66a8:	e3e01004 	mvn	r1, #4
    66ac:	e1a00005 	mov	r0, r5
    66b0:	ebfff835 	bl	478c <I2C_slaveEnableInterrupt>
    66b4:	e5973000 	ldr	r3, [r7]
    66b8:	e7d61183 	ldrb	r1, [r6, r3, lsl #3]
    66bc:	e1a00005 	mov	r0, r5
    66c0:	ebfff850 	bl	4808 <I2C_slaveSetData>
    66c4:	e1a00005 	mov	r0, r5
    66c8:	ebfff825 	bl	4764 <I2C_slaveEnable>
    66cc:	ebffec50 	bl	1814 <GIC_enable>
    66d0:	e3061394 	movw	r1, #25492	; 0x6394
    66d4:	e3401000 	movt	r1, #0
    66d8:	e300010e 	movw	r0, #270	; 0x10e
    66dc:	ebffeca1 	bl	1968 <GIC_setInterruptHandler>
    66e0:	e30612e0 	movw	r1, #25312	; 0x62e0
    66e4:	e3401000 	movt	r1, #0
    66e8:	e300010f 	movw	r0, #271	; 0x10f
    66ec:	ebffec9d 	bl	1968 <GIC_setInterruptHandler>
    66f0:	e3061278 	movw	r1, #25208	; 0x6278
    66f4:	e3401000 	movt	r1, #0
    66f8:	e3a00040 	mov	r0, #64	; 0x40
    66fc:	ebffec99 	bl	1968 <GIC_setInterruptHandler>
    6700:	e30611a4 	movw	r1, #24996	; 0x61a4
    6704:	e3401000 	movt	r1, #0
    6708:	e3a00041 	mov	r0, #65	; 0x41
    670c:	ebffec95 	bl	1968 <GIC_setInterruptHandler>
    6710:	e300010e 	movw	r0, #270	; 0x10e
    6714:	ebffec55 	bl	1870 <GIC_enableInterrupt>
    6718:	e300010f 	movw	r0, #271	; 0x10f
    671c:	ebffec53 	bl	1870 <GIC_enableInterrupt>
    6720:	e3a00040 	mov	r0, #64	; 0x40
    6724:	ebffec51 	bl	1870 <GIC_enableInterrupt>
    6728:	e3a00041 	mov	r0, #65	; 0x41
    672c:	ebffec4f 	bl	1870 <GIC_enableInterrupt>
    6730:	e1a00004 	mov	r0, r4
    6734:	ebfff919 	bl	4ba0 <I2C_masterReceiveStart>
    6738:	e1a02007 	mov	r2, r7
    673c:	e5d23008 	ldrb	r3, [r2, #8]
    6740:	e31300ff 	tst	r3, #255	; 0xff
    6744:	0afffffc 	beq	673c <master_rx_dma_continuous+0x300>
    6748:	e3a00000 	mov	r0, #0
    674c:	e34e0650 	movt	r0, #58960	; 0xe650
    6750:	ebfff8f4 	bl	4b28 <I2C_masterDisable>
    6754:	e3a00902 	mov	r0, #32768	; 0x8000
    6758:	e34e0650 	movt	r0, #58960	; 0xe650
    675c:	ebfff804 	bl	4774 <I2C_slaveDisable>
    6760:	e30031f4 	movw	r3, #500	; 0x1f4
    6764:	e34e3630 	movt	r3, #58928	; 0xe630
    6768:	e5d3300c 	ldrb	r3, [r3, #12]
    676c:	e35300aa 	cmp	r3, #170	; 0xaa
    6770:	1a00000f 	bne	67b4 <master_rx_dma_continuous+0x378>
    6774:	e30031f4 	movw	r3, #500	; 0x1f4
    6778:	e34e3630 	movt	r3, #58928	; 0xe630
    677c:	e5d33010 	ldrb	r3, [r3, #16]
    6780:	e3530055 	cmp	r3, #85	; 0x55
    6784:	1a00000c 	bne	67bc <master_rx_dma_continuous+0x380>
    6788:	e30031f4 	movw	r3, #500	; 0x1f4
    678c:	e34e3630 	movt	r3, #58928	; 0xe630
    6790:	e5d33014 	ldrb	r3, [r3, #20]
    6794:	e3530055 	cmp	r3, #85	; 0x55
    6798:	1a000009 	bne	67c4 <master_rx_dma_continuous+0x388>
    679c:	e30031f4 	movw	r3, #500	; 0x1f4
    67a0:	e34e3630 	movt	r3, #58928	; 0xe630
    67a4:	e5d30018 	ldrb	r0, [r3, #24]
    67a8:	e25000aa 	subs	r0, r0, #170	; 0xaa
    67ac:	13a00001 	movne	r0, #1
    67b0:	e8bd81f0 	pop	{r4, r5, r6, r7, r8, pc}
    67b4:	e3a00001 	mov	r0, #1
    67b8:	e8bd81f0 	pop	{r4, r5, r6, r7, r8, pc}
    67bc:	e3a00001 	mov	r0, #1
    67c0:	e8bd81f0 	pop	{r4, r5, r6, r7, r8, pc}
    67c4:	e3a00001 	mov	r0, #1
    67c8:	e8bd81f0 	pop	{r4, r5, r6, r7, r8, pc}

000067cc <DMAC_initDescriptorMemory>:
    67cc:	e3510000 	cmp	r1, #0
    67d0:	012fff1e 	bxeq	lr
    67d4:	e3a0c000 	mov	ip, #0
    67d8:	e1a0200c 	mov	r2, ip
    67dc:	e080320c 	add	r3, r0, ip, lsl #4
    67e0:	e5832800 	str	r2, [r3, #2048]	; 0x800
    67e4:	e5832804 	str	r2, [r3, #2052]	; 0x804
    67e8:	e5832808 	str	r2, [r3, #2056]	; 0x808
    67ec:	e583280c 	str	r2, [r3, #2060]	; 0x80c
    67f0:	e28cc001 	add	ip, ip, #1
    67f4:	e6ef307c 	uxtb	r3, ip
    67f8:	e1510003 	cmp	r1, r3
    67fc:	8afffff6 	bhi	67dc <DMAC_initDescriptorMemory+0x10>
    6800:	e12fff1e 	bx	lr

00006804 <DMAC_configAutoTransfer>:
    6804:	e3a03000 	mov	r3, #0
    6808:	e580300c 	str	r3, [r0, #12]
    680c:	e5913000 	ldr	r3, [r1]
    6810:	e5803000 	str	r3, [r0]
    6814:	e5913008 	ldr	r3, [r1, #8]
    6818:	e5803004 	str	r3, [r0, #4]
    681c:	e5912010 	ldr	r2, [r1, #16]
    6820:	e5903008 	ldr	r3, [r0, #8]
    6824:	e7d73012 	bfi	r3, r2, #0, #24
    6828:	e5803008 	str	r3, [r0, #8]
    682c:	e5d12014 	ldrb	r2, [r1, #20]
    6830:	e590300c 	ldr	r3, [r0, #12]
    6834:	e7c43192 	bfi	r3, r2, #3, #2
    6838:	e580300c 	str	r3, [r0, #12]
    683c:	e5d13014 	ldrb	r3, [r1, #20]
    6840:	e7e13153 	ubfx	r3, r3, #2, #2
    6844:	e590200c 	ldr	r2, [r0, #12]
    6848:	e7d52a13 	bfi	r2, r3, #20, #2
    684c:	e580200c 	str	r2, [r0, #12]
    6850:	e5d12004 	ldrb	r2, [r1, #4]
    6854:	e590300c 	ldr	r3, [r0, #12]
    6858:	e7cd3612 	bfi	r3, r2, #12, #2
    685c:	e580300c 	str	r3, [r0, #12]
    6860:	e5d1200c 	ldrb	r2, [r1, #12]
    6864:	e590300c 	ldr	r3, [r0, #12]
    6868:	e7cf3712 	bfi	r3, r2, #14, #2
    686c:	e580300c 	str	r3, [r0, #12]
    6870:	e590300c 	ldr	r3, [r0, #12]
    6874:	e3a02004 	mov	r2, #4
    6878:	e7cb3412 	bfi	r3, r2, #8, #4
    687c:	e580300c 	str	r3, [r0, #12]
    6880:	e5d12015 	ldrb	r2, [r1, #21]
    6884:	e590300c 	ldr	r3, [r0, #12]
    6888:	e7c23112 	bfi	r3, r2, #2, #1
    688c:	e580300c 	str	r3, [r0, #12]
    6890:	e12fff1e 	bx	lr

00006894 <DMAC_enableChannel>:
    6894:	e590300c 	ldr	r3, [r0, #12]
    6898:	e3833001 	orr	r3, r3, #1
    689c:	e580300c 	str	r3, [r0, #12]
    68a0:	e12fff1e 	bx	lr

000068a4 <DMAC_disableChannel>:
    68a4:	e590300c 	ldr	r3, [r0, #12]
    68a8:	e7c0301f 	bfc	r3, #0, #1
    68ac:	e580300c 	str	r3, [r0, #12]
    68b0:	e12fff1e 	bx	lr

000068b4 <DMAC_enable>:
    68b4:	e3a03001 	mov	r3, #1
    68b8:	e5803060 	str	r3, [r0, #96]	; 0x60
    68bc:	e12fff1e 	bx	lr

000068c0 <DMAC_disable>:
    68c0:	e3a03000 	mov	r3, #0
    68c4:	e5803060 	str	r3, [r0, #96]	; 0x60
    68c8:	e12fff1e 	bx	lr

000068cc <sendData>:
    68cc:	000000aa 00000055                       ....U...

000068d4 <masterConfig>:
    68d4:	00005100 00000100                       .Q......

000068dc <slaveConfig>:
    68dc:	00000151 00000100                       Q.......

000068e4 <sendData>:
    68e4:	000000aa 00000055                       ....U...

000068ec <masterConfig>:
    68ec:	00005101 00000500                       .Q......

000068f4 <slaveConfig>:
    68f4:	00000151 00000500                       Q.......

000068fc <sendData>:
    68fc:	000000aa 00000055                       ....U...

00006904 <masterConfig>:
    6904:	00015100 00000500                       .Q......

0000690c <slaveConfig>:
    690c:	00000151 00000500                       Q.......

00006914 <sendData>:
    6914:	000000aa 00000055                       ....U...

0000691c <masterConfig>:
    691c:	00005100 00000500                       .Q......

00006924 <slaveConfig>:
    6924:	00000151 00000500                       Q.......

0000692c <sendData>:
    692c:	000000aa 00000055                       ....U...

00006934 <masterConfig>:
    6934:	00005100 00000300                       .Q......

0000693c <slaveConfig>:
    693c:	00000151 00000301                       Q.......

00006944 <sendData>:
    6944:	000000aa 00000055                       ....U...

0000694c <masterConfig>:
    694c:	00005100 00000400                       .Q......

00006954 <slaveConfig>:
    6954:	00000151 00000401                       Q.......

0000695c <sendData>:
    695c:	000000aa 00000055                       ....U...

00006964 <masterConfig>:
    6964:	00005100 00000100                       .Q......

0000696c <slaveConfig>:
    696c:	00000151 00000101                       Q.......

00006974 <sendData>:
    6974:	000000aa 00000055 00000055 000000aa     ....U...U.......

00006984 <masterConfig>:
    6984:	00005100 00000500                       .Q......

0000698c <slaveConfig>:
    698c:	00000051 00000500                       Q.......

00006994 <sendData>:
    6994:	000000aa 00000055                       ....U...

0000699c <masterConfig>:
    699c:	00005100 00000500                       .Q......

000069a4 <slaveConfig>:
    69a4:	00000151 00000500                       Q.......

000069ac <sendData>:
    69ac:	000000aa 00000055                       ....U...

000069b4 <masterConfig>:
    69b4:	00005100 00000500                       .Q......

000069bc <slaveConfig>:
    69bc:	00000151 00000500                       Q.......

000069c4 <sendData>:
    69c4:	000000aa 00000055                       ....U...

000069cc <masterConfig>:
    69cc:	00005100 00000500                       .Q......

000069d4 <slaveConfig>:
    69d4:	00000151 00000500                       Q.......

000069dc <sendData>:
    69dc:	000000aa 00000055                       ....U...

000069e4 <masterConfig>:
    69e4:	00005100 00000200                       .Q......

000069ec <slaveConfig>:
    69ec:	00000151 00000200                       Q.......

000069f4 <sendData>:
    69f4:	000000aa 00000055                       ....U...

000069fc <masterConfig>:
    69fc:	00005100 00000200                       .Q......

00006a04 <slaveConfig>:
    6a04:	00000151 00000201                       Q.......

00006a0c <sendData>:
    6a0c:	000000aa 00000055                       ....U...

00006a14 <masterConfig>:
    6a14:	00005100 00000400                       .Q......

00006a1c <slaveConfig>:
    6a1c:	00000151 00000400                       Q.......

00006a24 <masterConfig>:
    6a24:	00005100 00000500                       .Q......

00006a2c <slaveConfig>:
    6a2c:	00000151 00000500                       Q.......

00006a34 <sendData>:
    6a34:	000000aa 00000055                       ....U...

00006a3c <masterConfig>:
    6a3c:	00005100 00000000                       .Q......

00006a44 <slaveConfig>:
    6a44:	00000151 00000001                       Q.......

00006a4c <masterConfig>:
    6a4c:	00005101 00000500                       .Q......

00006a54 <slaveConfig>:
    6a54:	00000151 00000500                       Q.......

00006a5c <sendData>:
    6a5c:	000000aa 00000055                       ....U...

00006a64 <sendData>:
    6a64:	000000aa 00000055                       ....U...

00006a6c <masterConfig>:
    6a6c:	00005100 00000300                       .Q......

00006a74 <slaveConfig>:
    6a74:	00000151 00000300                       Q.......

00006a7c <I2C_CLOCK_SETTINGS>:
	...
    6a8c:	00000006 0000002c 00000000 00000000     ....,...........
	...
    6ab4:	00000006 00000014 00000000 00000000     ................
	...
    6adc:	00000006 00000009 00000000 00000000     ................
	...
    6b04:	00000006 00000007 00000000 00000000     ................
	...
    6b2c:	00000006 00000005 00000000 00000000     ................
	...
    6b54:	00000006 00000003 00000000 00000000     ................
	...
    6b7c:	00000006 00000003 00000000 00000000     ................
    6b8c:	00000000 00000001 00000001 00000001     ................
    6b9c:	00000001 0000000f 00000006 00000000     ................
    6bac:	0000001c 00000501 00000514 00000000     ................
    6bbc:	00000001 00000001 00000001 0000000f     ................
    6bcc:	00000006 00000000 0000001c 00000267     ............g...
    6bdc:	00000279 00000000 00000001 00000001     y...............
    6bec:	00000001 0000000f 00000006 00000000     ................
    6bfc:	0000001c 00000119 00000119 00000000     ................
    6c0c:	00000001 00000001 00000001 0000000f     ................
    6c1c:	00000006 00000000 0000001c 000000d7     ................
    6c2c:	000000e9 00000000 00000001 00000001     ................
    6c3c:	00000001 0000000f 00000006 00000000     ................
    6c4c:	0000001c 000000aa 000000bd 00000000     ................
    6c5c:	00000001 00000001 00000001 0000000f     ................
    6c6c:	00000006 00000000 0000001c 00000073     ............s...
    6c7c:	00000085 00000000 00000001 00000001     ................
    6c8c:	00000001 0000000f 00000006 00000000     ................
    6c9c:	0000001c 00000020 00000027 00000001     .... ...'.......
	...
    6cbc:	00000006 0000002c 00000000 00000000     ....,...........
	...
    6ce4:	00000006 00000014 00000000 00000000     ................
	...
    6d0c:	00000006 00000009 00000000 00000000     ................
	...
    6d34:	00000006 00000007 00000000 00000000     ................
	...
    6d5c:	00000006 00000005 00000000 00000000     ................
	...
    6d84:	00000006 00000003 00000000 00000000     ................
	...
    6dac:	00000006 00000003 00000000 00000000     ................
    6dbc:	00000000 00000001 0000000f 00000001     ................
    6dcc:	00000001 00000001 00000006 00000000     ................
    6ddc:	0000001c 00000501 00000514 00000000     ................
    6dec:	0000000f 00000001 00000001 00000001     ................
    6dfc:	00000006 00000000 0000001c 00000267     ............g...
    6e0c:	00000279 00000000 0000000f 00000001     y...............
    6e1c:	00000001 00000001 00000006 00000000     ................
    6e2c:	0000001c 00000119 00000119 00000000     ................
    6e3c:	0000000f 00000001 00000001 00000001     ................
    6e4c:	00000006 00000000 0000001c 000000d7     ................
    6e5c:	000000e9 00000000 0000000f 00000001     ................
    6e6c:	00000001 00000001 00000006 00000000     ................
    6e7c:	0000001c 000000aa 000000bd 00000000     ................
    6e8c:	0000000f 00000001 00000001 00000001     ................
    6e9c:	00000006 00000000 0000001c 00000073     ............s...
    6eac:	00000085 00000000 0000000f 00000001     ................
    6ebc:	00000001 00000001 00000006 00000000     ................
    6ecc:	0000001c 00000020 00000027 00000001     .... ...'.......

00006edc <sendData>:
    6edc:	000000aa 00000055                       ....U...

00006ee4 <masterConfig>:
    6ee4:	00005100 00000500                       .Q......

00006eec <slaveConfig>:
    6eec:	00000151 00000500                       Q.......

00006ef4 <sendData>:
    6ef4:	000000aa 00000055                       ....U...

00006efc <masterConfig>:
    6efc:	00000000 00000500                       ........

00006f04 <slaveConfig>:
    6f04:	00010151 00000500                       Q.......

00006f0c <sendData>:
    6f0c:	000000aa 00000055                       ....U...

00006f14 <masterConfig>:
    6f14:	00005100 00000600                       .Q......

00006f1c <slaveConfig>:
    6f1c:	00000151 00000601                       Q.......

00006f24 <sendData>:
    6f24:	000000aa 00000055                       ....U...

00006f2c <masterConfig0>:
    6f2c:	00005100 00000500                       .Q......

00006f34 <slaveConfig0>:
    6f34:	00000050 00000500                       P.......

00006f3c <masterConfig1>:
    6f3c:	00005000 00000500                       .P......

00006f44 <sendData>:
    6f44:	000000aa 00000055                       ....U...

00006f4c <masterConfig>:
    6f4c:	00005100 00000500                       .Q......

00006f54 <slaveConfig>:
    6f54:	00000151 00000501                       Q.......

00006f5c <masterConfig>:
    6f5c:	00005101 00000500                       .Q......

00006f64 <sendData>:
    6f64:	000000aa 00000055                       ....U...

00006f6c <slaveConfig>:
    6f6c:	00000151 00000500                       Q.......

00006f74 <sendData>:
    6f74:	000000aa 00000055                       ....U...

00006f7c <masterConfig>:
    6f7c:	00005100 00000000                       .Q......

00006f84 <slaveConfig>:
    6f84:	00000151 00000000                       Q.......

00006f8c <sendData>:
    6f8c:	000000aa 00000055 00000055 000000aa     ....U...U.......

00006f9c <masterConfig>:
    6f9c:	00005101 00000500                       .Q......

00006fa4 <slaveConfig>:
    6fa4:	00000051                                 Q.....
